ARM GAS  C:\Users\ldebo\AppData\Local\Temp\ccevlpv4.s 			page 1


   1              		.arch armv6zk
   2              		.eabi_attribute 28, 1
   3              		.eabi_attribute 20, 1
   4              		.eabi_attribute 21, 1
   5              		.eabi_attribute 23, 3
   6              		.eabi_attribute 24, 1
   7              		.eabi_attribute 25, 1
   8              		.eabi_attribute 26, 1
   9              		.eabi_attribute 30, 2
  10              		.eabi_attribute 34, 0
  11              		.eabi_attribute 18, 4
  12              		.file	"main.c"
  13              		.text
  14              		.align	2
  15              		.global	kernel_main
  16              		.syntax unified
  17              		.arm
  18              		.fpu vfp
  19              		.type	kernel_main, %function
  20              	kernel_main:
  21              		@ Volatile: function does not return.
  22              		@ args = 0, pretend = 0, frame = 0
  23              		@ frame_needed = 0, uses_anonymous_args = 0
  24 0000 10402DE9 		push	{r4, lr}
  25 0004 FEFFFFEB 		bl	InitV3D
  26 0008 0000A0E3 		mov	r0, #0
  27 000c FEFFFFEB 		bl	ARM_setmaxspeed
  28 0010 0030A0E3 		mov	r3, #0
  29 0014 2020A0E3 		mov	r2, #32
  30 0018 0310A0E1 		mov	r1, r3
  31 001c 0300A0E1 		mov	r0, r3
  32 0020 FEFFFFEB 		bl	PiConsole_Init
  33 0024 FEFFFFEB 		bl	GetConsole_Width
  34 0028 0040A0E1 		mov	r4, r0
  35 002c FEFFFFEB 		bl	GetConsole_Height
  36 0030 0050A0E1 		mov	r5, r0
  37 0034 FEFFFFEB 		bl	GetConsole_FrameBuffer
  38 0038 FEFFFFEB 		bl	ARMaddrToGPUaddr
  39 003c 7510FFE6 		uxth	r1, r5
  40 0040 0020A0E1 		mov	r2, r0
  41 0044 48309FE5 		ldr	r3, .L5+4
  42 0048 7400FFE6 		uxth	r0, r4
  43 004c FEFFFFEB 		bl	testTriangle
  44 0050 0E8A9FED 		vldr.32	s16, .L5
  45 0054 38609FE5 		ldr	r6, .L5+4
  46              	.L2:
  47 0058 480AB0EE 		vmov.f32	s0, s16
  48 005c FEFFFFEB 		bl	DoRotate
  49 0060 FEFFFFEB 		bl	GetConsole_Width
  50 0064 0040A0E1 		mov	r4, r0
  51 0068 FEFFFFEB 		bl	GetConsole_Height
  52 006c 0050A0E1 		mov	r5, r0
  53 0070 FEFFFFEB 		bl	GetConsole_FrameBuffer
  54 0074 FEFFFFEB 		bl	ARMaddrToGPUaddr
  55 0078 0630A0E1 		mov	r3, r6
  56 007c 0020A0E1 		mov	r2, r0
  57 0080 7510FFE6 		uxth	r1, r5
ARM GAS  C:\Users\ldebo\AppData\Local\Temp\ccevlpv4.s 			page 2


  58 0084 7400FFE6 		uxth	r0, r4
  59 0088 FEFFFFEB 		bl	testTriangle
  60 008c F1FFFFEA 		b	.L2
  61              	.L6:
  62              		.align	2
  63              	.L5:
  64 0090 CDCCCC3D 		.word	1036831949
  65 0094 00000000 		.word	printf
  66              		.size	kernel_main, .-kernel_main
  67              		.comm	__errno,4,4
  68              		.ident	"GCC: (GNU Tools for ARM Embedded Processors 6-2017-q2-update) 6.3.1 20170620 (release) [AR
ARM GAS  C:\Users\ldebo\AppData\Local\Temp\ccevlpv4.s 			page 3


DEFINED SYMBOLS
                            *ABS*:00000000 main.c
C:\Users\ldebo\AppData\Local\Temp\ccevlpv4.s:14     .text:00000000 $a
C:\Users\ldebo\AppData\Local\Temp\ccevlpv4.s:20     .text:00000000 kernel_main
C:\Users\ldebo\AppData\Local\Temp\ccevlpv4.s:64     .text:00000090 $d
                            *COM*:00000004 __errno

UNDEFINED SYMBOLS
InitV3D
ARM_setmaxspeed
PiConsole_Init
GetConsole_Width
GetConsole_Height
GetConsole_FrameBuffer
ARMaddrToGPUaddr
testTriangle
DoRotate
printf
ARM GAS  C:\Users\ldebo\AppData\Local\Temp\ccevlpv4.s 			page 1


   1              	# 1 "SmartStart32.S"
   1              	﻿;@"+++++++++++++++++++++++++++++++++++++++++++++++++++++++++++++++++++++++++"
   0              	
   0              	
   2              	;@"																			"			
   3              	;@"      Filename: smartstart32.s											"
   4              	;@"      Copyright(c): Leon de Boer(LdB) 2017								"
   5              	;@"      Version: 2.02														"
   6              	;@"																			"		
   7              	;@"**************[ THIS CODE IS FREEWARE UNDER CC Attribution]**************"
   8              	;@"																            "
   9              	;@"     This sourcecode is released for the purpose to promote programming  "
  10              	;@"  on the Raspberry Pi. You may redistribute it and/or modify with the    "
  11              	;@"  following disclaimer and condition.                                    "
  12              	;@"																            "
  13              	;@"      The SOURCE CODE is distributed "AS IS" WITHOUT WARRANTIES AS TO    "
  14              	;@"   PERFORMANCE OF MERCHANTABILITY WHETHER EXPRESSED OR IMPLIED.          "
  15              	;@"   Redistributions of source code must retain the copyright notices to   "
  16              	;@"   maintain the author credit (attribution) .							"
  17              	;@"																			"
  18              	;@"*************************************************************************"
  19              	;@"                                                                         "
  20              	;@"       This code expands on my earlier SmartStart bootstub assembler for "
  21              	;@" the Pi 1/2/3. It simplifies some of the autodetect code but importantly "
  22              	;@" directly supports multicore operation in C/C++. To do that it provides  "
  23              	;@" stack space to each core and provides a modified bootloader spinlock    "
  24              	;@" that protects against registers R0-R3 trashed. As any C/C++ compiler    "
  25              	;@" code will trash those registers, to use C/C++ in multicore programming  "
  26              	;@" this protection must be done.											"
  27              	;@"      The downside is this bootstub must be a little more complex in     "
  28              	;@" that it must start and setup multiple cores. The code is much more      "
  29              	;@" connected to the linker file which provides memory space to each core.  "
  30              	;@"       There is however matching paired AARCH64 stub and linker files    "
  31              	;@" so code written for this setup can be ported to AARCH64 with ease.		"
  32              	;@"																            "
  33              	;@"+++++++++++++++++++++++++++++++++++++++++++++++++++++++++++++++++++++++++"
  34              	
  35              	;@"========================================================================="
  36              	;@"				 	 ARM CPU ID CONSTANT DEFINITIONS					    "
  37              	;@"========================================================================="
  38              	.equ ARM6_CPU_ID, 0x410FB767					;@ CPU id a BCM2835 reports
  39              	.equ ARM7_CPU_ID, 0x410FC073					;@ CPU id a BCM2836 reports
  40              	.equ ARM8_CPU_ID, 0x410FD034					;@ CPU id a BCM2837 reports
  41              	
  42              	;@"========================================================================="
  43              	;@"				 	 ARM CPU MODE CONSTANT DEFINITIONS					    "
  44              	;@"========================================================================="
  45              	.equ CPU_FIQMODE, 0x11							;@ CPU in FIQ mode
  46              	.equ CPU_IRQMODE, 0x12							;@ CPU in IRQ mode
  47              	.equ CPU_SVCMODE, 0x13							;@ CPU in SVC mode
  48              	.equ CPU_HYPMODE, 0x1A							;@ CPU in HYP mode
  49              	
  50              	;@"========================================================================="
  51              	;@"				 ARM CPU IRQ/FIQ BIT CONSTANT DEFINITIONS				    "
  52              	;@"========================================================================="
  53              	#define I_Bit  (1 << 7)							// Irq flag bit in cpsr (CPUMODE register)
  54              	#define F_Bit  (1 << 6)							// Fiq flag bit in cpsr (CPUMODE register)
ARM GAS  C:\Users\ldebo\AppData\Local\Temp\ccevlpv4.s 			page 2


  55              	
  56              	;@"========================================================================="
  57              	;@"				 	 ARM CPU MODE CONSTANT DEFINITIONS					    "
  58              	;@"========================================================================="
  59              	.equ CPU_FIQMODE_VALUE, (CPU_FIQMODE | I_Bit | F_Bit)	;@ CPU in FIQ mode with irq, fiq off
  60              	.equ CPU_IRQMODE_VALUE, (CPU_IRQMODE | I_Bit | F_Bit)	;@ CPU in IRQ mode with irq, fiq off
  61              	.equ CPU_SVCMODE_VALUE, (CPU_SVCMODE | I_Bit | F_Bit)	;@ CPU in SVC mode with irq, fiq off
  62              	
  63              	;@"*************************************************************************"
  64              	;@"          INTERNAL DATA FOR SMARTSTART NOT EXPOSED TO INTERFACE			"
  65              	;@"*************************************************************************"
  66              	.section ".data.smartstart", "aw"
  67              	.balign 4
  68              	
  69 0000 00000000 	RPi_BusAlias	: .4byte 0;				// Address offset between VC4 physical address and ARM address needed f
  70              	
  71              	
  72              	
  73              	.globl RPi_CPUCurrentMode;				// Make sure RPi_CPUCurrentMode label is global
  74 0004 00000000 	RPi_CPUCurrentMode : .4byte 0;			//  CPU current Mode is 4 byte variable
  75              	
  76              	.globl RPi_Heap; @ Make sure RPi_Heap label is global
  77 0008 00000000 	RPi_Heap : .4byte 0; @ RPi_Heap is 4 byte variable
  78              	
  79              	.section ".text.startup", "ax", %progbits
  80              	.balign	4
  81              	.globl _start
  82              	.syntax unified
  83              	.arm
  84              	_start:
  85              	;@"================================================================"
  86              	;@ Grab cpu mode and start address and hold in a high register.
  87              	;@"================================================================"
  88 0000 0FC0A0E1 		mov r12, pc;							;@ Hold boot address in high register R12
  89 0004 00B00FE1 		mrs r11, CPSR							;@ Read current CPU mode
  90 0008 1FB00BE2 		and r11, r11, #0x1F						;@ Clear all but CPU mode bits in register r11
  91              	;@"================================================================"
  92              	;@ If the cpu is in HYP_MODE(EL2) we will bring it SVC_MODE (EL1).
  93              	;@"================================================================"
  94              	multicore_start:
  95 000c 00000FE1 	    mrs r0,cpsr								;@ Fetch the cpsr register which includes CPU mode bits 
  96 0010 1F1000E2 	 	and r1, r0, #0x1F						;@ Mask off the CPU mode bits to register r1                            
  97 0014 1A0051E3 	 	cmp r1, #CPU_HYPMODE					;@ Check we are in HYP_MODE											
  98 0018 0500001A 		bne .NotInHypMode						;@ Branch if not equal meaning was not in HYP_MODE  
  99 001c 1F00C0E3 		bic r0,r0,#0x1F							;@ Clear the CPU mode bits in register r0							
 100 0020 D30080E3 		orr r0, r0, #CPU_SVCMODE_VALUE			;@ SVC_MODE bits onto register with Irq/Fiq disabled	
 101 0024 00F06FE1 	    msr spsr_cxsf,r0						;@ Hold value in spsr_cxsf
 102 0028 04E08FE2 	    add lr,pc,#4							;@ Calculate address of .NotInHypMode label
 103              		/* I borrowed this trick from Ultibo because ARM6 code running on an ARM7/8 needs this opcode  */
 104              		/* The ARM6 compiler does not know these instructions so it is a way to get needed opcode here */
 105              	    /* So our ARM6 code can drop an arm7 or arm8 out of HYP mode and run on an ARM7/8.             
 106              	 	/* Native ARM7/8 compilers already understand the OPCODE but do not mind it this way either	   */
 107 002c 0EF32EE1 		.long 0xE12EF30E						;@ "msr ELR_hyp, lr" Set the address to ELR_hyp
 108 0030 6E0060E1 		.long 0xE160006E						;@ "eret" Elevated return which will exit at .NotInHypMode in SVC_MODE
 109              	.NotInHypMode:
 110              	;@"================================================================"
 111              	;@  Setup stack pointers for each core and each CPU operation mode
ARM GAS  C:\Users\ldebo\AppData\Local\Temp\ccevlpv4.s 			page 3


 112              	;@"================================================================"
 113 0034 4C229FE5 	    ldr r2, = __SVC_stack_core0				;@ Address of svc_stack_core0 stack pointer value
 114 0038 4C329FE5 	    ldr r3, = __FIQ_stack_core0				;@ Address of fiq_stack_core0 stack pointer value
 115 003c 4C429FE5 	    ldr r4, = __IRQ_stack_core0				;@ Address of irq_stack_core0 stack pointer value
 116 0040 100F10EE 		mrc p15, 0, r0, c0, c0, 0				;@ Read CPU ID Register
 117 0044 48129FE5 		ldr r1, =#ARM6_CPU_ID					;@ Fetch ARM6_CPU_ID
 118 0048 000051E1 		cmp r1, r0								;@ Check for match
 119 004c 0F00000A 		beq set_svc_stack						;@ ARM6 only has 1 core so goto set svc_stack
 120 0050 B05F10EE 		mrc p15, 0, r5, c0, c0, 5				;@ Read core id on ARM7 & ARM8
 121 0054 035015E2 		ands r5, r5, #0x3						;@ Make cpu id bitmask
 122 0058 0C00000A 		beq set_svc_stack						;@ This is core 0 so set got set svc_stack
 123 005c 34229FE5 	    ldr r2, = __SVC_stack_core1				;@ Address of svc_stack_core1 stack pointer value
 124 0060 34329FE5 	    ldr r3, = __FIQ_stack_core1				;@ Address of fiq_stack_core1 stack pointer value
 125 0064 34429FE5 	    ldr r4, = __IRQ_stack_core1				;@ Address of irq_stack_core1 stack pointer value
 126 0068 010055E3 		cmp r5, #1								;@ Check cpu id for core 1
 127 006c 0700000A 		beq set_svc_stack						;@ This is core 1 so set svc_stack
 128 0070 2C229FE5 	    ldr r2, = __SVC_stack_core2				;@ Address of svc_stack_core2 stack pointer value
 129 0074 2C329FE5 	    ldr r3, = __FIQ_stack_core2				;@ Address of fiq_stack_core2 stack pointer value
 130 0078 2C429FE5 	    ldr r4, = __IRQ_stack_core2				;@ Address of irq_stack_core2 stack pointer value
 131 007c 020055E3 		cmp r5, #2								;@ Check cpu id for core 2
 132 0080 0200000A 		beq set_svc_stack						;@ This is core 2 so set svc_stack
 133 0084 24229FE5 	    ldr r2, = __SVC_stack_core3				;@ Address of svc_stack_core3 stack pointer value
 134 0088 24329FE5 	    ldr r3, = __FIQ_stack_core3				;@ Address of fiq_stack_core3 stack pointer value
 135 008c 24429FE5 	    ldr r4, = __IRQ_stack_core3				;@ Address of irq_stack_core3 stack pointer value
 136              	set_svc_stack:
 137 0090 02D0A0E1 		mov sp, r2								;@ Set the stack pointer for SVC_MODE 
 138 0094 00000FE1 	    mrs r0,cpsr								;@ Fetch the cpsr register which includes CPU mode bits 
 139 0098 1F00C0E3 		bic r0,r0,#0x1F							;@ Clear the CPU mode bits in register r0							
 140 009c D10080E3 		orr r0, r0, #CPU_FIQMODE_VALUE			;@ FIQ_MODE bits onto register with Irq/Fiq disabled
 141 00a0 00F021E1 	    msr CPSR_c, r0							;@ Switch to FIQ_MODE
 142 00a4 03D0A0E1 		mov sp, r3								;@ Set the stack pointer for FIQ_MODE 
 143 00a8 1F00C0E3 		bic r0,r0,#0x1F							;@ Clear the CPU mode bits in register r0	
 144 00ac D20080E3 		orr r0, r0, #CPU_IRQMODE_VALUE			;@ IRQ_MODE bits onto register with Irq/Fiq disabled	
 145 00b0 00F021E1 	    msr CPSR_c, r0							;@ Switch to IRQ_MODE
 146 00b4 04D0A0E1 		mov sp, r4								;@ Set the stack pointer for IRQ_MODE 
 147 00b8 1F00C0E3 		bic r0,r0,#0x1F							;@ Clear the CPU mode bits in register r0							
 148 00bc D30080E3 		orr r0, r0, #CPU_SVCMODE_VALUE			;@ SVC_MODE bits onto register with Irq/Fiq disabled	
 149 00c0 00F021E1 	    msr CPSR_c, r0							;@ Switch to SVC_MODE again all stacks ready to go
 150              	@"================================================================"
 151              	;@ PI NSACR regsister setup for access to floating point unit
 152              	;@ Cortex A-7 => Section 4.3.34. Non-Secure Access Control Register
 153              	;@ Cortex A-53 => Section 4.5.32. Non-Secure Access Control Register
 154              	;@"================================================================"
 155 00c4 510F11EE 		mrc p15, 0, r0, c1, c1, 2				;@ Read NSACR into R0
 156 00c8 030B50E3 		cmp r0, #0x00000C00						;@ Access turned on or in AARCH32 mode and can not touch register or EL3 
 157 00cc 0100000A 		beq .free_to_enable_fpu1
 158 00d0 030B80E3 		orr r0, r0, #0x3<<10					;@ Set access to both secure and non secure modes
 159 00d4 510F01EE 		mcr p15, 0, r0, c1, c1, 2				;@ Write NSACR
 160              	;@"================================================================"
 161              	;@ Bring fpu online
 162              	;@"================================================================"
 163              	.free_to_enable_fpu1:
 164 00d8 500F11EE 		mrc p15, 0, r0, c1, c0, #2				;@ R0 = Access Control Register
 165 00dc 0F0680E3 		orr r0, #(0x300000 + 0xC00000)			;@ Enable Single & Double Precision
 166 00e0 500F01EE 		mcr p15,0,r0,c1,c0, #2					;@ Access Control Register = R0
 167 00e4 0101A0E3 		mov r0, #0x40000000						;@ R0 = Enable VFP
 168 00e8 100AE8EE 		vmsr fpexc, r0							;@ FPEXC = R0
ARM GAS  C:\Users\ldebo\AppData\Local\Temp\ccevlpv4.s 			page 4


 169              	;@"================================================================"
 170              	;@ Enable L1 cache
 171              	;@"================================================================"
 172              	.equ SCTLR_ENABLE_DATA_CACHE,			0x4
 173              	.equ SCTLR_ENABLE_BRANCH_PREDICTION,	0x800
 174              	.equ SCTLR_ENABLE_INSTRUCTION_CACHE,	0x1000
 175 00ec 100F11EE 	    mrc p15,0,r0,c1,c0,0					;@ R0 = System Control Register
 176              	
 177              	    /* Enable caches and branch prediction */
 178 00f0 020B80E3 	    orr r0, #SCTLR_ENABLE_BRANCH_PREDICTION
 179 00f4 040080E3 	    orr r0, #SCTLR_ENABLE_DATA_CACHE
 180 00f8 010A80E3 	    orr r0, #SCTLR_ENABLE_INSTRUCTION_CACHE
 181              	
 182 00fc 100F01EE 	    mcr p15,0,r0,c1,c0,0					;@ System Control Register = R0
 183              	;@"================================================================"
 184              	;@ Check if BC2835 and if so branch over multi-core park routine
 185              	;@"================================================================"
 186 0100 100F10EE 		mrc p15,0,r0,c0,c0,0					;@ Read CPU ID Register
 187 0104 88119FE5 		ldr r1, =#ARM6_CPU_ID					;@ fetch ARM6_CPU_ID
 188 0108 000051E1 		cmp r1, r0								;@ Check for match
 189 010c 0700000A 		beq .cpu0_exit_multicore_park			;@ Branch as Arm6 has only 1 CPU 
 190              	;@"================================================================"
 191              	;@ Now park Core 1,2,3 into secondary spinloop on BCM2836, BCM2837
 192              	;@ If bootloader is used this will not happen but booting with the
 193              	;@ "OldKernel=1" from 0x0000 this can happen. Core 0 continues on.
 194              	;@"================================================================"
 195 0110 B00F10EE 		mrc p15, 0, r0, c0, c0, 5				;@ Read core id on ARM7 & ARM8
 196 0114 030010E2 		ands r0, r0, #0x3					    ;@ Make core 2 bit bitmask in R0
 197 0118 0400000A 		beq  .cpu0_exit_multicore_park			;@ Core 0 jumps out
 198 011c 98119FE5 		ldr r1, =RPi_CoresReady					;@ Address of CoreReady count
 199 0120 000091E5 		ldr r0, [r1]							;@ Load current core count 
 200 0124 010080E2 		add r0, r0, #1							;@ Add one as core about to go ready
 201 0128 000081E5 		str r0, [r1]							;@ Update CoreReady count
 202 012c 810000EA 		b    SecondarySpin						;@ Jump to setup secondary spin
 203              	.cpu0_exit_multicore_park:
 204              	;@"================================================================"
 205              	;@ Now store initial CPU boot mode and address we might need later.
 206              	;@"================================================================"
 207 0130 88119FE5 		ldr r1, =RPi_BootAddr					;@ Address to hold Boot address
 208 0134 08C04CE2 		sub r12, #8								;@ Subtract op-code offset
 209 0138 00C081E5 		str r12, [r1]							;@ Save the boot address we started at
 210 013c 80119FE5 		ldr r1, =RPi_CPUBootMode				;@ Memory address to save this CPU boot mode
 211 0140 00B081E5 		str r11, [r1]							;@ Save the boot mode we started in
 212              	;@"================================================================"
 213              	;@  Initial CPU core ready so set CoreReady count to 1.
 214              	;@"================================================================"
 215 0144 0100A0E3 		mov r0, #1								;@ Core0 is will be ready
 216 0148 6C119FE5 		ldr r1, =RPi_CoresReady					;@ Memory address to save Cores ready
 217 014c 000081E5 		str r0, [r1]							;@ Set RPi_CoresReady to 1
 218              	;@"================================================================"
 219              	;@ Fetch and hold CPU changed mode. If we changed modes this value
 220              	;@ will now reflect a change from the original held RPi_CPUBootMode.
 221              	;@"================================================================"
 222 0150 00200FE1 		mrs r2, CPSR
 223 0154 1F2002E2 		and r2, r2, #0x1F						;@ Clear all but CPU mode bits in register r2
 224 0158 68119FE5 		ldr r1, =RPi_CPUCurrentMode
 225 015c 002081E5 		str r2, [r1]							;@ Hold the changed CPU mode
ARM GAS  C:\Users\ldebo\AppData\Local\Temp\ccevlpv4.s 			page 5


 226              	;@"================================================================"
 227              	;@ Read the Arm Main CPUID register => sets RPi_CpuId
 228              	;@"================================================================"
 229 0160 64119FE5 		ldr r1, =RPi_CpuId						;@ Address to hold CPU id
 230 0164 100F10EE 		mrc p15, 0, r0, c0, c0, 0				;@ Read Main ID Register
 231 0168 000081E5 		str r0, [r1]							;@ Save CPU Id for interface 
 232              	;@"================================================================"
 233              	;@ Store the compiler mode in RPi_CompileMode
 234              	;@"================================================================"
 235 016c 000020E0 		eor r0, r0, r0;							;@ Zero register
 236              	.if (__ARM_ARCH == 6)						// Compiling for ARM6
 237 0170 0600A0E3 		mov r0, #0x06							;@ Compiled for ARM6 CPU
 238              	.endif
 239              	.if (__ARM_ARCH == 7)						// Compiling for ARM7
 240              		mov r0, #0x07							;@ Compiled for ARM7 CPU
 241              	.endif
 242              	.if (__ARM_ARCH == 8)						// Compiling for ARM8
 243              		mov r0, #0x08							;@ Compiled for ARM8 CPU
 244              	.endif
 245 0174 800080E3 		orr r0, r0, #(4 << 5)					;@ Code is setup to support 4 cores			
 246 0178 50119FE5 		ldr r1, =RPi_CompileMode
 247 017c 000081E5 		str r0, [r1]							;@ Store the compiler mode  
 248              	;;@"================================================================"
 249              	;@ Try Auto-Detect Raspberry PI IO base address at 1st position
 250              	;@"================================================================"
 251 0180 4C219FE5 		ldr r2, =#0x61757830
 252 0184 4C119FE5 		ldr r1, =#0x20215010
 253 0188 000091E5 		ldr r0, [r1]							;@ Fetch value at 0x20215010 being uart0
 254 018c 000052E1 		cmp r2, r0;								;@ Check if we have the value the uart0 will be at reset
 255 0190 0600001A 		bne .not_at_address_1
 256              	;@"================================================================"
 257              	;@  Raspberry PI IO base address was detected as 0x20000000
 258              	;@  RPi_IO_Base_Addr => 0x20000000
 259              	;@"================================================================"
 260 0194 40119FE5 		ldr r1, =RPi_BusAlias
 261 0198 0101A0E3 		mov	r0, #0x40000000
 262 019c 000081E5 		str	r0, [r1]							;@ Hold bus alias
 263 01a0 38119FE5 		ldr r1, =RPi_IO_Base_Addr
 264 01a4 0202A0E3 		mov	r0, #0x20000000
 265 01a8 000081E5 		str	r0, [r1]							;@ Hold the detected address
 266 01ac 0A0000EA 		b .autodetect_done;
 267              	;@"================================================================"
 268              	;@ Try Auto-Detect Raspberry PI IO base address at 2nd position
 269              	;@"================================================================"
 270              	.not_at_address_1:
 271 01b0 2C119FE5 		ldr r1, =#0x3f215010
 272 01b4 000091E5 		ldr r0, [r1]							;@ Fetch value at 0x3f215010
 273 01b8 000052E1 		cmp r2, r0								;@ Check if we have the value the uart0 will be at reset
 274 01bc 0000000A 		beq .At2ndAddress
 275              	;@"================================================================"
 276              	;@ ** Auto-Detected failed, not safe to do anything but deadloop **
 277              	;@ Would love to be display an error state but no ability on Pi
 278              	;@"================================================================"
 279              	.pi_detect_fail:
 280 01c0 FEFFFFEA 	    b .pi_detect_fail
 281              	;@"================================================================"
 282              	;@  Raspberry PI IO base address was detected as 0x3f000000
ARM GAS  C:\Users\ldebo\AppData\Local\Temp\ccevlpv4.s 			page 6


 283              	;@  RPi_IO_Base_Addr => 0x3f000000
 284              	;@"================================================================"
 285              	.At2ndAddress:
 286 01c4 10119FE5 		ldr r1, =RPi_BusAlias
 287 01c8 0301A0E3 		mov	r0, #0xC0000000
 288 01cc 000081E5 		str	r0, [r1]							;@ Hold bus alias
 289              	;@ Pi2 address 0x3f000000
 290 01d0 08119FE5 		ldr r1, =RPi_IO_Base_Addr
 291 01d4 3F04A0E3 		mov	r0, #0x3f000000						;@ Hold the detected address
 292 01d8 000081E5 		str	r0, [r1]
 293              	.autodetect_done:
 294              	;@"================================================================"
 295              	;@  We are getting close to handing over to C so we need to copy the 
 296              	;@  ISR table to position 0x0000 so interrupts can be used if wanted 
 297              	;@"================================================================"
 298 01dc 04019FE5 		ldr r0, = _isr_Table					;@ Address of isr_Table
 299 01e0 0010A0E3 		mov     r1, #0x0000						;@ Destination 0x0000
 300 01e4 FC03B0E8 	    ldmia   r0!,{r2, r3, r4, r5, r6, r7, r8, r9}
 301 01e8 FC03A1E8 	    stmia   r1!,{r2, r3, r4, r5, r6, r7, r8, r9}
 302 01ec FC03B0E8 	    ldmia   r0!,{r2, r3, r4, r5, r6, r7, r8, r9}
 303 01f0 FC03A1E8 	    stmia   r1!,{r2, r3, r4, r5, r6, r7, r8, r9}
 304              	;@"================================================================"
 305              	;@ Now Clear the .BSS segment as the C compiler expects us to do
 306              	;@"================================================================"
 307 01f4 F0009FE5 		ldr   r0, =__bss_start__
 308 01f8 F0109FE5 		ldr   r1, =__bss_end__	
 309 01fc 0020A0E3 		mov   r2, #0
 310              	.clear_bss:
 311 0200 010050E1 	    cmp   r0, r1
 312 0204 020000AA 	    bge   .clear_bss_exit
 313 0208 002080E5 	    str   r2, [r0]
 314 020c 040080E2 		add   r0, r0, #4
 315 0210 FAFFFFEA 	    b .clear_bss
 316              	.clear_bss_exit:
 317              	;@"================================================================"
 318              	;@ Bring Core 1,2,3 to secondary spin if not an ARM6 and bootloaded
 319              	;@"================================================================"
 320 0214 100F10EE 		mrc p15,0,r0,c0,c0,0					;@ Read Main ID Register
 321 0218 74109FE5 		ldr r1, =#ARM6_CPU_ID					;@ fetch ARM6_CPU_ID
 322 021c 000051E1 		cmp r1, r0								;@ Check for match
 323 0220 1600000A 		beq .NoMultiCoreSetup					;@ ARM6 jumps as no multicore
 324 0224 94109FE5 		ldr r1, =RPi_BootAddr					;@ Address to hold Boot address
 325 0228 000091E5 		ldr r0, [r1]							;@ Fetch bootAddress
 326 022c 0219A0E3 		ldr r1, =#0x8000						;@ Check against 0x8000
 327 0230 000051E1 		cmp r1, r0								;@ Check for match	
 328 0234 1100001A 		bne .NoMultiCoreSetup					;@ Not bootladed so jump multicore setup
 329 0238 0111A0E3 	 	mov	r1, #1073741824						;@ 0x40000000
 330 023c B0209FE5 	    ldr r2, =multicore_start				;@ Address of CoreSetup call
 331 0240 9C2081E5 		str	r2, [r1, #156]						;@ Write ExtraCoreSetup to 0x4000009C which signals core1 to jump
 332 0244 70309FE5 	 	ldr r3, =RPi_CoresReady					;@ Address of CoreReady count
 333              	.WaitCore1ACK:
 334 0248 001093E5 		ldr	r1, [r3]							;@ Read CoreReady
 335 024c 020051E3 		cmp	r1, #2								;@ Wait for setting of second core ready
 336 0250 FCFFFF0A 		beq	.WaitCore1ACK						;@ Core1 not ready so read again
 337 0254 0111A0E3 	 	mov	r1, #1073741824						;@ 0x40000000
 338 0258 94209FE5 	    ldr r2, =multicore_start				;@ Address of CoreSetup call
 339 025c AC2081E5 		str	r2, [r1, #172]						;@ Write ExtraCoreSetup to 0x400000AC which signals core2 to jump
ARM GAS  C:\Users\ldebo\AppData\Local\Temp\ccevlpv4.s 			page 7


 340              	.WaitCore2ACK:
 341 0260 001093E5 		ldr	r1, [r3]							;@ Read CoreReady count
 342 0264 030051E3 		cmp	r1, #3								;@ Wair for setting of third core ready
 343 0268 FCFFFF0A 		beq	.WaitCore2ACK						;@ Core2 not ready so read again
 344 026c 0111A0E3 	 	mov	r1, #1073741824						;@ 0x40000000
 345 0270 BC2081E5 		str	r2, [r1, #188]						;@ Write ExtraCoreSetup to 0x400000BC which signals core3 to jump
 346              	.WaitCore3ACK:
 347 0274 001093E5 		ldr	r1, [r3]							;@ Read CoreReady count
 348 0278 040051E3 		cmp	r1, #4								;@ check for ACK
 349 027c FCFFFF0A 		beq	.WaitCore3ACK						;@ Core2 not ready so read again
 350              	.NoMultiCoreSetup:
 351              	;@"================================================================"
 352              	;@ Finally that all done jump to the C compiler entry point
 353              	;@"================================================================"
 354 0280 FEFFFFEB 	   	 bl kernel_main
 355              	hang:
 356 0284 FEFFFFEA 		b hang
 357              	.balign	4
 358 0288 00000000 	.ltorg									;@ Tell assembler ltorg data for this code can go here
 358      00000000 
 358      00000000 
 358      67B70F41 
 358      00000000 
 359              	
 360              	_isr_Table:
 361 02f8 18F09FE5 	    ldr pc, _reset_h
 362 02fc 18F09FE5 	    ldr pc, _undefined_instruction_vector_h
 363 0300 18F09FE5 	    ldr pc, _software_interrupt_vector_h
 364 0304 18F09FE5 	    ldr pc, _prefetch_abort_vector_h
 365 0308 18F09FE5 	    ldr pc, _data_abort_vector_h
 366 030c 18F09FE5 	    ldr pc, _unused_handler_h
 367 0310 18F09FE5 	    ldr pc, _interrupt_vector_h
 368 0314 18F09FE5 	    ldr pc, _fast_interrupt_vector_h
 369              	
 370 0318 00000000 	_reset_h:                           .word   _start
 371 031c 84020000 	_undefined_instruction_vector_h:    .word   hang
 372 0320 84020000 	_software_interrupt_vector_h:       .word   hang
 373 0324 84020000 	_prefetch_abort_vector_h:           .word   hang
 374 0328 84020000 	_data_abort_vector_h:               .word   hang
 375 032c 84020000 	_unused_handler_h:                  .word   hang
 376 0330 1C000000 	_interrupt_vector_h:                .word   _irq_handler_stub
 377 0334 84020000 	_fast_interrupt_vector_h:           .word   hang	
 378              	
 379              	
 380              	/*++++++++++++++++++++++++++++++++++++++++++++++++++++++++++++++++++++++++++}
 381              	{    Modified bootloader Spin loop but tolerant on registers R0-R3 for C    }
 382              	{++++++++++++++++++++++++++++++++++++++++++++++++++++++++++++++++++++++++++*/
 383              	.balign	4
 384              	SecondarySpin:
 385 0338 B00F10EE 		mrc     p15, 0, r0, c0, c0, 5
 386 033c 030010E2 		ands r0, r0, #0x3					    // Make core 2 bit bitmask in R0
 387 0340 44509FE5 		ldr r5, =mbox		
 388 0344 005095E5 		ldr r5, [r5]		@ mbox
 389 0348 0030A0E3 		mov	r3, #0			@ magic
 390 034c 405085E2 		add	r5, #(0x400000CC-0x4000008C)	@ mbox
 391              	SecondarySpinLoop:
 392 0350 004295E7 		ldr	r4, [r5, r0, lsl #4]
ARM GAS  C:\Users\ldebo\AppData\Local\Temp\ccevlpv4.s 			page 8


 393 0354 030054E1 		cmp	r4, r3
 394 0358 FCFFFF0A 		beq	SecondarySpinLoop
 395              	@ clear mailbox
 396 035c 004285E7 		str	r4, [r5, r0, lsl #4]
 397 0360 0000A0E3 		mov	r0, #0
 398 0364 24109FE5 		ldr r1, =machid		
 399 0368 001091E5 		ldr r1, [r1]		@ BCM2708 machine id
 400 036c 20209FE5 		ldr r2, = atags		
 401 0370 002092E5 		ldr r2, [r2]		@ ATAGS
 402 0374 1CE09FE5 		ldr lr, =SecondarySpin
 403 0378 14FF2FE1 		bx	r4
 404 037c EDFFFFEA 		b SecondarySpin
 405 0380 8C000040 	mbox: 	.4byte 0x4000008C
 406 0384 420C0000 	machid:	.4byte 3138
 407 0388 00010000 	atags:  .4byte 0x100
 408              	.balign	4
 409 038c 80030000 	.ltorg										;@ Tell assembler ltorg data for this code can go here
 409      84030000 
 409      88030000 
 409      38030000 
 410              	
 411              	.globl RPi_CpuIdString
 412              	RPi_CpuIdString:
 413 039c 34009FE5 		ldr r0, =ARM6_STR						
 414 03a0 102F10EE 		mrc p15,0,r2,c0,c0,0					;@ Read Main ID Register
 415 03a4 30109FE5 		ldr r1, =#ARM6_CPU_ID					;@ Fetch ARM6_CPU_ID
 416 03a8 020051E1 		cmp r1, r2								;@ Check for match	
 417 03ac 0800000A 		beq CpuIdStringDone
 418 03b0 28009FE5 		ldr r0, =ARM7_STR
 419 03b4 28109FE5 		ldr r1, =#ARM7_CPU_ID					;@ Fetch ARM7_CPU_ID
 420 03b8 020051E1 		cmp r1, r2								;@ Check for match
 421 03bc 0400000A 		beq CpuIdStringDone
 422 03c0 20009FE5 		ldr r0, =ARM8_STR
 423 03c4 20109FE5 		ldr r1, =#ARM8_CPU_ID					;@ Fetch ARM8_CPU_ID
 424 03c8 020051E1 		cmp r1, r2								;@ Check for match
 425 03cc 0000000A 		beq CpuIdStringDone	
 426 03d0 18009FE5 		ldr r0, =ARMX_STR
 427              	CpuIdStringDone:
 428 03d4 1EFF2FE1 		bx  lr									;@ Return
 429              	.balign	4
 430 03d8 00000000 	.ltorg										;@ Tell assembler ltorg data for this code can go here
 430      67B70F41 
 430      0E000000 
 430      73C00F41 
 430      19000000 
 431              	
 432              	.globl EnableInterrupts
 433              	EnableInterrupts:
 434 03f4 800008F1 		cpsie i									;@ Enable IRQ
 435 03f8 1EFF2FE1 		bx  lr									;@ Return
 436              	
 437              	.globl DisableInterrupts
 438              	DisableInterrupts:
 439 03fc 80000CF1 	    cpsid i									;@ Disable IRQ
 440 0400 1EFF2FE1 		bx  lr									;@ Return
 441              	
 442              	
ARM GAS  C:\Users\ldebo\AppData\Local\Temp\ccevlpv4.s 			page 9


 443              	.globl CoreExecute
 444              	CoreExecute:
 445 0404 FF0010E2 		ands r0, r0, #255
 446 0408 0700000A 		beq CoreExecuteFail
 447 040c 20309FE5 		ldr r3, =RPi_CoresReady
 448 0410 002093E5 		ldr r2, [r3]							// Fetch cores ready count
 449 0414 020050E1 		cmp r0, r2
 450 0418 0300002A 		bcs	CoreExecuteFail
 451 041c 14309FE5 		ldr r3, =#0x4000008C					// Load address of spins
 452 0420 001283E7 		str r1, [r3, r0, lsl #4]				// Save caller address
 453 0424 0100A0E3 		mov r0, #1
 454 0428 1EFF2FE1 		bx  lr
 455              	CoreExecuteFail:
 456 042c 0000A0E3 		mov r0, #0
 457 0430 1EFF2FE1 		bx  lr
 458              	.balign	4
 459 0434 00000000 	.ltorg										// Tell assembler ltorg data for this code can go here
 459      8C000040 
 460              	
 461              	/*++++++++++++++++++++++++++++++++++++++++++++++++++++++++++++++++++++++++++}
 462              	{			MEMORY HELPER ROUTINES PROVIDE BY RPi-SmartStart API		    }
 463              	{++++++++++++++++++++++++++++++++++++++++++++++++++++++++++++++++++++++++++*/
 464              	
 465              	/* "PROVIDE C FUNCTION: uint32_t ARMaddrToGPUaddr (void* ARMaddress);" */
 466              	.section .text.ARMaddrToGPUaddr, "ax", %progbits
 467              	.balign	4
 468              	.globl ARMaddrToGPUaddr;		
 469              	.type ARMaddrToGPUaddr, %function
 470              	.syntax unified
 471              	.arm
 472              	;@"================================================================"
 473              	;@ ARMaddrToGPUaddr -- Composite Pi1, Pi2 & Pi3 code
 474              	;@ C Function: uint32_t ARMaddrToGPUaddr (void* ARMaddress);
 475              	;@ Entry: R0 will have ARMAddress value
 476              	;@"================================================================"
 477              	ARMaddrToGPUaddr:
 478 0000 08109FE5 		ldr r1, =RPi_BusAlias
 479 0004 001091E5 	    ldr r1,[r1]								;@ Fetch bus alias	
 480 0008 010080E1 		orr r0, r0, r1							;@ Create bus address
 481 000c 1EFF2FE1 		bx   lr									;@ Return
 482              	.balign	4
 483 0010 00000000 	.ltorg										;@ Tell assembler ltorg data for this code can go here
 484              	.size	ARMaddrToGPUaddr, .-ARMaddrToGPUaddr
 485              	
 486              	
 487              	/* "PROVIDE C FUNCTION: uint32_t GPUaddrToARMaddr (uint32_t BUSaddress);" */
 488              	.section .text.GPUaddrToARMaddr, "ax", %progbits
 489              	.balign	4
 490              	.globl GPUaddrToARMaddr;		
 491              	.type GPUaddrToARMaddr, %function
 492              	.syntax unified
 493              	.arm
 494              	;@"================================================================"
 495              	;@ GPUaddrToARMaddr -- Composite Pi1, Pi2 & Pi3 code
 496              	;@ C Function: uint32_t GPUaddrToARMaddr (uint32_t BUSaddress);
 497              	;@ Entry: R0 will have GPUAddress value
 498              	;@"================================================================"
ARM GAS  C:\Users\ldebo\AppData\Local\Temp\ccevlpv4.s 			page 10


 499              	GPUaddrToARMaddr:
 500 0000 08109FE5 		ldr r1, =RPi_BusAlias
 501 0004 001091E5 	    ldr r1,[r1]								;@ Fetch bus alias	
 502 0008 0100C0E1 		bic r0, r0, r1							;@ Create arm address
 503 000c 1EFF2FE1 		bx   lr									;@ Return
 504              	.balign	4
 505 0010 00000000 	.ltorg										;@ Tell assembler ltorg data for this code can go here
 506              	.size	GPUaddrToARMaddr, .-GPUaddrToARMaddr
 507              	
 508              	/* Provide weak reference c_irq_handler so if user does not use it functions as dummy */
 509              	.weak c_irq_handler
 510              	c_irq_handler:
 511 0014 1EFF2FE1 		bx  lr									;@ Return
 512              	
 513              	/* Provide weak reference c_irq_identify_and_clear_source so if user does not use it functions as d
 514              	.weak c_irq_identify_and_clear_source
 515              	c_irq_identify_and_clear_source:
 516 0018 1EFF2FE1 		bx  lr									;@ Return
 517              	
 518              	/* Re-entrant interrupt handler stub */
 519              	/* http://infocenter.arm.com/help/index.jsp?topic=/com.arm.doc.faqs/ka13552.html */
 520              	_irq_handler_stub:
 521 001c 04E04EE2 	    sub lr, lr, #4							;@ Use SRS to save LR_irq and SPSP_irq
 522 0020 13056DF9 	    srsfd sp!, #0x13						;@ on to the SVC mode stack
 523              	
 524 0024 130002F1 	    cps #0x13								;@ Switch to SVC mode
 525 0028 0F102DE9 	    push {r0-r3, r12}						;@ Store AAPCS regs on to SVC stack
 526              	
 527 002c 0D10A0E1 	    mov r1, sp
 528 0030 041001E2 	    and r1, r1, #4							;@ Ensure 8-byte stack alignment…
 529 0034 01D04DE0 	    sub sp, sp, r1							;@ …adjust stack as necessary
 530 0038 02402DE9 	    push {r1, lr}							;@ Store adjustment and LR_svc
 531              	
 532 003c FEFFFFEB 	    bl c_irq_identify_and_clear_source		;@ Clear IRQ source
 533 0040 800008F1 	    cpsie i									;@ Enable IRQ
 534 0044 FEFFFFEB 	    bl c_irq_handler						;@ Branch to 2nd level handler
 535 0048 80000CF1 	    cpsid i									;@ Disable IRQ
 536              	
 537 004c 0240BDE8 	    pop {r1, lr}							;@ Restore LR_svc
 538 0050 01D08DE0 	    add sp, sp, r1							;@ Un-adjust stack
 539              	
 540 0054 0F10BDE8 	    pop {r0-r3, r12}						;@ Restore AAPCS registers
 541 0058 000ABDF8 	    rfefd sp!								;@ Return from the SVC mode stack
 542              	
 543              	.section .text._sbrk, "ax", %progbits
 544              	.balign	4
 545              	.globl _sbrk;			
 546              	.type _sbrk, %function
 547              	.syntax unified
 548              	.arm
 549              	_sbrk:
 550 0000 1C209FE5 	        ldr     r2, =RPi_Heap
 551 0004 1C109FE5 	        ldr     r1, =_end
 552 0008 003092E5 	        ldr     r3, [r2]
 553 000c 000053E3 	        cmp     r3, #0
 554 0010 0130A001 	        moveq   r3, r1
 555 0014 000083E0 	        add     r0, r3, r0
ARM GAS  C:\Users\ldebo\AppData\Local\Temp\ccevlpv4.s 			page 11


 556 0018 000082E5 	        str     r0, [r2]
 557 001c 0300A0E1 	        mov     r0, r3
 558 0020 1EFF2FE1 	        bx      lr
 559              	.balign	4
 560 0024 00000000 	.ltorg										;@ Tell assembler ltorg data for this code can go here
 560      00000000 
 561              	.size	_sbrk, .-_sbrk
 562              	
 563              	/*==========================================================================}
 564              	;{					  CPU STRING CONSTANT DEFINITIONS					    }
 565              	;{=========================================================================*/
 566              	.section ".rodata.cpuid", "a", %progbits
 567              	.balign	4
 568 0000 61726D31 	ARM6_STR: .string "arm1176jzf-s\0"
 568      3137366A 
 568      7A662D73 
 568      0000
 569 000e 636F7274 	ARM7_STR: .string "cortex-a7\0"
 569      65782D61 
 569      370000
 570 0019 636F7274 	ARM8_STR: .string "cortex-a53\0"
 570      65782D61 
 570      35330000 
 571 0025 756E6B6E 	ARMX_STR: .string "unknown ARM cpu\0"
 571      6F776E20 
 571      41524D20 
 571      63707500 
 571      00
 572              	
 573              	/****************************************************************
 574              	       	   DATA FOR SMARTSTART32 EXPOSED TO INTERFACE 
 575              	****************************************************************/
 576              	.section ".data.smartstart32", "aw"
 577              	.balign 4
 578              	
 579              	.globl RPi_IO_Base_Addr;				// Make sure Pi_IO_Base_Addr label is global
 580 0000 00000000 	RPi_IO_Base_Addr : .4byte 0;			// Peripheral Base addr is 4 byte variable in 32bit mode
 581              	
 582              	.globl RPi_BootAddr;					// Make sure RPi_BootAddr label is global
 583 0004 00000000 	RPi_BootAddr : .4byte 0;				// CPU boot address is 4 byte variable in 32bit mode
 584              	
 585              	.globl RPi_CoresReady;					// Make sure RPi_CoresReady label is global
 586 0008 00000000 	RPi_CoresReady : .4byte 0;				// CPU cores ready for use is 4 byte variable in 32bit mode
 587              	
 588              	.globl RPi_CPUBootMode;					// Make sure RPi_CPUBootMode label is global
 589 000c 00000000 	RPi_CPUBootMode : .4byte 0;				// CPU Boot Mode is 4 byte variable in 32bit mode
 590              	
 591              	.globl RPi_CpuId;						// Make sure RPi_CpuId label is global
 592 0010 00000000 	RPi_CpuId : .4byte 0;					// CPU Id is 4 byte variable in 32bit mode
 593              	
 594              	.globl RPi_CompileMode;					// Make sure RPi_CompileMode label is global
 595 0014 00000000 	RPi_CompileMode : .4byte 0;				// Compile mode is 4 byte variable in 32bit mode...
ARM GAS  C:\Users\ldebo\AppData\Local\Temp\ccevlpv4.s 			page 12


DEFINED SYMBOLS
      SmartStart32.S:38     *ABS*:410fb767 ARM6_CPU_ID
      SmartStart32.S:39     *ABS*:410fc073 ARM7_CPU_ID
      SmartStart32.S:40     *ABS*:410fd034 ARM8_CPU_ID
      SmartStart32.S:45     *ABS*:00000011 CPU_FIQMODE
      SmartStart32.S:46     *ABS*:00000012 CPU_IRQMODE
      SmartStart32.S:47     *ABS*:00000013 CPU_SVCMODE
      SmartStart32.S:48     *ABS*:0000001a CPU_HYPMODE
      SmartStart32.S:59     *ABS*:000000d1 CPU_FIQMODE_VALUE
      SmartStart32.S:60     *ABS*:000000d2 CPU_IRQMODE_VALUE
      SmartStart32.S:61     *ABS*:000000d3 CPU_SVCMODE_VALUE
      SmartStart32.S:67     .data.smartstart:00000000 $d
      SmartStart32.S:69     .data.smartstart:00000000 RPi_BusAlias
      SmartStart32.S:74     .data.smartstart:00000004 RPi_CPUCurrentMode
      SmartStart32.S:77     .data.smartstart:00000008 RPi_Heap
      SmartStart32.S:80     .text.startup:00000000 $a
      SmartStart32.S:84     .text.startup:00000000 _start
      SmartStart32.S:94     .text.startup:0000000c multicore_start
      SmartStart32.S:109    .text.startup:00000034 .NotInHypMode
      SmartStart32.S:107    .text.startup:0000002c $d
      SmartStart32.S:113    .text.startup:00000034 $a
      SmartStart32.S:136    .text.startup:00000090 set_svc_stack
      SmartStart32.S:163    .text.startup:000000d8 .free_to_enable_fpu1
      SmartStart32.S:172    *ABS*:00000004 SCTLR_ENABLE_DATA_CACHE
      SmartStart32.S:173    *ABS*:00000800 SCTLR_ENABLE_BRANCH_PREDICTION
      SmartStart32.S:174    *ABS*:00001000 SCTLR_ENABLE_INSTRUCTION_CACHE
      SmartStart32.S:203    .text.startup:00000130 .cpu0_exit_multicore_park
      SmartStart32.S:586    .data.smartstart32:00000008 RPi_CoresReady
      SmartStart32.S:384    .text.startup:00000338 SecondarySpin
      SmartStart32.S:583    .data.smartstart32:00000004 RPi_BootAddr
      SmartStart32.S:589    .data.smartstart32:0000000c RPi_CPUBootMode
      SmartStart32.S:592    .data.smartstart32:00000010 RPi_CpuId
      SmartStart32.S:595    .data.smartstart32:00000014 RPi_CompileMode
      SmartStart32.S:270    .text.startup:000001b0 .not_at_address_1
      SmartStart32.S:580    .data.smartstart32:00000000 RPi_IO_Base_Addr
      SmartStart32.S:293    .text.startup:000001dc .autodetect_done
      SmartStart32.S:285    .text.startup:000001c4 .At2ndAddress
      SmartStart32.S:279    .text.startup:000001c0 .pi_detect_fail
      SmartStart32.S:360    .text.startup:000002f8 _isr_Table
      SmartStart32.S:310    .text.startup:00000200 .clear_bss
      SmartStart32.S:316    .text.startup:00000214 .clear_bss_exit
      SmartStart32.S:350    .text.startup:00000280 .NoMultiCoreSetup
      SmartStart32.S:333    .text.startup:00000248 .WaitCore1ACK
      SmartStart32.S:340    .text.startup:00000260 .WaitCore2ACK
      SmartStart32.S:346    .text.startup:00000274 .WaitCore3ACK
      SmartStart32.S:355    .text.startup:00000284 hang
      SmartStart32.S:358    .text.startup:00000288 $d
      SmartStart32.S:370    .text.startup:00000318 _reset_h
      SmartStart32.S:361    .text.startup:000002f8 $a
      SmartStart32.S:371    .text.startup:0000031c _undefined_instruction_vector_h
      SmartStart32.S:372    .text.startup:00000320 _software_interrupt_vector_h
      SmartStart32.S:373    .text.startup:00000324 _prefetch_abort_vector_h
      SmartStart32.S:374    .text.startup:00000328 _data_abort_vector_h
      SmartStart32.S:375    .text.startup:0000032c _unused_handler_h
      SmartStart32.S:376    .text.startup:00000330 _interrupt_vector_h
      SmartStart32.S:377    .text.startup:00000334 _fast_interrupt_vector_h
      SmartStart32.S:370    .text.startup:00000318 $d
ARM GAS  C:\Users\ldebo\AppData\Local\Temp\ccevlpv4.s 			page 13


      SmartStart32.S:520    .text.GPUaddrToARMaddr:0000001c _irq_handler_stub
      SmartStart32.S:383    .text.startup:00000338 $a
      SmartStart32.S:405    .text.startup:00000380 mbox
      SmartStart32.S:391    .text.startup:00000350 SecondarySpinLoop
      SmartStart32.S:406    .text.startup:00000384 machid
      SmartStart32.S:407    .text.startup:00000388 atags
      SmartStart32.S:405    .text.startup:00000380 $d
      SmartStart32.S:409    .text.startup:0000038c $d
      SmartStart32.S:412    .text.startup:0000039c RPi_CpuIdString
      SmartStart32.S:568    .rodata.cpuid:00000000 ARM6_STR
      SmartStart32.S:413    .text.startup:0000039c $a
      SmartStart32.S:427    .text.startup:000003d4 CpuIdStringDone
      SmartStart32.S:569    .rodata.cpuid:0000000e ARM7_STR
      SmartStart32.S:570    .rodata.cpuid:00000019 ARM8_STR
      SmartStart32.S:571    .rodata.cpuid:00000025 ARMX_STR
      SmartStart32.S:430    .text.startup:000003d8 $d
      SmartStart32.S:433    .text.startup:000003f4 EnableInterrupts
      SmartStart32.S:434    .text.startup:000003f4 $a
      SmartStart32.S:438    .text.startup:000003fc DisableInterrupts
      SmartStart32.S:444    .text.startup:00000404 CoreExecute
      SmartStart32.S:455    .text.startup:0000042c CoreExecuteFail
      SmartStart32.S:459    .text.startup:00000434 $d
      SmartStart32.S:467    .text.ARMaddrToGPUaddr:00000000 $a
      SmartStart32.S:477    .text.ARMaddrToGPUaddr:00000000 ARMaddrToGPUaddr
      SmartStart32.S:483    .text.ARMaddrToGPUaddr:00000010 $d
      SmartStart32.S:489    .text.GPUaddrToARMaddr:00000000 $a
      SmartStart32.S:499    .text.GPUaddrToARMaddr:00000000 GPUaddrToARMaddr
      SmartStart32.S:505    .text.GPUaddrToARMaddr:00000010 $d
      SmartStart32.S:510    .text.GPUaddrToARMaddr:00000014 c_irq_handler
      SmartStart32.S:511    .text.GPUaddrToARMaddr:00000014 $a
      SmartStart32.S:515    .text.GPUaddrToARMaddr:00000018 c_irq_identify_and_clear_source
      SmartStart32.S:544    .text._sbrk:00000000 $a
      SmartStart32.S:549    .text._sbrk:00000000 _sbrk
      SmartStart32.S:560    .text._sbrk:00000024 $d
      SmartStart32.S:567    .rodata.cpuid:00000000 $d
      SmartStart32.S:577    .data.smartstart32:00000000 $d

UNDEFINED SYMBOLS
__SVC_stack_core0
__FIQ_stack_core0
__IRQ_stack_core0
__SVC_stack_core1
__FIQ_stack_core1
__IRQ_stack_core1
__SVC_stack_core2
__FIQ_stack_core2
__IRQ_stack_core2
__SVC_stack_core3
__FIQ_stack_core3
__IRQ_stack_core3
__bss_start__
__bss_end__
kernel_main
_end
ARM GAS  C:\Users\ldebo\AppData\Local\Temp\ccevlpv4.s 			page 1


   1              		.arch armv6zk
   2              		.eabi_attribute 28, 1
   3              		.eabi_attribute 20, 1
   4              		.eabi_attribute 21, 1
   5              		.eabi_attribute 23, 3
   6              		.eabi_attribute 24, 1
   7              		.eabi_attribute 25, 1
   8              		.eabi_attribute 26, 1
   9              		.eabi_attribute 30, 2
  10              		.eabi_attribute 34, 0
  11              		.eabi_attribute 18, 4
  12              		.file	"rpi-SmartStart.C"
  13              		.text
  14              		.align	2
  15              		.syntax unified
  16              		.arm
  17              		.fpu vfp
  18              		.type	_ZL11ClearArea16P8tagINTDCjjjj, %function
  19              	_ZL11ClearArea16P8tagINTDCjjjj:
  20              		@ args = 4, pretend = 0, frame = 0
  21              		@ frame_needed = 0, uses_anonymous_args = 0
  22 0000 F0472DE9 		push	{r4, r5, r6, r7, r8, r9, r10, lr}
  23 0004 04A090E5 		ldr	r10, [r0, #4]
  24 0008 20909DE5 		ldr	r9, [sp, #32]
  25 000c 921A24E0 		mla	r4, r2, r10, r1
  26 0010 006090E5 		ldr	r6, [r0]
  27 0014 029059E0 		subs	r9, r9, r2
  28 0018 2AE0D0E5 		ldrb	lr, [r0, #42]	@ zero_extendqisi2
  29 001c 29C0D0E5 		ldrb	ip, [r0, #41]	@ zero_extendqisi2
  30 0020 2820D0E5 		ldrb	r2, [r0, #40]	@ zero_extendqisi2
  31 0024 846086E0 		add	r6, r6, r4, lsl #1
  32 0028 F087BD08 		popeq	{r4, r5, r6, r7, r8, r9, r10, pc}
  33 002c 013053E0 		subs	r3, r3, r1
  34 0030 8AA0A0E1 		lsl	r10, r10, #1
  35 0034 F087BD08 		popeq	{r4, r5, r6, r7, r8, r9, r10, pc}
  36 0038 0070A0E3 		mov	r7, #0
  37 003c 2CC1A0E1 		lsr	ip, ip, #2
  38 0040 07500CE2 		and	r5, ip, #7
  39 0044 AEE1A0E1 		lsr	lr, lr, #3
  40 0048 A221A0E1 		lsr	r2, r2, #3
  41 004c 8380A0E1 		lsl	r8, r3, #1
  42 0050 1F4002E2 		and	r4, r2, #31
  43 0054 8EE1A0E1 		lsl	lr, lr, #3
  44 0058 8552A0E1 		lsl	r5, r5, #5
  45 005c ACC1A0E1 		lsr	ip, ip, #3
  46              	.L5:
  47 0060 0630A0E1 		mov	r3, r6
  48 0064 080086E0 		add	r0, r6, r8
  49              	.L4:
  50 0068 051084E1 		orr	r1, r4, r5
  51 006c 0C208EE1 		orr	r2, lr, ip
  52 0070 0010C3E5 		strb	r1, [r3]
  53 0074 0120C3E5 		strb	r2, [r3, #1]
  54 0078 023083E2 		add	r3, r3, #2
  55 007c 000053E1 		cmp	r3, r0
  56 0080 F8FFFF1A 		bne	.L4
  57 0084 017087E2 		add	r7, r7, #1
ARM GAS  C:\Users\ldebo\AppData\Local\Temp\ccevlpv4.s 			page 2


  58 0088 090057E1 		cmp	r7, r9
  59 008c 0A6086E0 		add	r6, r6, r10
  60 0090 F2FFFF1A 		bne	.L5
  61 0094 F087BDE8 		pop	{r4, r5, r6, r7, r8, r9, r10, pc}
  62              		.size	_ZL11ClearArea16P8tagINTDCjjjj, .-_ZL11ClearArea16P8tagINTDCjjjj
  63              		.align	2
  64              		.syntax unified
  65              		.arm
  66              		.fpu vfp
  67              		.type	_ZL10VertLine16P8tagINTDCji, %function
  68              	_ZL10VertLine16P8tagINTDCji:
  69              		@ args = 0, pretend = 0, frame = 0
  70              		@ frame_needed = 0, uses_anonymous_args = 0
  71 0098 F0472DE9 		push	{r4, r5, r6, r7, r8, r9, r10, lr}
  72 009c 048090E5 		ldr	r8, [r0, #4]
  73 00a0 14A090E5 		ldr	r10, [r0, #20]
  74 00a4 8880A0E1 		lsl	r8, r8, #1
  75 00a8 9A080CE0 		mul	ip, r10, r8
  76 00ac 103090E5 		ldr	r3, [r0, #16]
  77 00b0 00E090E5 		ldr	lr, [r0]
  78 00b4 83308CE0 		add	r3, ip, r3, lsl #1
  79 00b8 000051E3 		cmp	r1, #0
  80 00bc 2260D0E5 		ldrb	r6, [r0, #34]	@ zero_extendqisi2
  81 00c0 2150D0E5 		ldrb	r5, [r0, #33]	@ zero_extendqisi2
  82 00c4 2070D0E5 		ldrb	r7, [r0, #32]	@ zero_extendqisi2
  83 00c8 0E3083E0 		add	r3, r3, lr
  84 00cc 1200000A 		beq	.L16
  85 00d0 2551A0E1 		lsr	r5, r5, #2
  86 00d4 079005E2 		and	r9, r5, #7
  87 00d8 A661A0E1 		lsr	r6, r6, #3
  88 00dc A771A0E1 		lsr	r7, r7, #3
  89 00e0 010052E3 		cmp	r2, #1
  90 00e4 0040A0E3 		mov	r4, #0
  91 00e8 1F7007E2 		and	r7, r7, #31
  92 00ec 8661A0E1 		lsl	r6, r6, #3
  93 00f0 8992A0E1 		lsl	r9, r9, #5
  94 00f4 A551A0E1 		lsr	r5, r5, #3
  95 00f8 0A00000A 		beq	.L18
  96              	.L17:
  97 00fc 014084E2 		add	r4, r4, #1
  98 0100 09E087E1 		orr	lr, r7, r9
  99 0104 05C086E1 		orr	ip, r6, r5
 100 0108 040051E1 		cmp	r1, r4
 101 010c 00E0C3E5 		strb	lr, [r3]
 102 0110 01C0C3E5 		strb	ip, [r3, #1]
 103 0114 083043E0 		sub	r3, r3, r8
 104 0118 F7FFFF1A 		bne	.L17
 105              	.L16:
 106 011c 91A221E0 		mla	r1, r1, r2, r10
 107 0120 141080E5 		str	r1, [r0, #20]
 108 0124 F087BDE8 		pop	{r4, r5, r6, r7, r8, r9, r10, pc}
 109              	.L18:
 110 0128 014084E2 		add	r4, r4, #1
 111 012c 09E087E1 		orr	lr, r7, r9
 112 0130 05C086E1 		orr	ip, r6, r5
 113 0134 040051E1 		cmp	r1, r4
 114 0138 00E0C3E5 		strb	lr, [r3]
ARM GAS  C:\Users\ldebo\AppData\Local\Temp\ccevlpv4.s 			page 3


 115 013c 01C0C3E5 		strb	ip, [r3, #1]
 116 0140 083083E0 		add	r3, r3, r8
 117 0144 F7FFFF1A 		bne	.L18
 118 0148 F3FFFFEA 		b	.L16
 119              		.size	_ZL10VertLine16P8tagINTDCji, .-_ZL10VertLine16P8tagINTDCji
 120              		.align	2
 121              		.syntax unified
 122              		.arm
 123              		.fpu vfp
 124              		.type	_ZL10HorzLine16P8tagINTDCji, %function
 125              	_ZL10HorzLine16P8tagINTDCji:
 126              		@ args = 0, pretend = 0, frame = 0
 127              		@ frame_needed = 0, uses_anonymous_args = 0
 128 014c F0472DE9 		push	{r4, r5, r6, r7, r8, r9, r10, lr}
 129 0150 043090E5 		ldr	r3, [r0, #4]
 130 0154 109090E5 		ldr	r9, [r0, #16]
 131 0158 14E090E5 		ldr	lr, [r0, #20]
 132 015c 89C0A0E1 		lsl	ip, r9, #1
 133 0160 8330A0E1 		lsl	r3, r3, #1
 134 0164 9EC323E0 		mla	r3, lr, r3, ip
 135 0168 00C090E5 		ldr	ip, [r0]
 136 016c 000051E3 		cmp	r1, #0
 137 0170 2260D0E5 		ldrb	r6, [r0, #34]	@ zero_extendqisi2
 138 0174 2150D0E5 		ldrb	r5, [r0, #33]	@ zero_extendqisi2
 139 0178 2070D0E5 		ldrb	r7, [r0, #32]	@ zero_extendqisi2
 140 017c 0C3083E0 		add	r3, r3, ip
 141 0180 1100000A 		beq	.L25
 142 0184 0040A0E3 		mov	r4, #0
 143 0188 2551A0E1 		lsr	r5, r5, #2
 144 018c 078005E2 		and	r8, r5, #7
 145 0190 A661A0E1 		lsr	r6, r6, #3
 146 0194 A771A0E1 		lsr	r7, r7, #3
 147 0198 1F7007E2 		and	r7, r7, #31
 148 019c 8661A0E1 		lsl	r6, r6, #3
 149 01a0 8882A0E1 		lsl	r8, r8, #5
 150 01a4 A551A0E1 		lsr	r5, r5, #3
 151 01a8 82A0A0E1 		lsl	r10, r2, #1
 152              	.L26:
 153 01ac 014084E2 		add	r4, r4, #1
 154 01b0 08E087E1 		orr	lr, r7, r8
 155 01b4 05C086E1 		orr	ip, r6, r5
 156 01b8 040051E1 		cmp	r1, r4
 157 01bc 00E0C3E5 		strb	lr, [r3]
 158 01c0 01C0C3E5 		strb	ip, [r3, #1]
 159 01c4 0A3083E0 		add	r3, r3, r10
 160 01c8 F7FFFF1A 		bne	.L26
 161              	.L25:
 162 01cc 919221E0 		mla	r1, r1, r2, r9
 163 01d0 101080E5 		str	r1, [r0, #16]
 164 01d4 F087BDE8 		pop	{r4, r5, r6, r7, r8, r9, r10, pc}
 165              		.size	_ZL10HorzLine16P8tagINTDCji, .-_ZL10HorzLine16P8tagINTDCji
 166              		.align	2
 167              		.syntax unified
 168              		.arm
 169              		.fpu vfp
 170              		.type	_ZL10DiagLine16P8tagINTDCjjii, %function
 171              	_ZL10DiagLine16P8tagINTDCjjii:
ARM GAS  C:\Users\ldebo\AppData\Local\Temp\ccevlpv4.s 			page 4


 172              		@ args = 4, pretend = 0, frame = 24
 173              		@ frame_needed = 0, uses_anonymous_args = 0
 174 01d8 F04F2DE9 		push	{r4, r5, r6, r7, r8, r9, r10, fp, lr}
 175 01dc 0040A0E1 		mov	r4, r0
 176 01e0 10C090E5 		ldr	ip, [r0, #16]
 177 01e4 1CD04DE2 		sub	sp, sp, #28
 178 01e8 0CE0A0E1 		mov	lr, ip
 179 01ec 0CC08DE5 		str	ip, [sp, #12]
 180 01f0 14C094E5 		ldr	ip, [r4, #20]
 181 01f4 14008DE5 		str	r0, [sp, #20]
 182 01f8 0C50A0E1 		mov	r5, ip
 183 01fc 040090E5 		ldr	r0, [r0, #4]
 184 0200 8EE0A0E1 		lsl	lr, lr, #1
 185 0204 10C08DE5 		str	ip, [sp, #16]
 186 0208 80C0A0E1 		lsl	ip, r0, #1
 187 020c 95EC2CE0 		mla	ip, r5, ip, lr
 188 0210 020051E1 		cmp	r1, r2
 189 0214 00E094E5 		ldr	lr, [r4]
 190 0218 0120A031 		movcc	r2, r1
 191 021c 000051E3 		cmp	r1, #0
 192 0220 2280D4E5 		ldrb	r8, [r4, #34]	@ zero_extendqisi2
 193 0224 2170D4E5 		ldrb	r7, [r4, #33]	@ zero_extendqisi2
 194 0228 2090D4E5 		ldrb	r9, [r4, #32]	@ zero_extendqisi2
 195 022c 08308DE5 		str	r3, [sp, #8]
 196 0230 0EC08CE0 		add	ip, ip, lr
 197 0234 2000000A 		beq	.L32
 198 0238 0040A0E3 		mov	r4, #0
 199 023c 0430A0E1 		mov	r3, r4
 200 0240 40E09DE5 		ldr	lr, [sp, #64]
 201 0244 2771A0E1 		lsr	r7, r7, #2
 202 0248 8EE0A0E1 		lsl	lr, lr, #1
 203 024c 900E00E0 		mul	r0, r0, lr
 204 0250 04008DE5 		str	r0, [sp, #4]
 205 0254 08009DE5 		ldr	r0, [sp, #8]
 206 0258 07A007E2 		and	r10, r7, #7
 207 025c A881A0E1 		lsr	r8, r8, #3
 208 0260 A991A0E1 		lsr	r9, r9, #3
 209 0264 1F9009E2 		and	r9, r9, #31
 210 0268 8881A0E1 		lsl	r8, r8, #3
 211 026c 8AA2A0E1 		lsl	r10, r10, #5
 212 0270 A771A0E1 		lsr	r7, r7, #3
 213 0274 80B0A0E1 		lsl	fp, r0, #1
 214              	.L33:
 215 0278 04009DE5 		ldr	r0, [sp, #4]
 216 027c 033082E0 		add	r3, r2, r3
 217 0280 0BE08CE0 		add	lr, ip, fp
 218 0284 0A6089E1 		orr	r6, r9, r10
 219 0288 030051E1 		cmp	r1, r3
 220 028c 0060CCE5 		strb	r6, [ip]
 221 0290 00508EE0 		add	r5, lr, r0
 222 0294 014084E2 		add	r4, r4, #1
 223 0298 070088E1 		orr	r0, r8, r7
 224 029c 016043E0 		sub	r6, r3, r1
 225 02a0 0100CCE5 		strb	r0, [ip, #1]
 226 02a4 0630A091 		movls	r3, r6
 227 02a8 0EC0A081 		movhi	ip, lr
 228 02ac 05C0A091 		movls	ip, r5
ARM GAS  C:\Users\ldebo\AppData\Local\Temp\ccevlpv4.s 			page 5


 229 02b0 040051E1 		cmp	r1, r4
 230 02b4 EFFFFF1A 		bne	.L33
 231 02b8 08309DE5 		ldr	r3, [sp, #8]
 232              	.L32:
 233 02bc 0C009DE5 		ldr	r0, [sp, #12]
 234 02c0 910321E0 		mla	r1, r1, r3, r0
 235 02c4 40309DE5 		ldr	r3, [sp, #64]
 236 02c8 10009DE5 		ldr	r0, [sp, #16]
 237 02cc 920322E0 		mla	r2, r2, r3, r0
 238 02d0 14309DE5 		ldr	r3, [sp, #20]
 239 02d4 101083E5 		str	r1, [r3, #16]
 240 02d8 142083E5 		str	r2, [r3, #20]
 241 02dc 1CD08DE2 		add	sp, sp, #28
 242              		@ sp needed
 243 02e0 F08FBDE8 		pop	{r4, r5, r6, r7, r8, r9, r10, fp, pc}
 244              		.size	_ZL10DiagLine16P8tagINTDCjjii, .-_ZL10DiagLine16P8tagINTDCjjii
 245              		.align	2
 246              		.syntax unified
 247              		.arm
 248              		.fpu vfp
 249              		.type	_ZL11WriteChar16P8tagINTDCh, %function
 250              	_ZL11WriteChar16P8tagINTDCh:
 251              		@ args = 0, pretend = 0, frame = 16
 252              		@ frame_needed = 0, uses_anonymous_args = 0
 253 02e4 F04F2DE9 		push	{r4, r5, r6, r7, r8, r9, r10, fp, lr}
 254 02e8 102090E5 		ldr	r2, [r0, #16]
 255 02ec 14D04DE2 		sub	sp, sp, #20
 256 02f0 02C0A0E1 		mov	ip, r2
 257 02f4 08208DE5 		str	r2, [sp, #8]
 258 02f8 0020A0E1 		mov	r2, r0
 259 02fc 045090E5 		ldr	r5, [r0, #4]
 260 0300 0C008DE5 		str	r0, [sp, #12]
 261 0304 140090E5 		ldr	r0, [r0, #20]
 262 0308 8C30A0E1 		lsl	r3, ip, #1
 263 030c 8550A0E1 		lsl	r5, r5, #1
 264 0310 903520E0 		mla	r0, r0, r5, r3
 265 0314 0112A0E1 		lsl	r1, r1, #4
 266 0318 D4309FE5 		ldr	r3, .L43
 267 031c 00C092E5 		ldr	ip, [r2]
 268 0320 22B0D2E5 		ldrb	fp, [r2, #34]	@ zero_extendqisi2
 269 0324 21A0D2E5 		ldrb	r10, [r2, #33]	@ zero_extendqisi2
 270 0328 2090D2E5 		ldrb	r9, [r2, #32]	@ zero_extendqisi2
 271 032c 2680D2E5 		ldrb	r8, [r2, #38]	@ zero_extendqisi2
 272 0330 2570D2E5 		ldrb	r7, [r2, #37]	@ zero_extendqisi2
 273 0334 2460D2E5 		ldrb	r6, [r2, #36]	@ zero_extendqisi2
 274 0338 102081E2 		add	r2, r1, #16
 275 033c 022083E0 		add	r2, r3, r2
 276 0340 013083E0 		add	r3, r3, r1
 277 0344 0C0080E0 		add	r0, r0, ip
 278 0348 ABB1A0E1 		lsr	fp, fp, #3
 279 034c 2AA1A0E1 		lsr	r10, r10, #2
 280 0350 A991A0E1 		lsr	r9, r9, #3
 281 0354 A881A0E1 		lsr	r8, r8, #3
 282 0358 2771A0E1 		lsr	r7, r7, #2
 283 035c A661A0E1 		lsr	r6, r6, #3
 284 0360 04208DE5 		str	r2, [sp, #4]
 285 0364 00308DE5 		str	r3, [sp]
ARM GAS  C:\Users\ldebo\AppData\Local\Temp\ccevlpv4.s 			page 6


 286              	.L39:
 287 0368 0010A0E3 		mov	r1, #0
 288 036c 04E093E4 		ldr	lr, [r3], #4
 289 0370 00308DE5 		str	r3, [sp]
 290              	.L38:
 291 0374 00005EE3 		cmp	lr, #0
 292 0378 0A40A0B1 		movlt	r4, r10
 293 037c 0740A0A1 		movge	r4, r7
 294 0380 09C0A0B1 		movlt	ip, r9
 295 0384 06C0A0A1 		movge	ip, r6
 296 0388 0B30A0B1 		movlt	r3, fp
 297 038c 0830A0A1 		movge	r3, r8
 298 0390 072004E2 		and	r2, r4, #7
 299 0394 82C28CE1 		orr	ip, ip, r2, lsl #5
 300 0398 072001E2 		and	r2, r1, #7
 301 039c 82C0C0E7 		strb	ip, [r0, r2, lsl #1]
 302 03a0 070052E3 		cmp	r2, #7
 303 03a4 8331A0E1 		lsl	r3, r3, #3
 304 03a8 011081E2 		add	r1, r1, #1
 305 03ac 05C080E0 		add	ip, r0, r5
 306 03b0 A43183E1 		orr	r3, r3, r4, lsr #3
 307 03b4 824080E0 		add	r4, r0, r2, lsl #1
 308 03b8 0C00A001 		moveq	r0, ip
 309 03bc 200051E3 		cmp	r1, #32
 310 03c0 8EE0A0E1 		lsl	lr, lr, #1
 311 03c4 0130C4E5 		strb	r3, [r4, #1]
 312 03c8 E9FFFF1A 		bne	.L38
 313 03cc 00309DE5 		ldr	r3, [sp]
 314 03d0 04209DE5 		ldr	r2, [sp, #4]
 315 03d4 020053E1 		cmp	r3, r2
 316 03d8 E2FFFF1A 		bne	.L39
 317 03dc 08309DE5 		ldr	r3, [sp, #8]
 318 03e0 0C209DE5 		ldr	r2, [sp, #12]
 319 03e4 083083E2 		add	r3, r3, #8
 320 03e8 103082E5 		str	r3, [r2, #16]
 321 03ec 14D08DE2 		add	sp, sp, #20
 322              		@ sp needed
 323 03f0 F08FBDE8 		pop	{r4, r5, r6, r7, r8, r9, r10, fp, pc}
 324              	.L44:
 325              		.align	2
 326              	.L43:
 327 03f4 00000000 		.word	.LANCHOR0
 328              		.size	_ZL11WriteChar16P8tagINTDCh, .-_ZL11WriteChar16P8tagINTDCh
 329              		.align	2
 330              		.syntax unified
 331              		.arm
 332              		.fpu vfp
 333              		.type	_ZL10PutImage16P8tagINTDCjj12tagIMAGE_PTRb, %function
 334              	_ZL10PutImage16P8tagINTDCjj12tagIMAGE_PTRb:
 335              		@ args = 4, pretend = 0, frame = 8
 336              		@ frame_needed = 0, uses_anonymous_args = 0
 337 03f8 F04F2DE9 		push	{r4, r5, r6, r7, r8, r9, r10, fp, lr}
 338 03fc 049090E5 		ldr	r9, [r0, #4]
 339 0400 14C090E5 		ldr	ip, [r0, #20]
 340 0404 8990A0E1 		lsl	r9, r9, #1
 341 0408 9C090CE0 		mul	ip, ip, r9
 342 040c 0CD04DE2 		sub	sp, sp, #12
ARM GAS  C:\Users\ldebo\AppData\Local\Temp\ccevlpv4.s 			page 7


 343 0410 10E090E5 		ldr	lr, [r0, #16]
 344 0414 004090E5 		ldr	r4, [r0]
 345 0418 00A052E2 		subs	r10, r2, #0
 346 041c 3020DDE5 		ldrb	r2, [sp, #48]	@ zero_extendqisi2
 347 0420 8EC08CE0 		add	ip, ip, lr, lsl #1
 348 0424 04408CE0 		add	r4, ip, r4
 349 0428 04208DE5 		str	r2, [sp, #4]
 350 042c 1900000A 		beq	.L45
 351 0430 000051E3 		cmp	r1, #0
 352 0434 1700000A 		beq	.L45
 353 0438 0160A0E1 		mov	r6, r1
 354 043c 0080A0E3 		mov	r8, #0
 355 0440 0270A0E3 		mov	r7, #2
 356 0444 0350A0E1 		mov	r5, r3
 357 0448 8130A0E1 		lsl	r3, r1, #1
 358 044c 00308DE5 		str	r3, [sp]
 359              	.L48:
 360 0450 00B0A0E3 		mov	fp, #0
 361              	.L49:
 362 0454 8B00A0E1 		lsl	r0, fp, #1
 363 0458 001085E0 		add	r1, r5, r0
 364 045c 01B08BE2 		add	fp, fp, #1
 365 0460 000084E0 		add	r0, r4, r0
 366 0464 0720A0E1 		mov	r2, r7
 367 0468 FEFFFFEB 		bl	memcpy
 368 046c 0B0056E1 		cmp	r6, fp
 369 0470 F7FFFF1A 		bne	.L49
 370 0474 04309DE5 		ldr	r3, [sp, #4]
 371 0478 018088E2 		add	r8, r8, #1
 372 047c 000053E3 		cmp	r3, #0
 373 0480 0600000A 		beq	.L50
 374 0484 00309DE5 		ldr	r3, [sp]
 375 0488 08005AE1 		cmp	r10, r8
 376 048c 094044E0 		sub	r4, r4, r9
 377 0490 035085E0 		add	r5, r5, r3
 378 0494 EDFFFF1A 		bne	.L48
 379              	.L45:
 380 0498 0CD08DE2 		add	sp, sp, #12
 381              		@ sp needed
 382 049c F08FBDE8 		pop	{r4, r5, r6, r7, r8, r9, r10, fp, pc}
 383              	.L50:
 384 04a0 00309DE5 		ldr	r3, [sp]
 385 04a4 08005AE1 		cmp	r10, r8
 386 04a8 094084E0 		add	r4, r4, r9
 387 04ac 035085E0 		add	r5, r5, r3
 388 04b0 E6FFFF1A 		bne	.L48
 389 04b4 0CD08DE2 		add	sp, sp, #12
 390              		@ sp needed
 391 04b8 F08FBDE8 		pop	{r4, r5, r6, r7, r8, r9, r10, fp, pc}
 392              		.size	_ZL10PutImage16P8tagINTDCjj12tagIMAGE_PTRb, .-_ZL10PutImage16P8tagINTDCjj12tagIMAGE_PTRb
 393              		.align	2
 394              		.syntax unified
 395              		.arm
 396              		.fpu vfp
 397              		.type	_ZL11ClearArea24P8tagINTDCjjjj, %function
 398              	_ZL11ClearArea24P8tagINTDCjjjj:
 399              		@ args = 4, pretend = 0, frame = 0
ARM GAS  C:\Users\ldebo\AppData\Local\Temp\ccevlpv4.s 			page 8


 400              		@ frame_needed = 0, uses_anonymous_args = 0
 401 04bc F84F2DE9 		push	{r3, r4, r5, r6, r7, r8, r9, r10, fp, lr}
 402 04c0 049090E5 		ldr	r9, [r0, #4]
 403 04c4 28A09DE5 		ldr	r10, [sp, #40]
 404 04c8 921925E0 		mla	r5, r2, r9, r1
 405 04cc 00C090E5 		ldr	ip, [r0]
 406 04d0 855085E0 		add	r5, r5, r5, lsl #1
 407 04d4 02A05AE0 		subs	r10, r10, r2
 408 04d8 0C5085E0 		add	r5, r5, ip
 409 04dc F88FBD08 		popeq	{r3, r4, r5, r6, r7, r8, r9, r10, fp, pc}
 410 04e0 017053E0 		subs	r7, r3, r1
 411 04e4 899089E0 		add	r9, r9, r9, lsl #1
 412 04e8 F88FBD08 		popeq	{r3, r4, r5, r6, r7, r8, r9, r10, fp, pc}
 413 04ec 00B0A0E3 		mov	fp, #0
 414 04f0 0380A0E3 		mov	r8, #3
 415 04f4 877087E0 		add	r7, r7, r7, lsl #1
 416 04f8 286080E2 		add	r6, r0, #40
 417              	.L61:
 418 04fc 0040A0E3 		mov	r4, #0
 419              	.L60:
 420 0500 040085E0 		add	r0, r5, r4
 421 0504 0820A0E1 		mov	r2, r8
 422 0508 0610A0E1 		mov	r1, r6
 423 050c 034084E2 		add	r4, r4, #3
 424 0510 FEFFFFEB 		bl	memcpy
 425 0514 070054E1 		cmp	r4, r7
 426 0518 F8FFFF1A 		bne	.L60
 427 051c 01B08BE2 		add	fp, fp, #1
 428 0520 0A005BE1 		cmp	fp, r10
 429 0524 095085E0 		add	r5, r5, r9
 430 0528 F3FFFF1A 		bne	.L61
 431 052c F88FBDE8 		pop	{r3, r4, r5, r6, r7, r8, r9, r10, fp, pc}
 432              		.size	_ZL11ClearArea24P8tagINTDCjjjj, .-_ZL11ClearArea24P8tagINTDCjjjj
 433              		.align	2
 434              		.syntax unified
 435              		.arm
 436              		.fpu vfp
 437              		.type	_ZL10VertLine24P8tagINTDCji, %function
 438              	_ZL10VertLine24P8tagINTDCji:
 439              		@ args = 0, pretend = 0, frame = 0
 440              		@ frame_needed = 0, uses_anonymous_args = 0
 441 0530 F84F2DE9 		push	{r3, r4, r5, r6, r7, r8, r9, r10, fp, lr}
 442 0534 044090E5 		ldr	r4, [r0, #4]
 443 0538 103090E5 		ldr	r3, [r0, #16]
 444 053c 149090E5 		ldr	r9, [r0, #20]
 445 0540 844084E0 		add	r4, r4, r4, lsl #1
 446 0544 833083E0 		add	r3, r3, r3, lsl #1
 447 0548 993423E0 		mla	r3, r9, r4, r3
 448 054c 0080A0E1 		mov	r8, r0
 449 0550 000090E5 		ldr	r0, [r0]
 450 0554 005051E2 		subs	r5, r1, #0
 451 0558 02A0A0E1 		mov	r10, r2
 452 055c 003083E0 		add	r3, r3, r0
 453 0560 0C00000A 		beq	.L71
 454 0564 010052E3 		cmp	r2, #1
 455 0568 00B0A0E3 		mov	fp, #0
 456 056c 0370A0E3 		mov	r7, #3
ARM GAS  C:\Users\ldebo\AppData\Local\Temp\ccevlpv4.s 			page 9


 457 0570 206088E2 		add	r6, r8, #32
 458 0574 0A00000A 		beq	.L73
 459              	.L72:
 460 0578 0300A0E1 		mov	r0, r3
 461 057c 0720A0E1 		mov	r2, r7
 462 0580 0610A0E1 		mov	r1, r6
 463 0584 FEFFFFEB 		bl	memcpy
 464 0588 01B08BE2 		add	fp, fp, #1
 465 058c 0B0055E1 		cmp	r5, fp
 466 0590 043040E0 		sub	r3, r0, r4
 467 0594 F7FFFF1A 		bne	.L72
 468              	.L71:
 469 0598 959A25E0 		mla	r5, r5, r10, r9
 470 059c 145088E5 		str	r5, [r8, #20]
 471 05a0 F88FBDE8 		pop	{r3, r4, r5, r6, r7, r8, r9, r10, fp, pc}
 472              	.L73:
 473 05a4 0300A0E1 		mov	r0, r3
 474 05a8 0720A0E1 		mov	r2, r7
 475 05ac 0610A0E1 		mov	r1, r6
 476 05b0 FEFFFFEB 		bl	memcpy
 477 05b4 01B08BE2 		add	fp, fp, #1
 478 05b8 0B0055E1 		cmp	r5, fp
 479 05bc 043080E0 		add	r3, r0, r4
 480 05c0 F7FFFF1A 		bne	.L73
 481 05c4 F3FFFFEA 		b	.L71
 482              		.size	_ZL10VertLine24P8tagINTDCji, .-_ZL10VertLine24P8tagINTDCji
 483              		.align	2
 484              		.syntax unified
 485              		.arm
 486              		.fpu vfp
 487              		.type	_ZL10HorzLine24P8tagINTDCji, %function
 488              	_ZL10HorzLine24P8tagINTDCji:
 489              		@ args = 0, pretend = 0, frame = 0
 490              		@ frame_needed = 0, uses_anonymous_args = 0
 491 05c8 F84F2DE9 		push	{r3, r4, r5, r6, r7, r8, r9, r10, fp, lr}
 492 05cc 0060A0E1 		mov	r6, r0
 493 05d0 043090E5 		ldr	r3, [r0, #4]
 494 05d4 107090E5 		ldr	r7, [r0, #16]
 495 05d8 14C090E5 		ldr	ip, [r0, #20]
 496 05dc 833083E0 		add	r3, r3, r3, lsl #1
 497 05e0 870087E0 		add	r0, r7, r7, lsl #1
 498 05e4 9C0323E0 		mla	r3, ip, r3, r0
 499 05e8 000096E5 		ldr	r0, [r6]
 500 05ec 004051E2 		subs	r4, r1, #0
 501 05f0 0290A0E1 		mov	r9, r2
 502 05f4 003083E0 		add	r3, r3, r0
 503 05f8 00B0A013 		movne	fp, #0
 504 05fc 03A0A013 		movne	r10, #3
 505 0600 82808210 		addne	r8, r2, r2, lsl #1
 506 0604 20508612 		addne	r5, r6, #32
 507 0608 0700000A 		beq	.L78
 508              	.L79:
 509 060c 0300A0E1 		mov	r0, r3
 510 0610 0A20A0E1 		mov	r2, r10
 511 0614 0510A0E1 		mov	r1, r5
 512 0618 FEFFFFEB 		bl	memcpy
 513 061c 01B08BE2 		add	fp, fp, #1
ARM GAS  C:\Users\ldebo\AppData\Local\Temp\ccevlpv4.s 			page 10


 514 0620 0B0054E1 		cmp	r4, fp
 515 0624 083080E0 		add	r3, r0, r8
 516 0628 F7FFFF1A 		bne	.L79
 517              	.L78:
 518 062c 947924E0 		mla	r4, r4, r9, r7
 519 0630 104086E5 		str	r4, [r6, #16]
 520 0634 F88FBDE8 		pop	{r3, r4, r5, r6, r7, r8, r9, r10, fp, pc}
 521              		.size	_ZL10HorzLine24P8tagINTDCji, .-_ZL10HorzLine24P8tagINTDCji
 522              		.align	2
 523              		.syntax unified
 524              		.arm
 525              		.fpu vfp
 526              		.type	_ZL10DiagLine24P8tagINTDCjjii, %function
 527              	_ZL10DiagLine24P8tagINTDCjjii:
 528              		@ args = 4, pretend = 0, frame = 16
 529              		@ frame_needed = 0, uses_anonymous_args = 0
 530 0638 00C0A0E1 		mov	ip, r0
 531 063c F04F2DE9 		push	{r4, r5, r6, r7, r8, r9, r10, fp, lr}
 532 0640 0150A0E1 		mov	r5, r1
 533 0644 14109CE5 		ldr	r1, [ip, #20]
 534 0648 14D04DE2 		sub	sp, sp, #20
 535 064c 01E0A0E1 		mov	lr, r1
 536 0650 00008DE5 		str	r0, [sp]
 537 0654 04609CE5 		ldr	r6, [ip, #4]
 538 0658 100090E5 		ldr	r0, [r0, #16]
 539 065c 0C108DE5 		str	r1, [sp, #12]
 540 0660 08008DE5 		str	r0, [sp, #8]
 541 0664 861086E0 		add	r1, r6, r6, lsl #1
 542 0668 800080E0 		add	r0, r0, r0, lsl #1
 543 066c 9E0121E0 		mla	r1, lr, r1, r0
 544 0670 020055E1 		cmp	r5, r2
 545 0674 00009CE5 		ldr	r0, [ip]
 546 0678 0570A031 		movcc	r7, r5
 547 067c 0270A021 		movcs	r7, r2
 548 0680 000055E3 		cmp	r5, #0
 549 0684 04308DE5 		str	r3, [sp, #4]
 550 0688 003081E0 		add	r3, r1, r0
 551 068c 1700000A 		beq	.L84
 552 0690 00B0A0E3 		mov	fp, #0
 553 0694 03A0A0E3 		mov	r10, #3
 554 0698 0B40A0E1 		mov	r4, fp
 555 069c 38209DE5 		ldr	r2, [sp, #56]
 556 06a0 822082E0 		add	r2, r2, r2, lsl #1
 557 06a4 960206E0 		mul	r6, r6, r2
 558 06a8 04209DE5 		ldr	r2, [sp, #4]
 559 06ac 829082E0 		add	r9, r2, r2, lsl #1
 560 06b0 00209DE5 		ldr	r2, [sp]
 561 06b4 208082E2 		add	r8, r2, #32
 562              	.L85:
 563 06b8 0A20A0E1 		mov	r2, r10
 564 06bc 0810A0E1 		mov	r1, r8
 565 06c0 0300A0E1 		mov	r0, r3
 566 06c4 FEFFFFEB 		bl	memcpy
 567 06c8 044087E0 		add	r4, r7, r4
 568 06cc 093080E0 		add	r3, r0, r9
 569 06d0 040055E1 		cmp	r5, r4
 570 06d4 01B08BE2 		add	fp, fp, #1
ARM GAS  C:\Users\ldebo\AppData\Local\Temp\ccevlpv4.s 			page 11


 571 06d8 061083E0 		add	r1, r3, r6
 572 06dc 052044E0 		sub	r2, r4, r5
 573 06e0 0130A091 		movls	r3, r1
 574 06e4 0240A091 		movls	r4, r2
 575 06e8 0B0055E1 		cmp	r5, fp
 576 06ec F1FFFF1A 		bne	.L85
 577              	.L84:
 578 06f0 04309DE5 		ldr	r3, [sp, #4]
 579 06f4 08209DE5 		ldr	r2, [sp, #8]
 580 06f8 952325E0 		mla	r5, r5, r3, r2
 581 06fc 38309DE5 		ldr	r3, [sp, #56]
 582 0700 0C209DE5 		ldr	r2, [sp, #12]
 583 0704 972327E0 		mla	r7, r7, r3, r2
 584 0708 00309DE5 		ldr	r3, [sp]
 585 070c 105083E5 		str	r5, [r3, #16]
 586 0710 147083E5 		str	r7, [r3, #20]
 587 0714 14D08DE2 		add	sp, sp, #20
 588              		@ sp needed
 589 0718 F08FBDE8 		pop	{r4, r5, r6, r7, r8, r9, r10, fp, pc}
 590              		.size	_ZL10DiagLine24P8tagINTDCjjii, .-_ZL10DiagLine24P8tagINTDCjjii
 591              		.align	2
 592              		.syntax unified
 593              		.arm
 594              		.fpu vfp
 595              		.type	_ZL11WriteChar24P8tagINTDCh, %function
 596              	_ZL11WriteChar24P8tagINTDCh:
 597              		@ args = 0, pretend = 0, frame = 0
 598              		@ frame_needed = 0, uses_anonymous_args = 0
 599 071c F04F2DE9 		push	{r4, r5, r6, r7, r8, r9, r10, fp, lr}
 600 0720 10A090E5 		ldr	r10, [r0, #16]
 601 0724 048090E5 		ldr	r8, [r0, #4]
 602 0728 144090E5 		ldr	r4, [r0, #20]
 603 072c 8A308AE0 		add	r3, r10, r10, lsl #1
 604 0730 888088E0 		add	r8, r8, r8, lsl #1
 605 0734 943824E0 		mla	r4, r4, r8, r3
 606 0738 0112A0E1 		lsl	r1, r1, #4
 607 073c 78909FE5 		ldr	r9, .L96
 608 0740 003090E5 		ldr	r3, [r0]
 609 0744 10B081E2 		add	fp, r1, #16
 610 0748 0BB089E0 		add	fp, r9, fp
 611 074c 034084E0 		add	r4, r4, r3
 612 0750 019089E0 		add	r9, r9, r1
 613              	.L92:
 614 0754 0030A0E3 		mov	r3, #0
 615 0758 041099E4 		ldr	r1, [r9], #4
 616              	.L91:
 617 075c 000051E3 		cmp	r1, #0
 618 0760 2470D0E5 		ldrb	r7, [r0, #36]	@ zero_extendqisi2
 619 0764 072003E2 		and	r2, r3, #7
 620 0768 2070D0B5 		ldrblt	r7, [r0, #32]	@ zero_extendqisi2
 621 076c 2560D0E5 		ldrb	r6, [r0, #37]	@ zero_extendqisi2
 622 0770 2650D0E5 		ldrb	r5, [r0, #38]	@ zero_extendqisi2
 623 0774 2160D0B5 		ldrblt	r6, [r0, #33]	@ zero_extendqisi2
 624 0778 2250D0B5 		ldrblt	r5, [r0, #34]	@ zero_extendqisi2
 625 077c 82E082E0 		add	lr, r2, r2, lsl #1
 626 0780 070052E3 		cmp	r2, #7
 627 0784 013083E2 		add	r3, r3, #1
ARM GAS  C:\Users\ldebo\AppData\Local\Temp\ccevlpv4.s 			page 12


 628 0788 0EC084E0 		add	ip, r4, lr
 629 078c 0E70C4E7 		strb	r7, [r4, lr]
 630 0790 08408400 		addeq	r4, r4, r8
 631 0794 200053E3 		cmp	r3, #32
 632 0798 8110A0E1 		lsl	r1, r1, #1
 633 079c 0160CCE5 		strb	r6, [ip, #1]
 634 07a0 0250CCE5 		strb	r5, [ip, #2]
 635 07a4 ECFFFF1A 		bne	.L91
 636 07a8 0B0059E1 		cmp	r9, fp
 637 07ac E8FFFF1A 		bne	.L92
 638 07b0 08A08AE2 		add	r10, r10, #8
 639 07b4 10A080E5 		str	r10, [r0, #16]
 640 07b8 F08FBDE8 		pop	{r4, r5, r6, r7, r8, r9, r10, fp, pc}
 641              	.L97:
 642              		.align	2
 643              	.L96:
 644 07bc 00000000 		.word	.LANCHOR0
 645              		.size	_ZL11WriteChar24P8tagINTDCh, .-_ZL11WriteChar24P8tagINTDCh
 646              		.align	2
 647              		.syntax unified
 648              		.arm
 649              		.fpu vfp
 650              		.type	_ZL10PutImage24P8tagINTDCjj12tagIMAGE_PTRb, %function
 651              	_ZL10PutImage24P8tagINTDCjj12tagIMAGE_PTRb:
 652              		@ args = 4, pretend = 0, frame = 8
 653              		@ frame_needed = 0, uses_anonymous_args = 0
 654 07c0 F04F2DE9 		push	{r4, r5, r6, r7, r8, r9, r10, fp, lr}
 655 07c4 049090E5 		ldr	r9, [r0, #4]
 656 07c8 10E090E5 		ldr	lr, [r0, #16]
 657 07cc 14C090E5 		ldr	ip, [r0, #20]
 658 07d0 899089E0 		add	r9, r9, r9, lsl #1
 659 07d4 8EE08EE0 		add	lr, lr, lr, lsl #1
 660 07d8 9CE92CE0 		mla	ip, ip, r9, lr
 661 07dc 0CD04DE2 		sub	sp, sp, #12
 662 07e0 004090E5 		ldr	r4, [r0]
 663 07e4 00A052E2 		subs	r10, r2, #0
 664 07e8 3020DDE5 		ldrb	r2, [sp, #48]	@ zero_extendqisi2
 665 07ec 04408CE0 		add	r4, ip, r4
 666 07f0 04208DE5 		str	r2, [sp, #4]
 667 07f4 1500000A 		beq	.L98
 668 07f8 000051E3 		cmp	r1, #0
 669 07fc 1300000A 		beq	.L98
 670 0800 0350A0E1 		mov	r5, r3
 671 0804 0080A0E3 		mov	r8, #0
 672 0808 0370A0E3 		mov	r7, #3
 673 080c 816081E0 		add	r6, r1, r1, lsl #1
 674              	.L101:
 675 0810 00B0A0E3 		mov	fp, #0
 676              	.L102:
 677 0814 0B1085E0 		add	r1, r5, fp
 678 0818 0B0084E0 		add	r0, r4, fp
 679 081c 0720A0E1 		mov	r2, r7
 680 0820 03B08BE2 		add	fp, fp, #3
 681 0824 FEFFFFEB 		bl	memcpy
 682 0828 06005BE1 		cmp	fp, r6
 683 082c F8FFFF1A 		bne	.L102
 684 0830 04309DE5 		ldr	r3, [sp, #4]
ARM GAS  C:\Users\ldebo\AppData\Local\Temp\ccevlpv4.s 			page 13


 685 0834 018088E2 		add	r8, r8, #1
 686 0838 000053E3 		cmp	r3, #0
 687 083c 0500000A 		beq	.L103
 688 0840 08005AE1 		cmp	r10, r8
 689 0844 094044E0 		sub	r4, r4, r9
 690 0848 065085E0 		add	r5, r5, r6
 691 084c EFFFFF1A 		bne	.L101
 692              	.L98:
 693 0850 0CD08DE2 		add	sp, sp, #12
 694              		@ sp needed
 695 0854 F08FBDE8 		pop	{r4, r5, r6, r7, r8, r9, r10, fp, pc}
 696              	.L103:
 697 0858 08005AE1 		cmp	r10, r8
 698 085c 094084E0 		add	r4, r4, r9
 699 0860 065085E0 		add	r5, r5, r6
 700 0864 E9FFFF1A 		bne	.L101
 701 0868 0CD08DE2 		add	sp, sp, #12
 702              		@ sp needed
 703 086c F08FBDE8 		pop	{r4, r5, r6, r7, r8, r9, r10, fp, pc}
 704              		.size	_ZL10PutImage24P8tagINTDCjj12tagIMAGE_PTRb, .-_ZL10PutImage24P8tagINTDCjj12tagIMAGE_PTRb
 705              		.align	2
 706              		.syntax unified
 707              		.arm
 708              		.fpu vfp
 709              		.type	_ZL11ClearArea32P8tagINTDCjjjj, %function
 710              	_ZL11ClearArea32P8tagINTDCjjjj:
 711              		@ args = 4, pretend = 0, frame = 0
 712              		@ frame_needed = 0, uses_anonymous_args = 0
 713 0870 10402DE9 		push	{r4, lr}
 714 0874 04E090E5 		ldr	lr, [r0, #4]
 715 0878 02C1A0E1 		lsl	ip, r2, #2
 716 087c 9ECC2CE0 		mla	ip, lr, ip, ip
 717 0880 08409DE5 		ldr	r4, [sp, #8]
 718 0884 00E090E5 		ldr	lr, [r0]
 719 0888 024054E0 		subs	r4, r4, r2
 720 088c 0EC08CE0 		add	ip, ip, lr
 721 0890 1080BD08 		popeq	{r4, pc}
 722 0894 011053E0 		subs	r1, r3, r1
 723 0898 1080BD08 		popeq	{r4, pc}
 724 089c 00E0A0E3 		mov	lr, #0
 725              	.L114:
 726 08a0 0030A0E3 		mov	r3, #0
 727              	.L113:
 728 08a4 282090E5 		ldr	r2, [r0, #40]
 729 08a8 03218CE7 		str	r2, [ip, r3, lsl #2]
 730 08ac 013083E2 		add	r3, r3, #1
 731 08b0 030051E1 		cmp	r1, r3
 732 08b4 FAFFFF1A 		bne	.L113
 733 08b8 01E08EE2 		add	lr, lr, #1
 734 08bc 043090E5 		ldr	r3, [r0, #4]
 735 08c0 04005EE1 		cmp	lr, r4
 736 08c4 03C18CE0 		add	ip, ip, r3, lsl #2
 737 08c8 F4FFFF1A 		bne	.L114
 738 08cc 1080BDE8 		pop	{r4, pc}
 739              		.size	_ZL11ClearArea32P8tagINTDCjjjj, .-_ZL11ClearArea32P8tagINTDCjjjj
 740              		.align	2
 741              		.syntax unified
ARM GAS  C:\Users\ldebo\AppData\Local\Temp\ccevlpv4.s 			page 14


 742              		.arm
 743              		.fpu vfp
 744              		.type	_ZL10VertLine32P8tagINTDCji, %function
 745              	_ZL10VertLine32P8tagINTDCji:
 746              		@ args = 0, pretend = 0, frame = 0
 747              		@ frame_needed = 0, uses_anonymous_args = 0
 748 08d0 043090E5 		ldr	r3, [r0, #4]
 749 08d4 10C090E5 		ldr	ip, [r0, #16]
 750 08d8 10402DE9 		push	{r4, lr}
 751 08dc 144090E5 		ldr	r4, [r0, #20]
 752 08e0 0CC1A0E1 		lsl	ip, ip, #2
 753 08e4 0331A0E1 		lsl	r3, r3, #2
 754 08e8 94C323E0 		mla	r3, r4, r3, ip
 755 08ec 00C090E5 		ldr	ip, [r0]
 756 08f0 000051E3 		cmp	r1, #0
 757 08f4 0C3083E0 		add	r3, r3, ip
 758 08f8 0900000A 		beq	.L123
 759 08fc 010052E3 		cmp	r2, #1
 760 0900 00C0A0E3 		mov	ip, #0
 761 0904 0900000A 		beq	.L125
 762              	.L124:
 763 0908 20E090E5 		ldr	lr, [r0, #32]
 764 090c 01C08CE2 		add	ip, ip, #1
 765 0910 00E083E5 		str	lr, [r3]
 766 0914 04E090E5 		ldr	lr, [r0, #4]
 767 0918 0C0051E1 		cmp	r1, ip
 768 091c 0E3143E0 		sub	r3, r3, lr, lsl #2
 769 0920 F8FFFF1A 		bne	.L124
 770              	.L123:
 771 0924 914221E0 		mla	r1, r1, r2, r4
 772 0928 141080E5 		str	r1, [r0, #20]
 773 092c 1080BDE8 		pop	{r4, pc}
 774              	.L125:
 775 0930 20E090E5 		ldr	lr, [r0, #32]
 776 0934 01C08CE2 		add	ip, ip, #1
 777 0938 00E083E5 		str	lr, [r3]
 778 093c 04E090E5 		ldr	lr, [r0, #4]
 779 0940 0C0051E1 		cmp	r1, ip
 780 0944 0E3183E0 		add	r3, r3, lr, lsl #2
 781 0948 F8FFFF1A 		bne	.L125
 782 094c F4FFFFEA 		b	.L123
 783              		.size	_ZL10VertLine32P8tagINTDCji, .-_ZL10VertLine32P8tagINTDCji
 784              		.align	2
 785              		.syntax unified
 786              		.arm
 787              		.fpu vfp
 788              		.type	_ZL10HorzLine32P8tagINTDCji, %function
 789              	_ZL10HorzLine32P8tagINTDCji:
 790              		@ args = 0, pretend = 0, frame = 0
 791              		@ frame_needed = 0, uses_anonymous_args = 0
 792 0950 30402DE9 		push	{r4, r5, lr}
 793 0954 04C090E5 		ldr	ip, [r0, #4]
 794 0958 104090E5 		ldr	r4, [r0, #16]
 795 095c 14E090E5 		ldr	lr, [r0, #20]
 796 0960 0431A0E1 		lsl	r3, r4, #2
 797 0964 0CC1A0E1 		lsl	ip, ip, #2
 798 0968 9E3C2CE0 		mla	ip, lr, ip, r3
ARM GAS  C:\Users\ldebo\AppData\Local\Temp\ccevlpv4.s 			page 15


 799 096c 003090E5 		ldr	r3, [r0]
 800 0970 000051E3 		cmp	r1, #0
 801 0974 03C08CE0 		add	ip, ip, r3
 802 0978 0251A011 		lslne	r5, r2, #2
 803 097c 0030A013 		movne	r3, #0
 804 0980 0400000A 		beq	.L132
 805              	.L133:
 806 0984 013083E2 		add	r3, r3, #1
 807 0988 20E090E5 		ldr	lr, [r0, #32]
 808 098c 030051E1 		cmp	r1, r3
 809 0990 05E08CE6 		str	lr, [ip], r5
 810 0994 FAFFFF1A 		bne	.L133
 811              	.L132:
 812 0998 914221E0 		mla	r1, r1, r2, r4
 813 099c 101080E5 		str	r1, [r0, #16]
 814 09a0 3080BDE8 		pop	{r4, r5, pc}
 815              		.size	_ZL10HorzLine32P8tagINTDCji, .-_ZL10HorzLine32P8tagINTDCji
 816              		.align	2
 817              		.syntax unified
 818              		.arm
 819              		.fpu vfp
 820              		.type	_ZL10DiagLine32P8tagINTDCjjii, %function
 821              	_ZL10DiagLine32P8tagINTDCjjii:
 822              		@ args = 4, pretend = 0, frame = 0
 823              		@ frame_needed = 0, uses_anonymous_args = 0
 824 09a4 020051E1 		cmp	r1, r2
 825 09a8 0120A031 		movcc	r2, r1
 826 09ac 000051E3 		cmp	r1, #0
 827 09b0 F04F2DE9 		push	{r4, r5, r6, r7, r8, r9, r10, fp, lr}
 828 09b4 0040A013 		movne	r4, #0
 829 09b8 105090E5 		ldr	r5, [r0, #16]
 830 09bc 04C090E5 		ldr	ip, [r0, #4]
 831 09c0 146090E5 		ldr	r6, [r0, #20]
 832 09c4 05E1A0E1 		lsl	lr, r5, #2
 833 09c8 0CC1A0E1 		lsl	ip, ip, #2
 834 09cc 96EC2CE0 		mla	ip, r6, ip, lr
 835 09d0 24809DE5 		ldr	r8, [sp, #36]
 836 09d4 00E090E5 		ldr	lr, [r0]
 837 09d8 0391A011 		lslne	r9, r3, #2
 838 09dc 0EC08CE0 		add	ip, ip, lr
 839 09e0 0871A011 		lslne	r7, r8, #2
 840 09e4 04E0A011 		movne	lr, r4
 841 09e8 0B00000A 		beq	.L139
 842              	.L140:
 843 09ec 20A090E5 		ldr	r10, [r0, #32]
 844 09f0 02E08EE0 		add	lr, lr, r2
 845 09f4 09A08CE6 		str	r10, [ip], r9
 846 09f8 04B090E5 		ldr	fp, [r0, #4]
 847 09fc 0E0051E1 		cmp	r1, lr
 848 0a00 9BC72BE0 		mla	fp, fp, r7, ip
 849 0a04 014084E2 		add	r4, r4, #1
 850 0a08 01A04EE0 		sub	r10, lr, r1
 851 0a0c 0BC0A091 		movls	ip, fp
 852 0a10 0AE0A091 		movls	lr, r10
 853 0a14 040051E1 		cmp	r1, r4
 854 0a18 F3FFFF1A 		bne	.L140
 855              	.L139:
ARM GAS  C:\Users\ldebo\AppData\Local\Temp\ccevlpv4.s 			page 16


 856 0a1c 915321E0 		mla	r1, r1, r3, r5
 857 0a20 926822E0 		mla	r2, r2, r8, r6
 858 0a24 101080E5 		str	r1, [r0, #16]
 859 0a28 142080E5 		str	r2, [r0, #20]
 860 0a2c F08FBDE8 		pop	{r4, r5, r6, r7, r8, r9, r10, fp, pc}
 861              		.size	_ZL10DiagLine32P8tagINTDCjjii, .-_ZL10DiagLine32P8tagINTDCjjii
 862              		.align	2
 863              		.syntax unified
 864              		.arm
 865              		.fpu vfp
 866              		.type	_ZL11WriteChar32P8tagINTDCh, %function
 867              	_ZL11WriteChar32P8tagINTDCh:
 868              		@ args = 0, pretend = 0, frame = 8
 869              		@ frame_needed = 0, uses_anonymous_args = 0
 870 0a30 70402DE9 		push	{r4, r5, r6, lr}
 871 0a34 106090E5 		ldr	r6, [r0, #16]
 872 0a38 04E090E5 		ldr	lr, [r0, #4]
 873 0a3c 142090E5 		ldr	r2, [r0, #20]
 874 0a40 0631A0E1 		lsl	r3, r6, #2
 875 0a44 0EE1A0E1 		lsl	lr, lr, #2
 876 0a48 923E2EE0 		mla	lr, r2, lr, r3
 877 0a4c 0112A0E1 		lsl	r1, r1, #4
 878 0a50 68409FE5 		ldr	r4, .L153
 879 0a54 003090E5 		ldr	r3, [r0]
 880 0a58 105081E2 		add	r5, r1, #16
 881 0a5c 055084E0 		add	r5, r4, r5
 882 0a60 08D04DE2 		sub	sp, sp, #8
 883 0a64 03E08EE0 		add	lr, lr, r3
 884 0a68 014084E0 		add	r4, r4, r1
 885              	.L149:
 886 0a6c 0030A0E3 		mov	r3, #0
 887 0a70 042094E4 		ldr	r2, [r4], #4
 888              	.L148:
 889 0a74 000052E3 		cmp	r2, #0
 890 0a78 24C090A5 		ldrge	ip, [r0, #36]
 891 0a7c 20C090B5 		ldrlt	ip, [r0, #32]
 892 0a80 071003E2 		and	r1, r3, #7
 893 0a84 070051E3 		cmp	r1, #7
 894 0a88 01C18EE7 		str	ip, [lr, r1, lsl #2]
 895 0a8c 04109005 		ldreq	r1, [r0, #4]
 896 0a90 013083E2 		add	r3, r3, #1
 897 0a94 01E18E00 		addeq	lr, lr, r1, lsl #2
 898 0a98 200053E3 		cmp	r3, #32
 899 0a9c 04C08DE5 		str	ip, [sp, #4]
 900 0aa0 8220A0E1 		lsl	r2, r2, #1
 901 0aa4 F2FFFF1A 		bne	.L148
 902 0aa8 040055E1 		cmp	r5, r4
 903 0aac EEFFFF1A 		bne	.L149
 904 0ab0 086086E2 		add	r6, r6, #8
 905 0ab4 106080E5 		str	r6, [r0, #16]
 906 0ab8 08D08DE2 		add	sp, sp, #8
 907              		@ sp needed
 908 0abc 7080BDE8 		pop	{r4, r5, r6, pc}
 909              	.L154:
 910              		.align	2
 911              	.L153:
 912 0ac0 00000000 		.word	.LANCHOR0
ARM GAS  C:\Users\ldebo\AppData\Local\Temp\ccevlpv4.s 			page 17


 913              		.size	_ZL11WriteChar32P8tagINTDCh, .-_ZL11WriteChar32P8tagINTDCh
 914              		.align	2
 915              		.syntax unified
 916              		.arm
 917              		.fpu vfp
 918              		.type	_ZL10PutImage32P8tagINTDCjj12tagIMAGE_PTRb, %function
 919              	_ZL10PutImage32P8tagINTDCjj12tagIMAGE_PTRb:
 920              		@ args = 4, pretend = 0, frame = 0
 921              		@ frame_needed = 0, uses_anonymous_args = 0
 922 0ac4 F0402DE9 		push	{r4, r5, r6, r7, lr}
 923 0ac8 10C090E5 		ldr	ip, [r0, #16]
 924 0acc 044090E5 		ldr	r4, [r0, #4]
 925 0ad0 14E090E5 		ldr	lr, [r0, #20]
 926 0ad4 0CC1A0E1 		lsl	ip, ip, #2
 927 0ad8 0441A0E1 		lsl	r4, r4, #2
 928 0adc 9EC424E0 		mla	r4, lr, r4, ip
 929 0ae0 00C090E5 		ldr	ip, [r0]
 930 0ae4 000052E3 		cmp	r2, #0
 931 0ae8 0C4084E0 		add	r4, r4, ip
 932 0aec 1470DDE5 		ldrb	r7, [sp, #20]	@ zero_extendqisi2
 933 0af0 F080BD08 		popeq	{r4, r5, r6, r7, pc}
 934 0af4 000051E3 		cmp	r1, #0
 935 0af8 F080BD08 		popeq	{r4, r5, r6, r7, pc}
 936 0afc 0050A0E3 		mov	r5, #0
 937 0b00 0161A0E1 		lsl	r6, r1, #2
 938              	.L158:
 939 0b04 00C0A0E3 		mov	ip, #0
 940              	.L159:
 941 0b08 0CE193E7 		ldr	lr, [r3, ip, lsl #2]
 942 0b0c 0CE184E7 		str	lr, [r4, ip, lsl #2]
 943 0b10 01C08CE2 		add	ip, ip, #1
 944 0b14 0C0051E1 		cmp	r1, ip
 945 0b18 FAFFFF1A 		bne	.L159
 946 0b1c 000057E3 		cmp	r7, #0
 947 0b20 015085E2 		add	r5, r5, #1
 948 0b24 04C090E5 		ldr	ip, [r0, #4]
 949 0b28 0400000A 		beq	.L160
 950 0b2c 050052E1 		cmp	r2, r5
 951 0b30 063083E0 		add	r3, r3, r6
 952 0b34 0C4144E0 		sub	r4, r4, ip, lsl #2
 953 0b38 F1FFFF1A 		bne	.L158
 954 0b3c F080BDE8 		pop	{r4, r5, r6, r7, pc}
 955              	.L160:
 956 0b40 050052E1 		cmp	r2, r5
 957 0b44 063083E0 		add	r3, r3, r6
 958 0b48 0C4184E0 		add	r4, r4, ip, lsl #2
 959 0b4c ECFFFF1A 		bne	.L158
 960 0b50 F080BDE8 		pop	{r4, r5, r6, r7, pc}
 961              		.size	_ZL10PutImage32P8tagINTDCjj12tagIMAGE_PTRb, .-_ZL10PutImage32P8tagINTDCjj12tagIMAGE_PTRb
 962              		.align	2
 963              		.syntax unified
 964              		.arm
 965              		.fpu vfp
 966              		.type	mailbox_tag_message.constprop.4, %function
 967              	mailbox_tag_message.constprop.4:
 968              		@ args = 4, pretend = 12, frame = 8
 969              		@ frame_needed = 1, uses_anonymous_args = 1
ARM GAS  C:\Users\ldebo\AppData\Local\Temp\ccevlpv4.s 			page 18


 970 0b54 0E002DE9 		push	{r1, r2, r3}
 971 0b58 2000A0E3 		mov	r0, #32
 972 0b5c 0020A0E3 		mov	r2, #0
 973 0b60 70482DE9 		push	{r4, r5, r6, fp, lr}
 974 0b64 10B08DE2 		add	fp, sp, #16
 975 0b68 08D04DE2 		sub	sp, sp, #8
 976 0b6c 90D04DE2 		sub	sp, sp, #144
 977 0b70 18109BE5 		ldr	r1, [fp, #24]
 978 0b74 08609BE5 		ldr	r6, [fp, #8]
 979 0b78 0C509BE5 		ldr	r5, [fp, #12]
 980 0b7c 10E09BE5 		ldr	lr, [fp, #16]
 981 0b80 14C09BE5 		ldr	ip, [fp, #20]
 982 0b84 0F408DE2 		add	r4, sp, #15
 983 0b88 0F40C4E3 		bic	r4, r4, #15
 984 0b8c 08308BE2 		add	r3, fp, #8
 985 0b90 000084E5 		str	r0, [r4]
 986 0b94 181084E5 		str	r1, [r4, #24]
 987 0b98 1C2084E5 		str	r2, [r4, #28]
 988 0b9c 042084E5 		str	r2, [r4, #4]
 989 0ba0 0400A0E1 		mov	r0, r4
 990 0ba4 086084E5 		str	r6, [r4, #8]
 991 0ba8 0C5084E5 		str	r5, [r4, #12]
 992 0bac 10E084E5 		str	lr, [r4, #16]
 993 0bb0 14C084E5 		str	ip, [r4, #20]
 994 0bb4 14300BE5 		str	r3, [fp, #-20]
 995 0bb8 FEFFFFEB 		bl	ARMaddrToGPUaddr
 996 0bbc 5C309FE5 		ldr	r3, .L175
 997 0bc0 0F10C0E3 		bic	r1, r0, #15
 998 0bc4 002093E5 		ldr	r2, [r3]
 999 0bc8 081081E3 		orr	r1, r1, #8
 1000 0bcc 2E2B82E2 		add	r2, r2, #47104
 1001 0bd0 802082E2 		add	r2, r2, #128
 1002              	.L168:
 1003 0bd4 383092E5 		ldr	r3, [r2, #56]
 1004 0bd8 000053E3 		cmp	r3, #0
 1005 0bdc FCFFFFBA 		blt	.L168
 1006 0be0 201082E5 		str	r1, [r2, #32]
 1007              	.L169:
 1008 0be4 183092E5 		ldr	r3, [r2, #24]
 1009 0be8 010113E3 		tst	r3, #1073741824
 1010 0bec FCFFFF1A 		bne	.L169
 1011 0bf0 003092E5 		ldr	r3, [r2]
 1012 0bf4 0F3003E2 		and	r3, r3, #15
 1013 0bf8 080053E3 		cmp	r3, #8
 1014 0bfc F8FFFF1A 		bne	.L169
 1015 0c00 040094E5 		ldr	r0, [r4, #4]
 1016 0c04 020140E2 		sub	r0, r0, #-2147483648
 1017 0c08 100F6FE1 		clz	r0, r0
 1018 0c0c A002A0E1 		lsr	r0, r0, #5
 1019 0c10 10D04BE2 		sub	sp, fp, #16
 1020              		@ sp needed
 1021 0c14 7048BDE8 		pop	{r4, r5, r6, fp, lr}
 1022 0c18 0CD08DE2 		add	sp, sp, #12
 1023 0c1c 1EFF2FE1 		bx	lr
 1024              	.L176:
 1025              		.align	2
 1026              	.L175:
ARM GAS  C:\Users\ldebo\AppData\Local\Temp\ccevlpv4.s 			page 19


 1027 0c20 00000000 		.word	RPi_IO_Base_Addr
 1028              		.size	mailbox_tag_message.constprop.4, .-mailbox_tag_message.constprop.4
 1029              		.align	2
 1030              		.syntax unified
 1031              		.arm
 1032              		.fpu vfp
 1033              		.type	mailbox_tag_message.constprop.5, %function
 1034              	mailbox_tag_message.constprop.5:
 1035              		@ args = 4, pretend = 12, frame = 8
 1036              		@ frame_needed = 1, uses_anonymous_args = 1
 1037 0c24 0E002DE9 		push	{r1, r2, r3}
 1038 0c28 2010A0E3 		mov	r1, #32
 1039 0c2c 0020A0E3 		mov	r2, #0
 1040 0c30 F0482DE9 		push	{r4, r5, r6, r7, fp, lr}
 1041 0c34 14B08DE2 		add	fp, sp, #20
 1042 0c38 0CD04DE2 		sub	sp, sp, #12
 1043 0c3c 90D04DE2 		sub	sp, sp, #144
 1044 0c40 0F408DE2 		add	r4, sp, #15
 1045 0c44 0F40C4E3 		bic	r4, r4, #15
 1046 0c48 08709BE5 		ldr	r7, [fp, #8]
 1047 0c4c 0C609BE5 		ldr	r6, [fp, #12]
 1048 0c50 10E09BE5 		ldr	lr, [fp, #16]
 1049 0c54 14C09BE5 		ldr	ip, [fp, #20]
 1050 0c58 001084E5 		str	r1, [r4]
 1051 0c5c 18109BE5 		ldr	r1, [fp, #24]
 1052 0c60 08308BE2 		add	r3, fp, #8
 1053 0c64 181084E5 		str	r1, [r4, #24]
 1054 0c68 0050A0E1 		mov	r5, r0
 1055 0c6c 087084E5 		str	r7, [r4, #8]
 1056 0c70 0400A0E1 		mov	r0, r4
 1057 0c74 0C6084E5 		str	r6, [r4, #12]
 1058 0c78 10E084E5 		str	lr, [r4, #16]
 1059 0c7c 14C084E5 		str	ip, [r4, #20]
 1060 0c80 1C2084E5 		str	r2, [r4, #28]
 1061 0c84 042084E5 		str	r2, [r4, #4]
 1062 0c88 1C300BE5 		str	r3, [fp, #-28]
 1063 0c8c FEFFFFEB 		bl	ARMaddrToGPUaddr
 1064 0c90 88309FE5 		ldr	r3, .L190
 1065 0c94 0F10C0E3 		bic	r1, r0, #15
 1066 0c98 003093E5 		ldr	r3, [r3]
 1067 0c9c 081081E3 		orr	r1, r1, #8
 1068 0ca0 2E3B83E2 		add	r3, r3, #47104
 1069 0ca4 803083E2 		add	r3, r3, #128
 1070              	.L178:
 1071 0ca8 382093E5 		ldr	r2, [r3, #56]
 1072 0cac 000052E3 		cmp	r2, #0
 1073 0cb0 FCFFFFBA 		blt	.L178
 1074 0cb4 201083E5 		str	r1, [r3, #32]
 1075              	.L179:
 1076 0cb8 180093E5 		ldr	r0, [r3, #24]
 1077 0cbc 010110E2 		ands	r0, r0, #1073741824
 1078 0cc0 FCFFFF1A 		bne	.L179
 1079 0cc4 002093E5 		ldr	r2, [r3]
 1080 0cc8 0F2002E2 		and	r2, r2, #15
 1081 0ccc 080052E3 		cmp	r2, #8
 1082 0cd0 F8FFFF1A 		bne	.L179
 1083 0cd4 043094E5 		ldr	r3, [r4, #4]
ARM GAS  C:\Users\ldebo\AppData\Local\Temp\ccevlpv4.s 			page 20


 1084 0cd8 020153E3 		cmp	r3, #-2147483648
 1085 0cdc 0300000A 		beq	.L189
 1086 0ce0 14D04BE2 		sub	sp, fp, #20
 1087              		@ sp needed
 1088 0ce4 F048BDE8 		pop	{r4, r5, r6, r7, fp, lr}
 1089 0ce8 0CD08DE2 		add	sp, sp, #12
 1090 0cec 1EFF2FE1 		bx	lr
 1091              	.L189:
 1092 0cf0 000055E3 		cmp	r5, #0
 1093 0cf4 0400000A 		beq	.L183
 1094 0cf8 0C0084E2 		add	r0, r4, #12
 1095 0cfc 0F0090E8 		ldm	r0, {r0, r1, r2, r3}
 1096 0d00 0F0085E9 		stmib	r5, {r0, r1, r2, r3}
 1097 0d04 08C094E5 		ldr	ip, [r4, #8]
 1098 0d08 00C085E5 		str	ip, [r5]
 1099              	.L183:
 1100 0d0c 0100A0E3 		mov	r0, #1
 1101 0d10 14D04BE2 		sub	sp, fp, #20
 1102              		@ sp needed
 1103 0d14 F048BDE8 		pop	{r4, r5, r6, r7, fp, lr}
 1104 0d18 0CD08DE2 		add	sp, sp, #12
 1105 0d1c 1EFF2FE1 		bx	lr
 1106              	.L191:
 1107              		.align	2
 1108              	.L190:
 1109 0d20 00000000 		.word	RPi_IO_Base_Addr
 1110              		.size	mailbox_tag_message.constprop.5, .-mailbox_tag_message.constprop.5
 1111              		.align	2
 1112              		.syntax unified
 1113              		.arm
 1114              		.fpu vfp
 1115              		.type	mailbox_tag_message.constprop.6, %function
 1116              	mailbox_tag_message.constprop.6:
 1117              		@ args = 4, pretend = 12, frame = 8
 1118              		@ frame_needed = 1, uses_anonymous_args = 1
 1119 0d24 0E002DE9 		push	{r1, r2, r3}
 1120 0d28 0020A0E3 		mov	r2, #0
 1121 0d2c F0482DE9 		push	{r4, r5, r6, r7, fp, lr}
 1122 0d30 1C70A0E3 		mov	r7, #28
 1123 0d34 14B08DE2 		add	fp, sp, #20
 1124 0d38 0CD04DE2 		sub	sp, sp, #12
 1125 0d3c 90D04DE2 		sub	sp, sp, #144
 1126 0d40 14109BE5 		ldr	r1, [fp, #20]
 1127 0d44 08609BE5 		ldr	r6, [fp, #8]
 1128 0d48 0CE09BE5 		ldr	lr, [fp, #12]
 1129 0d4c 10C09BE5 		ldr	ip, [fp, #16]
 1130 0d50 0F408DE2 		add	r4, sp, #15
 1131 0d54 0F40C4E3 		bic	r4, r4, #15
 1132 0d58 08308BE2 		add	r3, fp, #8
 1133 0d5c 141084E5 		str	r1, [r4, #20]
 1134 0d60 0050A0E1 		mov	r5, r0
 1135 0d64 007084E5 		str	r7, [r4]
 1136 0d68 0400A0E1 		mov	r0, r4
 1137 0d6c 086084E5 		str	r6, [r4, #8]
 1138 0d70 0CE084E5 		str	lr, [r4, #12]
 1139 0d74 10C084E5 		str	ip, [r4, #16]
 1140 0d78 182084E5 		str	r2, [r4, #24]
ARM GAS  C:\Users\ldebo\AppData\Local\Temp\ccevlpv4.s 			page 21


 1141 0d7c 042084E5 		str	r2, [r4, #4]
 1142 0d80 1C300BE5 		str	r3, [fp, #-28]
 1143 0d84 FEFFFFEB 		bl	ARMaddrToGPUaddr
 1144 0d88 7C309FE5 		ldr	r3, .L205
 1145 0d8c 0F10C0E3 		bic	r1, r0, #15
 1146 0d90 003093E5 		ldr	r3, [r3]
 1147 0d94 081081E3 		orr	r1, r1, #8
 1148 0d98 2E3B83E2 		add	r3, r3, #47104
 1149 0d9c 803083E2 		add	r3, r3, #128
 1150              	.L193:
 1151 0da0 382093E5 		ldr	r2, [r3, #56]
 1152 0da4 000052E3 		cmp	r2, #0
 1153 0da8 FCFFFFBA 		blt	.L193
 1154 0dac 201083E5 		str	r1, [r3, #32]
 1155              	.L194:
 1156 0db0 180093E5 		ldr	r0, [r3, #24]
 1157 0db4 010110E2 		ands	r0, r0, #1073741824
 1158 0db8 FCFFFF1A 		bne	.L194
 1159 0dbc 002093E5 		ldr	r2, [r3]
 1160 0dc0 0F2002E2 		and	r2, r2, #15
 1161 0dc4 080052E3 		cmp	r2, #8
 1162 0dc8 F8FFFF1A 		bne	.L194
 1163 0dcc 043094E5 		ldr	r3, [r4, #4]
 1164 0dd0 020153E3 		cmp	r3, #-2147483648
 1165 0dd4 0300000A 		beq	.L204
 1166 0dd8 14D04BE2 		sub	sp, fp, #20
 1167              		@ sp needed
 1168 0ddc F048BDE8 		pop	{r4, r5, r6, r7, fp, lr}
 1169 0de0 0CD08DE2 		add	sp, sp, #12
 1170 0de4 1EFF2FE1 		bx	lr
 1171              	.L204:
 1172 0de8 000055E3 		cmp	r5, #0
 1173 0dec 08008412 		addne	r0, r4, #8
 1174 0df0 0F009018 		ldmne	r0, {r0, r1, r2, r3}
 1175 0df4 0F008518 		stmne	r5, {r0, r1, r2, r3}
 1176              	.L198:
 1177 0df8 0100A0E3 		mov	r0, #1
 1178 0dfc 14D04BE2 		sub	sp, fp, #20
 1179              		@ sp needed
 1180 0e00 F048BDE8 		pop	{r4, r5, r6, r7, fp, lr}
 1181 0e04 0CD08DE2 		add	sp, sp, #12
 1182 0e08 1EFF2FE1 		bx	lr
 1183              	.L206:
 1184              		.align	2
 1185              	.L205:
 1186 0e0c 00000000 		.word	RPi_IO_Base_Addr
 1187              		.size	mailbox_tag_message.constprop.6, .-mailbox_tag_message.constprop.6
 1188              		.align	2
 1189              		.syntax unified
 1190              		.arm
 1191              		.fpu vfp
 1192              		.type	mailbox_tag_message.constprop.7, %function
 1193              	mailbox_tag_message.constprop.7:
 1194              		@ args = 4, pretend = 12, frame = 8
 1195              		@ frame_needed = 1, uses_anonymous_args = 1
 1196 0e10 0E002DE9 		push	{r1, r2, r3}
 1197 0e14 F0482DE9 		push	{r4, r5, r6, r7, fp, lr}
ARM GAS  C:\Users\ldebo\AppData\Local\Temp\ccevlpv4.s 			page 22


 1198 0e18 14B08DE2 		add	fp, sp, #20
 1199 0e1c 0CD04DE2 		sub	sp, sp, #12
 1200 0e20 90D04DE2 		sub	sp, sp, #144
 1201 0e24 0F708DE2 		add	r7, sp, #15
 1202 0e28 0F70C7E3 		bic	r7, r7, #15
 1203 0e2c 0030A0E3 		mov	r3, #0
 1204 0e30 5810A0E3 		mov	r1, #88
 1205 0e34 086087E2 		add	r6, r7, #8
 1206 0e38 0050A0E1 		mov	r5, r0
 1207 0e3c 0640A0E1 		mov	r4, r6
 1208 0e40 08208BE2 		add	r2, fp, #8
 1209 0e44 001087E5 		str	r1, [r7]
 1210 0e48 543087E5 		str	r3, [r7, #84]
 1211 0e4c 043087E5 		str	r3, [r7, #4]
 1212 0e50 541087E2 		add	r1, r7, #84
 1213 0e54 1C200BE5 		str	r2, [fp, #-28]
 1214 0e58 04308BE2 		add	r3, fp, #4
 1215              	.L208:
 1216 0e5c 0420B3E5 		ldr	r2, [r3, #4]!
 1217 0e60 042084E4 		str	r2, [r4], #4
 1218 0e64 010054E1 		cmp	r4, r1
 1219 0e68 FBFFFF1A 		bne	.L208
 1220 0e6c 0700A0E1 		mov	r0, r7
 1221 0e70 FEFFFFEB 		bl	ARMaddrToGPUaddr
 1222 0e74 88309FE5 		ldr	r3, .L223
 1223 0e78 0F10C0E3 		bic	r1, r0, #15
 1224 0e7c 003093E5 		ldr	r3, [r3]
 1225 0e80 081081E3 		orr	r1, r1, #8
 1226 0e84 2E3B83E2 		add	r3, r3, #47104
 1227 0e88 803083E2 		add	r3, r3, #128
 1228              	.L209:
 1229 0e8c 382093E5 		ldr	r2, [r3, #56]
 1230 0e90 000052E3 		cmp	r2, #0
 1231 0e94 FCFFFFBA 		blt	.L209
 1232 0e98 201083E5 		str	r1, [r3, #32]
 1233              	.L210:
 1234 0e9c 180093E5 		ldr	r0, [r3, #24]
 1235 0ea0 010110E2 		ands	r0, r0, #1073741824
 1236 0ea4 FCFFFF1A 		bne	.L210
 1237 0ea8 002093E5 		ldr	r2, [r3]
 1238 0eac 0F2002E2 		and	r2, r2, #15
 1239 0eb0 080052E3 		cmp	r2, #8
 1240 0eb4 F8FFFF1A 		bne	.L210
 1241 0eb8 043097E5 		ldr	r3, [r7, #4]
 1242 0ebc 020153E3 		cmp	r3, #-2147483648
 1243 0ec0 0300000A 		beq	.L222
 1244 0ec4 14D04BE2 		sub	sp, fp, #20
 1245              		@ sp needed
 1246 0ec8 F048BDE8 		pop	{r4, r5, r6, r7, fp, lr}
 1247 0ecc 0CD08DE2 		add	sp, sp, #12
 1248 0ed0 1EFF2FE1 		bx	lr
 1249              	.L222:
 1250 0ed4 000055E3 		cmp	r5, #0
 1251 0ed8 04504512 		subne	r5, r5, #4
 1252 0edc 0300000A 		beq	.L214
 1253              	.L215:
 1254 0ee0 043096E4 		ldr	r3, [r6], #4
ARM GAS  C:\Users\ldebo\AppData\Local\Temp\ccevlpv4.s 			page 23


 1255 0ee4 040056E1 		cmp	r6, r4
 1256 0ee8 0430A5E5 		str	r3, [r5, #4]!
 1257 0eec FBFFFF1A 		bne	.L215
 1258              	.L214:
 1259 0ef0 0100A0E3 		mov	r0, #1
 1260 0ef4 14D04BE2 		sub	sp, fp, #20
 1261              		@ sp needed
 1262 0ef8 F048BDE8 		pop	{r4, r5, r6, r7, fp, lr}
 1263 0efc 0CD08DE2 		add	sp, sp, #12
 1264 0f00 1EFF2FE1 		bx	lr
 1265              	.L224:
 1266              		.align	2
 1267              	.L223:
 1268 0f04 00000000 		.word	RPi_IO_Base_Addr
 1269              		.size	mailbox_tag_message.constprop.7, .-mailbox_tag_message.constprop.7
 1270              		.align	2
 1271              		.global	gpio_setup
 1272              		.syntax unified
 1273              		.arm
 1274              		.fpu vfp
 1275              		.type	gpio_setup, %function
 1276              	gpio_setup:
 1277              		@ args = 0, pretend = 0, frame = 0
 1278              		@ frame_needed = 0, uses_anonymous_args = 0
 1279 0f08 360050E3 		cmp	r0, #54
 1280 0f0c 1400008A 		bhi	.L228
 1281 0f10 070051E3 		cmp	r1, #7
 1282 0f14 120000CA 		bgt	.L228
 1283 0f18 30402DE9 		push	{r4, r5, lr}
 1284 0f1c 0140A0E3 		mov	r4, #1
 1285 0f20 0750A0E3 		mov	r5, #7
 1286 0f24 40209FE5 		ldr	r2, .L233
 1287 0f28 40309FE5 		ldr	r3, .L233+4
 1288 0f2c 92C082E0 		umull	ip, r2, r2, r0
 1289 0f30 00E093E5 		ldr	lr, [r3]
 1290 0f34 A221A0E1 		lsr	r2, r2, #3
 1291 0f38 023182E0 		add	r3, r2, r2, lsl #2
 1292 0f3c 133440E0 		sub	r3, r0, r3, lsl r4
 1293 0f40 02E68EE2 		add	lr, lr, #2097152
 1294 0f44 02C19EE7 		ldr	ip, [lr, r2, lsl #2]
 1295 0f48 133483E0 		add	r3, r3, r3, lsl r4
 1296 0f4c 1433A0E1 		lsl	r3, r4, r3
 1297 0f50 15C3CCE1 		bic	ip, ip, r5, lsl r3
 1298 0f54 11338CE1 		orr	r3, ip, r1, lsl r3
 1299 0f58 0400A0E1 		mov	r0, r4
 1300 0f5c 02318EE7 		str	r3, [lr, r2, lsl #2]
 1301 0f60 3080BDE8 		pop	{r4, r5, pc}
 1302              	.L228:
 1303 0f64 0000A0E3 		mov	r0, #0
 1304 0f68 1EFF2FE1 		bx	lr
 1305              	.L234:
 1306              		.align	2
 1307              	.L233:
 1308 0f6c CDCCCCCC 		.word	-858993459
 1309 0f70 00000000 		.word	RPi_IO_Base_Addr
 1310              		.size	gpio_setup, .-gpio_setup
 1311              		.align	2
ARM GAS  C:\Users\ldebo\AppData\Local\Temp\ccevlpv4.s 			page 24


 1312              		.global	gpio_output
 1313              		.syntax unified
 1314              		.arm
 1315              		.fpu vfp
 1316              		.type	gpio_output, %function
 1317              	gpio_output:
 1318              		@ args = 0, pretend = 0, frame = 0
 1319              		@ frame_needed = 0, uses_anonymous_args = 0
 1320              		@ link register save eliminated.
 1321 0f74 360050E3 		cmp	r0, #54
 1322 0f78 1500008A 		bhi	.L238
 1323 0f7c 0120A0E3 		mov	r2, #1
 1324 0f80 1F3000E2 		and	r3, r0, #31
 1325 0f84 000051E3 		cmp	r1, #0
 1326 0f88 12C3A0E1 		lsl	ip, r2, r3
 1327 0f8c 0700001A 		bne	.L239
 1328 0f90 44109FE5 		ldr	r1, .L240
 1329 0f94 A032A0E1 		lsr	r3, r0, #5
 1330 0f98 001091E5 		ldr	r1, [r1]
 1331 0f9c 0A3083E2 		add	r3, r3, #10
 1332 0fa0 021681E2 		add	r1, r1, #2097152
 1333 0fa4 0200A0E1 		mov	r0, r2
 1334 0fa8 03C181E7 		str	ip, [r1, r3, lsl #2]
 1335 0fac 1EFF2FE1 		bx	lr
 1336              	.L239:
 1337 0fb0 24209FE5 		ldr	r2, .L240
 1338 0fb4 A032A0E1 		lsr	r3, r0, #5
 1339 0fb8 000092E5 		ldr	r0, [r2]
 1340 0fbc 063083E2 		add	r3, r3, #6
 1341 0fc0 020680E2 		add	r0, r0, #2097152
 1342 0fc4 033180E0 		add	r3, r0, r3, lsl #2
 1343 0fc8 04C083E5 		str	ip, [r3, #4]
 1344 0fcc 0100A0E1 		mov	r0, r1
 1345 0fd0 1EFF2FE1 		bx	lr
 1346              	.L238:
 1347 0fd4 0000A0E3 		mov	r0, #0
 1348 0fd8 1EFF2FE1 		bx	lr
 1349              	.L241:
 1350              		.align	2
 1351              	.L240:
 1352 0fdc 00000000 		.word	RPi_IO_Base_Addr
 1353              		.size	gpio_output, .-gpio_output
 1354              		.align	2
 1355              		.global	gpio_input
 1356              		.syntax unified
 1357              		.arm
 1358              		.fpu vfp
 1359              		.type	gpio_input, %function
 1360              	gpio_input:
 1361              		@ args = 0, pretend = 0, frame = 0
 1362              		@ frame_needed = 0, uses_anonymous_args = 0
 1363              		@ link register save eliminated.
 1364 0fe0 360050E3 		cmp	r0, #54
 1365 0fe4 0C00008A 		bhi	.L244
 1366 0fe8 0110A0E3 		mov	r1, #1
 1367 0fec 30309FE5 		ldr	r3, .L245
 1368 0ff0 A022A0E1 		lsr	r2, r0, #5
ARM GAS  C:\Users\ldebo\AppData\Local\Temp\ccevlpv4.s 			page 25


 1369 0ff4 003093E5 		ldr	r3, [r3]
 1370 0ff8 0C2082E2 		add	r2, r2, #12
 1371 0ffc 023683E2 		add	r3, r3, #2097152
 1372 1000 023183E0 		add	r3, r3, r2, lsl #2
 1373 1004 043093E5 		ldr	r3, [r3, #4]
 1374 1008 1F0000E2 		and	r0, r0, #31
 1375 100c 113013E0 		ands	r3, r3, r1, lsl r0
 1376 1010 0100A011 		movne	r0, r1
 1377 1014 0000A003 		moveq	r0, #0
 1378 1018 1EFF2FE1 		bx	lr
 1379              	.L244:
 1380 101c 0000A0E3 		mov	r0, #0
 1381 1020 1EFF2FE1 		bx	lr
 1382              	.L246:
 1383              		.align	2
 1384              	.L245:
 1385 1024 00000000 		.word	RPi_IO_Base_Addr
 1386              		.size	gpio_input, .-gpio_input
 1387              		.align	2
 1388              		.global	gpio_checkEvent
 1389              		.syntax unified
 1390              		.arm
 1391              		.fpu vfp
 1392              		.type	gpio_checkEvent, %function
 1393              	gpio_checkEvent:
 1394              		@ args = 0, pretend = 0, frame = 0
 1395              		@ frame_needed = 0, uses_anonymous_args = 0
 1396              		@ link register save eliminated.
 1397 1028 360050E3 		cmp	r0, #54
 1398 102c 0B00008A 		bhi	.L249
 1399 1030 0110A0E3 		mov	r1, #1
 1400 1034 2C309FE5 		ldr	r3, .L250
 1401 1038 A022A0E1 		lsr	r2, r0, #5
 1402 103c 003093E5 		ldr	r3, [r3]
 1403 1040 102082E2 		add	r2, r2, #16
 1404 1044 023683E2 		add	r3, r3, #2097152
 1405 1048 023193E7 		ldr	r3, [r3, r2, lsl #2]
 1406 104c 1F0000E2 		and	r0, r0, #31
 1407 1050 113013E0 		ands	r3, r3, r1, lsl r0
 1408 1054 0100A011 		movne	r0, r1
 1409 1058 0000A003 		moveq	r0, #0
 1410 105c 1EFF2FE1 		bx	lr
 1411              	.L249:
 1412 1060 0000A0E3 		mov	r0, #0
 1413 1064 1EFF2FE1 		bx	lr
 1414              	.L251:
 1415              		.align	2
 1416              	.L250:
 1417 1068 00000000 		.word	RPi_IO_Base_Addr
 1418              		.size	gpio_checkEvent, .-gpio_checkEvent
 1419              		.align	2
 1420              		.global	gpio_clearEvent
 1421              		.syntax unified
 1422              		.arm
 1423              		.fpu vfp
 1424              		.type	gpio_clearEvent, %function
 1425              	gpio_clearEvent:
ARM GAS  C:\Users\ldebo\AppData\Local\Temp\ccevlpv4.s 			page 26


 1426              		@ args = 0, pretend = 0, frame = 0
 1427              		@ frame_needed = 0, uses_anonymous_args = 0
 1428              		@ link register save eliminated.
 1429 106c 360050E3 		cmp	r0, #54
 1430 1070 0A00008A 		bhi	.L254
 1431 1074 0120A0E3 		mov	r2, #1
 1432 1078 28309FE5 		ldr	r3, .L255
 1433 107c 1FC000E2 		and	ip, r0, #31
 1434 1080 001093E5 		ldr	r1, [r3]
 1435 1084 A032A0E1 		lsr	r3, r0, #5
 1436 1088 021681E2 		add	r1, r1, #2097152
 1437 108c 120CA0E1 		lsl	r0, r2, ip
 1438 1090 103083E2 		add	r3, r3, #16
 1439 1094 030181E7 		str	r0, [r1, r3, lsl #2]
 1440 1098 0200A0E1 		mov	r0, r2
 1441 109c 1EFF2FE1 		bx	lr
 1442              	.L254:
 1443 10a0 0000A0E3 		mov	r0, #0
 1444 10a4 1EFF2FE1 		bx	lr
 1445              	.L256:
 1446              		.align	2
 1447              	.L255:
 1448 10a8 00000000 		.word	RPi_IO_Base_Addr
 1449              		.size	gpio_clearEvent, .-gpio_clearEvent
 1450              		.align	2
 1451              		.global	gpio_edgeDetect
 1452              		.syntax unified
 1453              		.arm
 1454              		.fpu vfp
 1455              		.type	gpio_edgeDetect, %function
 1456              	gpio_edgeDetect:
 1457              		@ args = 0, pretend = 0, frame = 0
 1458              		@ frame_needed = 0, uses_anonymous_args = 0
 1459 10ac 360050E3 		cmp	r0, #54
 1460 10b0 1A00008A 		bhi	.L262
 1461 10b4 01C0A0E3 		mov	ip, #1
 1462 10b8 1F3000E2 		and	r3, r0, #31
 1463 10bc 000051E3 		cmp	r1, #0
 1464 10c0 04E02DE5 		str	lr, [sp, #-4]!
 1465 10c4 1CE3A0E1 		lsl	lr, ip, r3
 1466 10c8 0A00000A 		beq	.L259
 1467 10cc 000052E3 		cmp	r2, #0
 1468 10d0 1400000A 		beq	.L260
 1469 10d4 90109FE5 		ldr	r1, .L268
 1470 10d8 A032A0E1 		lsr	r3, r0, #5
 1471 10dc 000091E5 		ldr	r0, [r1]
 1472 10e0 1E3083E2 		add	r3, r3, #30
 1473 10e4 020680E2 		add	r0, r0, #2097152
 1474 10e8 033180E0 		add	r3, r0, r3, lsl #2
 1475 10ec 04E083E5 		str	lr, [r3, #4]
 1476 10f0 0200A0E1 		mov	r0, r2
 1477 10f4 04F09DE4 		ldr	pc, [sp], #4
 1478              	.L259:
 1479 10f8 000052E3 		cmp	r2, #0
 1480 10fc 1200001A 		bne	.L267
 1481 1100 64209FE5 		ldr	r2, .L268
 1482 1104 A032A0E1 		lsr	r3, r0, #5
ARM GAS  C:\Users\ldebo\AppData\Local\Temp\ccevlpv4.s 			page 27


 1483 1108 002092E5 		ldr	r2, [r2]
 1484 110c 163083E2 		add	r3, r3, #22
 1485 1110 022682E2 		add	r2, r2, #2097152
 1486 1114 0C00A0E1 		mov	r0, ip
 1487 1118 03E182E7 		str	lr, [r2, r3, lsl #2]
 1488 111c 04F09DE4 		ldr	pc, [sp], #4
 1489              	.L262:
 1490 1120 0000A0E3 		mov	r0, #0
 1491 1124 1EFF2FE1 		bx	lr
 1492              	.L260:
 1493 1128 3C209FE5 		ldr	r2, .L268
 1494 112c A032A0E1 		lsr	r3, r0, #5
 1495 1130 000092E5 		ldr	r0, [r2]
 1496 1134 123083E2 		add	r3, r3, #18
 1497 1138 020680E2 		add	r0, r0, #2097152
 1498 113c 033180E0 		add	r3, r0, r3, lsl #2
 1499 1140 04E083E5 		str	lr, [r3, #4]
 1500 1144 0100A0E1 		mov	r0, r1
 1501 1148 04F09DE4 		ldr	pc, [sp], #4
 1502              	.L267:
 1503 114c 18109FE5 		ldr	r1, .L268
 1504 1150 A032A0E1 		lsr	r3, r0, #5
 1505 1154 001091E5 		ldr	r1, [r1]
 1506 1158 223083E2 		add	r3, r3, #34
 1507 115c 021681E2 		add	r1, r1, #2097152
 1508 1160 0200A0E1 		mov	r0, r2
 1509 1164 03E181E7 		str	lr, [r1, r3, lsl #2]
 1510 1168 04F09DE4 		ldr	pc, [sp], #4
 1511              	.L269:
 1512              		.align	2
 1513              	.L268:
 1514 116c 00000000 		.word	RPi_IO_Base_Addr
 1515              		.size	gpio_edgeDetect, .-gpio_edgeDetect
 1516              		.align	2
 1517              		.global	gpio_fixResistor
 1518              		.syntax unified
 1519              		.arm
 1520              		.fpu vfp
 1521              		.type	gpio_fixResistor, %function
 1522              	gpio_fixResistor:
 1523              		@ args = 0, pretend = 0, frame = 0
 1524              		@ frame_needed = 0, uses_anonymous_args = 0
 1525 1170 360050E3 		cmp	r0, #54
 1526 1174 4600008A 		bhi	.L279
 1527 1178 020051E3 		cmp	r1, #2
 1528 117c 440000CA 		bgt	.L279
 1529 1180 F04F2DE9 		push	{r4, r5, r6, r7, r8, r9, r10, fp, lr}
 1530 1184 00A0A0E1 		mov	r10, r0
 1531 1188 0C319FE5 		ldr	r3, .L290
 1532 118c 00C093E5 		ldr	ip, [r3]
 1533 1190 02B68CE2 		add	fp, ip, #2097152
 1534 1194 94108BE5 		str	r1, [fp, #148]
 1535 1198 03CA8CE2 		add	ip, ip, #12288
 1536              	.L272:
 1537 119c 0030A0E3 		mov	r3, #0
 1538 11a0 0010A0E3 		mov	r1, #0
 1539 11a4 08209CE5 		ldr	r2, [ip, #8]
ARM GAS  C:\Users\ldebo\AppData\Local\Temp\ccevlpv4.s 			page 28


 1540 11a8 04E09CE5 		ldr	lr, [ip, #4]
 1541 11ac 08009CE5 		ldr	r0, [ip, #8]
 1542 11b0 010053E1 		cmp	r3, r1
 1543 11b4 00005201 		cmpeq	r2, r0
 1544 11b8 F7FFFF1A 		bne	.L272
 1545 11bc 0000A0E3 		mov	r0, #0
 1546 11c0 0E0080E1 		orr	r0, r0, lr
 1547 11c4 028090E2 		adds	r8, r0, #2
 1548 11c8 0090A2E2 		adc	r9, r2, #0
 1549              	.L273:
 1550 11cc 0030A0E3 		mov	r3, #0
 1551 11d0 0010A0E3 		mov	r1, #0
 1552 11d4 08209CE5 		ldr	r2, [ip, #8]
 1553 11d8 04E09CE5 		ldr	lr, [ip, #4]
 1554 11dc 08009CE5 		ldr	r0, [ip, #8]
 1555 11e0 010053E1 		cmp	r3, r1
 1556 11e4 00005201 		cmpeq	r2, r0
 1557 11e8 F7FFFF1A 		bne	.L273
 1558 11ec 0270A0E1 		mov	r7, r2
 1559 11f0 0060A0E3 		mov	r6, #0
 1560 11f4 070059E1 		cmp	r9, r7
 1561 11f8 0E2086E1 		orr	r2, r6, lr
 1562 11fc 02005801 		cmpeq	r8, r2
 1563 1200 F1FFFF8A 		bhi	.L273
 1564 1204 0130A0E3 		mov	r3, #1
 1565 1208 1F200AE2 		and	r2, r10, #31
 1566 120c AAE2A0E1 		lsr	lr, r10, #5
 1567 1210 1332A0E1 		lsl	r3, r3, r2
 1568 1214 0EE18BE0 		add	lr, fp, lr, lsl #2
 1569 1218 98308EE5 		str	r3, [lr, #152]
 1570              	.L275:
 1571 121c 0030A0E3 		mov	r3, #0
 1572 1220 0010A0E3 		mov	r1, #0
 1573 1224 08209CE5 		ldr	r2, [ip, #8]
 1574 1228 04709CE5 		ldr	r7, [ip, #4]
 1575 122c 08009CE5 		ldr	r0, [ip, #8]
 1576 1230 010053E1 		cmp	r3, r1
 1577 1234 00005201 		cmpeq	r2, r0
 1578 1238 F7FFFF1A 		bne	.L275
 1579 123c 0000A0E3 		mov	r0, #0
 1580 1240 070080E1 		orr	r0, r0, r7
 1581 1244 026090E2 		adds	r6, r0, #2
 1582 1248 0070A2E2 		adc	r7, r2, #0
 1583              	.L276:
 1584 124c 0030A0E3 		mov	r3, #0
 1585 1250 0010A0E3 		mov	r1, #0
 1586 1254 08209CE5 		ldr	r2, [ip, #8]
 1587 1258 04809CE5 		ldr	r8, [ip, #4]
 1588 125c 08009CE5 		ldr	r0, [ip, #8]
 1589 1260 010053E1 		cmp	r3, r1
 1590 1264 00005201 		cmpeq	r2, r0
 1591 1268 F7FFFF1A 		bne	.L276
 1592 126c 0250A0E1 		mov	r5, r2
 1593 1270 0040A0E3 		mov	r4, #0
 1594 1274 050057E1 		cmp	r7, r5
 1595 1278 082084E1 		orr	r2, r4, r8
 1596 127c 02005601 		cmpeq	r6, r2
ARM GAS  C:\Users\ldebo\AppData\Local\Temp\ccevlpv4.s 			page 29


 1597 1280 F1FFFF8A 		bhi	.L276
 1598 1284 94408BE5 		str	r4, [fp, #148]
 1599 1288 0100A0E3 		mov	r0, #1
 1600 128c 98408EE5 		str	r4, [lr, #152]
 1601 1290 F08FBDE8 		pop	{r4, r5, r6, r7, r8, r9, r10, fp, pc}
 1602              	.L279:
 1603 1294 0000A0E3 		mov	r0, #0
 1604 1298 1EFF2FE1 		bx	lr
 1605              	.L291:
 1606              		.align	2
 1607              	.L290:
 1608 129c 00000000 		.word	RPi_IO_Base_Addr
 1609              		.size	gpio_fixResistor, .-gpio_fixResistor
 1610              		.align	2
 1611              		.global	timer_getTickCount
 1612              		.syntax unified
 1613              		.arm
 1614              		.fpu vfp
 1615              		.type	timer_getTickCount, %function
 1616              	timer_getTickCount:
 1617              		@ args = 0, pretend = 0, frame = 0
 1618              		@ frame_needed = 0, uses_anonymous_args = 0
 1619              		@ link register save eliminated.
 1620 12a0 44309FE5 		ldr	r3, .L296
 1621 12a4 30002DE9 		push	{r4, r5}
 1622 12a8 001093E5 		ldr	r1, [r3]
 1623 12ac 031A81E2 		add	r1, r1, #12288
 1624              	.L293:
 1625 12b0 0030A0E3 		mov	r3, #0
 1626 12b4 0050A0E3 		mov	r5, #0
 1627 12b8 082091E5 		ldr	r2, [r1, #8]
 1628 12bc 040091E5 		ldr	r0, [r1, #4]
 1629 12c0 084091E5 		ldr	r4, [r1, #8]
 1630 12c4 050053E1 		cmp	r3, r5
 1631 12c8 04005201 		cmpeq	r2, r4
 1632 12cc F7FFFF1A 		bne	.L293
 1633 12d0 0040A0E3 		mov	r4, #0
 1634 12d4 0250A0E1 		mov	r5, r2
 1635 12d8 004084E1 		orr	r4, r4, r0
 1636 12dc 0400A0E1 		mov	r0, r4
 1637 12e0 0510A0E1 		mov	r1, r5
 1638 12e4 3000BDE8 		pop	{r4, r5}
 1639 12e8 1EFF2FE1 		bx	lr
 1640              	.L297:
 1641              		.align	2
 1642              	.L296:
 1643 12ec 00000000 		.word	RPi_IO_Base_Addr
 1644              		.size	timer_getTickCount, .-timer_getTickCount
 1645              		.align	2
 1646              		.global	timer_wait
 1647              		.syntax unified
 1648              		.arm
 1649              		.fpu vfp
 1650              		.type	timer_wait, %function
 1651              	timer_wait:
 1652              		@ args = 0, pretend = 0, frame = 0
 1653              		@ frame_needed = 0, uses_anonymous_args = 0
ARM GAS  C:\Users\ldebo\AppData\Local\Temp\ccevlpv4.s 			page 30


 1654 12f0 74309FE5 		ldr	r3, .L306
 1655 12f4 F0402DE9 		push	{r4, r5, r6, r7, lr}
 1656 12f8 00C093E5 		ldr	ip, [r3]
 1657 12fc 03CA8CE2 		add	ip, ip, #12288
 1658              	.L299:
 1659 1300 0030A0E3 		mov	r3, #0
 1660 1304 0070A0E3 		mov	r7, #0
 1661 1308 08209CE5 		ldr	r2, [ip, #8]
 1662 130c 04E09CE5 		ldr	lr, [ip, #4]
 1663 1310 08609CE5 		ldr	r6, [ip, #8]
 1664 1314 070053E1 		cmp	r3, r7
 1665 1318 06005201 		cmpeq	r2, r6
 1666 131c F7FFFF1A 		bne	.L299
 1667 1320 0060A0E3 		mov	r6, #0
 1668 1324 0E6086E1 		orr	r6, r6, lr
 1669 1328 006096E0 		adds	r6, r6, r0
 1670 132c 0170A2E0 		adc	r7, r2, r1
 1671              	.L300:
 1672 1330 0030A0E3 		mov	r3, #0
 1673 1334 0010A0E3 		mov	r1, #0
 1674 1338 08209CE5 		ldr	r2, [ip, #8]
 1675 133c 04E09CE5 		ldr	lr, [ip, #4]
 1676 1340 08009CE5 		ldr	r0, [ip, #8]
 1677 1344 010053E1 		cmp	r3, r1
 1678 1348 00005201 		cmpeq	r2, r0
 1679 134c F7FFFF1A 		bne	.L300
 1680 1350 0250A0E1 		mov	r5, r2
 1681 1354 0040A0E3 		mov	r4, #0
 1682 1358 050057E1 		cmp	r7, r5
 1683 135c 0E2084E1 		orr	r2, r4, lr
 1684 1360 02005601 		cmpeq	r6, r2
 1685 1364 F1FFFF8A 		bhi	.L300
 1686 1368 F080BDE8 		pop	{r4, r5, r6, r7, pc}
 1687              	.L307:
 1688              		.align	2
 1689              	.L306:
 1690 136c 00000000 		.word	RPi_IO_Base_Addr
 1691              		.size	timer_wait, .-timer_wait
 1692              		.align	2
 1693              		.global	tick_difference
 1694              		.syntax unified
 1695              		.arm
 1696              		.fpu vfp
 1697              		.type	tick_difference, %function
 1698              	tick_difference:
 1699              		@ args = 0, pretend = 0, frame = 0
 1700              		@ frame_needed = 0, uses_anonymous_args = 0
 1701              		@ link register save eliminated.
 1702 1370 000052E0 		subs	r0, r2, r0
 1703 1374 0110C3E0 		sbc	r1, r3, r1
 1704 1378 1EFF2FE1 		bx	lr
 1705              		.size	tick_difference, .-tick_difference
 1706              		.align	2
 1707              		.global	mailbox_write
 1708              		.syntax unified
 1709              		.arm
 1710              		.fpu vfp
ARM GAS  C:\Users\ldebo\AppData\Local\Temp\ccevlpv4.s 			page 31


 1711              		.type	mailbox_write, %function
 1712              	mailbox_write:
 1713              		@ args = 0, pretend = 0, frame = 0
 1714              		@ frame_needed = 0, uses_anonymous_args = 0
 1715              		@ link register save eliminated.
 1716 137c 090050E3 		cmp	r0, #9
 1717 1380 0B0000CA 		bgt	.L312
 1718 1384 30309FE5 		ldr	r3, .L314
 1719 1388 0F10C1E3 		bic	r1, r1, #15
 1720 138c 002093E5 		ldr	r2, [r3]
 1721 1390 010080E1 		orr	r0, r0, r1
 1722 1394 2E2B82E2 		add	r2, r2, #47104
 1723 1398 802082E2 		add	r2, r2, #128
 1724              	.L311:
 1725 139c 383092E5 		ldr	r3, [r2, #56]
 1726 13a0 000053E3 		cmp	r3, #0
 1727 13a4 FCFFFFBA 		blt	.L311
 1728 13a8 200082E5 		str	r0, [r2, #32]
 1729 13ac 0100A0E3 		mov	r0, #1
 1730 13b0 1EFF2FE1 		bx	lr
 1731              	.L312:
 1732 13b4 0000A0E3 		mov	r0, #0
 1733 13b8 1EFF2FE1 		bx	lr
 1734              	.L315:
 1735              		.align	2
 1736              	.L314:
 1737 13bc 00000000 		.word	RPi_IO_Base_Addr
 1738              		.size	mailbox_write, .-mailbox_write
 1739              		.align	2
 1740              		.global	mailbox_read
 1741              		.syntax unified
 1742              		.arm
 1743              		.fpu vfp
 1744              		.type	mailbox_read, %function
 1745              	mailbox_read:
 1746              		@ args = 0, pretend = 0, frame = 0
 1747              		@ frame_needed = 0, uses_anonymous_args = 0
 1748              		@ link register save eliminated.
 1749 13c0 090050E3 		cmp	r0, #9
 1750 13c4 010000DA 		ble	.L323
 1751 13c8 34009FE5 		ldr	r0, .L324
 1752 13cc 1EFF2FE1 		bx	lr
 1753              	.L323:
 1754 13d0 30309FE5 		ldr	r3, .L324+4
 1755 13d4 002093E5 		ldr	r2, [r3]
 1756 13d8 2E2B82E2 		add	r2, r2, #47104
 1757 13dc 802082E2 		add	r2, r2, #128
 1758              	.L318:
 1759 13e0 183092E5 		ldr	r3, [r2, #24]
 1760 13e4 010113E3 		tst	r3, #1073741824
 1761 13e8 FCFFFF1A 		bne	.L318
 1762 13ec 003092E5 		ldr	r3, [r2]
 1763 13f0 0F1003E2 		and	r1, r3, #15
 1764 13f4 010050E1 		cmp	r0, r1
 1765 13f8 F8FFFF1A 		bne	.L318
 1766 13fc 0F00C3E3 		bic	r0, r3, #15
 1767 1400 1EFF2FE1 		bx	lr
ARM GAS  C:\Users\ldebo\AppData\Local\Temp\ccevlpv4.s 			page 32


 1768              	.L325:
 1769              		.align	2
 1770              	.L324:
 1771 1404 ADDEEDFE 		.word	-17965395
 1772 1408 00000000 		.word	RPi_IO_Base_Addr
 1773              		.size	mailbox_read, .-mailbox_read
 1774              		.align	2
 1775              		.global	mailbox_tag_message
 1776              		.syntax unified
 1777              		.arm
 1778              		.fpu vfp
 1779              		.type	mailbox_tag_message, %function
 1780              	mailbox_tag_message:
 1781              		@ args = 4, pretend = 12, frame = 8
 1782              		@ frame_needed = 1, uses_anonymous_args = 1
 1783 140c 0E002DE9 		push	{r1, r2, r3}
 1784 1410 70482DE9 		push	{r4, r5, r6, fp, lr}
 1785 1414 10B08DE2 		add	fp, sp, #16
 1786 1418 08D04DE2 		sub	sp, sp, #8
 1787 141c 0020A0E3 		mov	r2, #0
 1788 1420 0460DBE5 		ldrb	r6, [fp, #4]	@ zero_extendqisi2
 1789 1424 90D04DE2 		sub	sp, sp, #144
 1790 1428 020056E1 		cmp	r6, r2
 1791 142c 0F508DE2 		add	r5, sp, #15
 1792 1430 033086E2 		add	r3, r6, #3
 1793 1434 0F50C5E3 		bic	r5, r5, #15
 1794 1438 0331A0E1 		lsl	r3, r3, #2
 1795 143c 0040A0E1 		mov	r4, r0
 1796 1440 021086E2 		add	r1, r6, #2
 1797 1444 08C08BE2 		add	ip, fp, #8
 1798 1448 01008612 		addne	r0, r6, #1
 1799 144c 003085E5 		str	r3, [r5]
 1800 1450 14C00BE5 		str	ip, [fp, #-20]
 1801 1454 012185E7 		str	r2, [r5, r1, lsl #2]
 1802 1458 00018510 		addne	r0, r5, r0, lsl #2
 1803 145c 042085E5 		str	r2, [r5, #4]
 1804 1460 04308512 		addne	r3, r5, #4
 1805 1464 04208B12 		addne	r2, fp, #4
 1806 1468 0300000A 		beq	.L329
 1807              	.L330:
 1808 146c 0410B2E5 		ldr	r1, [r2, #4]!
 1809 1470 0410A3E5 		str	r1, [r3, #4]!
 1810 1474 000053E1 		cmp	r3, r0
 1811 1478 FBFFFF1A 		bne	.L330
 1812              	.L329:
 1813 147c 0500A0E1 		mov	r0, r5
 1814 1480 FEFFFFEB 		bl	ARMaddrToGPUaddr
 1815 1484 9C309FE5 		ldr	r3, .L348
 1816 1488 0F10C0E3 		bic	r1, r0, #15
 1817 148c 003093E5 		ldr	r3, [r3]
 1818 1490 081081E3 		orr	r1, r1, #8
 1819 1494 2E3B83E2 		add	r3, r3, #47104
 1820 1498 803083E2 		add	r3, r3, #128
 1821              	.L328:
 1822 149c 382093E5 		ldr	r2, [r3, #56]
 1823 14a0 000052E3 		cmp	r2, #0
 1824 14a4 FCFFFFBA 		blt	.L328
ARM GAS  C:\Users\ldebo\AppData\Local\Temp\ccevlpv4.s 			page 33


 1825 14a8 201083E5 		str	r1, [r3, #32]
 1826              	.L331:
 1827 14ac 180093E5 		ldr	r0, [r3, #24]
 1828 14b0 010110E2 		ands	r0, r0, #1073741824
 1829 14b4 FCFFFF1A 		bne	.L331
 1830 14b8 002093E5 		ldr	r2, [r3]
 1831 14bc 0F2002E2 		and	r2, r2, #15
 1832 14c0 080052E3 		cmp	r2, #8
 1833 14c4 F8FFFF1A 		bne	.L331
 1834 14c8 043095E5 		ldr	r3, [r5, #4]
 1835 14cc 020153E3 		cmp	r3, #-2147483648
 1836 14d0 0300000A 		beq	.L347
 1837 14d4 10D04BE2 		sub	sp, fp, #16
 1838              		@ sp needed
 1839 14d8 7048BDE8 		pop	{r4, r5, r6, fp, lr}
 1840 14dc 0CD08DE2 		add	sp, sp, #12
 1841 14e0 1EFF2FE1 		bx	lr
 1842              	.L347:
 1843 14e4 000054E3 		cmp	r4, #0
 1844 14e8 0900000A 		beq	.L335
 1845 14ec 000056E3 		cmp	r6, #0
 1846 14f0 0700000A 		beq	.L335
 1847 14f4 012086E2 		add	r2, r6, #1
 1848 14f8 022185E0 		add	r2, r5, r2, lsl #2
 1849 14fc 044044E2 		sub	r4, r4, #4
 1850 1500 045085E2 		add	r5, r5, #4
 1851              	.L336:
 1852 1504 0430B5E5 		ldr	r3, [r5, #4]!
 1853 1508 020055E1 		cmp	r5, r2
 1854 150c 0430A4E5 		str	r3, [r4, #4]!
 1855 1510 FBFFFF1A 		bne	.L336
 1856              	.L335:
 1857 1514 0100A0E3 		mov	r0, #1
 1858 1518 10D04BE2 		sub	sp, fp, #16
 1859              		@ sp needed
 1860 151c 7048BDE8 		pop	{r4, r5, r6, fp, lr}
 1861 1520 0CD08DE2 		add	sp, sp, #12
 1862 1524 1EFF2FE1 		bx	lr
 1863              	.L349:
 1864              		.align	2
 1865              	.L348:
 1866 1528 00000000 		.word	RPi_IO_Base_Addr
 1867              		.size	mailbox_tag_message, .-mailbox_tag_message
 1868              		.align	2
 1869              		.global	set_Activity_LED
 1870              		.syntax unified
 1871              		.arm
 1872              		.fpu vfp
 1873              		.type	set_Activity_LED, %function
 1874              	set_Activity_LED:
 1875              		@ args = 0, pretend = 0, frame = 16
 1876              		@ frame_needed = 0, uses_anonymous_args = 0
 1877 152c 4C219FE5 		ldr	r2, .L373
 1878 1530 4C319FE5 		ldr	r3, .L373+4
 1879 1534 001092E5 		ldr	r1, [r2]
 1880 1538 48219FE5 		ldr	r2, .L373+8
 1881 153c 213203E0 		and	r3, r3, r1, lsr #4
ARM GAS  C:\Users\ldebo\AppData\Local\Temp\ccevlpv4.s 			page 34


 1882 1540 020053E1 		cmp	r3, r2
 1883 1544 2E00000A 		beq	.L352
 1884 1548 10402DE9 		push	{r4, lr}
 1885 154c FC2082E2 		add	r2, r2, #252
 1886 1550 020053E1 		cmp	r3, r2
 1887 1554 20D04DE2 		sub	sp, sp, #32
 1888 1558 0040A0E1 		mov	r4, r0
 1889 155c 1E00000A 		beq	.L353
 1890 1560 24219FE5 		ldr	r2, .L373+12
 1891 1564 020053E1 		cmp	r3, r2
 1892 1568 0000A013 		movne	r0, #0
 1893 156c 0100000A 		beq	.L371
 1894              	.L351:
 1895 1570 20D08DE2 		add	sp, sp, #32
 1896              		@ sp needed
 1897 1574 1080BDE8 		pop	{r4, pc}
 1898              	.L371:
 1899 1578 10C19FE5 		ldr	ip, .L373+16
 1900 157c 0020DCE5 		ldrb	r2, [ip]	@ zero_extendqisi2
 1901 1580 000052E3 		cmp	r2, #0
 1902 1584 2900000A 		beq	.L372
 1903              	.L370:
 1904 1588 04319FE5 		ldr	r3, .L373+20
 1905 158c 003093E5 		ldr	r3, [r3]
 1906 1590 360053E3 		cmp	r3, #54
 1907 1594 0100A083 		movhi	r0, #1
 1908 1598 F4FFFF8A 		bhi	.L351
 1909              	.L365:
 1910 159c 0100A0E3 		mov	r0, #1
 1911 15a0 F0109FE5 		ldr	r1, .L373+24
 1912 15a4 000054E3 		cmp	r4, #0
 1913 15a8 001091E5 		ldr	r1, [r1]
 1914 15ac 1F2003E2 		and	r2, r3, #31
 1915 15b0 A332A0E1 		lsr	r3, r3, #5
 1916 15b4 06308312 		addne	r3, r3, #6
 1917 15b8 02168112 		addne	r1, r1, #2097152
 1918 15bc 1022A0E1 		lsl	r2, r0, r2
 1919 15c0 03318110 		addne	r3, r1, r3, lsl #2
 1920 15c4 0A308302 		addeq	r3, r3, #10
 1921 15c8 02168102 		addeq	r1, r1, #2097152
 1922 15cc 0400A011 		movne	r0, r4
 1923 15d0 04208315 		strne	r2, [r3, #4]
 1924 15d4 03218107 		streq	r2, [r1, r3, lsl #2]
 1925 15d8 E4FFFFEA 		b	.L351
 1926              	.L353:
 1927 15dc 0830A0E3 		mov	r3, #8
 1928 15e0 8220A0E3 		mov	r2, #130
 1929 15e4 00308DE5 		str	r3, [sp]
 1930 15e8 14008DE9 		stmib	sp, {r2, r4}
 1931 15ec 0510A0E3 		mov	r1, #5
 1932 15f0 A4209FE5 		ldr	r2, .L373+28
 1933 15f4 0000A0E3 		mov	r0, #0
 1934 15f8 55FDFFEB 		bl	mailbox_tag_message.constprop.4
 1935 15fc 20D08DE2 		add	sp, sp, #32
 1936              		@ sp needed
 1937 1600 1080BDE8 		pop	{r4, pc}
 1938              	.L352:
ARM GAS  C:\Users\ldebo\AppData\Local\Temp\ccevlpv4.s 			page 35


 1939 1604 0229A0E3 		mov	r2, #32768
 1940 1608 88309FE5 		ldr	r3, .L373+24
 1941 160c 000050E3 		cmp	r0, #0
 1942 1610 00309315 		ldrne	r3, [r3]
 1943 1614 00309305 		ldreq	r3, [r3]
 1944 1618 02368312 		addne	r3, r3, #2097152
 1945 161c 02368302 		addeq	r3, r3, #2097152
 1946 1620 20208315 		strne	r2, [r3, #32]
 1947 1624 0100A003 		moveq	r0, #1
 1948 1628 2C208305 		streq	r2, [r3, #44]
 1949 162c 1EFF2FE1 		bx	lr
 1950              	.L372:
 1951 1630 0430A0E3 		mov	r3, #4
 1952 1634 01E0A0E3 		mov	lr, #1
 1953 1638 04208DE5 		str	r2, [sp, #4]
 1954 163c 00208DE5 		str	r2, [sp]
 1955 1640 0310A0E1 		mov	r1, r3
 1956 1644 54209FE5 		ldr	r2, .L373+32
 1957 1648 10008DE2 		add	r0, sp, #16
 1958 164c 00E0CCE5 		strb	lr, [ip]
 1959 1650 B3FDFFEB 		bl	mailbox_tag_message.constprop.6
 1960 1654 000050E3 		cmp	r0, #0
 1961 1658 CAFFFF0A 		beq	.L370
 1962 165c 1C309DE5 		ldr	r3, [sp, #28]
 1963 1660 2C109FE5 		ldr	r1, .L373+20
 1964 1664 023043E2 		sub	r3, r3, #2
 1965 1668 0D0053E3 		cmp	r3, #13
 1966 166c 1020A093 		movls	r2, #16
 1967 1670 2F20A083 		movhi	r2, #47
 1968 1674 0230A0E1 		mov	r3, r2
 1969 1678 002081E5 		str	r2, [r1]
 1970 167c C6FFFFEA 		b	.L365
 1971              	.L374:
 1972              		.align	2
 1973              	.L373:
 1974 1680 00000000 		.word	RPi_CpuId
 1975 1684 FF0F0000 		.word	4095
 1976 1688 070C0000 		.word	3079
 1977 168c 760B0000 		.word	2934
 1978 1690 00000000 		.word	.LANCHOR1
 1979 1694 00000000 		.word	.LANCHOR2
 1980 1698 00000000 		.word	RPi_IO_Base_Addr
 1981 169c 41800300 		.word	229441
 1982 16a0 02000100 		.word	65538
 1983              		.size	set_Activity_LED, .-set_Activity_LED
 1984              		.align	2
 1985              		.global	ARM_setmaxspeed
 1986              		.syntax unified
 1987              		.arm
 1988              		.fpu vfp
 1989              		.type	ARM_setmaxspeed, %function
 1990              	ARM_setmaxspeed:
 1991              		@ args = 0, pretend = 0, frame = 24
 1992              		@ frame_needed = 0, uses_anonymous_args = 0
 1993 16a4 70402DE9 		push	{r4, r5, r6, lr}
 1994 16a8 0030A0E3 		mov	r3, #0
 1995 16ac 0840A0E3 		mov	r4, #8
ARM GAS  C:\Users\ldebo\AppData\Local\Temp\ccevlpv4.s 			page 36


 1996 16b0 0350A0E3 		mov	r5, #3
 1997 16b4 28D04DE2 		sub	sp, sp, #40
 1998 16b8 08308DE5 		str	r3, [sp, #8]
 1999 16bc 0060A0E1 		mov	r6, r0
 2000 16c0 30008DE8 		stm	sp, {r4, r5}
 2001 16c4 0430A0E1 		mov	r3, r4
 2002 16c8 14008DE2 		add	r0, sp, #20
 2003 16cc 64209FE5 		ldr	r2, .L386
 2004 16d0 0510A0E3 		mov	r1, #5
 2005 16d4 52FDFFEB 		bl	mailbox_tag_message.constprop.5
 2006 16d8 000050E3 		cmp	r0, #0
 2007 16dc 0300001A 		bne	.L376
 2008              	.L378:
 2009 16e0 0040A0E3 		mov	r4, #0
 2010              	.L377:
 2011 16e4 0400A0E1 		mov	r0, r4
 2012 16e8 28D08DE2 		add	sp, sp, #40
 2013              		@ sp needed
 2014 16ec 7080BDE8 		pop	{r4, r5, r6, pc}
 2015              	.L376:
 2016 16f0 24209DE5 		ldr	r2, [sp, #36]
 2017 16f4 30008DE8 		stm	sp, {r4, r5}
 2018 16f8 0430A0E1 		mov	r3, r4
 2019 16fc 08208DE5 		str	r2, [sp, #8]
 2020 1700 14008DE2 		add	r0, sp, #20
 2021 1704 30209FE5 		ldr	r2, .L386+4
 2022 1708 0510A0E3 		mov	r1, #5
 2023 170c 44FDFFEB 		bl	mailbox_tag_message.constprop.5
 2024 1710 004050E2 		subs	r4, r0, #0
 2025 1714 F1FFFF0A 		beq	.L378
 2026 1718 000056E3 		cmp	r6, #0
 2027 171c F0FFFF0A 		beq	.L377
 2028 1720 24109DE5 		ldr	r1, [sp, #36]
 2029 1724 14009FE5 		ldr	r0, .L386+8
 2030 1728 36FF2FE1 		blx	r6
 2031 172c 0400A0E1 		mov	r0, r4
 2032 1730 28D08DE2 		add	sp, sp, #40
 2033              		@ sp needed
 2034 1734 7080BDE8 		pop	{r4, r5, r6, pc}
 2035              	.L387:
 2036              		.align	2
 2037              	.L386:
 2038 1738 04000300 		.word	196612
 2039 173c 02800300 		.word	229378
 2040 1740 00000000 		.word	.LC0
 2041              		.size	ARM_setmaxspeed, .-ARM_setmaxspeed
 2042              		.align	2
 2043              		.global	displaySmartStart
 2044              		.syntax unified
 2045              		.arm
 2046              		.fpu vfp
 2047              		.type	displaySmartStart, %function
 2048              	displaySmartStart:
 2049              		@ args = 0, pretend = 0, frame = 0
 2050              		@ frame_needed = 0, uses_anonymous_args = 0
 2051 1744 10402DE9 		push	{r4, lr}
 2052 1748 004050E2 		subs	r4, r0, #0
ARM GAS  C:\Users\ldebo\AppData\Local\Temp\ccevlpv4.s 			page 37


 2053 174c 1080BD08 		popeq	{r4, pc}
 2054 1750 5C309FE5 		ldr	r3, .L391
 2055 1754 5C009FE5 		ldr	r0, .L391+4
 2056 1758 0010D3E5 		ldrb	r1, [r3]	@ zero_extendqisi2
 2057 175c 0020D3E5 		ldrb	r2, [r3]	@ zero_extendqisi2
 2058 1760 003093E5 		ldr	r3, [r3]
 2059 1764 2222A0E1 		lsr	r2, r2, #4
 2060 1768 012002E2 		and	r2, r2, #1
 2061 176c 012082E2 		add	r2, r2, #1
 2062 1770 A332A0E1 		lsr	r3, r3, #5
 2063 1774 0F1001E2 		and	r1, r1, #15
 2064 1778 8222A0E1 		lsl	r2, r2, #5
 2065 177c 073003E2 		and	r3, r3, #7
 2066 1780 34FF2FE1 		blx	r4
 2067 1784 FEFFFFEB 		bl	RPi_CpuIdString
 2068 1788 2C309FE5 		ldr	r3, .L391+8
 2069 178c 2C209FE5 		ldr	r2, .L391+12
 2070 1790 00C093E5 		ldr	ip, [r3]
 2071 1794 28309FE5 		ldr	r3, .L391+16
 2072 1798 0010A0E1 		mov	r1, r0
 2073 179c 2C2202E0 		and	r2, r2, ip, lsr #4
 2074 17a0 003093E5 		ldr	r3, [r3]
 2075 17a4 04C0A0E1 		mov	ip, r4
 2076 17a8 1040BDE8 		pop	{r4, lr}
 2077 17ac 14009FE5 		ldr	r0, .L391+20
 2078 17b0 1CFF2FE1 		bx	ip
 2079              	.L392:
 2080              		.align	2
 2081              	.L391:
 2082 17b4 00000000 		.word	RPi_CompileMode
 2083 17b8 1C000000 		.word	.LC1
 2084 17bc 00000000 		.word	RPi_CpuId
 2085 17c0 FF0F0000 		.word	4095
 2086 17c4 00000000 		.word	RPi_CoresReady
 2087 17c8 64000000 		.word	.LC2
 2088              		.size	displaySmartStart, .-displaySmartStart
 2089              		.align	2
 2090              		.global	Embedded_Console_WriteChar
 2091              		.syntax unified
 2092              		.arm
 2093              		.fpu vfp
 2094              		.type	Embedded_Console_WriteChar, %function
 2095              	Embedded_Console_WriteChar:
 2096              		@ args = 0, pretend = 0, frame = 0
 2097              		@ frame_needed = 0, uses_anonymous_args = 0
 2098 17cc 0A0050E3 		cmp	r0, #10
 2099 17d0 2200000A 		beq	.L395
 2100 17d4 0D0050E3 		cmp	r0, #13
 2101 17d8 1C00000A 		beq	.L396
 2102 17dc 090050E3 		cmp	r0, #9
 2103 17e0 0F00000A 		beq	.L404
 2104 17e4 10402DE9 		push	{r4, lr}
 2105 17e8 8C409FE5 		ldr	r4, .L405
 2106 17ec 0010A0E1 		mov	r1, r0
 2107 17f0 1C2094E5 		ldr	r2, [r4, #28]
 2108 17f4 203094E5 		ldr	r3, [r4, #32]
 2109 17f8 8221A0E1 		lsl	r2, r2, #3
ARM GAS  C:\Users\ldebo\AppData\Local\Temp\ccevlpv4.s 			page 38


 2110 17fc 0332A0E1 		lsl	r3, r3, #4
 2111 1800 183084E5 		str	r3, [r4, #24]
 2112 1804 142084E5 		str	r2, [r4, #20]
 2113 1808 403094E5 		ldr	r3, [r4, #64]
 2114 180c 040084E2 		add	r0, r4, #4
 2115 1810 33FF2FE1 		blx	r3
 2116 1814 1C3094E5 		ldr	r3, [r4, #28]
 2117 1818 013083E2 		add	r3, r3, #1
 2118 181c 1C3084E5 		str	r3, [r4, #28]
 2119 1820 1080BDE8 		pop	{r4, pc}
 2120              	.L404:
 2121 1824 50009FE5 		ldr	r0, .L405
 2122 1828 1C3090E5 		ldr	r3, [r0, #28]
 2123 182c 053083E2 		add	r3, r3, #5
 2124 1830 C32FA0E1 		asr	r2, r3, #31
 2125 1834 221FA0E1 		lsr	r1, r2, #30
 2126 1838 012083E0 		add	r2, r3, r1
 2127 183c 032002E2 		and	r2, r2, #3
 2128 1840 012042E0 		sub	r2, r2, r1
 2129 1844 023043E0 		sub	r3, r3, r2
 2130 1848 1C3080E5 		str	r3, [r0, #28]
 2131 184c 1EFF2FE1 		bx	lr
 2132              	.L396:
 2133 1850 0020A0E3 		mov	r2, #0
 2134 1854 20309FE5 		ldr	r3, .L405
 2135 1858 1C2083E5 		str	r2, [r3, #28]
 2136 185c 1EFF2FE1 		bx	lr
 2137              	.L395:
 2138 1860 0010A0E3 		mov	r1, #0
 2139 1864 10309FE5 		ldr	r3, .L405
 2140 1868 202093E5 		ldr	r2, [r3, #32]
 2141 186c 1C1083E5 		str	r1, [r3, #28]
 2142 1870 012082E2 		add	r2, r2, #1
 2143 1874 202083E5 		str	r2, [r3, #32]
 2144 1878 1EFF2FE1 		bx	lr
 2145              	.L406:
 2146              		.align	2
 2147              	.L405:
 2148 187c 00000000 		.word	.LANCHOR1
 2149              		.size	Embedded_Console_WriteChar, .-Embedded_Console_WriteChar
 2150              		.align	2
 2151              		.global	WriteText
 2152              		.syntax unified
 2153              		.arm
 2154              		.fpu vfp
 2155              		.type	WriteText, %function
 2156              	WriteText:
 2157              		@ args = 0, pretend = 0, frame = 0
 2158              		@ frame_needed = 0, uses_anonymous_args = 0
 2159 1880 F0412DE9 		push	{r4, r5, r6, r7, r8, lr}
 2160 1884 004052E2 		subs	r4, r2, #0
 2161 1888 F081BD08 		popeq	{r4, r5, r6, r7, r8, pc}
 2162 188c 0030A0E1 		mov	r3, r0
 2163 1890 C0509FE5 		ldr	r5, .L425
 2164 1894 0400A0E1 		mov	r0, r4
 2165 1898 1C3085E5 		str	r3, [r5, #28]
 2166 189c 201085E5 		str	r1, [r5, #32]
ARM GAS  C:\Users\ldebo\AppData\Local\Temp\ccevlpv4.s 			page 39


 2167 18a0 FEFFFFEB 		bl	strlen
 2168 18a4 000050E3 		cmp	r0, #0
 2169 18a8 F081BD08 		popeq	{r4, r5, r6, r7, r8, pc}
 2170 18ac 0080A0E3 		mov	r8, #0
 2171 18b0 007084E0 		add	r7, r4, r0
 2172 18b4 046085E2 		add	r6, r5, #4
 2173 18b8 120000EA 		b	.L415
 2174              	.L424:
 2175 18bc 0D0051E3 		cmp	r1, #13
 2176 18c0 1C808505 		streq	r8, [r5, #28]
 2177 18c4 0D00000A 		beq	.L414
 2178 18c8 090051E3 		cmp	r1, #9
 2179 18cc 1700000A 		beq	.L422
 2180 18d0 1C2095E5 		ldr	r2, [r5, #28]
 2181 18d4 203095E5 		ldr	r3, [r5, #32]
 2182 18d8 8221A0E1 		lsl	r2, r2, #3
 2183 18dc 0332A0E1 		lsl	r3, r3, #4
 2184 18e0 183085E5 		str	r3, [r5, #24]
 2185 18e4 142085E5 		str	r2, [r5, #20]
 2186 18e8 403095E5 		ldr	r3, [r5, #64]
 2187 18ec 0600A0E1 		mov	r0, r6
 2188 18f0 33FF2FE1 		blx	r3
 2189 18f4 1C3095E5 		ldr	r3, [r5, #28]
 2190 18f8 013083E2 		add	r3, r3, #1
 2191 18fc 1C3085E5 		str	r3, [r5, #28]
 2192              	.L414:
 2193 1900 040057E1 		cmp	r7, r4
 2194 1904 0800000A 		beq	.L423
 2195              	.L415:
 2196 1908 0110D4E4 		ldrb	r1, [r4], #1	@ zero_extendqisi2
 2197 190c 0A0051E3 		cmp	r1, #10
 2198 1910 E9FFFF1A 		bne	.L424
 2199 1914 203095E5 		ldr	r3, [r5, #32]
 2200 1918 040057E1 		cmp	r7, r4
 2201 191c 013083E2 		add	r3, r3, #1
 2202 1920 1C8085E5 		str	r8, [r5, #28]
 2203 1924 203085E5 		str	r3, [r5, #32]
 2204 1928 F6FFFF1A 		bne	.L415
 2205              	.L423:
 2206 192c F081BDE8 		pop	{r4, r5, r6, r7, r8, pc}
 2207              	.L422:
 2208 1930 1C3095E5 		ldr	r3, [r5, #28]
 2209 1934 053083E2 		add	r3, r3, #5
 2210 1938 C32FA0E1 		asr	r2, r3, #31
 2211 193c 221FA0E1 		lsr	r1, r2, #30
 2212 1940 012083E0 		add	r2, r3, r1
 2213 1944 032002E2 		and	r2, r2, #3
 2214 1948 012042E0 		sub	r2, r2, r1
 2215 194c 023043E0 		sub	r3, r3, r2
 2216 1950 1C3085E5 		str	r3, [r5, #28]
 2217 1954 E9FFFFEA 		b	.L414
 2218              	.L426:
 2219              		.align	2
 2220              	.L425:
 2221 1958 00000000 		.word	.LANCHOR1
 2222              		.size	WriteText, .-WriteText
 2223              		.align	2
ARM GAS  C:\Users\ldebo\AppData\Local\Temp\ccevlpv4.s 			page 40


 2224              		.global	SetDCPenColor
 2225              		.syntax unified
 2226              		.arm
 2227              		.fpu vfp
 2228              		.type	SetDCPenColor, %function
 2229              	SetDCPenColor:
 2230              		@ args = 0, pretend = 0, frame = 0
 2231              		@ frame_needed = 0, uses_anonymous_args = 0
 2232              		@ link register save eliminated.
 2233 195c 003050E2 		subs	r3, r0, #0
 2234 1960 20009315 		ldrne	r0, [r3, #32]
 2235 1964 20108315 		strne	r1, [r3, #32]
 2236 1968 0300A001 		moveq	r0, r3
 2237 196c 1EFF2FE1 		bx	lr
 2238              		.size	SetDCPenColor, .-SetDCPenColor
 2239              		.align	2
 2240              		.global	SetDCBrushColor
 2241              		.syntax unified
 2242              		.arm
 2243              		.fpu vfp
 2244              		.type	SetDCBrushColor, %function
 2245              	SetDCBrushColor:
 2246              		@ args = 0, pretend = 0, frame = 0
 2247              		@ frame_needed = 0, uses_anonymous_args = 0
 2248              		@ link register save eliminated.
 2249 1970 003050E2 		subs	r3, r0, #0
 2250 1974 28009315 		ldrne	r0, [r3, #40]
 2251 1978 28108315 		strne	r1, [r3, #40]
 2252 197c 0300A001 		moveq	r0, r3
 2253 1980 1EFF2FE1 		bx	lr
 2254              		.size	SetDCBrushColor, .-SetDCBrushColor
 2255              		.align	2
 2256              		.global	MoveToEx
 2257              		.syntax unified
 2258              		.arm
 2259              		.fpu vfp
 2260              		.type	MoveToEx, %function
 2261              	MoveToEx:
 2262              		@ args = 0, pretend = 0, frame = 0
 2263              		@ frame_needed = 0, uses_anonymous_args = 0
 2264 1984 00C050E2 		subs	ip, r0, #0
 2265 1988 0900000A 		beq	.L436
 2266 198c 04E02DE5 		str	lr, [sp, #-4]!
 2267 1990 01E0A0E1 		mov	lr, r1
 2268 1994 000053E3 		cmp	r3, #0
 2269 1998 10108C12 		addne	r1, ip, #16
 2270 199c 03009118 		ldmne	r1, {r0, r1}
 2271 19a0 03008318 		stmne	r3, {r0, r1}
 2272 19a4 10E08CE5 		str	lr, [ip, #16]
 2273 19a8 14208CE5 		str	r2, [ip, #20]
 2274 19ac 0100A0E3 		mov	r0, #1
 2275 19b0 04F09DE4 		ldr	pc, [sp], #4
 2276              	.L436:
 2277 19b4 0C00A0E1 		mov	r0, ip
 2278 19b8 1EFF2FE1 		bx	lr
 2279              		.size	MoveToEx, .-MoveToEx
 2280              		.align	2
ARM GAS  C:\Users\ldebo\AppData\Local\Temp\ccevlpv4.s 			page 41


 2281              		.global	LineTo
 2282              		.syntax unified
 2283              		.arm
 2284              		.fpu vfp
 2285              		.type	LineTo, %function
 2286              	LineTo:
 2287              		@ args = 0, pretend = 0, frame = 0
 2288              		@ frame_needed = 0, uses_anonymous_args = 0
 2289 19bc 000050E3 		cmp	r0, #0
 2290 19c0 1EFF2F01 		bxeq	lr
 2291 19c4 10C090E5 		ldr	ip, [r0, #16]
 2292 19c8 10402DE9 		push	{r4, lr}
 2293 19cc 01005CE1 		cmp	ip, r1
 2294 19d0 01104CC0 		subgt	r1, ip, r1
 2295 19d4 0C1041D0 		suble	r1, r1, ip
 2296 19d8 14C090E5 		ldr	ip, [r0, #20]
 2297 19dc 0030E0C3 		mvngt	r3, #0
 2298 19e0 0130A0D3 		movle	r3, #1
 2299 19e4 02005CE1 		cmp	ip, r2
 2300 19e8 02C04CC0 		subgt	ip, ip, r2
 2301 19ec 00E0E0C3 		mvngt	lr, #0
 2302 19f0 01E0A0D3 		movle	lr, #1
 2303 19f4 0CC042D0 		suble	ip, r2, ip
 2304 19f8 000051E3 		cmp	r1, #0
 2305 19fc 08D04DE2 		sub	sp, sp, #8
 2306 1a00 0E00000A 		beq	.L457
 2307 1a04 00005CE3 		cmp	ip, #0
 2308 1a08 0600000A 		beq	.L458
 2309 1a0c 00E08DE5 		str	lr, [sp]
 2310 1a10 384090E5 		ldr	r4, [r0, #56]
 2311 1a14 0C20A0E1 		mov	r2, ip
 2312 1a18 34FF2FE1 		blx	r4
 2313 1a1c 0100A0E3 		mov	r0, #1
 2314 1a20 08D08DE2 		add	sp, sp, #8
 2315              		@ sp needed
 2316 1a24 1080BDE8 		pop	{r4, pc}
 2317              	.L458:
 2318 1a28 0320A0E1 		mov	r2, r3
 2319 1a2c 343090E5 		ldr	r3, [r0, #52]
 2320 1a30 33FF2FE1 		blx	r3
 2321 1a34 0100A0E3 		mov	r0, #1
 2322 1a38 08D08DE2 		add	sp, sp, #8
 2323              		@ sp needed
 2324 1a3c 1080BDE8 		pop	{r4, pc}
 2325              	.L457:
 2326 1a40 303090E5 		ldr	r3, [r0, #48]
 2327 1a44 0E20A0E1 		mov	r2, lr
 2328 1a48 0C10A0E1 		mov	r1, ip
 2329 1a4c 33FF2FE1 		blx	r3
 2330 1a50 0100A0E3 		mov	r0, #1
 2331 1a54 08D08DE2 		add	sp, sp, #8
 2332              		@ sp needed
 2333 1a58 1080BDE8 		pop	{r4, pc}
 2334              		.size	LineTo, .-LineTo
 2335              		.align	2
 2336              		.global	TextOut
 2337              		.syntax unified
ARM GAS  C:\Users\ldebo\AppData\Local\Temp\ccevlpv4.s 			page 42


 2338              		.arm
 2339              		.fpu vfp
 2340              		.type	TextOut, %function
 2341              	TextOut:
 2342              		@ args = 4, pretend = 0, frame = 0
 2343              		@ frame_needed = 0, uses_anonymous_args = 0
 2344 1a5c F0472DE9 		push	{r4, r5, r6, r7, r8, r9, r10, lr}
 2345 1a60 20709DE5 		ldr	r7, [sp, #32]
 2346 1a64 000057E3 		cmp	r7, #0
 2347 1a68 00005313 		cmpne	r3, #0
 2348 1a6c 0100A013 		movne	r0, #1
 2349 1a70 0000A003 		moveq	r0, #0
 2350 1a74 F087BD08 		popeq	{r4, r5, r6, r7, r8, r9, r10, pc}
 2351 1a78 000057E3 		cmp	r7, #0
 2352 1a7c 0E0000DA 		ble	.L462
 2353 1a80 0160A0E1 		mov	r6, r1
 2354 1a84 0280A0E1 		mov	r8, r2
 2355 1a88 0340A0E1 		mov	r4, r3
 2356 1a8c 30509FE5 		ldr	r5, .L466
 2357 1a90 077083E0 		add	r7, r3, r7
 2358 1a94 049085E2 		add	r9, r5, #4
 2359              	.L463:
 2360 1a98 146085E5 		str	r6, [r5, #20]
 2361 1a9c 188085E5 		str	r8, [r5, #24]
 2362 1aa0 0110D4E4 		ldrb	r1, [r4], #1	@ zero_extendqisi2
 2363 1aa4 403095E5 		ldr	r3, [r5, #64]
 2364 1aa8 0900A0E1 		mov	r0, r9
 2365 1aac 33FF2FE1 		blx	r3
 2366 1ab0 070054E1 		cmp	r4, r7
 2367 1ab4 086086E2 		add	r6, r6, #8
 2368 1ab8 F6FFFF1A 		bne	.L463
 2369              	.L462:
 2370 1abc 0100A0E3 		mov	r0, #1
 2371 1ac0 F087BDE8 		pop	{r4, r5, r6, r7, r8, r9, r10, pc}
 2372              	.L467:
 2373              		.align	2
 2374              	.L466:
 2375 1ac4 00000000 		.word	.LANCHOR1
 2376              		.size	TextOut, .-TextOut
 2377              		.align	2
 2378              		.global	BmpOut
 2379              		.syntax unified
 2380              		.arm
 2381              		.fpu vfp
 2382              		.type	BmpOut, %function
 2383              	BmpOut:
 2384              		@ args = 8, pretend = 0, frame = 0
 2385              		@ frame_needed = 0, uses_anonymous_args = 0
 2386 1ac8 00C050E2 		subs	ip, r0, #0
 2387 1acc 1000000A 		beq	.L470
 2388 1ad0 30402DE9 		push	{r4, r5, lr}
 2389 1ad4 0140A0E3 		mov	r4, #1
 2390 1ad8 0CD04DE2 		sub	sp, sp, #12
 2391 1adc 18E09DE5 		ldr	lr, [sp, #24]
 2392 1ae0 10108CE5 		str	r1, [ip, #16]
 2393 1ae4 0E2082E0 		add	r2, r2, lr
 2394 1ae8 0310A0E1 		mov	r1, r3
ARM GAS  C:\Users\ldebo\AppData\Local\Temp\ccevlpv4.s 			page 43


 2395 1aec 1C309DE5 		ldr	r3, [sp, #28]
 2396 1af0 14208CE5 		str	r2, [ip, #20]
 2397 1af4 00408DE5 		str	r4, [sp]
 2398 1af8 40509CE5 		ldr	r5, [ip, #64]
 2399 1afc 363083E2 		add	r3, r3, #54
 2400 1b00 0E20A0E1 		mov	r2, lr
 2401 1b04 35FF2FE1 		blx	r5
 2402 1b08 0400A0E1 		mov	r0, r4
 2403 1b0c 0CD08DE2 		add	sp, sp, #12
 2404              		@ sp needed
 2405 1b10 3080BDE8 		pop	{r4, r5, pc}
 2406              	.L470:
 2407 1b14 0C00A0E1 		mov	r0, ip
 2408 1b18 1EFF2FE1 		bx	lr
 2409              		.size	BmpOut, .-BmpOut
 2410              		.align	2
 2411              		.global	Rectangle
 2412              		.syntax unified
 2413              		.arm
 2414              		.fpu vfp
 2415              		.type	Rectangle, %function
 2416              	Rectangle:
 2417              		@ args = 4, pretend = 0, frame = 0
 2418              		@ frame_needed = 0, uses_anonymous_args = 0
 2419 1b1c 00C050E2 		subs	ip, r0, #0
 2420 1b20 0800000A 		beq	.L477
 2421 1b24 10402DE9 		push	{r4, lr}
 2422 1b28 08D04DE2 		sub	sp, sp, #8
 2423 1b2c 10E09DE5 		ldr	lr, [sp, #16]
 2424 1b30 00E08DE5 		str	lr, [sp]
 2425 1b34 2C409CE5 		ldr	r4, [ip, #44]
 2426 1b38 34FF2FE1 		blx	r4
 2427 1b3c 0100A0E3 		mov	r0, #1
 2428 1b40 08D08DE2 		add	sp, sp, #8
 2429              		@ sp needed
 2430 1b44 1080BDE8 		pop	{r4, pc}
 2431              	.L477:
 2432 1b48 0C00A0E1 		mov	r0, ip
 2433 1b4c 1EFF2FE1 		bx	lr
 2434              		.size	Rectangle, .-Rectangle
 2435              		.align	2
 2436              		.global	PiConsole_Init
 2437              		.syntax unified
 2438              		.arm
 2439              		.fpu vfp
 2440              		.type	PiConsole_Init, %function
 2441              	PiConsole_Init:
 2442              		@ args = 0, pretend = 0, frame = 80
 2443              		@ frame_needed = 0, uses_anonymous_args = 0
 2444 1b50 000051E3 		cmp	r1, #0
 2445 1b54 00005013 		cmpne	r0, #0
 2446 1b58 F0432DE9 		push	{r4, r5, r6, r7, r8, r9, lr}
 2447 1b5c 9CD04DE2 		sub	sp, sp, #156
 2448 1b60 0240A0E1 		mov	r4, r2
 2449 1b64 0380A0E1 		mov	r8, r3
 2450 1b68 0050A0E1 		mov	r5, r0
 2451 1b6c 0160A0E1 		mov	r6, r1
ARM GAS  C:\Users\ldebo\AppData\Local\Temp\ccevlpv4.s 			page 44


 2452 1b70 4C908D12 		addne	r9, sp, #76
 2453 1b74 5300000A 		beq	.L507
 2454              	.L483:
 2455 1b78 000054E3 		cmp	r4, #0
 2456 1b7c 0800001A 		bne	.L487
 2457 1b80 0430A0E3 		mov	r3, #4
 2458 1b84 F0219FE5 		ldr	r2, .L509
 2459 1b88 18008DE8 		stm	sp, {r3, r4}
 2460 1b8c 0310A0E1 		mov	r1, r3
 2461 1b90 0900A0E1 		mov	r0, r9
 2462 1b94 62FCFFEB 		bl	mailbox_tag_message.constprop.6
 2463 1b98 000050E3 		cmp	r0, #0
 2464 1b9c 1D00000A 		beq	.L488
 2465 1ba0 58409DE5 		ldr	r4, [sp, #88]
 2466              	.L487:
 2467 1ba4 0420A0E3 		mov	r2, #4
 2468 1ba8 0830A0E3 		mov	r3, #8
 2469 1bac 10C0A0E3 		mov	ip, #16
 2470 1bb0 0070A0E3 		mov	r7, #0
 2471 1bb4 C4E19FE5 		ldr	lr, .L509+4
 2472 1bb8 C4119FE5 		ldr	r1, .L509+8
 2473 1bbc 38208DE5 		str	r2, [sp, #56]
 2474 1bc0 28208DE5 		str	r2, [sp, #40]
 2475 1bc4 24208DE5 		str	r2, [sp, #36]
 2476 1bc8 122982E2 		add	r2, r2, #294912
 2477 1bcc 0900A0E1 		mov	r0, r9
 2478 1bd0 20108DE5 		str	r1, [sp, #32]
 2479 1bd4 0C208DE5 		str	r2, [sp, #12]
 2480 1bd8 2C408DE5 		str	r4, [sp, #44]
 2481 1bdc 1C608DE5 		str	r6, [sp, #28]
 2482 1be0 18508DE5 		str	r5, [sp, #24]
 2483 1be4 60008DE9 		stmib	sp, {r5, r6}
 2484 1be8 34308DE5 		str	r3, [sp, #52]
 2485 1bec 14308DE5 		str	r3, [sp, #20]
 2486 1bf0 10308DE5 		str	r3, [sp, #16]
 2487 1bf4 00308DE5 		str	r3, [sp]
 2488 1bf8 30E08DE5 		str	lr, [sp, #48]
 2489 1bfc 012042E2 		sub	r2, r2, #1
 2490 1c00 1310A0E3 		mov	r1, #19
 2491 1c04 40708DE5 		str	r7, [sp, #64]
 2492 1c08 3CC08DE5 		str	ip, [sp, #60]
 2493 1c0c 7FFCFFEB 		bl	mailbox_tag_message.constprop.7
 2494 1c10 009050E2 		subs	r9, r0, #0
 2495 1c14 0300001A 		bne	.L508
 2496              	.L488:
 2497 1c18 0090A0E3 		mov	r9, #0
 2498              	.L485:
 2499 1c1c 0900A0E1 		mov	r0, r9
 2500 1c20 9CD08DE2 		add	sp, sp, #156
 2501              		@ sp needed
 2502 1c24 F083BDE8 		pop	{r4, r5, r6, r7, r8, r9, pc}
 2503              	.L508:
 2504 1c28 90009DE5 		ldr	r0, [sp, #144]
 2505 1c2c FEFFFFEB 		bl	GPUaddrToARMaddr
 2506 1c30 0010E0E3 		mvn	r1, #0
 2507 1c34 4C319FE5 		ldr	r3, .L509+12
 2508 1c38 4C219FE5 		ldr	r2, .L509+16
ARM GAS  C:\Users\ldebo\AppData\Local\Temp\ccevlpv4.s 			page 45


 2509 1c3c 180054E3 		cmp	r4, #24
 2510 1c40 040083E5 		str	r0, [r3, #4]
 2511 1c44 287083E5 		str	r7, [r3, #40]
 2512 1c48 085083E5 		str	r5, [r3, #8]
 2513 1c4c 0C6083E5 		str	r6, [r3, #12]
 2514 1c50 104083E5 		str	r4, [r3, #16]
 2515 1c54 241083E5 		str	r1, [r3, #36]
 2516 1c58 2C2083E5 		str	r2, [r3, #44]
 2517 1c5c 3900000A 		beq	.L490
 2518 1c60 200054E3 		cmp	r4, #32
 2519 1c64 2A00000A 		beq	.L491
 2520 1c68 100054E3 		cmp	r4, #16
 2521 1c6c 0B00001A 		bne	.L489
 2522 1c70 18119FE5 		ldr	r1, .L509+20
 2523 1c74 18219FE5 		ldr	r2, .L509+24
 2524 1c78 301083E5 		str	r1, [r3, #48]
 2525 1c7c 342083E5 		str	r2, [r3, #52]
 2526 1c80 10119FE5 		ldr	r1, .L509+28
 2527 1c84 10219FE5 		ldr	r2, .L509+32
 2528 1c88 381083E5 		str	r1, [r3, #56]
 2529 1c8c 3C2083E5 		str	r2, [r3, #60]
 2530 1c90 08119FE5 		ldr	r1, .L509+36
 2531 1c94 08219FE5 		ldr	r2, .L509+40
 2532 1c98 401083E5 		str	r1, [r3, #64]
 2533 1c9c 442083E5 		str	r2, [r3, #68]
 2534              	.L489:
 2535 1ca0 000058E3 		cmp	r8, #0
 2536 1ca4 DCFFFF0A 		beq	.L485
 2537 1ca8 0430A0E1 		mov	r3, r4
 2538 1cac 0620A0E1 		mov	r2, r6
 2539 1cb0 0510A0E1 		mov	r1, r5
 2540 1cb4 EC009FE5 		ldr	r0, .L509+44
 2541 1cb8 38FF2FE1 		blx	r8
 2542 1cbc 0900A0E1 		mov	r0, r9
 2543 1cc0 9CD08DE2 		add	sp, sp, #156
 2544              		@ sp needed
 2545 1cc4 F083BDE8 		pop	{r4, r5, r6, r7, r8, r9, pc}
 2546              	.L507:
 2547 1cc8 0030A0E3 		mov	r3, #0
 2548 1ccc 4C908DE2 		add	r9, sp, #76
 2549 1cd0 08308DE5 		str	r3, [sp, #8]
 2550 1cd4 04308DE5 		str	r3, [sp, #4]
 2551 1cd8 00308DE5 		str	r3, [sp]
 2552 1cdc 0900A0E1 		mov	r0, r9
 2553 1ce0 0830A0E3 		mov	r3, #8
 2554 1ce4 C0209FE5 		ldr	r2, .L509+48
 2555 1ce8 0510A0E3 		mov	r1, #5
 2556 1cec CCFBFFEB 		bl	mailbox_tag_message.constprop.5
 2557 1cf0 000050E3 		cmp	r0, #0
 2558 1cf4 C7FFFF0A 		beq	.L488
 2559 1cf8 000055E3 		cmp	r5, #0
 2560 1cfc 0200001A 		bne	.L486
 2561 1d00 000056E3 		cmp	r6, #0
 2562 1d04 58509DE5 		ldr	r5, [sp, #88]
 2563 1d08 9AFFFF1A 		bne	.L483
 2564              	.L486:
 2565 1d0c 5C609DE5 		ldr	r6, [sp, #92]
ARM GAS  C:\Users\ldebo\AppData\Local\Temp\ccevlpv4.s 			page 46


 2566 1d10 98FFFFEA 		b	.L483
 2567              	.L491:
 2568 1d14 94109FE5 		ldr	r1, .L509+52
 2569 1d18 94209FE5 		ldr	r2, .L509+56
 2570 1d1c 301083E5 		str	r1, [r3, #48]
 2571 1d20 342083E5 		str	r2, [r3, #52]
 2572 1d24 8C109FE5 		ldr	r1, .L509+60
 2573 1d28 8C209FE5 		ldr	r2, .L509+64
 2574 1d2c 381083E5 		str	r1, [r3, #56]
 2575 1d30 3C2083E5 		str	r2, [r3, #60]
 2576 1d34 84109FE5 		ldr	r1, .L509+68
 2577 1d38 84209FE5 		ldr	r2, .L509+72
 2578 1d3c 401083E5 		str	r1, [r3, #64]
 2579 1d40 442083E5 		str	r2, [r3, #68]
 2580 1d44 D5FFFFEA 		b	.L489
 2581              	.L490:
 2582 1d48 78109FE5 		ldr	r1, .L509+76
 2583 1d4c 78209FE5 		ldr	r2, .L509+80
 2584 1d50 301083E5 		str	r1, [r3, #48]
 2585 1d54 342083E5 		str	r2, [r3, #52]
 2586 1d58 70109FE5 		ldr	r1, .L509+84
 2587 1d5c 70209FE5 		ldr	r2, .L509+88
 2588 1d60 381083E5 		str	r1, [r3, #56]
 2589 1d64 3C2083E5 		str	r2, [r3, #60]
 2590 1d68 68109FE5 		ldr	r1, .L509+92
 2591 1d6c 68209FE5 		ldr	r2, .L509+96
 2592 1d70 401083E5 		str	r1, [r3, #64]
 2593 1d74 442083E5 		str	r2, [r3, #68]
 2594 1d78 C8FFFFEA 		b	.L489
 2595              	.L510:
 2596              		.align	2
 2597              	.L509:
 2598 1d7c 05000400 		.word	262149
 2599 1d80 01000400 		.word	262145
 2600 1d84 05800400 		.word	294917
 2601 1d88 00000000 		.word	.LANCHOR1
 2602 1d8c 00FF00FF 		.word	-16711936
 2603 1d90 00000000 		.word	_ZL11ClearArea16P8tagINTDCjjjj
 2604 1d94 00000000 		.word	_ZL10VertLine16P8tagINTDCji
 2605 1d98 00000000 		.word	_ZL10HorzLine16P8tagINTDCji
 2606 1d9c 00000000 		.word	_ZL10DiagLine16P8tagINTDCjjii
 2607 1da0 00000000 		.word	_ZL11WriteChar16P8tagINTDCh
 2608 1da4 00000000 		.word	_ZL10PutImage16P8tagINTDCjj12tagIMAGE_PTRb
 2609 1da8 A4000000 		.word	.LC3
 2610 1dac 03000400 		.word	262147
 2611 1db0 00000000 		.word	_ZL11ClearArea32P8tagINTDCjjjj
 2612 1db4 00000000 		.word	_ZL10VertLine32P8tagINTDCji
 2613 1db8 00000000 		.word	_ZL10HorzLine32P8tagINTDCji
 2614 1dbc 00000000 		.word	_ZL10DiagLine32P8tagINTDCjjii
 2615 1dc0 00000000 		.word	_ZL11WriteChar32P8tagINTDCh
 2616 1dc4 00000000 		.word	_ZL10PutImage32P8tagINTDCjj12tagIMAGE_PTRb
 2617 1dc8 00000000 		.word	_ZL11ClearArea24P8tagINTDCjjjj
 2618 1dcc 00000000 		.word	_ZL10VertLine24P8tagINTDCji
 2619 1dd0 00000000 		.word	_ZL10HorzLine24P8tagINTDCji
 2620 1dd4 00000000 		.word	_ZL10DiagLine24P8tagINTDCjjii
 2621 1dd8 00000000 		.word	_ZL11WriteChar24P8tagINTDCh
 2622 1ddc 00000000 		.word	_ZL10PutImage24P8tagINTDCjj12tagIMAGE_PTRb
ARM GAS  C:\Users\ldebo\AppData\Local\Temp\ccevlpv4.s 			page 47


 2623              		.size	PiConsole_Init, .-PiConsole_Init
 2624              		.align	2
 2625              		.global	GetConsoleDC
 2626              		.syntax unified
 2627              		.arm
 2628              		.fpu vfp
 2629              		.type	GetConsoleDC, %function
 2630              	GetConsoleDC:
 2631              		@ args = 0, pretend = 0, frame = 0
 2632              		@ frame_needed = 0, uses_anonymous_args = 0
 2633              		@ link register save eliminated.
 2634 1de0 00009FE5 		ldr	r0, .L512
 2635 1de4 1EFF2FE1 		bx	lr
 2636              	.L513:
 2637              		.align	2
 2638              	.L512:
 2639 1de8 04000000 		.word	.LANCHOR1+4
 2640              		.size	GetConsoleDC, .-GetConsoleDC
 2641              		.align	2
 2642              		.global	GetConsole_FrameBuffer
 2643              		.syntax unified
 2644              		.arm
 2645              		.fpu vfp
 2646              		.type	GetConsole_FrameBuffer, %function
 2647              	GetConsole_FrameBuffer:
 2648              		@ args = 0, pretend = 0, frame = 0
 2649              		@ frame_needed = 0, uses_anonymous_args = 0
 2650              		@ link register save eliminated.
 2651 1dec 04309FE5 		ldr	r3, .L515
 2652 1df0 040093E5 		ldr	r0, [r3, #4]
 2653 1df4 1EFF2FE1 		bx	lr
 2654              	.L516:
 2655              		.align	2
 2656              	.L515:
 2657 1df8 00000000 		.word	.LANCHOR1
 2658              		.size	GetConsole_FrameBuffer, .-GetConsole_FrameBuffer
 2659              		.align	2
 2660              		.global	GetConsole_Width
 2661              		.syntax unified
 2662              		.arm
 2663              		.fpu vfp
 2664              		.type	GetConsole_Width, %function
 2665              	GetConsole_Width:
 2666              		@ args = 0, pretend = 0, frame = 0
 2667              		@ frame_needed = 0, uses_anonymous_args = 0
 2668              		@ link register save eliminated.
 2669 1dfc 04309FE5 		ldr	r3, .L518
 2670 1e00 080093E5 		ldr	r0, [r3, #8]
 2671 1e04 1EFF2FE1 		bx	lr
 2672              	.L519:
 2673              		.align	2
 2674              	.L518:
 2675 1e08 00000000 		.word	.LANCHOR1
 2676              		.size	GetConsole_Width, .-GetConsole_Width
 2677              		.align	2
 2678              		.global	GetConsole_Height
 2679              		.syntax unified
ARM GAS  C:\Users\ldebo\AppData\Local\Temp\ccevlpv4.s 			page 48


 2680              		.arm
 2681              		.fpu vfp
 2682              		.type	GetConsole_Height, %function
 2683              	GetConsole_Height:
 2684              		@ args = 0, pretend = 0, frame = 0
 2685              		@ frame_needed = 0, uses_anonymous_args = 0
 2686              		@ link register save eliminated.
 2687 1e0c 04309FE5 		ldr	r3, .L521
 2688 1e10 0C0093E5 		ldr	r0, [r3, #12]
 2689 1e14 1EFF2FE1 		bx	lr
 2690              	.L522:
 2691              		.align	2
 2692              	.L521:
 2693 1e18 00000000 		.word	.LANCHOR1
 2694              		.size	GetConsole_Height, .-GetConsole_Height
 2695              		.align	2
 2696              		.weak	_sbrk
 2697              		.syntax unified
 2698              		.arm
 2699              		.fpu vfp
 2700              		.type	_sbrk, %function
 2701              	_sbrk:
 2702              		@ args = 0, pretend = 0, frame = 0
 2703              		@ frame_needed = 0, uses_anonymous_args = 0
 2704              		@ link register save eliminated.
 2705 1e1c 1C209FE5 		ldr	r2, .L526
 2706 1e20 1C109FE5 		ldr	r1, .L526+4
 2707 1e24 483092E5 		ldr	r3, [r2, #72]
 2708 1e28 000053E3 		cmp	r3, #0
 2709 1e2c 0130A001 		moveq	r3, r1
 2710 1e30 000083E0 		add	r0, r3, r0
 2711 1e34 480082E5 		str	r0, [r2, #72]
 2712 1e38 0300A0E1 		mov	r0, r3
 2713 1e3c 1EFF2FE1 		bx	lr
 2714              	.L527:
 2715              		.align	2
 2716              	.L526:
 2717 1e40 00000000 		.word	.LANCHOR1
 2718 1e44 00000000 		.word	_end
 2719              		.size	_sbrk, .-_sbrk
 2720              		.align	2
 2721              		.weak	_kill
 2722              		.syntax unified
 2723              		.arm
 2724              		.fpu vfp
 2725              		.type	_kill, %function
 2726              	_kill:
 2727              		@ args = 0, pretend = 0, frame = 0
 2728              		@ frame_needed = 0, uses_anonymous_args = 0
 2729              		@ link register save eliminated.
 2730 1e48 1620A0E3 		mov	r2, #22
 2731 1e4c 08309FE5 		ldr	r3, .L529
 2732 1e50 0000E0E3 		mvn	r0, #0
 2733 1e54 002083E5 		str	r2, [r3]
 2734 1e58 1EFF2FE1 		bx	lr
 2735              	.L530:
 2736              		.align	2
ARM GAS  C:\Users\ldebo\AppData\Local\Temp\ccevlpv4.s 			page 49


 2737              	.L529:
 2738 1e5c 00000000 		.word	errno
 2739              		.size	_kill, .-_kill
 2740              		.align	2
 2741              		.weak	_getpid
 2742              		.syntax unified
 2743              		.arm
 2744              		.fpu vfp
 2745              		.type	_getpid, %function
 2746              	_getpid:
 2747              		@ args = 0, pretend = 0, frame = 0
 2748              		@ frame_needed = 0, uses_anonymous_args = 0
 2749              		@ link register save eliminated.
 2750 1e60 0100A0E3 		mov	r0, #1
 2751 1e64 1EFF2FE1 		bx	lr
 2752              		.size	_getpid, .-_getpid
 2753              		.align	2
 2754              		.weak	_read
 2755              		.syntax unified
 2756              		.arm
 2757              		.fpu vfp
 2758              		.type	_read, %function
 2759              	_read:
 2760              		@ args = 0, pretend = 0, frame = 0
 2761              		@ frame_needed = 0, uses_anonymous_args = 0
 2762              		@ link register save eliminated.
 2763 1e68 0000A0E3 		mov	r0, #0
 2764 1e6c 1EFF2FE1 		bx	lr
 2765              		.size	_read, .-_read
 2766              		.align	2
 2767              		.weak	_close
 2768              		.syntax unified
 2769              		.arm
 2770              		.fpu vfp
 2771              		.type	_close, %function
 2772              	_close:
 2773              		@ args = 0, pretend = 0, frame = 0
 2774              		@ frame_needed = 0, uses_anonymous_args = 0
 2775              		@ link register save eliminated.
 2776 1e70 0000E0E3 		mvn	r0, #0
 2777 1e74 1EFF2FE1 		bx	lr
 2778              		.size	_close, .-_close
 2779              		.align	2
 2780              		.weak	_lseek
 2781              		.syntax unified
 2782              		.arm
 2783              		.fpu vfp
 2784              		.type	_lseek, %function
 2785              	_lseek:
 2786              		@ args = 0, pretend = 0, frame = 0
 2787              		@ frame_needed = 0, uses_anonymous_args = 0
 2788              		@ link register save eliminated.
 2789 1e78 0000A0E3 		mov	r0, #0
 2790 1e7c 1EFF2FE1 		bx	lr
 2791              		.size	_lseek, .-_lseek
 2792              		.align	2
 2793              		.weak	_isatty
ARM GAS  C:\Users\ldebo\AppData\Local\Temp\ccevlpv4.s 			page 50


 2794              		.syntax unified
 2795              		.arm
 2796              		.fpu vfp
 2797              		.type	_isatty, %function
 2798              	_isatty:
 2799              		@ args = 0, pretend = 0, frame = 0
 2800              		@ frame_needed = 0, uses_anonymous_args = 0
 2801              		@ link register save eliminated.
 2802 1e80 0100A0E3 		mov	r0, #1
 2803 1e84 1EFF2FE1 		bx	lr
 2804              		.size	_isatty, .-_isatty
 2805              		.align	2
 2806              		.weak	_fstat
 2807              		.syntax unified
 2808              		.arm
 2809              		.fpu vfp
 2810              		.type	_fstat, %function
 2811              	_fstat:
 2812              		@ args = 0, pretend = 0, frame = 0
 2813              		@ frame_needed = 0, uses_anonymous_args = 0
 2814              		@ link register save eliminated.
 2815 1e88 023AA0E3 		mov	r3, #8192
 2816 1e8c 0000A0E3 		mov	r0, #0
 2817 1e90 043081E5 		str	r3, [r1, #4]
 2818 1e94 1EFF2FE1 		bx	lr
 2819              		.size	_fstat, .-_fstat
 2820              		.align	2
 2821              		.weak	_exit
 2822              		.syntax unified
 2823              		.arm
 2824              		.fpu vfp
 2825              		.type	_exit, %function
 2826              	_exit:
 2827              		@ args = 0, pretend = 0, frame = 0
 2828              		@ frame_needed = 0, uses_anonymous_args = 0
 2829              		@ link register save eliminated.
 2830              	.L538:
 2831 1e98 FEFFFFEA 		b	.L538
 2832              		.size	_exit, .-_exit
 2833              		.align	2
 2834              		.global	_write
 2835              		.syntax unified
 2836              		.arm
 2837              		.fpu vfp
 2838              		.type	_write, %function
 2839              	_write:
 2840              		@ args = 0, pretend = 0, frame = 0
 2841              		@ frame_needed = 0, uses_anonymous_args = 0
 2842 1e9c F0472DE9 		push	{r4, r5, r6, r7, r8, r9, r10, lr}
 2843 1ea0 007052E2 		subs	r7, r2, #0
 2844 1ea4 210000DA 		ble	.L548
 2845 1ea8 B0409FE5 		ldr	r4, .L554
 2846 1eac 0150A0E1 		mov	r5, r1
 2847 1eb0 0090A0E3 		mov	r9, #0
 2848 1eb4 078081E0 		add	r8, r1, r7
 2849 1eb8 046084E2 		add	r6, r4, #4
 2850 1ebc 120000EA 		b	.L547
ARM GAS  C:\Users\ldebo\AppData\Local\Temp\ccevlpv4.s 			page 51


 2851              	.L553:
 2852 1ec0 0D0051E3 		cmp	r1, #13
 2853 1ec4 1C908405 		streq	r9, [r4, #28]
 2854 1ec8 0D00000A 		beq	.L545
 2855 1ecc 090051E3 		cmp	r1, #9
 2856 1ed0 1800000A 		beq	.L552
 2857 1ed4 1C2094E5 		ldr	r2, [r4, #28]
 2858 1ed8 203094E5 		ldr	r3, [r4, #32]
 2859 1edc 8221A0E1 		lsl	r2, r2, #3
 2860 1ee0 0332A0E1 		lsl	r3, r3, #4
 2861 1ee4 183084E5 		str	r3, [r4, #24]
 2862 1ee8 142084E5 		str	r2, [r4, #20]
 2863 1eec 403094E5 		ldr	r3, [r4, #64]
 2864 1ef0 0600A0E1 		mov	r0, r6
 2865 1ef4 33FF2FE1 		blx	r3
 2866 1ef8 1C3094E5 		ldr	r3, [r4, #28]
 2867 1efc 013083E2 		add	r3, r3, #1
 2868 1f00 1C3084E5 		str	r3, [r4, #28]
 2869              	.L545:
 2870 1f04 080055E1 		cmp	r5, r8
 2871 1f08 0800000A 		beq	.L548
 2872              	.L547:
 2873 1f0c 0110D5E4 		ldrb	r1, [r5], #1	@ zero_extendqisi2
 2874 1f10 0A0051E3 		cmp	r1, #10
 2875 1f14 E9FFFF1A 		bne	.L553
 2876 1f18 203094E5 		ldr	r3, [r4, #32]
 2877 1f1c 080055E1 		cmp	r5, r8
 2878 1f20 013083E2 		add	r3, r3, #1
 2879 1f24 1C9084E5 		str	r9, [r4, #28]
 2880 1f28 203084E5 		str	r3, [r4, #32]
 2881 1f2c F6FFFF1A 		bne	.L547
 2882              	.L548:
 2883 1f30 0700A0E1 		mov	r0, r7
 2884 1f34 F087BDE8 		pop	{r4, r5, r6, r7, r8, r9, r10, pc}
 2885              	.L552:
 2886 1f38 1C3094E5 		ldr	r3, [r4, #28]
 2887 1f3c 053083E2 		add	r3, r3, #5
 2888 1f40 C32FA0E1 		asr	r2, r3, #31
 2889 1f44 221FA0E1 		lsr	r1, r2, #30
 2890 1f48 012083E0 		add	r2, r3, r1
 2891 1f4c 032002E2 		and	r2, r2, #3
 2892 1f50 012042E0 		sub	r2, r2, r1
 2893 1f54 023043E0 		sub	r3, r3, r2
 2894 1f58 1C3084E5 		str	r3, [r4, #28]
 2895 1f5c E8FFFFEA 		b	.L545
 2896              	.L555:
 2897              		.align	2
 2898              	.L554:
 2899 1f60 00000000 		.word	.LANCHOR1
 2900              		.size	_write, .-_write
 2901              		.global	console
 2902              		.section	.rodata
 2903              		.align	2
 2904              		.set	.LANCHOR0,. + 0
 2905              		.type	_ZL7BitFont, %object
 2906              		.size	_ZL7BitFont, 4096
 2907              	_ZL7BitFont:
ARM GAS  C:\Users\ldebo\AppData\Local\Temp\ccevlpv4.s 			page 52


 2908 0000 00000000 		.word	0
 2909 0004 00000000 		.word	0
 2910 0008 00000000 		.word	0
 2911 000c 00000000 		.word	0
 2912 0010 817E0000 		.word	32385
 2913 0014 BD8181A5 		.word	-1518239299
 2914 0018 7E818199 		.word	-1719565954
 2915 001c 00000000 		.word	0
 2916 0020 FF7E0000 		.word	32511
 2917 0024 C3FFFFDB 		.word	-603979837
 2918 0028 7EFFFFE7 		.word	-402653314
 2919 002c 00000000 		.word	0
 2920 0030 00000000 		.word	0
 2921 0034 FEFEFE6C 		.word	1828650750
 2922 0038 10387CFE 		.word	-25413616
 2923 003c 00000000 		.word	0
 2924 0040 00000000 		.word	0
 2925 0044 FE7C3810 		.word	272137470
 2926 0048 0010387C 		.word	2084048896
 2927 004c 00000000 		.word	0
 2928 0050 18000000 		.word	24
 2929 0054 E7E73C3C 		.word	1010624487
 2930 0058 3C1818E7 		.word	-417851332
 2931 005c 00000000 		.word	0
 2932 0060 18000000 		.word	24
 2933 0064 FFFF7E3C 		.word	1014956031
 2934 0068 3C18187E 		.word	2115508284
 2935 006c 00000000 		.word	0
 2936 0070 00000000 		.word	0
 2937 0074 3C180000 		.word	6204
 2938 0078 0000183C 		.word	1008205824
 2939 007c 00000000 		.word	0
 2940 0080 FFFFFFFF 		.word	-1
 2941 0084 C3E7FFFF 		.word	-6205
 2942 0088 FFFFE7C3 		.word	-1008205825
 2943 008c FFFFFFFF 		.word	-1
 2944 0090 00000000 		.word	0
 2945 0094 42663C00 		.word	3958338
 2946 0098 003C6642 		.word	1113996288
 2947 009c 00000000 		.word	0
 2948 00a0 FFFFFFFF 		.word	-1
 2949 00a4 BD99C3FF 		.word	-3958339
 2950 00a8 FFC399BD 		.word	-1113996289
 2951 00ac FFFFFFFF 		.word	-1
 2952 00b0 0E1E0000 		.word	7694
 2953 00b4 CC78321A 		.word	439515340
 2954 00b8 78CCCCCC 		.word	-858993544
 2955 00bc 00000000 		.word	0
 2956 00c0 663C0000 		.word	15462
 2957 00c4 3C666666 		.word	1717986876
 2958 00c8 18187E18 		.word	410916888
 2959 00cc 00000000 		.word	0
 2960 00d0 333F0000 		.word	16179
 2961 00d4 3030303F 		.word	1060122672
 2962 00d8 E0F07030 		.word	812708064
 2963 00dc 00000000 		.word	0
 2964 00e0 637F0000 		.word	32611
ARM GAS  C:\Users\ldebo\AppData\Local\Temp\ccevlpv4.s 			page 53


 2965 00e4 6363637F 		.word	2137219939
 2966 00e8 E6E76763 		.word	1667753958
 2967 00ec 000000C0 		.word	-1073741824
 2968 00f0 18000000 		.word	24
 2969 00f4 E73CDB18 		.word	417021159
 2970 00f8 1818DB3C 		.word	1020991512
 2971 00fc 00000000 		.word	0
 2972 0100 E0C08000 		.word	8437984
 2973 0104 F8FEF8F0 		.word	-252117256
 2974 0108 80C0E0F0 		.word	-253706112
 2975 010c 00000000 		.word	0
 2976 0110 0E060200 		.word	132622
 2977 0114 3EFE3E1E 		.word	507444798
 2978 0118 02060E1E 		.word	504235522
 2979 011c 00000000 		.word	0
 2980 0120 3C180000 		.word	6204
 2981 0124 1818187E 		.word	2115508248
 2982 0128 00183C7E 		.word	2117867520
 2983 012c 00000000 		.word	0
 2984 0130 66660000 		.word	26214
 2985 0134 66666666 		.word	1717986918
 2986 0138 66660066 		.word	1711302246
 2987 013c 00000000 		.word	0
 2988 0140 DB7F0000 		.word	32731
 2989 0144 1B7BDBDB 		.word	-606373093
 2990 0148 1B1B1B1B 		.word	454761243
 2991 014c 00000000 		.word	0
 2992 0150 60C67C00 		.word	8177248
 2993 0154 C6C66C38 		.word	946652870
 2994 0158 C60C386C 		.word	1815612614
 2995 015c 0000007C 		.word	2080374784
 2996 0160 00000000 		.word	0
 2997 0164 00000000 		.word	0
 2998 0168 FEFEFEFE 		.word	-16843010
 2999 016c 00000000 		.word	0
 3000 0170 3C180000 		.word	6204
 3001 0174 1818187E 		.word	2115508248
 3002 0178 7E183C7E 		.word	2117867646
 3003 017c 00000000 		.word	0
 3004 0180 3C180000 		.word	6204
 3005 0184 1818187E 		.word	2115508248
 3006 0188 18181818 		.word	404232216
 3007 018c 00000000 		.word	0
 3008 0190 18180000 		.word	6168
 3009 0194 18181818 		.word	404232216
 3010 0198 183C7E18 		.word	410926104
 3011 019c 00000000 		.word	0
 3012 01a0 00000000 		.word	0
 3013 01a4 FE0C1800 		.word	1576190
 3014 01a8 0000180C 		.word	202899456
 3015 01ac 00000000 		.word	0
 3016 01b0 00000000 		.word	0
 3017 01b4 FE603000 		.word	3170558
 3018 01b8 00003060 		.word	1613758464
 3019 01bc 00000000 		.word	0
 3020 01c0 00000000 		.word	0
 3021 01c4 C0C00000 		.word	49344
ARM GAS  C:\Users\ldebo\AppData\Local\Temp\ccevlpv4.s 			page 54


 3022 01c8 0000FEC0 		.word	-1057095680
 3023 01cc 00000000 		.word	0
 3024 01d0 00000000 		.word	0
 3025 01d4 FE6C2800 		.word	2649342
 3026 01d8 0000286C 		.word	1814560768
 3027 01dc 00000000 		.word	0
 3028 01e0 00000000 		.word	0
 3029 01e4 7C383810 		.word	272119932
 3030 01e8 00FEFE7C 		.word	2097085952
 3031 01ec 00000000 		.word	0
 3032 01f0 00000000 		.word	0
 3033 01f4 7C7CFEFE 		.word	-16876420
 3034 01f8 00103838 		.word	943198208
 3035 01fc 00000000 		.word	0
 3036 0200 00000000 		.word	0
 3037 0204 00000000 		.word	0
 3038 0208 00000000 		.word	0
 3039 020c 00000000 		.word	0
 3040 0210 3C180000 		.word	6204
 3041 0214 18183C3C 		.word	1010571288
 3042 0218 18180018 		.word	402659352
 3043 021c 00000000 		.word	0
 3044 0220 66666600 		.word	6710886
 3045 0224 00000024 		.word	603979776
 3046 0228 00000000 		.word	0
 3047 022c 00000000 		.word	0
 3048 0230 6C000000 		.word	108
 3049 0234 6C6CFE6C 		.word	1828613228
 3050 0238 6C6CFE6C 		.word	1828613228
 3051 023c 00000000 		.word	0
 3052 0240 C67C1818 		.word	404257990
 3053 0244 067CC0C2 		.word	-1027572730
 3054 0248 7CC68606 		.word	109495932
 3055 024c 00001818 		.word	404226048
 3056 0250 00000000 		.word	0
 3057 0254 180CC6C2 		.word	-1027208168
 3058 0258 86C66030 		.word	811648646
 3059 025c 00000000 		.word	0
 3060 0260 6C380000 		.word	14444
 3061 0264 DC76386C 		.word	1815639772
 3062 0268 76CCCCCC 		.word	-858993546
 3063 026c 00000000 		.word	0
 3064 0270 30303000 		.word	3158064
 3065 0274 00000060 		.word	1610612736
 3066 0278 00000000 		.word	0
 3067 027c 00000000 		.word	0
 3068 0280 180C0000 		.word	3096
 3069 0284 30303030 		.word	808464432
 3070 0288 0C183030 		.word	808458252
 3071 028c 00000000 		.word	0
 3072 0290 18300000 		.word	12312
 3073 0294 0C0C0C0C 		.word	202116108
 3074 0298 30180C0C 		.word	202119216
 3075 029c 00000000 		.word	0
 3076 02a0 00000000 		.word	0
 3077 02a4 FF3C6600 		.word	6700287
 3078 02a8 0000663C 		.word	1013317632
ARM GAS  C:\Users\ldebo\AppData\Local\Temp\ccevlpv4.s 			page 55


 3079 02ac 00000000 		.word	0
 3080 02b0 00000000 		.word	0
 3081 02b4 7E181800 		.word	1579134
 3082 02b8 00001818 		.word	404226048
 3083 02bc 00000000 		.word	0
 3084 02c0 00000000 		.word	0
 3085 02c4 00000000 		.word	0
 3086 02c8 18181800 		.word	1579032
 3087 02cc 00000030 		.word	805306368
 3088 02d0 00000000 		.word	0
 3089 02d4 FE000000 		.word	254
 3090 02d8 00000000 		.word	0
 3091 02dc 00000000 		.word	0
 3092 02e0 00000000 		.word	0
 3093 02e4 00000000 		.word	0
 3094 02e8 18180000 		.word	6168
 3095 02ec 00000000 		.word	0
 3096 02f0 00000000 		.word	0
 3097 02f4 180C0602 		.word	33950744
 3098 02f8 80C06030 		.word	811647104
 3099 02fc 00000000 		.word	0
 3100 0300 6C380000 		.word	14444
 3101 0304 D6D6C6C6 		.word	-960047402
 3102 0308 386CC6C6 		.word	-960074696
 3103 030c 00000000 		.word	0
 3104 0310 38180000 		.word	6200
 3105 0314 18181878 		.word	2014844952
 3106 0318 7E181818 		.word	404232318
 3107 031c 00000000 		.word	0
 3108 0320 C67C0000 		.word	31942
 3109 0324 30180C06 		.word	101455920
 3110 0328 FEC6C060 		.word	1623246590
 3111 032c 00000000 		.word	0
 3112 0330 C67C0000 		.word	31942
 3113 0334 063C0606 		.word	101071878
 3114 0338 7CC60606 		.word	101107324
 3115 033c 00000000 		.word	0
 3116 0340 1C0C0000 		.word	3100
 3117 0344 FECC6C3C 		.word	1013763326
 3118 0348 1E0C0C0C 		.word	202116126
 3119 034c 00000000 		.word	0
 3120 0350 C0FE0000 		.word	65216
 3121 0354 06FCC0C0 		.word	-1061094394
 3122 0358 7CC60606 		.word	101107324
 3123 035c 00000000 		.word	0
 3124 0360 60380000 		.word	14432
 3125 0364 C6FCC0C0 		.word	-1061094202
 3126 0368 7CC6C6C6 		.word	-960051588
 3127 036c 00000000 		.word	0
 3128 0370 C6FE0000 		.word	65222
 3129 0374 180C0606 		.word	101059608
 3130 0378 30303030 		.word	808464432
 3131 037c 00000000 		.word	0
 3132 0380 C67C0000 		.word	31942
 3133 0384 C67CC6C6 		.word	-960070458
 3134 0388 7CC6C6C6 		.word	-960051588
 3135 038c 00000000 		.word	0
ARM GAS  C:\Users\ldebo\AppData\Local\Temp\ccevlpv4.s 			page 56


 3136 0390 C67C0000 		.word	31942
 3137 0394 067EC6C6 		.word	-960070138
 3138 0398 780C0606 		.word	101059704
 3139 039c 00000000 		.word	0
 3140 03a0 00000000 		.word	0
 3141 03a4 00001818 		.word	404226048
 3142 03a8 00181800 		.word	1579008
 3143 03ac 00000000 		.word	0
 3144 03b0 00000000 		.word	0
 3145 03b4 00001818 		.word	404226048
 3146 03b8 30181800 		.word	1579056
 3147 03bc 00000000 		.word	0
 3148 03c0 06000000 		.word	6
 3149 03c4 6030180C 		.word	202911840
 3150 03c8 060C1830 		.word	806882310
 3151 03cc 00000000 		.word	0
 3152 03d0 00000000 		.word	0
 3153 03d4 00007E00 		.word	8257536
 3154 03d8 0000007E 		.word	2113929216
 3155 03dc 00000000 		.word	0
 3156 03e0 60000000 		.word	96
 3157 03e4 060C1830 		.word	806882310
 3158 03e8 6030180C 		.word	202911840
 3159 03ec 00000000 		.word	0
 3160 03f0 C67C0000 		.word	31942
 3161 03f4 18180CC6 		.word	-972285928
 3162 03f8 18180018 		.word	402659352
 3163 03fc 00000000 		.word	0
 3164 0400 7C000000 		.word	124
 3165 0404 DEDEC6C6 		.word	-960045346
 3166 0408 7CC0DCDE 		.word	-555958148
 3167 040c 00000000 		.word	0
 3168 0410 38100000 		.word	4152
 3169 0414 FEC6C66C 		.word	1824966398
 3170 0418 C6C6C6C6 		.word	-960051514
 3171 041c 00000000 		.word	0
 3172 0420 66FC0000 		.word	64614
 3173 0424 667C6666 		.word	1717992550
 3174 0428 FC666666 		.word	1717987068
 3175 042c 00000000 		.word	0
 3176 0430 663C0000 		.word	15462
 3177 0434 C0C0C0C2 		.word	-1027555136
 3178 0438 3C66C2C0 		.word	-1061001668
 3179 043c 00000000 		.word	0
 3180 0440 6CF80000 		.word	63596
 3181 0444 66666666 		.word	1717986918
 3182 0448 F86C6666 		.word	1717988600
 3183 044c 00000000 		.word	0
 3184 0450 66FE0000 		.word	65126
 3185 0454 68786862 		.word	1651013736
 3186 0458 FE666260 		.word	1617061630
 3187 045c 00000000 		.word	0
 3188 0460 66FE0000 		.word	65126
 3189 0464 68786862 		.word	1651013736
 3190 0468 F0606060 		.word	1616929008
 3191 046c 00000000 		.word	0
 3192 0470 663C0000 		.word	15462
ARM GAS  C:\Users\ldebo\AppData\Local\Temp\ccevlpv4.s 			page 57


 3193 0474 DEC0C0C2 		.word	-1027555106
 3194 0478 3A66C6C6 		.word	-960076230
 3195 047c 00000000 		.word	0
 3196 0480 C6C60000 		.word	50886
 3197 0484 C6FEC6C6 		.word	-960037178
 3198 0488 C6C6C6C6 		.word	-960051514
 3199 048c 00000000 		.word	0
 3200 0490 183C0000 		.word	15384
 3201 0494 18181818 		.word	404232216
 3202 0498 3C181818 		.word	404232252
 3203 049c 00000000 		.word	0
 3204 04a0 0C1E0000 		.word	7692
 3205 04a4 0C0C0C0C 		.word	202116108
 3206 04a8 78CCCCCC 		.word	-858993544
 3207 04ac 00000000 		.word	0
 3208 04b0 66E60000 		.word	58982
 3209 04b4 78786C66 		.word	1718384760
 3210 04b8 E666666C 		.word	1818650342
 3211 04bc 00000000 		.word	0
 3212 04c0 60F00000 		.word	61536
 3213 04c4 60606060 		.word	1616928864
 3214 04c8 FE666260 		.word	1617061630
 3215 04cc 00000000 		.word	0
 3216 04d0 EEC60000 		.word	50926
 3217 04d4 C6D6FEFE 		.word	-16853306
 3218 04d8 C6C6C6C6 		.word	-960051514
 3219 04dc 00000000 		.word	0
 3220 04e0 E6C60000 		.word	50918
 3221 04e4 CEDEFEF6 		.word	-151068978
 3222 04e8 C6C6C6C6 		.word	-960051514
 3223 04ec 00000000 		.word	0
 3224 04f0 C67C0000 		.word	31942
 3225 04f4 C6C6C6C6 		.word	-960051514
 3226 04f8 7CC6C6C6 		.word	-960051588
 3227 04fc 00000000 		.word	0
 3228 0500 66FC0000 		.word	64614
 3229 0504 607C6666 		.word	1717992544
 3230 0508 F0606060 		.word	1616929008
 3231 050c 00000000 		.word	0
 3232 0510 C67C0000 		.word	31942
 3233 0514 C6C6C6C6 		.word	-960051514
 3234 0518 7CDED6C6 		.word	-958996868
 3235 051c 00000E0C 		.word	202244096
 3236 0520 66FC0000 		.word	64614
 3237 0524 6C7C6666 		.word	1717992556
 3238 0528 E6666666 		.word	1717987046
 3239 052c 00000000 		.word	0
 3240 0530 C67C0000 		.word	31942
 3241 0534 0C3860C6 		.word	-966772724
 3242 0538 7CC6C606 		.word	113690236
 3243 053c 00000000 		.word	0
 3244 0540 7E7E0000 		.word	32382
 3245 0544 1818185A 		.word	1511528472
 3246 0548 3C181818 		.word	404232252
 3247 054c 00000000 		.word	0
 3248 0550 C6C60000 		.word	50886
 3249 0554 C6C6C6C6 		.word	-960051514
ARM GAS  C:\Users\ldebo\AppData\Local\Temp\ccevlpv4.s 			page 58


 3250 0558 7CC6C6C6 		.word	-960051588
 3251 055c 00000000 		.word	0
 3252 0560 C6C60000 		.word	50886
 3253 0564 C6C6C6C6 		.word	-960051514
 3254 0568 10386CC6 		.word	-965986288
 3255 056c 00000000 		.word	0
 3256 0570 C6C60000 		.word	50886
 3257 0574 D6D6C6C6 		.word	-960047402
 3258 0578 6CEEFED6 		.word	-687935892
 3259 057c 00000000 		.word	0
 3260 0580 C6C60000 		.word	50886
 3261 0584 38387C6C 		.word	1820080184
 3262 0588 C6C66C7C 		.word	2087503558
 3263 058c 00000000 		.word	0
 3264 0590 66660000 		.word	26214
 3265 0594 183C6666 		.word	1717976088
 3266 0598 3C181818 		.word	404232252
 3267 059c 00000000 		.word	0
 3268 05a0 C6FE0000 		.word	65222
 3269 05a4 30180C86 		.word	-2046027728
 3270 05a8 FEC6C260 		.word	1623377662
 3271 05ac 00000000 		.word	0
 3272 05b0 303C0000 		.word	15408
 3273 05b4 30303030 		.word	808464432
 3274 05b8 3C303030 		.word	808464444
 3275 05bc 00000000 		.word	0
 3276 05c0 80000000 		.word	128
 3277 05c4 3870E0C0 		.word	-1059033032
 3278 05c8 02060E1C 		.word	470681090
 3279 05cc 00000000 		.word	0
 3280 05d0 0C3C0000 		.word	15372
 3281 05d4 0C0C0C0C 		.word	202116108
 3282 05d8 3C0C0C0C 		.word	202116156
 3283 05dc 00000000 		.word	0
 3284 05e0 C66C3810 		.word	272133318
 3285 05e4 00000000 		.word	0
 3286 05e8 00000000 		.word	0
 3287 05ec 00000000 		.word	0
 3288 05f0 00000000 		.word	0
 3289 05f4 00000000 		.word	0
 3290 05f8 00000000 		.word	0
 3291 05fc 0000FF00 		.word	16711680
 3292 0600 00183030 		.word	808458240
 3293 0604 00000000 		.word	0
 3294 0608 00000000 		.word	0
 3295 060c 00000000 		.word	0
 3296 0610 00000000 		.word	0
 3297 0614 7C0C7800 		.word	7867516
 3298 0618 76CCCCCC 		.word	-858993546
 3299 061c 00000000 		.word	0
 3300 0620 60E00000 		.word	57440
 3301 0624 666C7860 		.word	1618504806
 3302 0628 7C666666 		.word	1717986940
 3303 062c 00000000 		.word	0
 3304 0630 00000000 		.word	0
 3305 0634 C0C67C00 		.word	8177344
 3306 0638 7CC6C0C0 		.word	-1061108100
ARM GAS  C:\Users\ldebo\AppData\Local\Temp\ccevlpv4.s 			page 59


 3307 063c 00000000 		.word	0
 3308 0640 0C1C0000 		.word	7180
 3309 0644 CC6C3C0C 		.word	205286604
 3310 0648 76CCCCCC 		.word	-858993546
 3311 064c 00000000 		.word	0
 3312 0650 00000000 		.word	0
 3313 0654 FEC67C00 		.word	8177406
 3314 0658 7CC6C0C0 		.word	-1061108100
 3315 065c 00000000 		.word	0
 3316 0660 6C380000 		.word	14444
 3317 0664 60F06064 		.word	1684074592
 3318 0668 F0606060 		.word	1616929008
 3319 066c 00000000 		.word	0
 3320 0670 00000000 		.word	0
 3321 0674 CCCC7600 		.word	7785676
 3322 0678 7CCCCCCC 		.word	-858993540
 3323 067c 0078CC0C 		.word	214726656
 3324 0680 60E00000 		.word	57440
 3325 0684 66766C60 		.word	1617720934
 3326 0688 E6666666 		.word	1717987046
 3327 068c 00000000 		.word	0
 3328 0690 18180000 		.word	6168
 3329 0694 18183800 		.word	3676184
 3330 0698 3C181818 		.word	404232252
 3331 069c 00000000 		.word	0
 3332 06a0 06060000 		.word	1542
 3333 06a4 06060E00 		.word	919046
 3334 06a8 06060606 		.word	101058054
 3335 06ac 003C6666 		.word	1717976064
 3336 06b0 60E00000 		.word	57440
 3337 06b4 786C6660 		.word	1617325176
 3338 06b8 E6666C78 		.word	2020370150
 3339 06bc 00000000 		.word	0
 3340 06c0 18380000 		.word	14360
 3341 06c4 18181818 		.word	404232216
 3342 06c8 3C181818 		.word	404232252
 3343 06cc 00000000 		.word	0
 3344 06d0 00000000 		.word	0
 3345 06d4 D6FEEC00 		.word	15531734
 3346 06d8 C6D6D6D6 		.word	-690563386
 3347 06dc 00000000 		.word	0
 3348 06e0 00000000 		.word	0
 3349 06e4 6666DC00 		.word	14444134
 3350 06e8 66666666 		.word	1717986918
 3351 06ec 00000000 		.word	0
 3352 06f0 00000000 		.word	0
 3353 06f4 C6C67C00 		.word	8177350
 3354 06f8 7CC6C6C6 		.word	-960051588
 3355 06fc 00000000 		.word	0
 3356 0700 00000000 		.word	0
 3357 0704 6666DC00 		.word	14444134
 3358 0708 7C666666 		.word	1717986940
 3359 070c 00F06060 		.word	1616965632
 3360 0710 00000000 		.word	0
 3361 0714 CCCC7600 		.word	7785676
 3362 0718 7CCCCCCC 		.word	-858993540
 3363 071c 001E0C0C 		.word	202120704
ARM GAS  C:\Users\ldebo\AppData\Local\Temp\ccevlpv4.s 			page 60


 3364 0720 00000000 		.word	0
 3365 0724 6676DC00 		.word	14448230
 3366 0728 F0606060 		.word	1616929008
 3367 072c 00000000 		.word	0
 3368 0730 00000000 		.word	0
 3369 0734 60C67C00 		.word	8177248
 3370 0738 7CC60C38 		.word	940361340
 3371 073c 00000000 		.word	0
 3372 0740 30100000 		.word	4144
 3373 0744 3030FC30 		.word	821833776
 3374 0748 1C363030 		.word	808465948
 3375 074c 00000000 		.word	0
 3376 0750 00000000 		.word	0
 3377 0754 CCCCCC00 		.word	13421772
 3378 0758 76CCCCCC 		.word	-858993546
 3379 075c 00000000 		.word	0
 3380 0760 00000000 		.word	0
 3381 0764 66666600 		.word	6710886
 3382 0768 183C6666 		.word	1717976088
 3383 076c 00000000 		.word	0
 3384 0770 00000000 		.word	0
 3385 0774 D6C6C600 		.word	13027030
 3386 0778 6CFED6D6 		.word	-690553236
 3387 077c 00000000 		.word	0
 3388 0780 00000000 		.word	0
 3389 0784 386CC600 		.word	13003832
 3390 0788 C66C3838 		.word	943221958
 3391 078c 00000000 		.word	0
 3392 0790 00000000 		.word	0
 3393 0794 C6C6C600 		.word	13027014
 3394 0798 7EC6C6C6 		.word	-960051586
 3395 079c 00F80C06 		.word	101513216
 3396 07a0 00000000 		.word	0
 3397 07a4 18CCFE00 		.word	16698392
 3398 07a8 FEC66030 		.word	811648766
 3399 07ac 00000000 		.word	0
 3400 07b0 180E0000 		.word	3608
 3401 07b4 18701818 		.word	404254744
 3402 07b8 0E181818 		.word	404232206
 3403 07bc 00000000 		.word	0
 3404 07c0 18180000 		.word	6168
 3405 07c4 18001818 		.word	404226072
 3406 07c8 18181818 		.word	404232216
 3407 07cc 00000000 		.word	0
 3408 07d0 18700000 		.word	28696
 3409 07d4 180E1818 		.word	404229656
 3410 07d8 70181818 		.word	404232304
 3411 07dc 00000000 		.word	0
 3412 07e0 DC760000 		.word	30428
 3413 07e4 00000000 		.word	0
 3414 07e8 00000000 		.word	0
 3415 07ec 00000000 		.word	0
 3416 07f0 00000000 		.word	0
 3417 07f4 C66C3810 		.word	272133318
 3418 07f8 00FEC6C6 		.word	-960037376
 3419 07fc 00000000 		.word	0
 3420 0800 663C0000 		.word	15462
ARM GAS  C:\Users\ldebo\AppData\Local\Temp\ccevlpv4.s 			page 61


 3421 0804 C0C0C0C2 		.word	-1027555136
 3422 0808 0C3C66C2 		.word	-1033487348
 3423 080c 00007C06 		.word	108789760
 3424 0810 00CC0000 		.word	52224
 3425 0814 CCCCCC00 		.word	13421772
 3426 0818 76CCCCCC 		.word	-858993546
 3427 081c 00000000 		.word	0
 3428 0820 30180C00 		.word	792624
 3429 0824 FEC67C00 		.word	8177406
 3430 0828 7CC6C0C0 		.word	-1061108100
 3431 082c 00000000 		.word	0
 3432 0830 6C381000 		.word	1063020
 3433 0834 7C0C7800 		.word	7867516
 3434 0838 76CCCCCC 		.word	-858993546
 3435 083c 00000000 		.word	0
 3436 0840 00CC0000 		.word	52224
 3437 0844 7C0C7800 		.word	7867516
 3438 0848 76CCCCCC 		.word	-858993546
 3439 084c 00000000 		.word	0
 3440 0850 18306000 		.word	6303768
 3441 0854 7C0C7800 		.word	7867516
 3442 0858 76CCCCCC 		.word	-858993546
 3443 085c 00000000 		.word	0
 3444 0860 386C3800 		.word	3697720
 3445 0864 7C0C7800 		.word	7867516
 3446 0868 76CCCCCC 		.word	-858993546
 3447 086c 00000000 		.word	0
 3448 0870 00000000 		.word	0
 3449 0874 6060663C 		.word	1013342304
 3450 0878 060C3C66 		.word	1715211270
 3451 087c 0000003C 		.word	1006632960
 3452 0880 6C381000 		.word	1063020
 3453 0884 FEC67C00 		.word	8177406
 3454 0888 7CC6C0C0 		.word	-1061108100
 3455 088c 00000000 		.word	0
 3456 0890 00C60000 		.word	50688
 3457 0894 FEC67C00 		.word	8177406
 3458 0898 7CC6C0C0 		.word	-1061108100
 3459 089c 00000000 		.word	0
 3460 08a0 18306000 		.word	6303768
 3461 08a4 FEC67C00 		.word	8177406
 3462 08a8 7CC6C0C0 		.word	-1061108100
 3463 08ac 00000000 		.word	0
 3464 08b0 00660000 		.word	26112
 3465 08b4 18183800 		.word	3676184
 3466 08b8 3C181818 		.word	404232252
 3467 08bc 00000000 		.word	0
 3468 08c0 663C1800 		.word	1588326
 3469 08c4 18183800 		.word	3676184
 3470 08c8 3C181818 		.word	404232252
 3471 08cc 00000000 		.word	0
 3472 08d0 18306000 		.word	6303768
 3473 08d4 18183800 		.word	3676184
 3474 08d8 3C181818 		.word	404232252
 3475 08dc 00000000 		.word	0
 3476 08e0 1000C600 		.word	12976144
 3477 08e4 C6C66C38 		.word	946652870
ARM GAS  C:\Users\ldebo\AppData\Local\Temp\ccevlpv4.s 			page 62


 3478 08e8 C6C6C6FE 		.word	-20527418
 3479 08ec 00000000 		.word	0
 3480 08f0 00386C38 		.word	946616320
 3481 08f4 C6C66C38 		.word	946652870
 3482 08f8 C6C6C6FE 		.word	-20527418
 3483 08fc 00000000 		.word	0
 3484 0900 00603018 		.word	405823488
 3485 0904 7C6066FE 		.word	-26845060
 3486 0908 FE666060 		.word	1616930558
 3487 090c 00000000 		.word	0
 3488 0910 00000000 		.word	0
 3489 0914 3676CC00 		.word	13399606
 3490 0918 6ED8D87E 		.word	2128140398
 3491 091c 00000000 		.word	0
 3492 0920 6C3E0000 		.word	15980
 3493 0924 CCFECCCC 		.word	-858980660
 3494 0928 CECCCCCC 		.word	-858993458
 3495 092c 00000000 		.word	0
 3496 0930 6C381000 		.word	1063020
 3497 0934 C6C67C00 		.word	8177350
 3498 0938 7CC6C6C6 		.word	-960051588
 3499 093c 00000000 		.word	0
 3500 0940 00C60000 		.word	50688
 3501 0944 C6C67C00 		.word	8177350
 3502 0948 7CC6C6C6 		.word	-960051588
 3503 094c 00000000 		.word	0
 3504 0950 18306000 		.word	6303768
 3505 0954 C6C67C00 		.word	8177350
 3506 0958 7CC6C6C6 		.word	-960051588
 3507 095c 00000000 		.word	0
 3508 0960 CC783000 		.word	3176652
 3509 0964 CCCCCC00 		.word	13421772
 3510 0968 76CCCCCC 		.word	-858993546
 3511 096c 00000000 		.word	0
 3512 0970 18306000 		.word	6303768
 3513 0974 CCCCCC00 		.word	13421772
 3514 0978 76CCCCCC 		.word	-858993546
 3515 097c 00000000 		.word	0
 3516 0980 00C60000 		.word	50688
 3517 0984 C6C6C600 		.word	13027014
 3518 0988 7EC6C6C6 		.word	-960051586
 3519 098c 00780C06 		.word	101480448
 3520 0990 7C00C600 		.word	12976252
 3521 0994 C6C6C6C6 		.word	-960051514
 3522 0998 7CC6C6C6 		.word	-960051588
 3523 099c 00000000 		.word	0
 3524 09a0 C600C600 		.word	12976326
 3525 09a4 C6C6C6C6 		.word	-960051514
 3526 09a8 7CC6C6C6 		.word	-960051588
 3527 09ac 00000000 		.word	0
 3528 09b0 3C181800 		.word	1579068
 3529 09b4 60606066 		.word	1717592160
 3530 09b8 18183C66 		.word	1715214360
 3531 09bc 00000000 		.word	0
 3532 09c0 646C3800 		.word	3697764
 3533 09c4 6060F060 		.word	1626366048
 3534 09c8 FCE66060 		.word	1616963324
ARM GAS  C:\Users\ldebo\AppData\Local\Temp\ccevlpv4.s 			page 63


 3535 09cc 00000000 		.word	0
 3536 09d0 66660000 		.word	26214
 3537 09d4 187E183C 		.word	1008238104
 3538 09d8 1818187E 		.word	2115508248
 3539 09dc 00000000 		.word	0
 3540 09e0 CCCCF800 		.word	16305356
 3541 09e4 DECCC4F8 		.word	-121320226
 3542 09e8 C6CCCCCC 		.word	-858993466
 3543 09ec 00000000 		.word	0
 3544 09f0 181B0E00 		.word	924440
 3545 09f4 187E1818 		.word	404258328
 3546 09f8 18181818 		.word	404232216
 3547 09fc 000070D8 		.word	-663748608
 3548 0a00 60301800 		.word	1585248
 3549 0a04 7C0C7800 		.word	7867516
 3550 0a08 76CCCCCC 		.word	-858993546
 3551 0a0c 00000000 		.word	0
 3552 0a10 30180C00 		.word	792624
 3553 0a14 18183800 		.word	3676184
 3554 0a18 3C181818 		.word	404232252
 3555 0a1c 00000000 		.word	0
 3556 0a20 60301800 		.word	1585248
 3557 0a24 C6C67C00 		.word	8177350
 3558 0a28 7CC6C6C6 		.word	-960051588
 3559 0a2c 00000000 		.word	0
 3560 0a30 60301800 		.word	1585248
 3561 0a34 CCCCCC00 		.word	13421772
 3562 0a38 76CCCCCC 		.word	-858993546
 3563 0a3c 00000000 		.word	0
 3564 0a40 DC760000 		.word	30428
 3565 0a44 6666DC00 		.word	14444134
 3566 0a48 66666666 		.word	1717986918
 3567 0a4c 00000000 		.word	0
 3568 0a50 C600DC76 		.word	1994129606
 3569 0a54 DEFEF6E6 		.word	-420020514
 3570 0a58 C6C6C6CE 		.word	-825833786
 3571 0a5c 00000000 		.word	0
 3572 0a60 6C6C3C00 		.word	3959916
 3573 0a64 007E003E 		.word	1040219648
 3574 0a68 00000000 		.word	0
 3575 0a6c 00000000 		.word	0
 3576 0a70 6C6C3800 		.word	3697772
 3577 0a74 007C0038 		.word	939555840
 3578 0a78 00000000 		.word	0
 3579 0a7c 00000000 		.word	0
 3580 0a80 30300000 		.word	12336
 3581 0a84 60303000 		.word	3158112
 3582 0a88 7CC6C6C0 		.word	-1060714884
 3583 0a8c 00000000 		.word	0
 3584 0a90 00000000 		.word	0
 3585 0a94 C0FE0000 		.word	65216
 3586 0a98 00C0C0C0 		.word	-1061109760
 3587 0a9c 00000000 		.word	0
 3588 0aa0 00000000 		.word	0
 3589 0aa4 06FE0000 		.word	65030
 3590 0aa8 00060606 		.word	101058048
 3591 0aac 00000000 		.word	0
ARM GAS  C:\Users\ldebo\AppData\Local\Temp\ccevlpv4.s 			page 64


 3592 0ab0 C2C0C000 		.word	12632258
 3593 0ab4 3018CCC6 		.word	-959702992
 3594 0ab8 0C86DC60 		.word	1625064972
 3595 0abc 00003E18 		.word	406716416
 3596 0ac0 C2C0C000 		.word	12632258
 3597 0ac4 3018CCC6 		.word	-959702992
 3598 0ac8 3E9ECE66 		.word	1724816958
 3599 0acc 00000606 		.word	101056512
 3600 0ad0 18180000 		.word	6168
 3601 0ad4 18181800 		.word	1579032
 3602 0ad8 183C3C3C 		.word	1010580504
 3603 0adc 00000000 		.word	0
 3604 0ae0 00000000 		.word	0
 3605 0ae4 D86C3600 		.word	3566808
 3606 0ae8 0000366C 		.word	1815478272
 3607 0aec 00000000 		.word	0
 3608 0af0 00000000 		.word	0
 3609 0af4 366CD800 		.word	14183478
 3610 0af8 0000D86C 		.word	1826095104
 3611 0afc 00000000 		.word	0
 3612 0b00 44114411 		.word	289673540
 3613 0b04 44114411 		.word	289673540
 3614 0b08 44114411 		.word	289673540
 3615 0b0c 44114411 		.word	289673540
 3616 0b10 AA55AA55 		.word	1437226410
 3617 0b14 AA55AA55 		.word	1437226410
 3618 0b18 AA55AA55 		.word	1437226410
 3619 0b1c AA55AA55 		.word	1437226410
 3620 0b20 77DD77DD 		.word	-579347081
 3621 0b24 77DD77DD 		.word	-579347081
 3622 0b28 77DD77DD 		.word	-579347081
 3623 0b2c 77DD77DD 		.word	-579347081
 3624 0b30 18181818 		.word	404232216
 3625 0b34 18181818 		.word	404232216
 3626 0b38 18181818 		.word	404232216
 3627 0b3c 18181818 		.word	404232216
 3628 0b40 18181818 		.word	404232216
 3629 0b44 F8181818 		.word	404232440
 3630 0b48 18181818 		.word	404232216
 3631 0b4c 18181818 		.word	404232216
 3632 0b50 18181818 		.word	404232216
 3633 0b54 F818F818 		.word	418912504
 3634 0b58 18181818 		.word	404232216
 3635 0b5c 18181818 		.word	404232216
 3636 0b60 36363636 		.word	909522486
 3637 0b64 F6363636 		.word	909522678
 3638 0b68 36363636 		.word	909522486
 3639 0b6c 36363636 		.word	909522486
 3640 0b70 00000000 		.word	0
 3641 0b74 FE000000 		.word	254
 3642 0b78 36363636 		.word	909522486
 3643 0b7c 36363636 		.word	909522486
 3644 0b80 00000000 		.word	0
 3645 0b84 F818F800 		.word	16259320
 3646 0b88 18181818 		.word	404232216
 3647 0b8c 18181818 		.word	404232216
 3648 0b90 36363636 		.word	909522486
ARM GAS  C:\Users\ldebo\AppData\Local\Temp\ccevlpv4.s 			page 65


 3649 0b94 F606F636 		.word	922093302
 3650 0b98 36363636 		.word	909522486
 3651 0b9c 36363636 		.word	909522486
 3652 0ba0 36363636 		.word	909522486
 3653 0ba4 36363636 		.word	909522486
 3654 0ba8 36363636 		.word	909522486
 3655 0bac 36363636 		.word	909522486
 3656 0bb0 00000000 		.word	0
 3657 0bb4 F606FE00 		.word	16647926
 3658 0bb8 36363636 		.word	909522486
 3659 0bbc 36363636 		.word	909522486
 3660 0bc0 36363636 		.word	909522486
 3661 0bc4 FE06F636 		.word	922093310
 3662 0bc8 00000000 		.word	0
 3663 0bcc 00000000 		.word	0
 3664 0bd0 36363636 		.word	909522486
 3665 0bd4 FE363636 		.word	909522686
 3666 0bd8 00000000 		.word	0
 3667 0bdc 00000000 		.word	0
 3668 0be0 18181818 		.word	404232216
 3669 0be4 F818F818 		.word	418912504
 3670 0be8 00000000 		.word	0
 3671 0bec 00000000 		.word	0
 3672 0bf0 00000000 		.word	0
 3673 0bf4 F8000000 		.word	248
 3674 0bf8 18181818 		.word	404232216
 3675 0bfc 18181818 		.word	404232216
 3676 0c00 18181818 		.word	404232216
 3677 0c04 1F181818 		.word	404232223
 3678 0c08 00000000 		.word	0
 3679 0c0c 00000000 		.word	0
 3680 0c10 18181818 		.word	404232216
 3681 0c14 FF181818 		.word	404232447
 3682 0c18 00000000 		.word	0
 3683 0c1c 00000000 		.word	0
 3684 0c20 00000000 		.word	0
 3685 0c24 FF000000 		.word	255
 3686 0c28 18181818 		.word	404232216
 3687 0c2c 18181818 		.word	404232216
 3688 0c30 18181818 		.word	404232216
 3689 0c34 1F181818 		.word	404232223
 3690 0c38 18181818 		.word	404232216
 3691 0c3c 18181818 		.word	404232216
 3692 0c40 00000000 		.word	0
 3693 0c44 FF000000 		.word	255
 3694 0c48 00000000 		.word	0
 3695 0c4c 00000000 		.word	0
 3696 0c50 18181818 		.word	404232216
 3697 0c54 FF181818 		.word	404232447
 3698 0c58 18181818 		.word	404232216
 3699 0c5c 18181818 		.word	404232216
 3700 0c60 18181818 		.word	404232216
 3701 0c64 1F181F18 		.word	404690975
 3702 0c68 18181818 		.word	404232216
 3703 0c6c 18181818 		.word	404232216
 3704 0c70 36363636 		.word	909522486
 3705 0c74 37363636 		.word	909522487
ARM GAS  C:\Users\ldebo\AppData\Local\Temp\ccevlpv4.s 			page 66


 3706 0c78 36363636 		.word	909522486
 3707 0c7c 36363636 		.word	909522486
 3708 0c80 36363636 		.word	909522486
 3709 0c84 3F303736 		.word	909586495
 3710 0c88 00000000 		.word	0
 3711 0c8c 00000000 		.word	0
 3712 0c90 00000000 		.word	0
 3713 0c94 37303F00 		.word	4141111
 3714 0c98 36363636 		.word	909522486
 3715 0c9c 36363636 		.word	909522486
 3716 0ca0 36363636 		.word	909522486
 3717 0ca4 FF00F736 		.word	922157311
 3718 0ca8 00000000 		.word	0
 3719 0cac 00000000 		.word	0
 3720 0cb0 00000000 		.word	0
 3721 0cb4 F700FF00 		.word	16711927
 3722 0cb8 36363636 		.word	909522486
 3723 0cbc 36363636 		.word	909522486
 3724 0cc0 36363636 		.word	909522486
 3725 0cc4 37303736 		.word	909586487
 3726 0cc8 36363636 		.word	909522486
 3727 0ccc 36363636 		.word	909522486
 3728 0cd0 00000000 		.word	0
 3729 0cd4 FF00FF00 		.word	16711935
 3730 0cd8 00000000 		.word	0
 3731 0cdc 00000000 		.word	0
 3732 0ce0 36363636 		.word	909522486
 3733 0ce4 F700F736 		.word	922157303
 3734 0ce8 36363636 		.word	909522486
 3735 0cec 36363636 		.word	909522486
 3736 0cf0 18181818 		.word	404232216
 3737 0cf4 FF00FF18 		.word	419365119
 3738 0cf8 00000000 		.word	0
 3739 0cfc 00000000 		.word	0
 3740 0d00 36363636 		.word	909522486
 3741 0d04 FF363636 		.word	909522687
 3742 0d08 00000000 		.word	0
 3743 0d0c 00000000 		.word	0
 3744 0d10 00000000 		.word	0
 3745 0d14 FF00FF00 		.word	16711935
 3746 0d18 18181818 		.word	404232216
 3747 0d1c 18181818 		.word	404232216
 3748 0d20 00000000 		.word	0
 3749 0d24 FF000000 		.word	255
 3750 0d28 36363636 		.word	909522486
 3751 0d2c 36363636 		.word	909522486
 3752 0d30 36363636 		.word	909522486
 3753 0d34 3F363636 		.word	909522495
 3754 0d38 00000000 		.word	0
 3755 0d3c 00000000 		.word	0
 3756 0d40 18181818 		.word	404232216
 3757 0d44 1F181F18 		.word	404690975
 3758 0d48 00000000 		.word	0
 3759 0d4c 00000000 		.word	0
 3760 0d50 00000000 		.word	0
 3761 0d54 1F181F00 		.word	2037791
 3762 0d58 18181818 		.word	404232216
ARM GAS  C:\Users\ldebo\AppData\Local\Temp\ccevlpv4.s 			page 67


 3763 0d5c 18181818 		.word	404232216
 3764 0d60 00000000 		.word	0
 3765 0d64 3F000000 		.word	63
 3766 0d68 36363636 		.word	909522486
 3767 0d6c 36363636 		.word	909522486
 3768 0d70 36363636 		.word	909522486
 3769 0d74 FF363636 		.word	909522687
 3770 0d78 36363636 		.word	909522486
 3771 0d7c 36363636 		.word	909522486
 3772 0d80 18181818 		.word	404232216
 3773 0d84 FF18FF18 		.word	419371263
 3774 0d88 18181818 		.word	404232216
 3775 0d8c 18181818 		.word	404232216
 3776 0d90 18181818 		.word	404232216
 3777 0d94 F8181818 		.word	404232440
 3778 0d98 00000000 		.word	0
 3779 0d9c 00000000 		.word	0
 3780 0da0 00000000 		.word	0
 3781 0da4 1F000000 		.word	31
 3782 0da8 18181818 		.word	404232216
 3783 0dac 18181818 		.word	404232216
 3784 0db0 FFFFFFFF 		.word	-1
 3785 0db4 FFFFFFFF 		.word	-1
 3786 0db8 FFFFFFFF 		.word	-1
 3787 0dbc FFFFFFFF 		.word	-1
 3788 0dc0 00000000 		.word	0
 3789 0dc4 FF000000 		.word	255
 3790 0dc8 FFFFFFFF 		.word	-1
 3791 0dcc FFFFFFFF 		.word	-1
 3792 0dd0 F0F0F0F0 		.word	-252645136
 3793 0dd4 F0F0F0F0 		.word	-252645136
 3794 0dd8 F0F0F0F0 		.word	-252645136
 3795 0ddc F0F0F0F0 		.word	-252645136
 3796 0de0 0F0F0F0F 		.word	252645135
 3797 0de4 0F0F0F0F 		.word	252645135
 3798 0de8 0F0F0F0F 		.word	252645135
 3799 0dec 0F0F0F0F 		.word	252645135
 3800 0df0 FFFFFFFF 		.word	-1
 3801 0df4 00FFFFFF 		.word	-256
 3802 0df8 00000000 		.word	0
 3803 0dfc 00000000 		.word	0
 3804 0e00 00000000 		.word	0
 3805 0e04 D8DC7600 		.word	7789784
 3806 0e08 76DCD8D8 		.word	-656876426
 3807 0e0c 00000000 		.word	0
 3808 0e10 CC780000 		.word	30924
 3809 0e14 CCD8CCCC 		.word	-858990388
 3810 0e18 CCC6C6C6 		.word	-960051508
 3811 0e1c 00000000 		.word	0
 3812 0e20 C6FE0000 		.word	65222
 3813 0e24 C0C0C0C6 		.word	-960446272
 3814 0e28 C0C0C0C0 		.word	-1061109568
 3815 0e2c 00000000 		.word	0
 3816 0e30 00000000 		.word	0
 3817 0e34 6C6C6CFE 		.word	-26448788
 3818 0e38 6C6C6C6C 		.word	1819044972
 3819 0e3c 00000000 		.word	0
ARM GAS  C:\Users\ldebo\AppData\Local\Temp\ccevlpv4.s 			page 68


 3820 0e40 FE000000 		.word	254
 3821 0e44 183060C6 		.word	-966774760
 3822 0e48 FEC66030 		.word	811648766
 3823 0e4c 00000000 		.word	0
 3824 0e50 00000000 		.word	0
 3825 0e54 D8D87E00 		.word	8313048
 3826 0e58 70D8D8D8 		.word	-656877456
 3827 0e5c 00000000 		.word	0
 3828 0e60 00000000 		.word	0
 3829 0e64 66666666 		.word	1717986918
 3830 0e68 60607C66 		.word	1719427168
 3831 0e6c 000000C0 		.word	-1073741824
 3832 0e70 00000000 		.word	0
 3833 0e74 1818DC76 		.word	1994135576
 3834 0e78 18181818 		.word	404232216
 3835 0e7c 00000000 		.word	0
 3836 0e80 7E000000 		.word	126
 3837 0e84 66663C18 		.word	406611558
 3838 0e88 7E183C66 		.word	1715214462
 3839 0e8c 00000000 		.word	0
 3840 0e90 38000000 		.word	56
 3841 0e94 FEC6C66C 		.word	1824966398
 3842 0e98 386CC6C6 		.word	-960074696
 3843 0e9c 00000000 		.word	0
 3844 0ea0 6C380000 		.word	14444
 3845 0ea4 6CC6C6C6 		.word	-960051604
 3846 0ea8 EE6C6C6C 		.word	1819045102
 3847 0eac 00000000 		.word	0
 3848 0eb0 301E0000 		.word	7728
 3849 0eb4 663E0C18 		.word	403455590
 3850 0eb8 3C666666 		.word	1717986876
 3851 0ebc 00000000 		.word	0
 3852 0ec0 00000000 		.word	0
 3853 0ec4 DBDB7E00 		.word	8313819
 3854 0ec8 00007EDB 		.word	-612499456
 3855 0ecc 00000000 		.word	0
 3856 0ed0 03000000 		.word	3
 3857 0ed4 DBDB7E06 		.word	108977115
 3858 0ed8 C0607EF3 		.word	-209821504
 3859 0edc 00000000 		.word	0
 3860 0ee0 301C0000 		.word	7216
 3861 0ee4 607C6060 		.word	1616936032
 3862 0ee8 1C306060 		.word	1616916508
 3863 0eec 00000000 		.word	0
 3864 0ef0 7C000000 		.word	124
 3865 0ef4 C6C6C6C6 		.word	-960051514
 3866 0ef8 C6C6C6C6 		.word	-960051514
 3867 0efc 00000000 		.word	0
 3868 0f00 00000000 		.word	0
 3869 0f04 FE0000FE 		.word	-33554178
 3870 0f08 00FE0000 		.word	65024
 3871 0f0c 00000000 		.word	0
 3872 0f10 00000000 		.word	0
 3873 0f14 187E1818 		.word	404258328
 3874 0f18 FF000018 		.word	402653439
 3875 0f1c 00000000 		.word	0
 3876 0f20 30000000 		.word	48
ARM GAS  C:\Users\ldebo\AppData\Local\Temp\ccevlpv4.s 			page 69


 3877 0f24 0C060C18 		.word	403441164
 3878 0f28 7E003018 		.word	405799038
 3879 0f2c 00000000 		.word	0
 3880 0f30 0C000000 		.word	12
 3881 0f34 30603018 		.word	405823536
 3882 0f38 7E000C18 		.word	403439742
 3883 0f3c 00000000 		.word	0
 3884 0f40 1B0E0000 		.word	3611
 3885 0f44 1818181B 		.word	454563864
 3886 0f48 18181818 		.word	404232216
 3887 0f4c 18181818 		.word	404232216
 3888 0f50 18181818 		.word	404232216
 3889 0f54 18181818 		.word	404232216
 3890 0f58 70D8D8D8 		.word	-656877456
 3891 0f5c 00000000 		.word	0
 3892 0f60 00000000 		.word	0
 3893 0f64 7E001818 		.word	404226174
 3894 0f68 00181800 		.word	1579008
 3895 0f6c 00000000 		.word	0
 3896 0f70 00000000 		.word	0
 3897 0f74 00DC7600 		.word	7789568
 3898 0f78 0000DC76 		.word	1994129408
 3899 0f7c 00000000 		.word	0
 3900 0f80 6C6C3800 		.word	3697772
 3901 0f84 00000038 		.word	939524096
 3902 0f88 00000000 		.word	0
 3903 0f8c 00000000 		.word	0
 3904 0f90 00000000 		.word	0
 3905 0f94 18000000 		.word	24
 3906 0f98 00000018 		.word	402653184
 3907 0f9c 00000000 		.word	0
 3908 0fa0 00000000 		.word	0
 3909 0fa4 00000000 		.word	0
 3910 0fa8 00000018 		.word	402653184
 3911 0fac 00000000 		.word	0
 3912 0fb0 0C0C0F00 		.word	986124
 3913 0fb4 EC0C0C0C 		.word	202116332
 3914 0fb8 1C3C6C6C 		.word	1819032604
 3915 0fbc 00000000 		.word	0
 3916 0fc0 6C6CD800 		.word	14183532
 3917 0fc4 006C6C6C 		.word	1819044864
 3918 0fc8 00000000 		.word	0
 3919 0fcc 00000000 		.word	0
 3920 0fd0 30D87000 		.word	7395376
 3921 0fd4 00F8C860 		.word	1623783424
 3922 0fd8 00000000 		.word	0
 3923 0fdc 00000000 		.word	0
 3924 0fe0 00000000 		.word	0
 3925 0fe4 7C7C7C7C 		.word	2088533116
 3926 0fe8 007C7C7C 		.word	2088532992
 3927 0fec 00000000 		.word	0
 3928 0ff0 00000000 		.word	0
 3929 0ff4 00000000 		.word	0
 3930 0ff8 00000000 		.word	0
 3931 0ffc 00000000 		.word	0
 3932              		.data
 3933              		.align	2
ARM GAS  C:\Users\ldebo\AppData\Local\Temp\ccevlpv4.s 			page 70


 3934              		.set	.LANCHOR2,. + 0
 3935              		.type	_ZL16ActivityGPIOPort, %object
 3936              		.size	_ZL16ActivityGPIOPort, 4
 3937              	_ZL16ActivityGPIOPort:
 3938 0000 2F000000 		.word	47
 3939              		.bss
 3940              		.align	2
 3941              		.set	.LANCHOR1,. + 0
 3942              		.type	_ZL16ModelCheckHasRun, %object
 3943              		.size	_ZL16ModelCheckHasRun, 1
 3944              	_ZL16ModelCheckHasRun:
 3945 0000 00       		.space	1
 3946 0001 000000   		.space	3
 3947              		.type	console, %object
 3948              		.size	console, 68
 3949              	console:
 3950 0004 00000000 		.space	68
 3950      00000000 
 3950      00000000 
 3950      00000000 
 3950      00000000 
 3951              		.type	_ZZ5_sbrkE8heap_end, %object
 3952              		.size	_ZZ5_sbrkE8heap_end, 4
 3953              	_ZZ5_sbrkE8heap_end:
 3954 0048 00000000 		.space	4
 3955              		.section	.rodata.str1.4,"aMS",%progbits,1
 3956              		.align	2
 3957              	.LC0:
 3958 0000 43505520 		.ascii	"CPU frequency set to %u Hz\012\000"
 3958      66726571 
 3958      75656E63 
 3958      79207365 
 3958      7420746F 
 3959              	.LC1:
 3960 001c 536D6172 		.ascii	"SmartStart v2.02 compiled for Arm%d, AARCH%d with %"
 3960      74537461 
 3960      72742076 
 3960      322E3032 
 3960      20636F6D 
 3961 004f 7520636F 		.ascii	"u core s/w support\012\000"
 3961      72652073 
 3961      2F772073 
 3961      7570706F 
 3961      72740A00 
 3962 0063 00       		.space	1
 3963              	.LC2:
 3964 0064 44657465 		.ascii	"Detected %s CPU, part id: 0x%03X, Cores made ready "
 3964      63746564 
 3964      20257320 
 3964      4350552C 
 3964      20706172 
 3965 0097 666F7220 		.ascii	"for use: %u\012\000"
 3965      7573653A 
 3965      2025750A 
 3965      00
 3966              	.LC3:
 3967 00a4 53637265 		.ascii	"Screen resolution %i x %i Colour Depth: %i\012\000"
ARM GAS  C:\Users\ldebo\AppData\Local\Temp\ccevlpv4.s 			page 71


 3967      656E2072 
 3967      65736F6C 
 3967      7574696F 
 3967      6E202569 
 3968              		.ident	"GCC: (GNU Tools for ARM Embedded Processors 6-2017-q2-update) 6.3.1 20170620 (release) [AR
ARM GAS  C:\Users\ldebo\AppData\Local\Temp\ccevlpv4.s 			page 72


DEFINED SYMBOLS
                            *ABS*:00000000 rpi-SmartStart.C
C:\Users\ldebo\AppData\Local\Temp\ccevlpv4.s:14     .text:00000000 $a
C:\Users\ldebo\AppData\Local\Temp\ccevlpv4.s:19     .text:00000000 _ZL11ClearArea16P8tagINTDCjjjj
C:\Users\ldebo\AppData\Local\Temp\ccevlpv4.s:68     .text:00000098 _ZL10VertLine16P8tagINTDCji
C:\Users\ldebo\AppData\Local\Temp\ccevlpv4.s:125    .text:0000014c _ZL10HorzLine16P8tagINTDCji
C:\Users\ldebo\AppData\Local\Temp\ccevlpv4.s:171    .text:000001d8 _ZL10DiagLine16P8tagINTDCjjii
C:\Users\ldebo\AppData\Local\Temp\ccevlpv4.s:250    .text:000002e4 _ZL11WriteChar16P8tagINTDCh
C:\Users\ldebo\AppData\Local\Temp\ccevlpv4.s:327    .text:000003f4 $d
C:\Users\ldebo\AppData\Local\Temp\ccevlpv4.s:329    .text:000003f8 $a
C:\Users\ldebo\AppData\Local\Temp\ccevlpv4.s:334    .text:000003f8 _ZL10PutImage16P8tagINTDCjj12tagIMAGE_PTRb
C:\Users\ldebo\AppData\Local\Temp\ccevlpv4.s:398    .text:000004bc _ZL11ClearArea24P8tagINTDCjjjj
C:\Users\ldebo\AppData\Local\Temp\ccevlpv4.s:438    .text:00000530 _ZL10VertLine24P8tagINTDCji
C:\Users\ldebo\AppData\Local\Temp\ccevlpv4.s:488    .text:000005c8 _ZL10HorzLine24P8tagINTDCji
C:\Users\ldebo\AppData\Local\Temp\ccevlpv4.s:527    .text:00000638 _ZL10DiagLine24P8tagINTDCjjii
C:\Users\ldebo\AppData\Local\Temp\ccevlpv4.s:596    .text:0000071c _ZL11WriteChar24P8tagINTDCh
C:\Users\ldebo\AppData\Local\Temp\ccevlpv4.s:644    .text:000007bc $d
C:\Users\ldebo\AppData\Local\Temp\ccevlpv4.s:646    .text:000007c0 $a
C:\Users\ldebo\AppData\Local\Temp\ccevlpv4.s:651    .text:000007c0 _ZL10PutImage24P8tagINTDCjj12tagIMAGE_PTRb
C:\Users\ldebo\AppData\Local\Temp\ccevlpv4.s:710    .text:00000870 _ZL11ClearArea32P8tagINTDCjjjj
C:\Users\ldebo\AppData\Local\Temp\ccevlpv4.s:745    .text:000008d0 _ZL10VertLine32P8tagINTDCji
C:\Users\ldebo\AppData\Local\Temp\ccevlpv4.s:789    .text:00000950 _ZL10HorzLine32P8tagINTDCji
C:\Users\ldebo\AppData\Local\Temp\ccevlpv4.s:821    .text:000009a4 _ZL10DiagLine32P8tagINTDCjjii
C:\Users\ldebo\AppData\Local\Temp\ccevlpv4.s:867    .text:00000a30 _ZL11WriteChar32P8tagINTDCh
C:\Users\ldebo\AppData\Local\Temp\ccevlpv4.s:912    .text:00000ac0 $d
C:\Users\ldebo\AppData\Local\Temp\ccevlpv4.s:914    .text:00000ac4 $a
C:\Users\ldebo\AppData\Local\Temp\ccevlpv4.s:919    .text:00000ac4 _ZL10PutImage32P8tagINTDCjj12tagIMAGE_PTRb
C:\Users\ldebo\AppData\Local\Temp\ccevlpv4.s:967    .text:00000b54 mailbox_tag_message.constprop.4
C:\Users\ldebo\AppData\Local\Temp\ccevlpv4.s:1027   .text:00000c20 $d
C:\Users\ldebo\AppData\Local\Temp\ccevlpv4.s:1029   .text:00000c24 $a
C:\Users\ldebo\AppData\Local\Temp\ccevlpv4.s:1034   .text:00000c24 mailbox_tag_message.constprop.5
C:\Users\ldebo\AppData\Local\Temp\ccevlpv4.s:1109   .text:00000d20 $d
C:\Users\ldebo\AppData\Local\Temp\ccevlpv4.s:1111   .text:00000d24 $a
C:\Users\ldebo\AppData\Local\Temp\ccevlpv4.s:1116   .text:00000d24 mailbox_tag_message.constprop.6
C:\Users\ldebo\AppData\Local\Temp\ccevlpv4.s:1186   .text:00000e0c $d
C:\Users\ldebo\AppData\Local\Temp\ccevlpv4.s:1188   .text:00000e10 $a
C:\Users\ldebo\AppData\Local\Temp\ccevlpv4.s:1193   .text:00000e10 mailbox_tag_message.constprop.7
C:\Users\ldebo\AppData\Local\Temp\ccevlpv4.s:1268   .text:00000f04 $d
C:\Users\ldebo\AppData\Local\Temp\ccevlpv4.s:1270   .text:00000f08 $a
C:\Users\ldebo\AppData\Local\Temp\ccevlpv4.s:1276   .text:00000f08 gpio_setup
C:\Users\ldebo\AppData\Local\Temp\ccevlpv4.s:1308   .text:00000f6c $d
C:\Users\ldebo\AppData\Local\Temp\ccevlpv4.s:1311   .text:00000f74 $a
C:\Users\ldebo\AppData\Local\Temp\ccevlpv4.s:1317   .text:00000f74 gpio_output
C:\Users\ldebo\AppData\Local\Temp\ccevlpv4.s:1352   .text:00000fdc $d
C:\Users\ldebo\AppData\Local\Temp\ccevlpv4.s:1354   .text:00000fe0 $a
C:\Users\ldebo\AppData\Local\Temp\ccevlpv4.s:1360   .text:00000fe0 gpio_input
C:\Users\ldebo\AppData\Local\Temp\ccevlpv4.s:1385   .text:00001024 $d
C:\Users\ldebo\AppData\Local\Temp\ccevlpv4.s:1387   .text:00001028 $a
C:\Users\ldebo\AppData\Local\Temp\ccevlpv4.s:1393   .text:00001028 gpio_checkEvent
C:\Users\ldebo\AppData\Local\Temp\ccevlpv4.s:1417   .text:00001068 $d
C:\Users\ldebo\AppData\Local\Temp\ccevlpv4.s:1419   .text:0000106c $a
C:\Users\ldebo\AppData\Local\Temp\ccevlpv4.s:1425   .text:0000106c gpio_clearEvent
C:\Users\ldebo\AppData\Local\Temp\ccevlpv4.s:1448   .text:000010a8 $d
C:\Users\ldebo\AppData\Local\Temp\ccevlpv4.s:1450   .text:000010ac $a
C:\Users\ldebo\AppData\Local\Temp\ccevlpv4.s:1456   .text:000010ac gpio_edgeDetect
C:\Users\ldebo\AppData\Local\Temp\ccevlpv4.s:1514   .text:0000116c $d
C:\Users\ldebo\AppData\Local\Temp\ccevlpv4.s:1516   .text:00001170 $a
ARM GAS  C:\Users\ldebo\AppData\Local\Temp\ccevlpv4.s 			page 73


C:\Users\ldebo\AppData\Local\Temp\ccevlpv4.s:1522   .text:00001170 gpio_fixResistor
C:\Users\ldebo\AppData\Local\Temp\ccevlpv4.s:1608   .text:0000129c $d
C:\Users\ldebo\AppData\Local\Temp\ccevlpv4.s:1610   .text:000012a0 $a
C:\Users\ldebo\AppData\Local\Temp\ccevlpv4.s:1616   .text:000012a0 timer_getTickCount
C:\Users\ldebo\AppData\Local\Temp\ccevlpv4.s:1643   .text:000012ec $d
C:\Users\ldebo\AppData\Local\Temp\ccevlpv4.s:1645   .text:000012f0 $a
C:\Users\ldebo\AppData\Local\Temp\ccevlpv4.s:1651   .text:000012f0 timer_wait
C:\Users\ldebo\AppData\Local\Temp\ccevlpv4.s:1690   .text:0000136c $d
C:\Users\ldebo\AppData\Local\Temp\ccevlpv4.s:1692   .text:00001370 $a
C:\Users\ldebo\AppData\Local\Temp\ccevlpv4.s:1698   .text:00001370 tick_difference
C:\Users\ldebo\AppData\Local\Temp\ccevlpv4.s:1712   .text:0000137c mailbox_write
C:\Users\ldebo\AppData\Local\Temp\ccevlpv4.s:1737   .text:000013bc $d
C:\Users\ldebo\AppData\Local\Temp\ccevlpv4.s:1739   .text:000013c0 $a
C:\Users\ldebo\AppData\Local\Temp\ccevlpv4.s:1745   .text:000013c0 mailbox_read
C:\Users\ldebo\AppData\Local\Temp\ccevlpv4.s:1771   .text:00001404 $d
C:\Users\ldebo\AppData\Local\Temp\ccevlpv4.s:1774   .text:0000140c $a
C:\Users\ldebo\AppData\Local\Temp\ccevlpv4.s:1780   .text:0000140c mailbox_tag_message
C:\Users\ldebo\AppData\Local\Temp\ccevlpv4.s:1866   .text:00001528 $d
C:\Users\ldebo\AppData\Local\Temp\ccevlpv4.s:1868   .text:0000152c $a
C:\Users\ldebo\AppData\Local\Temp\ccevlpv4.s:1874   .text:0000152c set_Activity_LED
C:\Users\ldebo\AppData\Local\Temp\ccevlpv4.s:1974   .text:00001680 $d
C:\Users\ldebo\AppData\Local\Temp\ccevlpv4.s:1984   .text:000016a4 $a
C:\Users\ldebo\AppData\Local\Temp\ccevlpv4.s:1990   .text:000016a4 ARM_setmaxspeed
C:\Users\ldebo\AppData\Local\Temp\ccevlpv4.s:2038   .text:00001738 $d
C:\Users\ldebo\AppData\Local\Temp\ccevlpv4.s:2042   .text:00001744 $a
C:\Users\ldebo\AppData\Local\Temp\ccevlpv4.s:2048   .text:00001744 displaySmartStart
C:\Users\ldebo\AppData\Local\Temp\ccevlpv4.s:2082   .text:000017b4 $d
C:\Users\ldebo\AppData\Local\Temp\ccevlpv4.s:2089   .text:000017cc $a
C:\Users\ldebo\AppData\Local\Temp\ccevlpv4.s:2095   .text:000017cc Embedded_Console_WriteChar
C:\Users\ldebo\AppData\Local\Temp\ccevlpv4.s:2148   .text:0000187c $d
C:\Users\ldebo\AppData\Local\Temp\ccevlpv4.s:2150   .text:00001880 $a
C:\Users\ldebo\AppData\Local\Temp\ccevlpv4.s:2156   .text:00001880 WriteText
C:\Users\ldebo\AppData\Local\Temp\ccevlpv4.s:2221   .text:00001958 $d
C:\Users\ldebo\AppData\Local\Temp\ccevlpv4.s:2223   .text:0000195c $a
C:\Users\ldebo\AppData\Local\Temp\ccevlpv4.s:2229   .text:0000195c SetDCPenColor
C:\Users\ldebo\AppData\Local\Temp\ccevlpv4.s:2245   .text:00001970 SetDCBrushColor
C:\Users\ldebo\AppData\Local\Temp\ccevlpv4.s:2261   .text:00001984 MoveToEx
C:\Users\ldebo\AppData\Local\Temp\ccevlpv4.s:2286   .text:000019bc LineTo
C:\Users\ldebo\AppData\Local\Temp\ccevlpv4.s:2341   .text:00001a5c TextOut
C:\Users\ldebo\AppData\Local\Temp\ccevlpv4.s:2375   .text:00001ac4 $d
C:\Users\ldebo\AppData\Local\Temp\ccevlpv4.s:2377   .text:00001ac8 $a
C:\Users\ldebo\AppData\Local\Temp\ccevlpv4.s:2383   .text:00001ac8 BmpOut
C:\Users\ldebo\AppData\Local\Temp\ccevlpv4.s:2416   .text:00001b1c Rectangle
C:\Users\ldebo\AppData\Local\Temp\ccevlpv4.s:2441   .text:00001b50 PiConsole_Init
C:\Users\ldebo\AppData\Local\Temp\ccevlpv4.s:2598   .text:00001d7c $d
C:\Users\ldebo\AppData\Local\Temp\ccevlpv4.s:2624   .text:00001de0 $a
C:\Users\ldebo\AppData\Local\Temp\ccevlpv4.s:2630   .text:00001de0 GetConsoleDC
C:\Users\ldebo\AppData\Local\Temp\ccevlpv4.s:2639   .text:00001de8 $d
C:\Users\ldebo\AppData\Local\Temp\ccevlpv4.s:2641   .text:00001dec $a
C:\Users\ldebo\AppData\Local\Temp\ccevlpv4.s:2647   .text:00001dec GetConsole_FrameBuffer
C:\Users\ldebo\AppData\Local\Temp\ccevlpv4.s:2657   .text:00001df8 $d
C:\Users\ldebo\AppData\Local\Temp\ccevlpv4.s:2659   .text:00001dfc $a
C:\Users\ldebo\AppData\Local\Temp\ccevlpv4.s:2665   .text:00001dfc GetConsole_Width
C:\Users\ldebo\AppData\Local\Temp\ccevlpv4.s:2675   .text:00001e08 $d
C:\Users\ldebo\AppData\Local\Temp\ccevlpv4.s:2677   .text:00001e0c $a
C:\Users\ldebo\AppData\Local\Temp\ccevlpv4.s:2683   .text:00001e0c GetConsole_Height
C:\Users\ldebo\AppData\Local\Temp\ccevlpv4.s:2693   .text:00001e18 $d
ARM GAS  C:\Users\ldebo\AppData\Local\Temp\ccevlpv4.s 			page 74


C:\Users\ldebo\AppData\Local\Temp\ccevlpv4.s:2695   .text:00001e1c $a
C:\Users\ldebo\AppData\Local\Temp\ccevlpv4.s:2701   .text:00001e1c _sbrk
C:\Users\ldebo\AppData\Local\Temp\ccevlpv4.s:2717   .text:00001e40 $d
C:\Users\ldebo\AppData\Local\Temp\ccevlpv4.s:2720   .text:00001e48 $a
C:\Users\ldebo\AppData\Local\Temp\ccevlpv4.s:2726   .text:00001e48 _kill
C:\Users\ldebo\AppData\Local\Temp\ccevlpv4.s:2738   .text:00001e5c $d
C:\Users\ldebo\AppData\Local\Temp\ccevlpv4.s:2740   .text:00001e60 $a
C:\Users\ldebo\AppData\Local\Temp\ccevlpv4.s:2746   .text:00001e60 _getpid
C:\Users\ldebo\AppData\Local\Temp\ccevlpv4.s:2759   .text:00001e68 _read
C:\Users\ldebo\AppData\Local\Temp\ccevlpv4.s:2772   .text:00001e70 _close
C:\Users\ldebo\AppData\Local\Temp\ccevlpv4.s:2785   .text:00001e78 _lseek
C:\Users\ldebo\AppData\Local\Temp\ccevlpv4.s:2798   .text:00001e80 _isatty
C:\Users\ldebo\AppData\Local\Temp\ccevlpv4.s:2811   .text:00001e88 _fstat
C:\Users\ldebo\AppData\Local\Temp\ccevlpv4.s:2826   .text:00001e98 _exit
C:\Users\ldebo\AppData\Local\Temp\ccevlpv4.s:2839   .text:00001e9c _write
C:\Users\ldebo\AppData\Local\Temp\ccevlpv4.s:2899   .text:00001f60 $d
C:\Users\ldebo\AppData\Local\Temp\ccevlpv4.s:3949   .bss:00000004 console
C:\Users\ldebo\AppData\Local\Temp\ccevlpv4.s:2903   .rodata:00000000 $d
C:\Users\ldebo\AppData\Local\Temp\ccevlpv4.s:2907   .rodata:00000000 _ZL7BitFont
C:\Users\ldebo\AppData\Local\Temp\ccevlpv4.s:3933   .data:00000000 $d
C:\Users\ldebo\AppData\Local\Temp\ccevlpv4.s:3937   .data:00000000 _ZL16ActivityGPIOPort
C:\Users\ldebo\AppData\Local\Temp\ccevlpv4.s:3940   .bss:00000000 $d
C:\Users\ldebo\AppData\Local\Temp\ccevlpv4.s:3944   .bss:00000000 _ZL16ModelCheckHasRun
C:\Users\ldebo\AppData\Local\Temp\ccevlpv4.s:3953   .bss:00000048 _ZZ5_sbrkE8heap_end
C:\Users\ldebo\AppData\Local\Temp\ccevlpv4.s:3956   .rodata.str1.4:00000000 $d

UNDEFINED SYMBOLS
memcpy
ARMaddrToGPUaddr
RPi_IO_Base_Addr
RPi_CpuId
RPi_CpuIdString
RPi_CompileMode
RPi_CoresReady
strlen
GPUaddrToARMaddr
_end
errno
ARM GAS  C:\Users\ldebo\AppData\Local\Temp\ccevlpv4.s 			page 1


   1              		.arch armv6zk
   2              		.eabi_attribute 28, 1
   3              		.eabi_attribute 20, 1
   4              		.eabi_attribute 21, 1
   5              		.eabi_attribute 23, 3
   6              		.eabi_attribute 24, 1
   7              		.eabi_attribute 25, 1
   8              		.eabi_attribute 26, 1
   9              		.eabi_attribute 30, 2
  10              		.eabi_attribute 34, 0
  11              		.eabi_attribute 18, 4
  12              		.file	"emb-stdio.c"
  13              		.global	__aeabi_uidiv
  14              		.global	__aeabi_uidivmod
  15              		.text
  16              		.align	2
  17              		.syntax unified
  18              		.arm
  19              		.fpu vfp
  20              		.type	number, %function
  21              	number:
  22              		@ args = 8, pretend = 0, frame = 88
  23              		@ frame_needed = 0, uses_anonymous_args = 0
  24 0000 F04F2DE9 		push	{r4, r5, r6, r7, r8, r9, r10, fp, lr}
  25 0004 5CD04DE2 		sub	sp, sp, #92
  26 0008 00A0A0E1 		mov	r10, r0
  27 000c 84009DE5 		ldr	r0, [sp, #132]
  28 0010 00308DE5 		str	r3, [sp]
  29 0014 100010E3 		tst	r0, #16
  30 0018 0030A011 		movne	r3, r0
  31 001c 0130C313 		bicne	r3, r3, #1
  32 0020 84308D15 		strne	r3, [sp, #132]
  33 0024 023042E2 		sub	r3, r2, #2
  34 0028 0E0053E3 		cmp	r3, #14
  35 002c 0150A0E1 		mov	r5, r1
  36 0030 0260A0E1 		mov	r6, r2
  37 0034 207000E2 		and	r7, r0, #32
  38 0038 9901008A 		bhi	.L56
  39 003c 84309DE5 		ldr	r3, [sp, #132]
  40 0040 010013E3 		tst	r3, #1
  41 0044 2030A003 		moveq	r3, #32
  42 0048 3030A013 		movne	r3, #48
  43 004c 04308DE5 		str	r3, [sp, #4]
  44 0050 84309DE5 		ldr	r3, [sp, #132]
  45 0054 023013E2 		ands	r3, r3, #2
  46 0058 0C00000A 		beq	.L59
  47 005c 000051E3 		cmp	r1, #0
  48 0060 880100BA 		blt	.L148
  49 0064 84309DE5 		ldr	r3, [sp, #132]
  50 0068 040013E3 		tst	r3, #4
  51 006c 7101001A 		bne	.L149
  52 0070 083013E2 		ands	r3, r3, #8
  53 0074 0500000A 		beq	.L59
  54 0078 00309DE5 		ldr	r3, [sp]
  55 007c 013043E2 		sub	r3, r3, #1
  56 0080 00308DE5 		str	r3, [sp]
  57 0084 2030A0E3 		mov	r3, #32
ARM GAS  C:\Users\ldebo\AppData\Local\Temp\ccevlpv4.s 			page 2


  58 0088 0C308DE5 		str	r3, [sp, #12]
  59 008c 000000EA 		b	.L5
  60              	.L59:
  61 0090 0C308DE5 		str	r3, [sp, #12]
  62              	.L5:
  63 0094 84309DE5 		ldr	r3, [sp, #132]
  64 0098 403013E2 		ands	r3, r3, #64
  65 009c 08308DE5 		str	r3, [sp, #8]
  66 00a0 0500000A 		beq	.L8
  67 00a4 100056E3 		cmp	r6, #16
  68 00a8 7001000A 		beq	.L150
  69 00ac 080056E3 		cmp	r6, #8
  70 00b0 00309D05 		ldreq	r3, [sp]
  71 00b4 01304302 		subeq	r3, r3, #1
  72 00b8 00308D05 		streq	r3, [sp]
  73              	.L8:
  74 00bc 000055E3 		cmp	r5, #0
  75 00c0 4301001A 		bne	.L10
  76              	.L155:
  77 00c4 0130A0E3 		mov	r3, #1
  78 00c8 3020A0E3 		mov	r2, #48
  79 00cc 0340A0E1 		mov	r4, r3
  80 00d0 1420CDE5 		strb	r2, [sp, #20]
  81              	.L11:
  82 00d4 80209DE5 		ldr	r2, [sp, #128]
  83 00d8 84109DE5 		ldr	r1, [sp, #132]
  84 00dc 020053E1 		cmp	r3, r2
  85 00e0 0320A0A1 		movge	r2, r3
  86 00e4 110011E3 		tst	r1, #17
  87 00e8 00109DE5 		ldr	r1, [sp]
  88 00ec 029041E0 		sub	r9, r1, r2
  89 00f0 4600001A 		bne	.L13
  90 00f4 01E049E2 		sub	lr, r9, #1
  91 00f8 000059E3 		cmp	r9, #0
  92 00fc 0E00A0E1 		mov	r0, lr
  93 0100 710100DA 		ble	.L61
  94 0104 00106AE2 		rsb	r1, r10, #0
  95 0108 031001E2 		and	r1, r1, #3
  96 010c 090051E1 		cmp	r1, r9
  97 0110 0910A021 		movcs	r1, r9
  98 0114 060059E3 		cmp	r9, #6
  99 0118 0910A0D1 		movle	r1, r9
 100 011c 4B0100CA 		bgt	.L151
 101              	.L14:
 102 0120 20C0A0E3 		mov	ip, #32
 103 0124 010051E3 		cmp	r1, #1
 104 0128 00C0CAE5 		strb	ip, [r10]
 105 012c 01808AE2 		add	r8, r10, #1
 106 0130 020049E2 		sub	r0, r9, #2
 107 0134 1500000A 		beq	.L16
 108 0138 020051E3 		cmp	r1, #2
 109 013c 01C0CAE5 		strb	ip, [r10, #1]
 110 0140 02808AE2 		add	r8, r10, #2
 111 0144 030049E2 		sub	r0, r9, #3
 112 0148 1000000A 		beq	.L16
 113 014c 030051E3 		cmp	r1, #3
 114 0150 02C0CAE5 		strb	ip, [r10, #2]
ARM GAS  C:\Users\ldebo\AppData\Local\Temp\ccevlpv4.s 			page 3


 115 0154 03808AE2 		add	r8, r10, #3
 116 0158 040049E2 		sub	r0, r9, #4
 117 015c 0B00000A 		beq	.L16
 118 0160 040051E3 		cmp	r1, #4
 119 0164 03C0CAE5 		strb	ip, [r10, #3]
 120 0168 04808AE2 		add	r8, r10, #4
 121 016c 050049E2 		sub	r0, r9, #5
 122 0170 0600000A 		beq	.L16
 123 0174 060051E3 		cmp	r1, #6
 124 0178 05808AE2 		add	r8, r10, #5
 125 017c 060049E2 		sub	r0, r9, #6
 126 0180 04C0CAE5 		strb	ip, [r10, #4]
 127 0184 05C0CA05 		strbeq	ip, [r10, #5]
 128 0188 06808A02 		addeq	r8, r10, #6
 129 018c 07004902 		subeq	r0, r9, #7
 130              	.L16:
 131 0190 010059E1 		cmp	r9, r1
 132 0194 1B00000A 		beq	.L17
 133              	.L15:
 134 0198 01C049E0 		sub	ip, r9, r1
 135 019c 00C08DE5 		str	ip, [sp]
 136 01a0 04C04CE2 		sub	ip, ip, #4
 137 01a4 01E04EE0 		sub	lr, lr, r1
 138 01a8 2CC1A0E1 		lsr	ip, ip, #2
 139 01ac 01C08CE2 		add	ip, ip, #1
 140 01b0 02005EE3 		cmp	lr, #2
 141 01b4 0C51A0E1 		lsl	r5, ip, #2
 142 01b8 0B00009A 		bls	.L18
 143 01bc 00E0A0E3 		mov	lr, #0
 144 01c0 14B59FE5 		ldr	fp, .L156
 145 01c4 01108AE0 		add	r1, r10, r1
 146              	.L19:
 147 01c8 01E08EE2 		add	lr, lr, #1
 148 01cc 0E005CE1 		cmp	ip, lr
 149 01d0 04B081E4 		str	fp, [r1], #4
 150 01d4 FBFFFF8A 		bhi	.L19
 151 01d8 00109DE5 		ldr	r1, [sp]
 152 01dc 058088E0 		add	r8, r8, r5
 153 01e0 050051E1 		cmp	r1, r5
 154 01e4 050040E0 		sub	r0, r0, r5
 155 01e8 0600000A 		beq	.L17
 156              	.L18:
 157 01ec 2010A0E3 		mov	r1, #32
 158 01f0 000050E3 		cmp	r0, #0
 159 01f4 0010C8E5 		strb	r1, [r8]
 160 01f8 020000DA 		ble	.L17
 161 01fc 010050E3 		cmp	r0, #1
 162 0200 0110C8E5 		strb	r1, [r8, #1]
 163 0204 0210C8C5 		strbgt	r1, [r8, #2]
 164              	.L17:
 165 0208 09A08AE0 		add	r10, r10, r9
 166 020c 0090E0E3 		mvn	r9, #0
 167              	.L13:
 168 0210 0C109DE5 		ldr	r1, [sp, #12]
 169 0214 000051E3 		cmp	r1, #0
 170 0218 0010CA15 		strbne	r1, [r10]
 171 021c 08109DE5 		ldr	r1, [sp, #8]
ARM GAS  C:\Users\ldebo\AppData\Local\Temp\ccevlpv4.s 			page 4


 172 0220 01A08A12 		addne	r10, r10, #1
 173 0224 000051E3 		cmp	r1, #0
 174 0228 0600000A 		beq	.L24
 175 022c 080056E3 		cmp	r6, #8
 176 0230 3010A003 		moveq	r1, #48
 177 0234 0010CA05 		strbeq	r1, [r10]
 178 0238 01A08A02 		addeq	r10, r10, #1
 179 023c 0100000A 		beq	.L24
 180 0240 100056E3 		cmp	r6, #16
 181 0244 1901000A 		beq	.L152
 182              	.L24:
 183 0248 84109DE5 		ldr	r1, [sp, #132]
 184 024c 100011E3 		tst	r1, #16
 185 0250 4900001A 		bne	.L26
 186 0254 01E049E2 		sub	lr, r9, #1
 187 0258 000059E3 		cmp	r9, #0
 188 025c 0E00A0E1 		mov	r0, lr
 189 0260 1B0100DA 		ble	.L64
 190 0264 00106AE2 		rsb	r1, r10, #0
 191 0268 031001E2 		and	r1, r1, #3
 192 026c 090051E1 		cmp	r1, r9
 193 0270 0910A021 		movcs	r1, r9
 194 0274 060059E3 		cmp	r9, #6
 195 0278 0910A0D1 		movle	r1, r9
 196 027c F70000CA 		bgt	.L153
 197              	.L27:
 198 0280 04509DE5 		ldr	r5, [sp, #4]
 199 0284 010051E3 		cmp	r1, #1
 200 0288 0050CAE5 		strb	r5, [r10]
 201 028c 01C08AE2 		add	ip, r10, #1
 202 0290 020049E2 		sub	r0, r9, #2
 203 0294 1600000A 		beq	.L29
 204 0298 020051E3 		cmp	r1, #2
 205 029c 0150CAE5 		strb	r5, [r10, #1]
 206 02a0 02C08AE2 		add	ip, r10, #2
 207 02a4 030049E2 		sub	r0, r9, #3
 208 02a8 1100000A 		beq	.L29
 209 02ac 030051E3 		cmp	r1, #3
 210 02b0 0250CAE5 		strb	r5, [r10, #2]
 211 02b4 03C08AE2 		add	ip, r10, #3
 212 02b8 040049E2 		sub	r0, r9, #4
 213 02bc 0C00000A 		beq	.L29
 214 02c0 040051E3 		cmp	r1, #4
 215 02c4 0350CAE5 		strb	r5, [r10, #3]
 216 02c8 04C08AE2 		add	ip, r10, #4
 217 02cc 050049E2 		sub	r0, r9, #5
 218 02d0 0700000A 		beq	.L29
 219 02d4 060051E3 		cmp	r1, #6
 220 02d8 060049E2 		sub	r0, r9, #6
 221 02dc 0500A001 		moveq	r0, r5
 222 02e0 05C08AE2 		add	ip, r10, #5
 223 02e4 0500CA05 		strbeq	r0, [r10, #5]
 224 02e8 0450CAE5 		strb	r5, [r10, #4]
 225 02ec 06C08A02 		addeq	ip, r10, #6
 226 02f0 07004902 		subeq	r0, r9, #7
 227              	.L29:
 228 02f4 010059E1 		cmp	r9, r1
ARM GAS  C:\Users\ldebo\AppData\Local\Temp\ccevlpv4.s 			page 5


 229 02f8 1D00000A 		beq	.L30
 230              	.L28:
 231 02fc 01B049E0 		sub	fp, r9, r1
 232 0300 04504BE2 		sub	r5, fp, #4
 233 0304 01604EE0 		sub	r6, lr, r1
 234 0308 25E1A0E1 		lsr	lr, r5, #2
 235 030c 01E08EE2 		add	lr, lr, #1
 236 0310 020056E3 		cmp	r6, #2
 237 0314 0E81A0E1 		lsl	r8, lr, #2
 238 0318 0D00009A 		bls	.L31
 239 031c 0050A0E3 		mov	r5, #0
 240 0320 0470DDE5 		ldrb	r7, [sp, #4]	@ zero_extendqisi2
 241 0324 01108AE0 		add	r1, r10, r1
 242 0328 076487E1 		orr	r6, r7, r7, lsl #8
 243 032c 076886E1 		orr	r6, r6, r7, lsl #16
 244 0330 076C86E1 		orr	r6, r6, r7, lsl #24
 245              	.L32:
 246 0334 015085E2 		add	r5, r5, #1
 247 0338 05005EE1 		cmp	lr, r5
 248 033c 046081E4 		str	r6, [r1], #4
 249 0340 FBFFFF8A 		bhi	.L32
 250 0344 08005BE1 		cmp	fp, r8
 251 0348 08C08CE0 		add	ip, ip, r8
 252 034c 080040E0 		sub	r0, r0, r8
 253 0350 0700000A 		beq	.L30
 254              	.L31:
 255 0354 04109DE5 		ldr	r1, [sp, #4]
 256 0358 000050E3 		cmp	r0, #0
 257 035c 0010CCE5 		strb	r1, [ip]
 258 0360 030000DA 		ble	.L30
 259 0364 010050E3 		cmp	r0, #1
 260 0368 0110CCE5 		strb	r1, [ip, #1]
 261 036c 0410DDC5 		ldrbgt	r1, [sp, #4]	@ zero_extendqisi2
 262 0370 0210CCC5 		strbgt	r1, [ip, #2]
 263              	.L30:
 264 0374 09A08AE0 		add	r10, r10, r9
 265 0378 0090E0E3 		mvn	r9, #0
 266              	.L26:
 267 037c 020053E1 		cmp	r3, r2
 268 0380 01C042E2 		sub	ip, r2, #1
 269 0384 430000AA 		bge	.L36
 270 0388 00106AE2 		rsb	r1, r10, #0
 271 038c 031001E2 		and	r1, r1, #3
 272 0390 03E042E0 		sub	lr, r2, r3
 273 0394 0E0051E1 		cmp	r1, lr
 274 0398 0E10A021 		movcs	r1, lr
 275 039c 06005EE3 		cmp	lr, #6
 276 03a0 0E10A091 		movls	r1, lr
 277 03a4 000051E3 		cmp	r1, #0
 278 03a8 A000000A 		beq	.L67
 279 03ac 3000A0E3 		mov	r0, #48
 280 03b0 010051E3 		cmp	r1, #1
 281 03b4 0000CAE5 		strb	r0, [r10]
 282 03b8 01508AE2 		add	r5, r10, #1
 283 03bc 02C042E2 		sub	ip, r2, #2
 284 03c0 1500000A 		beq	.L39
 285 03c4 020051E3 		cmp	r1, #2
ARM GAS  C:\Users\ldebo\AppData\Local\Temp\ccevlpv4.s 			page 6


 286 03c8 0100CAE5 		strb	r0, [r10, #1]
 287 03cc 02508AE2 		add	r5, r10, #2
 288 03d0 03C042E2 		sub	ip, r2, #3
 289 03d4 1000000A 		beq	.L39
 290 03d8 030051E3 		cmp	r1, #3
 291 03dc 0200CAE5 		strb	r0, [r10, #2]
 292 03e0 03508AE2 		add	r5, r10, #3
 293 03e4 04C042E2 		sub	ip, r2, #4
 294 03e8 0B00000A 		beq	.L39
 295 03ec 040051E3 		cmp	r1, #4
 296 03f0 0300CAE5 		strb	r0, [r10, #3]
 297 03f4 04508AE2 		add	r5, r10, #4
 298 03f8 05C042E2 		sub	ip, r2, #5
 299 03fc 0600000A 		beq	.L39
 300 0400 060051E3 		cmp	r1, #6
 301 0404 05508AE2 		add	r5, r10, #5
 302 0408 06C042E2 		sub	ip, r2, #6
 303 040c 0400CAE5 		strb	r0, [r10, #4]
 304 0410 0500CA05 		strbeq	r0, [r10, #5]
 305 0414 07C04202 		subeq	ip, r2, #7
 306 0418 06508A02 		addeq	r5, r10, #6
 307              	.L39:
 308 041c 01005EE1 		cmp	lr, r1
 309 0420 1B00000A 		beq	.L40
 310              	.L38:
 311 0424 01604EE0 		sub	r6, lr, r1
 312 0428 040046E2 		sub	r0, r6, #4
 313 042c 01204EE2 		sub	r2, lr, #1
 314 0430 2001A0E1 		lsr	r0, r0, #2
 315 0434 012042E0 		sub	r2, r2, r1
 316 0438 010080E2 		add	r0, r0, #1
 317 043c 020052E3 		cmp	r2, #2
 318 0440 0071A0E1 		lsl	r7, r0, #2
 319 0444 0A00009A 		bls	.L41
 320 0448 0020A0E3 		mov	r2, #0
 321 044c 8C829FE5 		ldr	r8, .L156+4
 322 0450 01108AE0 		add	r1, r10, r1
 323              	.L42:
 324 0454 012082E2 		add	r2, r2, #1
 325 0458 020050E1 		cmp	r0, r2
 326 045c 048081E4 		str	r8, [r1], #4
 327 0460 FBFFFF8A 		bhi	.L42
 328 0464 070056E1 		cmp	r6, r7
 329 0468 075085E0 		add	r5, r5, r7
 330 046c 07C04CE0 		sub	ip, ip, r7
 331 0470 0700000A 		beq	.L40
 332              	.L41:
 333 0474 3010A0E3 		mov	r1, #48
 334 0478 0C0053E1 		cmp	r3, ip
 335 047c 01204CE2 		sub	r2, ip, #1
 336 0480 0010C5E5 		strb	r1, [r5]
 337 0484 020000AA 		bge	.L40
 338 0488 020053E1 		cmp	r3, r2
 339 048c 0110C5E5 		strb	r1, [r5, #1]
 340 0490 0210C5B5 		strblt	r1, [r5, #2]
 341              	.L40:
 342 0494 0EA08AE0 		add	r10, r10, lr
ARM GAS  C:\Users\ldebo\AppData\Local\Temp\ccevlpv4.s 			page 7


 343              	.L36:
 344 0498 14C08DE2 		add	ip, sp, #20
 345 049c 04308CE0 		add	r3, ip, r4
 346 04a0 01204AE2 		sub	r2, r10, #1
 347              	.L46:
 348 04a4 011073E5 		ldrb	r1, [r3, #-1]!	@ zero_extendqisi2
 349 04a8 0C0043E0 		sub	r0, r3, ip
 350 04ac 000050E3 		cmp	r0, #0
 351 04b0 0110E2E5 		strb	r1, [r2, #1]!
 352 04b4 FAFFFFCA 		bgt	.L46
 353 04b8 01E049E2 		sub	lr, r9, #1
 354 04bc 000059E3 		cmp	r9, #0
 355 04c0 04008AE0 		add	r0, r10, r4
 356 04c4 0EC0A0E1 		mov	ip, lr
 357 04c8 3F0000DA 		ble	.L1
 358 04cc 003060E2 		rsb	r3, r0, #0
 359 04d0 033003E2 		and	r3, r3, #3
 360 04d4 090053E1 		cmp	r3, r9
 361 04d8 0930A021 		movcs	r3, r9
 362 04dc 060059E3 		cmp	r9, #6
 363 04e0 0930A0D1 		movle	r3, r9
 364 04e4 4D0000CA 		bgt	.L154
 365              	.L47:
 366 04e8 2020A0E3 		mov	r2, #32
 367 04ec 010053E3 		cmp	r3, #1
 368 04f0 0020C0E5 		strb	r2, [r0]
 369 04f4 011080E2 		add	r1, r0, #1
 370 04f8 02C049E2 		sub	ip, r9, #2
 371 04fc 1500000A 		beq	.L49
 372 0500 020053E3 		cmp	r3, #2
 373 0504 0120C0E5 		strb	r2, [r0, #1]
 374 0508 021080E2 		add	r1, r0, #2
 375 050c 03C049E2 		sub	ip, r9, #3
 376 0510 1000000A 		beq	.L49
 377 0514 030053E3 		cmp	r3, #3
 378 0518 0220C0E5 		strb	r2, [r0, #2]
 379 051c 031080E2 		add	r1, r0, #3
 380 0520 04C049E2 		sub	ip, r9, #4
 381 0524 0B00000A 		beq	.L49
 382 0528 040053E3 		cmp	r3, #4
 383 052c 0320C0E5 		strb	r2, [r0, #3]
 384 0530 041080E2 		add	r1, r0, #4
 385 0534 05C049E2 		sub	ip, r9, #5
 386 0538 0600000A 		beq	.L49
 387 053c 060053E3 		cmp	r3, #6
 388 0540 051080E2 		add	r1, r0, #5
 389 0544 06C049E2 		sub	ip, r9, #6
 390 0548 0420C0E5 		strb	r2, [r0, #4]
 391 054c 0520C005 		strbeq	r2, [r0, #5]
 392 0550 06108002 		addeq	r1, r0, #6
 393 0554 07C04902 		subeq	ip, r9, #7
 394              	.L49:
 395 0558 030059E1 		cmp	r9, r3
 396 055c 1900000A 		beq	.L50
 397              	.L48:
 398 0560 035049E0 		sub	r5, r9, r3
 399 0564 042045E2 		sub	r2, r5, #4
ARM GAS  C:\Users\ldebo\AppData\Local\Temp\ccevlpv4.s 			page 8


 400 0568 03E04EE0 		sub	lr, lr, r3
 401 056c 2221A0E1 		lsr	r2, r2, #2
 402 0570 012082E2 		add	r2, r2, #1
 403 0574 02005EE3 		cmp	lr, #2
 404 0578 0241A0E1 		lsl	r4, r2, #2
 405 057c 0A00009A 		bls	.L51
 406 0580 00E0A0E3 		mov	lr, #0
 407 0584 50619FE5 		ldr	r6, .L156
 408 0588 033080E0 		add	r3, r0, r3
 409              	.L52:
 410 058c 01E08EE2 		add	lr, lr, #1
 411 0590 0E0052E1 		cmp	r2, lr
 412 0594 046083E4 		str	r6, [r3], #4
 413 0598 FBFFFF8A 		bhi	.L52
 414 059c 050054E1 		cmp	r4, r5
 415 05a0 041081E0 		add	r1, r1, r4
 416 05a4 04C04CE0 		sub	ip, ip, r4
 417 05a8 0600000A 		beq	.L50
 418              	.L51:
 419 05ac 2030A0E3 		mov	r3, #32
 420 05b0 00005CE3 		cmp	ip, #0
 421 05b4 0030C1E5 		strb	r3, [r1]
 422 05b8 020000DA 		ble	.L50
 423 05bc 01005CE3 		cmp	ip, #1
 424 05c0 0130C1E5 		strb	r3, [r1, #1]
 425 05c4 0230C1C5 		strbgt	r3, [r1, #2]
 426              	.L50:
 427 05c8 090080E0 		add	r0, r0, r9
 428              	.L1:
 429 05cc 5CD08DE2 		add	sp, sp, #92
 430              		@ sp needed
 431 05d0 F08FBDE8 		pop	{r4, r5, r6, r7, r8, r9, r10, fp, pc}
 432              	.L10:
 433 05d4 0040A0E3 		mov	r4, #0
 434 05d8 04819FE5 		ldr	r8, .L156+8
 435 05dc 13908DE2 		add	r9, sp, #19
 436              	.L12:
 437 05e0 0500A0E1 		mov	r0, r5
 438 05e4 0610A0E1 		mov	r1, r6
 439 05e8 FEFFFFEB 		bl	__aeabi_uidiv
 440 05ec 05B0A0E1 		mov	fp, r5
 441 05f0 0610A0E1 		mov	r1, r6
 442 05f4 0050A0E1 		mov	r5, r0
 443 05f8 0B00A0E1 		mov	r0, fp
 444 05fc FEFFFFEB 		bl	__aeabi_uidivmod
 445 0600 0130D8E7 		ldrb	r3, [r8, r1]	@ zero_extendqisi2
 446 0604 014084E2 		add	r4, r4, #1
 447 0608 033087E1 		orr	r3, r7, r3
 448 060c 000055E3 		cmp	r5, #0
 449 0610 0130E9E5 		strb	r3, [r9, #1]!
 450 0614 0430A0E1 		mov	r3, r4
 451 0618 F0FFFF1A 		bne	.L12
 452 061c ACFEFFEA 		b	.L11
 453              	.L154:
 454 0620 000053E3 		cmp	r3, #0
 455 0624 0010A001 		moveq	r1, r0
 456 0628 CCFFFF0A 		beq	.L48
ARM GAS  C:\Users\ldebo\AppData\Local\Temp\ccevlpv4.s 			page 9


 457 062c ADFFFFEA 		b	.L47
 458              	.L67:
 459 0630 0A50A0E1 		mov	r5, r10
 460 0634 7AFFFFEA 		b	.L38
 461              	.L149:
 462 0638 00309DE5 		ldr	r3, [sp]
 463 063c 013043E2 		sub	r3, r3, #1
 464 0640 00308DE5 		str	r3, [sp]
 465 0644 2B30A0E3 		mov	r3, #43
 466 0648 0C308DE5 		str	r3, [sp, #12]
 467 064c 90FEFFEA 		b	.L5
 468              	.L151:
 469 0650 000051E3 		cmp	r1, #0
 470 0654 0A80A001 		moveq	r8, r10
 471 0658 CEFEFF0A 		beq	.L15
 472 065c AFFEFFEA 		b	.L14
 473              	.L153:
 474 0660 000051E3 		cmp	r1, #0
 475 0664 0AC0A001 		moveq	ip, r10
 476 0668 23FFFF0A 		beq	.L28
 477 066c 03FFFFEA 		b	.L27
 478              	.L150:
 479 0670 00309DE5 		ldr	r3, [sp]
 480 0674 000055E3 		cmp	r5, #0
 481 0678 023043E2 		sub	r3, r3, #2
 482 067c 00308DE5 		str	r3, [sp]
 483 0680 D3FFFF1A 		bne	.L10
 484 0684 8EFEFFEA 		b	.L155
 485              	.L148:
 486 0688 00309DE5 		ldr	r3, [sp]
 487 068c 005061E2 		rsb	r5, r1, #0
 488 0690 013043E2 		sub	r3, r3, #1
 489 0694 00308DE5 		str	r3, [sp]
 490 0698 2D30A0E3 		mov	r3, #45
 491 069c 0C308DE5 		str	r3, [sp, #12]
 492 06a0 7BFEFFEA 		b	.L5
 493              	.L56:
 494 06a4 0000A0E3 		mov	r0, #0
 495 06a8 5CD08DE2 		add	sp, sp, #92
 496              		@ sp needed
 497 06ac F08FBDE8 		pop	{r4, r5, r6, r7, r8, r9, r10, fp, pc}
 498              	.L152:
 499 06b0 0A10A0E1 		mov	r1, r10
 500 06b4 3000A0E3 		mov	r0, #48
 501 06b8 587087E3 		orr	r7, r7, #88
 502 06bc 0200C1E4 		strb	r0, [r1], #2
 503 06c0 0170CAE5 		strb	r7, [r10, #1]
 504 06c4 01A0A0E1 		mov	r10, r1
 505 06c8 DEFEFFEA 		b	.L24
 506              	.L61:
 507 06cc 0E90A0E1 		mov	r9, lr
 508 06d0 CEFEFFEA 		b	.L13
 509              	.L64:
 510 06d4 0E90A0E1 		mov	r9, lr
 511 06d8 27FFFFEA 		b	.L26
 512              	.L157:
 513              		.align	2
ARM GAS  C:\Users\ldebo\AppData\Local\Temp\ccevlpv4.s 			page 10


 514              	.L156:
 515 06dc 20202020 		.word	538976288
 516 06e0 30303030 		.word	808464432
 517 06e4 00000000 		.word	.LANCHOR0
 518              		.size	number, .-number
 519              		.align	2
 520              		.weak	strnlen
 521              		.syntax unified
 522              		.arm
 523              		.fpu vfp
 524              		.type	strnlen, %function
 525              	strnlen:
 526              		@ args = 0, pretend = 0, frame = 0
 527              		@ frame_needed = 0, uses_anonymous_args = 0
 528              		@ link register save eliminated.
 529 06e8 000051E3 		cmp	r1, #0
 530 06ec 0B00000A 		beq	.L161
 531 06f0 0030D0E5 		ldrb	r3, [r0]	@ zero_extendqisi2
 532 06f4 000053E3 		cmp	r3, #0
 533 06f8 0A00000A 		beq	.L162
 534 06fc 0030A0E1 		mov	r3, r0
 535 0700 0000A0E3 		mov	r0, #0
 536              	.L160:
 537 0704 010080E2 		add	r0, r0, #1
 538 0708 000051E1 		cmp	r1, r0
 539 070c 1EFF2F01 		bxeq	lr
 540 0710 0120F3E5 		ldrb	r2, [r3, #1]!	@ zero_extendqisi2
 541 0714 000052E3 		cmp	r2, #0
 542 0718 F9FFFF1A 		bne	.L160
 543 071c 1EFF2FE1 		bx	lr
 544              	.L161:
 545 0720 0100A0E1 		mov	r0, r1
 546 0724 1EFF2FE1 		bx	lr
 547              	.L162:
 548 0728 0300A0E1 		mov	r0, r3
 549 072c 1EFF2FE1 		bx	lr
 550              		.size	strnlen, .-strnlen
 551              		.align	2
 552              		.global	emb_vsprintf
 553              		.syntax unified
 554              		.arm
 555              		.fpu vfp
 556              		.type	emb_vsprintf, %function
 557              	emb_vsprintf:
 558              		@ args = 0, pretend = 0, frame = 8
 559              		@ frame_needed = 0, uses_anonymous_args = 0
 560 0730 F04F2DE9 		push	{r4, r5, r6, r7, r8, r9, r10, fp, lr}
 561 0734 0030D1E5 		ldrb	r3, [r1]	@ zero_extendqisi2
 562 0738 14D04DE2 		sub	sp, sp, #20
 563 073c 000053E3 		cmp	r3, #0
 564 0740 0050A0E1 		mov	r5, r0
 565 0744 F002000A 		beq	.L262
 566 0748 0180A0E1 		mov	r8, r1
 567 074c 0260A0E1 		mov	r6, r2
 568 0750 00B0A0E1 		mov	fp, r0
 569 0754 0070E0E3 		mvn	r7, #0
 570 0758 F4AB9FE5 		ldr	r10, .L375
ARM GAS  C:\Users\ldebo\AppData\Local\Temp\ccevlpv4.s 			page 11


 571 075c 050000EA 		b	.L255
 572              	.L368:
 573 0760 0030C5E5 		strb	r3, [r5]
 574 0764 0130D8E5 		ldrb	r3, [r8, #1]	@ zero_extendqisi2
 575 0768 015085E2 		add	r5, r5, #1
 576              	.L169:
 577 076c 000053E3 		cmp	r3, #0
 578 0770 018088E2 		add	r8, r8, #1
 579 0774 0D01000A 		beq	.L249
 580              	.L255:
 581 0778 250053E3 		cmp	r3, #37
 582 077c 0090A003 		moveq	r9, #0
 583 0780 F6FFFF1A 		bne	.L368
 584              	.L168:
 585 0784 0120D8E5 		ldrb	r2, [r8, #1]	@ zero_extendqisi2
 586 0788 014088E2 		add	r4, r8, #1
 587 078c 203042E2 		sub	r3, r2, #32
 588 0790 100053E3 		cmp	r3, #16
 589 0794 03F19F97 		ldrls	pc, [pc, r3, asl #2]
 590 0798 1B0000EA 		b	.L170
 591              	.L172:
 592 079c 04080000 		.word	.L171
 593 07a0 0C080000 		.word	.L170
 594 07a4 0C080000 		.word	.L170
 595 07a8 FC070000 		.word	.L173
 596 07ac 0C080000 		.word	.L170
 597 07b0 0C080000 		.word	.L170
 598 07b4 0C080000 		.word	.L170
 599 07b8 0C080000 		.word	.L170
 600 07bc 0C080000 		.word	.L170
 601 07c0 0C080000 		.word	.L170
 602 07c4 0C080000 		.word	.L170
 603 07c8 F4070000 		.word	.L174
 604 07cc 0C080000 		.word	.L170
 605 07d0 EC070000 		.word	.L175
 606 07d4 0C080000 		.word	.L170
 607 07d8 0C080000 		.word	.L170
 608 07dc E0070000 		.word	.L176
 609              	.L176:
 610 07e0 019089E3 		orr	r9, r9, #1
 611              	.L177:
 612 07e4 0480A0E1 		mov	r8, r4
 613 07e8 E5FFFFEA 		b	.L168
 614              	.L175:
 615 07ec 109089E3 		orr	r9, r9, #16
 616 07f0 FBFFFFEA 		b	.L177
 617              	.L174:
 618 07f4 049089E3 		orr	r9, r9, #4
 619 07f8 F9FFFFEA 		b	.L177
 620              	.L173:
 621 07fc 409089E3 		orr	r9, r9, #64
 622 0800 F7FFFFEA 		b	.L177
 623              	.L171:
 624 0804 089089E3 		orr	r9, r9, #8
 625 0808 F5FFFFEA 		b	.L177
 626              	.L170:
 627 080c 303042E2 		sub	r3, r2, #48
ARM GAS  C:\Users\ldebo\AppData\Local\Temp\ccevlpv4.s 			page 12


 628 0810 090053E3 		cmp	r3, #9
 629 0814 6600008A 		bhi	.L369
 630 0818 0030A0E3 		mov	r3, #0
 631              	.L257:
 632 081c 033183E0 		add	r3, r3, r3, lsl #2
 633 0820 833082E0 		add	r3, r2, r3, lsl #1
 634 0824 0120F4E5 		ldrb	r2, [r4, #1]!	@ zero_extendqisi2
 635 0828 303043E2 		sub	r3, r3, #48
 636 082c 301042E2 		sub	r1, r2, #48
 637 0830 090051E3 		cmp	r1, #9
 638 0834 F8FFFF9A 		bls	.L257
 639              	.L181:
 640 0838 2E0052E3 		cmp	r2, #46
 641 083c 07C0A011 		movne	ip, r7
 642 0840 6800000A 		beq	.L370
 643              	.L182:
 644 0844 DF1002E2 		and	r1, r2, #223
 645 0848 680052E3 		cmp	r2, #104
 646 084c 4C005113 		cmpne	r1, #76
 647 0850 7400000A 		beq	.L371
 648 0854 252042E2 		sub	r2, r2, #37
 649 0858 530052E3 		cmp	r2, #83
 650 085c 02F19F97 		ldrls	pc, [pc, r2, asl #2]
 651 0860 CC0000EA 		b	.L186
 652              	.L261:
 653 0864 BC110000 		.word	.L187
 654 0868 980B0000 		.word	.L186
 655 086c 980B0000 		.word	.L186
 656 0870 980B0000 		.word	.L186
 657 0874 980B0000 		.word	.L186
 658 0878 980B0000 		.word	.L186
 659 087c 980B0000 		.word	.L186
 660 0880 980B0000 		.word	.L186
 661 0884 980B0000 		.word	.L186
 662 0888 980B0000 		.word	.L186
 663 088c 980B0000 		.word	.L186
 664 0890 980B0000 		.word	.L186
 665 0894 980B0000 		.word	.L186
 666 0898 980B0000 		.word	.L186
 667 089c 980B0000 		.word	.L186
 668 08a0 980B0000 		.word	.L186
 669 08a4 980B0000 		.word	.L186
 670 08a8 980B0000 		.word	.L186
 671 08ac 980B0000 		.word	.L186
 672 08b0 980B0000 		.word	.L186
 673 08b4 980B0000 		.word	.L186
 674 08b8 980B0000 		.word	.L186
 675 08bc 980B0000 		.word	.L186
 676 08c0 980B0000 		.word	.L186
 677 08c4 980B0000 		.word	.L186
 678 08c8 980B0000 		.word	.L186
 679 08cc 980B0000 		.word	.L186
 680 08d0 980B0000 		.word	.L186
 681 08d4 980B0000 		.word	.L186
 682 08d8 980B0000 		.word	.L186
 683 08dc 980B0000 		.word	.L186
 684 08e0 980B0000 		.word	.L186
ARM GAS  C:\Users\ldebo\AppData\Local\Temp\ccevlpv4.s 			page 13


 685 08e4 980B0000 		.word	.L186
 686 08e8 980B0000 		.word	.L186
 687 08ec 980B0000 		.word	.L186
 688 08f0 980B0000 		.word	.L186
 689 08f4 980B0000 		.word	.L186
 690 08f8 980B0000 		.word	.L186
 691 08fc 980B0000 		.word	.L186
 692 0900 980B0000 		.word	.L186
 693 0904 980B0000 		.word	.L186
 694 0908 980B0000 		.word	.L186
 695 090c 980B0000 		.word	.L186
 696 0910 980B0000 		.word	.L186
 697 0914 980B0000 		.word	.L186
 698 0918 980B0000 		.word	.L186
 699 091c 980B0000 		.word	.L186
 700 0920 980B0000 		.word	.L186
 701 0924 980B0000 		.word	.L186
 702 0928 980B0000 		.word	.L186
 703 092c 980B0000 		.word	.L186
 704 0930 3C120000 		.word	.L279
 705 0934 980B0000 		.word	.L186
 706 0938 980B0000 		.word	.L186
 707 093c 980B0000 		.word	.L186
 708 0940 980B0000 		.word	.L186
 709 0944 980B0000 		.word	.L186
 710 0948 980B0000 		.word	.L186
 711 094c 980B0000 		.word	.L186
 712 0950 980B0000 		.word	.L186
 713 0954 980B0000 		.word	.L186
 714 0958 980B0000 		.word	.L186
 715 095c 440F0000 		.word	.L190
 716 0960 00120000 		.word	.L280
 717 0964 980B0000 		.word	.L186
 718 0968 980B0000 		.word	.L186
 719 096c 980B0000 		.word	.L186
 720 0970 980B0000 		.word	.L186
 721 0974 00120000 		.word	.L280
 722 0978 980B0000 		.word	.L186
 723 097c 980B0000 		.word	.L186
 724 0980 980B0000 		.word	.L186
 725 0984 980B0000 		.word	.L186
 726 0988 68120000 		.word	.L247
 727 098c D4110000 		.word	.L281
 728 0990 080F0000 		.word	.L194
 729 0994 980B0000 		.word	.L186
 730 0998 980B0000 		.word	.L186
 731 099c DC0B0000 		.word	.L195
 732 09a0 980B0000 		.word	.L186
 733 09a4 4C120000 		.word	.L282
 734 09a8 980B0000 		.word	.L186
 735 09ac 980B0000 		.word	.L186
 736 09b0 58120000 		.word	.L283
 737              	.L369:
 738 09b4 2A0052E3 		cmp	r2, #42
 739 09b8 0030E013 		mvnne	r3, #0
 740 09bc 9DFFFF1A 		bne	.L181
 741 09c0 003096E5 		ldr	r3, [r6]
ARM GAS  C:\Users\ldebo\AppData\Local\Temp\ccevlpv4.s 			page 14


 742 09c4 0220D8E5 		ldrb	r2, [r8, #2]	@ zero_extendqisi2
 743 09c8 000053E3 		cmp	r3, #0
 744 09cc 003063B2 		rsblt	r3, r3, #0
 745 09d0 109089B3 		orrlt	r9, r9, #16
 746 09d4 2E0052E3 		cmp	r2, #46
 747 09d8 046086E2 		add	r6, r6, #4
 748 09dc 024088E2 		add	r4, r8, #2
 749 09e0 07C0A011 		movne	ip, r7
 750 09e4 96FFFF1A 		bne	.L182
 751              	.L370:
 752 09e8 0120D4E5 		ldrb	r2, [r4, #1]	@ zero_extendqisi2
 753 09ec 011084E2 		add	r1, r4, #1
 754 09f0 300042E2 		sub	r0, r2, #48
 755 09f4 090050E3 		cmp	r0, #9
 756 09f8 7100008A 		bhi	.L372
 757 09fc 00C0A0E3 		mov	ip, #0
 758              	.L259:
 759 0a00 0CC18CE0 		add	ip, ip, ip, lsl #2
 760 0a04 8CC082E0 		add	ip, r2, ip, lsl #1
 761 0a08 0120D1E5 		ldrb	r2, [r1, #1]	@ zero_extendqisi2
 762 0a0c 014081E2 		add	r4, r1, #1
 763 0a10 301042E2 		sub	r1, r2, #48
 764 0a14 090051E3 		cmp	r1, #9
 765 0a18 30C04CE2 		sub	ip, ip, #48
 766 0a1c 0410A0E1 		mov	r1, r4
 767 0a20 F6FFFF9A 		bls	.L259
 768 0a24 86FFFFEA 		b	.L182
 769              	.L371:
 770 0a28 0110D4E5 		ldrb	r1, [r4, #1]	@ zero_extendqisi2
 771 0a2c 0200A0E1 		mov	r0, r2
 772 0a30 251041E2 		sub	r1, r1, #37
 773 0a34 018084E2 		add	r8, r4, #1
 774 0a38 530051E3 		cmp	r1, #83
 775 0a3c 01F19F97 		ldrls	pc, [pc, r1, asl #2]
 776 0a40 530000EA 		b	.L264
 777              	.L188:
 778 0a44 B8110000 		.word	.L265
 779 0a48 940B0000 		.word	.L264
 780 0a4c 940B0000 		.word	.L264
 781 0a50 940B0000 		.word	.L264
 782 0a54 940B0000 		.word	.L264
 783 0a58 940B0000 		.word	.L264
 784 0a5c 940B0000 		.word	.L264
 785 0a60 940B0000 		.word	.L264
 786 0a64 940B0000 		.word	.L264
 787 0a68 940B0000 		.word	.L264
 788 0a6c 940B0000 		.word	.L264
 789 0a70 940B0000 		.word	.L264
 790 0a74 940B0000 		.word	.L264
 791 0a78 940B0000 		.word	.L264
 792 0a7c 940B0000 		.word	.L264
 793 0a80 940B0000 		.word	.L264
 794 0a84 940B0000 		.word	.L264
 795 0a88 940B0000 		.word	.L264
 796 0a8c 940B0000 		.word	.L264
 797 0a90 940B0000 		.word	.L264
 798 0a94 940B0000 		.word	.L264
ARM GAS  C:\Users\ldebo\AppData\Local\Temp\ccevlpv4.s 			page 15


 799 0a98 940B0000 		.word	.L264
 800 0a9c 940B0000 		.word	.L264
 801 0aa0 940B0000 		.word	.L264
 802 0aa4 940B0000 		.word	.L264
 803 0aa8 940B0000 		.word	.L264
 804 0aac 940B0000 		.word	.L264
 805 0ab0 940B0000 		.word	.L264
 806 0ab4 940B0000 		.word	.L264
 807 0ab8 940B0000 		.word	.L264
 808 0abc 940B0000 		.word	.L264
 809 0ac0 940B0000 		.word	.L264
 810 0ac4 940B0000 		.word	.L264
 811 0ac8 940B0000 		.word	.L264
 812 0acc 940B0000 		.word	.L264
 813 0ad0 940B0000 		.word	.L264
 814 0ad4 940B0000 		.word	.L264
 815 0ad8 940B0000 		.word	.L264
 816 0adc 940B0000 		.word	.L264
 817 0ae0 940B0000 		.word	.L264
 818 0ae4 940B0000 		.word	.L264
 819 0ae8 940B0000 		.word	.L264
 820 0aec 940B0000 		.word	.L264
 821 0af0 940B0000 		.word	.L264
 822 0af4 940B0000 		.word	.L264
 823 0af8 940B0000 		.word	.L264
 824 0afc 940B0000 		.word	.L264
 825 0b00 940B0000 		.word	.L264
 826 0b04 940B0000 		.word	.L264
 827 0b08 940B0000 		.word	.L264
 828 0b0c 940B0000 		.word	.L264
 829 0b10 8C120000 		.word	.L266
 830 0b14 940B0000 		.word	.L264
 831 0b18 940B0000 		.word	.L264
 832 0b1c 940B0000 		.word	.L264
 833 0b20 940B0000 		.word	.L264
 834 0b24 940B0000 		.word	.L264
 835 0b28 940B0000 		.word	.L264
 836 0b2c 940B0000 		.word	.L264
 837 0b30 940B0000 		.word	.L264
 838 0b34 940B0000 		.word	.L264
 839 0b38 940B0000 		.word	.L264
 840 0b3c 400F0000 		.word	.L267
 841 0b40 94120000 		.word	.L268
 842 0b44 940B0000 		.word	.L264
 843 0b48 940B0000 		.word	.L264
 844 0b4c 940B0000 		.word	.L264
 845 0b50 940B0000 		.word	.L264
 846 0b54 94120000 		.word	.L268
 847 0b58 940B0000 		.word	.L264
 848 0b5c 940B0000 		.word	.L264
 849 0b60 940B0000 		.word	.L264
 850 0b64 940B0000 		.word	.L264
 851 0b68 AC120000 		.word	.L192
 852 0b6c 9C120000 		.word	.L269
 853 0b70 040F0000 		.word	.L270
 854 0b74 940B0000 		.word	.L264
 855 0b78 940B0000 		.word	.L264
ARM GAS  C:\Users\ldebo\AppData\Local\Temp\ccevlpv4.s 			page 16


 856 0b7c D80B0000 		.word	.L271
 857 0b80 940B0000 		.word	.L264
 858 0b84 A4120000 		.word	.L196
 859 0b88 940B0000 		.word	.L264
 860 0b8c 940B0000 		.word	.L264
 861 0b90 84120000 		.word	.L272
 862              	.L264:
 863 0b94 0840A0E1 		mov	r4, r8
 864              	.L186:
 865 0b98 2530A0E3 		mov	r3, #37
 866 0b9c 0030C5E5 		strb	r3, [r5]
 867 0ba0 0030D4E5 		ldrb	r3, [r4]	@ zero_extendqisi2
 868 0ba4 000053E3 		cmp	r3, #0
 869 0ba8 C701001A 		bne	.L373
 870 0bac 015085E2 		add	r5, r5, #1
 871              	.L249:
 872 0bb0 0B0045E0 		sub	r0, r5, fp
 873              	.L166:
 874 0bb4 0030A0E3 		mov	r3, #0
 875 0bb8 0030C5E5 		strb	r3, [r5]
 876 0bbc 14D08DE2 		add	sp, sp, #20
 877              		@ sp needed
 878 0bc0 F08FBDE8 		pop	{r4, r5, r6, r7, r8, r9, r10, fp, pc}
 879              	.L372:
 880 0bc4 2A0052E3 		cmp	r2, #42
 881 0bc8 C901000A 		beq	.L258
 882 0bcc 0140A0E1 		mov	r4, r1
 883 0bd0 00C0A0E3 		mov	ip, #0
 884 0bd4 1AFFFFEA 		b	.L182
 885              	.L271:
 886 0bd8 0840A0E1 		mov	r4, r8
 887              	.L195:
 888 0bdc 008096E5 		ldr	r8, [r6]
 889 0be0 0C10A0E1 		mov	r1, ip
 890 0be4 0800A0E1 		mov	r0, r8
 891 0be8 08308DE5 		str	r3, [sp, #8]
 892 0bec FEFFFFEB 		bl	strnlen
 893 0bf0 043086E2 		add	r3, r6, #4
 894 0bf4 100019E3 		tst	r9, #16
 895 0bf8 0C308DE5 		str	r3, [sp, #12]
 896 0bfc 08309DE5 		ldr	r3, [sp, #8]
 897 0c00 4800001A 		bne	.L218
 898 0c04 000053E1 		cmp	r3, r0
 899 0c08 011043E2 		sub	r1, r3, #1
 900 0c0c CC0100DA 		ble	.L275
 901 0c10 002065E2 		rsb	r2, r5, #0
 902 0c14 032002E2 		and	r2, r2, #3
 903 0c18 00C043E0 		sub	ip, r3, r0
 904 0c1c 0C0052E1 		cmp	r2, ip
 905 0c20 0C20A021 		movcs	r2, ip
 906 0c24 06005CE3 		cmp	ip, #6
 907 0c28 0C20A091 		movls	r2, ip
 908 0c2c 000052E3 		cmp	r2, #0
 909 0c30 BE01000A 		beq	.L276
 910 0c34 2060A0E3 		mov	r6, #32
 911 0c38 010052E3 		cmp	r2, #1
 912 0c3c 0060C5E5 		strb	r6, [r5]
ARM GAS  C:\Users\ldebo\AppData\Local\Temp\ccevlpv4.s 			page 17


 913 0c40 01E085E2 		add	lr, r5, #1
 914 0c44 021043E2 		sub	r1, r3, #2
 915 0c48 1500000A 		beq	.L221
 916 0c4c 020052E3 		cmp	r2, #2
 917 0c50 0160C5E5 		strb	r6, [r5, #1]
 918 0c54 02E085E2 		add	lr, r5, #2
 919 0c58 031043E2 		sub	r1, r3, #3
 920 0c5c 1000000A 		beq	.L221
 921 0c60 030052E3 		cmp	r2, #3
 922 0c64 0260C5E5 		strb	r6, [r5, #2]
 923 0c68 03E085E2 		add	lr, r5, #3
 924 0c6c 041043E2 		sub	r1, r3, #4
 925 0c70 0B00000A 		beq	.L221
 926 0c74 040052E3 		cmp	r2, #4
 927 0c78 0360C5E5 		strb	r6, [r5, #3]
 928 0c7c 04E085E2 		add	lr, r5, #4
 929 0c80 051043E2 		sub	r1, r3, #5
 930 0c84 0600000A 		beq	.L221
 931 0c88 060052E3 		cmp	r2, #6
 932 0c8c 05E085E2 		add	lr, r5, #5
 933 0c90 061043E2 		sub	r1, r3, #6
 934 0c94 0460C5E5 		strb	r6, [r5, #4]
 935 0c98 0560C505 		strbeq	r6, [r5, #5]
 936 0c9c 07104302 		subeq	r1, r3, #7
 937 0ca0 06E08502 		addeq	lr, r5, #6
 938              	.L221:
 939 0ca4 02005CE1 		cmp	ip, r2
 940 0ca8 1C00000A 		beq	.L222
 941              	.L220:
 942 0cac 02304CE0 		sub	r3, ip, r2
 943 0cb0 08308DE5 		str	r3, [sp, #8]
 944 0cb4 01604CE2 		sub	r6, ip, #1
 945 0cb8 043043E2 		sub	r3, r3, #4
 946 0cbc 2331A0E1 		lsr	r3, r3, #2
 947 0cc0 026046E0 		sub	r6, r6, r2
 948 0cc4 013083E2 		add	r3, r3, #1
 949 0cc8 020056E3 		cmp	r6, #2
 950 0ccc 0391A0E1 		lsl	r9, r3, #2
 951 0cd0 0A00009A 		bls	.L223
 952 0cd4 0060A0E3 		mov	r6, #0
 953 0cd8 022085E0 		add	r2, r5, r2
 954              	.L224:
 955 0cdc 016086E2 		add	r6, r6, #1
 956 0ce0 030056E1 		cmp	r6, r3
 957 0ce4 04A082E4 		str	r10, [r2], #4
 958 0ce8 FBFFFF3A 		bcc	.L224
 959 0cec 08309DE5 		ldr	r3, [sp, #8]
 960 0cf0 09E08EE0 		add	lr, lr, r9
 961 0cf4 090053E1 		cmp	r3, r9
 962 0cf8 091041E0 		sub	r1, r1, r9
 963 0cfc 0700000A 		beq	.L222
 964              	.L223:
 965 0d00 2030A0E3 		mov	r3, #32
 966 0d04 010050E1 		cmp	r0, r1
 967 0d08 0030CEE5 		strb	r3, [lr]
 968 0d0c 011041E2 		sub	r1, r1, #1
 969 0d10 020000AA 		bge	.L222
ARM GAS  C:\Users\ldebo\AppData\Local\Temp\ccevlpv4.s 			page 18


 970 0d14 010050E1 		cmp	r0, r1
 971 0d18 0130CEE5 		strb	r3, [lr, #1]
 972 0d1c 0230CEB5 		strblt	r3, [lr, #2]
 973              	.L222:
 974 0d20 0C5085E0 		add	r5, r5, ip
 975 0d24 013040E2 		sub	r3, r0, #1
 976              	.L218:
 977 0d28 000050E3 		cmp	r0, #0
 978 0d2c 2A0000DA 		ble	.L228
 979 0d30 042085E2 		add	r2, r5, #4
 980 0d34 041088E2 		add	r1, r8, #4
 981 0d38 010055E1 		cmp	r5, r1
 982 0d3c 02005831 		cmpcc	r8, r2
 983 0d40 0120A023 		movcs	r2, #1
 984 0d44 0020A033 		movcc	r2, #0
 985 0d48 051088E1 		orr	r1, r8, r5
 986 0d4c 090050E3 		cmp	r0, #9
 987 0d50 0020A093 		movls	r2, #0
 988 0d54 01200282 		andhi	r2, r2, #1
 989 0d58 030011E3 		tst	r1, #3
 990 0d5c 0020A013 		movne	r2, #0
 991 0d60 01200202 		andeq	r2, r2, #1
 992 0d64 000052E3 		cmp	r2, #0
 993 0d68 6901000A 		beq	.L229
 994 0d6c 0560A0E1 		mov	r6, r5
 995 0d70 00C0A0E3 		mov	ip, #0
 996 0d74 042040E2 		sub	r2, r0, #4
 997 0d78 2221A0E1 		lsr	r2, r2, #2
 998 0d7c 012082E2 		add	r2, r2, #1
 999 0d80 0211A0E1 		lsl	r1, r2, #2
 1000 0d84 04E048E2 		sub	lr, r8, #4
 1001              	.L230:
 1002 0d88 01C08CE2 		add	ip, ip, #1
 1003 0d8c 0490BEE5 		ldr	r9, [lr, #4]!
 1004 0d90 0C0052E1 		cmp	r2, ip
 1005 0d94 049086E4 		str	r9, [r6], #4
 1006 0d98 FAFFFF8A 		bhi	.L230
 1007 0d9c 010050E1 		cmp	r0, r1
 1008 0da0 01C085E0 		add	ip, r5, r1
 1009 0da4 01E088E0 		add	lr, r8, r1
 1010 0da8 0A00000A 		beq	.L235
 1011 0dac 0261D8E7 		ldrb	r6, [r8, r2, lsl #2]	@ zero_extendqisi2
 1012 0db0 018081E2 		add	r8, r1, #1
 1013 0db4 080050E1 		cmp	r0, r8
 1014 0db8 0261C5E7 		strb	r6, [r5, r2, lsl #2]
 1015 0dbc 050000DA 		ble	.L235
 1016 0dc0 021081E2 		add	r1, r1, #2
 1017 0dc4 0120DEE5 		ldrb	r2, [lr, #1]	@ zero_extendqisi2
 1018 0dc8 010050E1 		cmp	r0, r1
 1019 0dcc 0120CCE5 		strb	r2, [ip, #1]
 1020 0dd0 0220DEC5 		ldrbgt	r2, [lr, #2]	@ zero_extendqisi2
 1021 0dd4 0220CCC5 		strbgt	r2, [ip, #2]
 1022              	.L235:
 1023 0dd8 005085E0 		add	r5, r5, r0
 1024              	.L228:
 1025 0ddc 000053E1 		cmp	r3, r0
 1026 0de0 011043E2 		sub	r1, r3, #1
ARM GAS  C:\Users\ldebo\AppData\Local\Temp\ccevlpv4.s 			page 19


 1027 0de4 420000DA 		ble	.L360
 1028 0de8 002065E2 		rsb	r2, r5, #0
 1029 0dec 032002E2 		and	r2, r2, #3
 1030 0df0 00C043E0 		sub	ip, r3, r0
 1031 0df4 0C0052E1 		cmp	r2, ip
 1032 0df8 0C20A021 		movcs	r2, ip
 1033 0dfc 06005CE3 		cmp	ip, #6
 1034 0e00 0C20A091 		movls	r2, ip
 1035 0e04 000052E3 		cmp	r2, #0
 1036 0e08 3401000A 		beq	.L277
 1037 0e0c 2060A0E3 		mov	r6, #32
 1038 0e10 010052E3 		cmp	r2, #1
 1039 0e14 0060C5E5 		strb	r6, [r5]
 1040 0e18 01E085E2 		add	lr, r5, #1
 1041 0e1c 021043E2 		sub	r1, r3, #2
 1042 0e20 1500000A 		beq	.L239
 1043 0e24 020052E3 		cmp	r2, #2
 1044 0e28 0160C5E5 		strb	r6, [r5, #1]
 1045 0e2c 02E085E2 		add	lr, r5, #2
 1046 0e30 031043E2 		sub	r1, r3, #3
 1047 0e34 1000000A 		beq	.L239
 1048 0e38 030052E3 		cmp	r2, #3
 1049 0e3c 0260C5E5 		strb	r6, [r5, #2]
 1050 0e40 03E085E2 		add	lr, r5, #3
 1051 0e44 041043E2 		sub	r1, r3, #4
 1052 0e48 0B00000A 		beq	.L239
 1053 0e4c 040052E3 		cmp	r2, #4
 1054 0e50 0360C5E5 		strb	r6, [r5, #3]
 1055 0e54 04E085E2 		add	lr, r5, #4
 1056 0e58 051043E2 		sub	r1, r3, #5
 1057 0e5c 0600000A 		beq	.L239
 1058 0e60 060052E3 		cmp	r2, #6
 1059 0e64 05E085E2 		add	lr, r5, #5
 1060 0e68 061043E2 		sub	r1, r3, #6
 1061 0e6c 0460C5E5 		strb	r6, [r5, #4]
 1062 0e70 0560C505 		strbeq	r6, [r5, #5]
 1063 0e74 07104302 		subeq	r1, r3, #7
 1064 0e78 06E08502 		addeq	lr, r5, #6
 1065              	.L239:
 1066 0e7c 02005CE1 		cmp	ip, r2
 1067 0e80 1A00000A 		beq	.L240
 1068              	.L238:
 1069 0e84 02904CE0 		sub	r9, ip, r2
 1070 0e88 043049E2 		sub	r3, r9, #4
 1071 0e8c 01604CE2 		sub	r6, ip, #1
 1072 0e90 2331A0E1 		lsr	r3, r3, #2
 1073 0e94 026046E0 		sub	r6, r6, r2
 1074 0e98 013083E2 		add	r3, r3, #1
 1075 0e9c 020056E3 		cmp	r6, #2
 1076 0ea0 0381A0E1 		lsl	r8, r3, #2
 1077 0ea4 0900009A 		bls	.L241
 1078 0ea8 0060A0E3 		mov	r6, #0
 1079 0eac 022085E0 		add	r2, r5, r2
 1080              	.L242:
 1081 0eb0 016086E2 		add	r6, r6, #1
 1082 0eb4 060053E1 		cmp	r3, r6
 1083 0eb8 04A082E4 		str	r10, [r2], #4
ARM GAS  C:\Users\ldebo\AppData\Local\Temp\ccevlpv4.s 			page 20


 1084 0ebc FBFFFF8A 		bhi	.L242
 1085 0ec0 080059E1 		cmp	r9, r8
 1086 0ec4 08E08EE0 		add	lr, lr, r8
 1087 0ec8 081041E0 		sub	r1, r1, r8
 1088 0ecc 0700000A 		beq	.L240
 1089              	.L241:
 1090 0ed0 2030A0E3 		mov	r3, #32
 1091 0ed4 010050E1 		cmp	r0, r1
 1092 0ed8 0030CEE5 		strb	r3, [lr]
 1093 0edc 011041E2 		sub	r1, r1, #1
 1094 0ee0 020000AA 		bge	.L240
 1095 0ee4 010050E1 		cmp	r0, r1
 1096 0ee8 0130CEE5 		strb	r3, [lr, #1]
 1097 0eec 0230CEB5 		strblt	r3, [lr, #2]
 1098              	.L240:
 1099 0ef0 0C5085E0 		add	r5, r5, ip
 1100              	.L360:
 1101 0ef4 0C609DE5 		ldr	r6, [sp, #12]
 1102 0ef8 0130D4E5 		ldrb	r3, [r4, #1]	@ zero_extendqisi2
 1103 0efc 0480A0E1 		mov	r8, r4
 1104 0f00 19FEFFEA 		b	.L169
 1105              	.L270:
 1106 0f04 0840A0E1 		mov	r4, r8
 1107              	.L194:
 1108 0f08 010073E3 		cmn	r3, #1
 1109 0f0c 01908903 		orreq	r9, r9, #1
 1110 0f10 001096E5 		ldr	r1, [r6]
 1111 0f14 0830A003 		moveq	r3, #8
 1112 0f18 0500A0E1 		mov	r0, r5
 1113 0f1c 04908DE5 		str	r9, [sp, #4]
 1114 0f20 00C08DE5 		str	ip, [sp]
 1115 0f24 1020A0E3 		mov	r2, #16
 1116 0f28 046086E2 		add	r6, r6, #4
 1117 0f2c 33FCFFEB 		bl	number
 1118              	.L359:
 1119 0f30 0050A0E1 		mov	r5, r0
 1120 0f34 0130D4E5 		ldrb	r3, [r4, #1]	@ zero_extendqisi2
 1121 0f38 0480A0E1 		mov	r8, r4
 1122 0f3c 0AFEFFEA 		b	.L169
 1123              	.L267:
 1124 0f40 0840A0E1 		mov	r4, r8
 1125              	.L190:
 1126 0f44 100019E3 		tst	r9, #16
 1127 0f48 4B00001A 		bne	.L198
 1128 0f4c 011043E2 		sub	r1, r3, #1
 1129 0f50 000051E3 		cmp	r1, #0
 1130 0f54 FC0000DA 		ble	.L273
 1131 0f58 002065E2 		rsb	r2, r5, #0
 1132 0f5c 032002E2 		and	r2, r2, #3
 1133 0f60 010052E1 		cmp	r2, r1
 1134 0f64 0120A021 		movcs	r2, r1
 1135 0f68 060051E3 		cmp	r1, #6
 1136 0f6c 0120A091 		movls	r2, r1
 1137 0f70 000052E3 		cmp	r2, #0
 1138 0f74 0180A0E1 		mov	r8, r1
 1139 0f78 EE00000A 		beq	.L274
 1140 0f7c 20C0A0E3 		mov	ip, #32
ARM GAS  C:\Users\ldebo\AppData\Local\Temp\ccevlpv4.s 			page 21


 1141 0f80 029043E2 		sub	r9, r3, #2
 1142 0f84 010052E3 		cmp	r2, #1
 1143 0f88 00C0C5E5 		strb	ip, [r5]
 1144 0f8c 0910A0E1 		mov	r1, r9
 1145 0f90 010085E2 		add	r0, r5, #1
 1146 0f94 1500000A 		beq	.L201
 1147 0f98 020052E3 		cmp	r2, #2
 1148 0f9c 01C0C5E5 		strb	ip, [r5, #1]
 1149 0fa0 020085E2 		add	r0, r5, #2
 1150 0fa4 031043E2 		sub	r1, r3, #3
 1151 0fa8 1000000A 		beq	.L201
 1152 0fac 030052E3 		cmp	r2, #3
 1153 0fb0 02C0C5E5 		strb	ip, [r5, #2]
 1154 0fb4 030085E2 		add	r0, r5, #3
 1155 0fb8 041043E2 		sub	r1, r3, #4
 1156 0fbc 0B00000A 		beq	.L201
 1157 0fc0 040052E3 		cmp	r2, #4
 1158 0fc4 03C0C5E5 		strb	ip, [r5, #3]
 1159 0fc8 040085E2 		add	r0, r5, #4
 1160 0fcc 051043E2 		sub	r1, r3, #5
 1161 0fd0 0600000A 		beq	.L201
 1162 0fd4 060052E3 		cmp	r2, #6
 1163 0fd8 050085E2 		add	r0, r5, #5
 1164 0fdc 061043E2 		sub	r1, r3, #6
 1165 0fe0 04C0C5E5 		strb	ip, [r5, #4]
 1166 0fe4 05C0C505 		strbeq	ip, [r5, #5]
 1167 0fe8 06008502 		addeq	r0, r5, #6
 1168 0fec 07104302 		subeq	r1, r3, #7
 1169              	.L201:
 1170 0ff0 080052E1 		cmp	r2, r8
 1171 0ff4 1D00000A 		beq	.L202
 1172              	.L200:
 1173 0ff8 02C048E0 		sub	ip, r8, r2
 1174 0ffc 0CC08DE5 		str	ip, [sp, #12]
 1175 1000 04C04CE2 		sub	ip, ip, #4
 1176 1004 2CC1A0E1 		lsr	ip, ip, #2
 1177 1008 02E049E0 		sub	lr, r9, r2
 1178 100c 01C08CE2 		add	ip, ip, #1
 1179 1010 02005EE3 		cmp	lr, #2
 1180 1014 0CE1A0E1 		lsl	lr, ip, #2
 1181 1018 08E08DE5 		str	lr, [sp, #8]
 1182 101c 0B00009A 		bls	.L203
 1183 1020 00E0A0E3 		mov	lr, #0
 1184 1024 022085E0 		add	r2, r5, r2
 1185              	.L204:
 1186 1028 01E08EE2 		add	lr, lr, #1
 1187 102c 0E005CE1 		cmp	ip, lr
 1188 1030 04A082E4 		str	r10, [r2], #4
 1189 1034 FBFFFF8A 		bhi	.L204
 1190 1038 08209DE5 		ldr	r2, [sp, #8]
 1191 103c 0CC09DE5 		ldr	ip, [sp, #12]
 1192 1040 020080E0 		add	r0, r0, r2
 1193 1044 0C0052E1 		cmp	r2, ip
 1194 1048 021041E0 		sub	r1, r1, r2
 1195 104c 0700000A 		beq	.L202
 1196              	.L203:
 1197 1050 2020A0E3 		mov	r2, #32
ARM GAS  C:\Users\ldebo\AppData\Local\Temp\ccevlpv4.s 			page 22


 1198 1054 01C041E2 		sub	ip, r1, #1
 1199 1058 00005CE3 		cmp	ip, #0
 1200 105c 0020C0E5 		strb	r2, [r0]
 1201 1060 020000DA 		ble	.L202
 1202 1064 020051E3 		cmp	r1, #2
 1203 1068 0120C0E5 		strb	r2, [r0, #1]
 1204 106c 0220C015 		strbne	r2, [r0, #2]
 1205              	.L202:
 1206 1070 023063E2 		rsb	r3, r3, #2
 1207 1074 033089E0 		add	r3, r9, r3
 1208 1078 085085E0 		add	r5, r5, r8
 1209              	.L198:
 1210 107c 002096E5 		ldr	r2, [r6]
 1211 1080 011043E2 		sub	r1, r3, #1
 1212 1084 000051E3 		cmp	r1, #0
 1213 1088 0020C5E5 		strb	r2, [r5]
 1214 108c 046086E2 		add	r6, r6, #4
 1215 1090 010085E2 		add	r0, r5, #1
 1216 1094 A5FFFFDA 		ble	.L359
 1217 1098 002060E2 		rsb	r2, r0, #0
 1218 109c 032002E2 		and	r2, r2, #3
 1219 10a0 010052E1 		cmp	r2, r1
 1220 10a4 0120A021 		movcs	r2, r1
 1221 10a8 060051E3 		cmp	r1, #6
 1222 10ac 0120A091 		movls	r2, r1
 1223 10b0 000052E3 		cmp	r2, #0
 1224 10b4 01E0A0E1 		mov	lr, r1
 1225 10b8 02904302 		subeq	r9, r3, #2
 1226 10bc 1E00000A 		beq	.L210
 1227 10c0 20C0A0E3 		mov	ip, #32
 1228 10c4 029043E2 		sub	r9, r3, #2
 1229 10c8 010052E3 		cmp	r2, #1
 1230 10cc 01C0C5E5 		strb	ip, [r5, #1]
 1231 10d0 0910A0E1 		mov	r1, r9
 1232 10d4 020085E2 		add	r0, r5, #2
 1233 10d8 1500000A 		beq	.L211
 1234 10dc 020052E3 		cmp	r2, #2
 1235 10e0 02C0C5E5 		strb	ip, [r5, #2]
 1236 10e4 030085E2 		add	r0, r5, #3
 1237 10e8 031043E2 		sub	r1, r3, #3
 1238 10ec 1000000A 		beq	.L211
 1239 10f0 030052E3 		cmp	r2, #3
 1240 10f4 03C0C5E5 		strb	ip, [r5, #3]
 1241 10f8 040085E2 		add	r0, r5, #4
 1242 10fc 041043E2 		sub	r1, r3, #4
 1243 1100 0B00000A 		beq	.L211
 1244 1104 040052E3 		cmp	r2, #4
 1245 1108 04C0C5E5 		strb	ip, [r5, #4]
 1246 110c 050085E2 		add	r0, r5, #5
 1247 1110 051043E2 		sub	r1, r3, #5
 1248 1114 0600000A 		beq	.L211
 1249 1118 060052E3 		cmp	r2, #6
 1250 111c 060085E2 		add	r0, r5, #6
 1251 1120 061043E2 		sub	r1, r3, #6
 1252 1124 05C0C5E5 		strb	ip, [r5, #5]
 1253 1128 06C0C505 		strbeq	ip, [r5, #6]
 1254 112c 07008502 		addeq	r0, r5, #7
ARM GAS  C:\Users\ldebo\AppData\Local\Temp\ccevlpv4.s 			page 23


 1255 1130 07104302 		subeq	r1, r3, #7
 1256              	.L211:
 1257 1134 0E0052E1 		cmp	r2, lr
 1258 1138 1A00000A 		beq	.L212
 1259              	.L210:
 1260 113c 02E04EE0 		sub	lr, lr, r2
 1261 1140 04C04EE2 		sub	ip, lr, #4
 1262 1144 028049E0 		sub	r8, r9, r2
 1263 1148 2CC1A0E1 		lsr	ip, ip, #2
 1264 114c 01C08CE2 		add	ip, ip, #1
 1265 1150 020058E3 		cmp	r8, #2
 1266 1154 0C91A0E1 		lsl	r9, ip, #2
 1267 1158 0A00009A 		bls	.L213
 1268 115c 0080A0E3 		mov	r8, #0
 1269 1160 012082E2 		add	r2, r2, #1
 1270 1164 022085E0 		add	r2, r5, r2
 1271              	.L214:
 1272 1168 018088E2 		add	r8, r8, #1
 1273 116c 08005CE1 		cmp	ip, r8
 1274 1170 04A082E4 		str	r10, [r2], #4
 1275 1174 FBFFFF8A 		bhi	.L214
 1276 1178 0E0059E1 		cmp	r9, lr
 1277 117c 090080E0 		add	r0, r0, r9
 1278 1180 091041E0 		sub	r1, r1, r9
 1279 1184 0700000A 		beq	.L212
 1280              	.L213:
 1281 1188 2020A0E3 		mov	r2, #32
 1282 118c 01C041E2 		sub	ip, r1, #1
 1283 1190 00005CE3 		cmp	ip, #0
 1284 1194 0020C0E5 		strb	r2, [r0]
 1285 1198 020000DA 		ble	.L212
 1286 119c 020051E3 		cmp	r1, #2
 1287 11a0 0120C0E5 		strb	r2, [r0, #1]
 1288 11a4 0220C015 		strbne	r2, [r0, #2]
 1289              	.L212:
 1290 11a8 035085E0 		add	r5, r5, r3
 1291 11ac 0480A0E1 		mov	r8, r4
 1292 11b0 0130D4E5 		ldrb	r3, [r4, #1]	@ zero_extendqisi2
 1293 11b4 6CFDFFEA 		b	.L169
 1294              	.L265:
 1295 11b8 0840A0E1 		mov	r4, r8
 1296              	.L187:
 1297 11bc 2530A0E3 		mov	r3, #37
 1298 11c0 0030C5E5 		strb	r3, [r5]
 1299 11c4 0130D4E5 		ldrb	r3, [r4, #1]	@ zero_extendqisi2
 1300 11c8 015085E2 		add	r5, r5, #1
 1301 11cc 0480A0E1 		mov	r8, r4
 1302 11d0 65FDFFEA 		b	.L169
 1303              	.L281:
 1304 11d4 0480A0E1 		mov	r8, r4
 1305 11d8 0820A0E3 		mov	r2, #8
 1306              	.L252:
 1307 11dc 001096E5 		ldr	r1, [r6]
 1308 11e0 046086E2 		add	r6, r6, #4
 1309              	.L251:
 1310 11e4 0500A0E1 		mov	r0, r5
 1311 11e8 04908DE5 		str	r9, [sp, #4]
ARM GAS  C:\Users\ldebo\AppData\Local\Temp\ccevlpv4.s 			page 24


 1312 11ec 00C08DE5 		str	ip, [sp]
 1313 11f0 82FBFFEB 		bl	number
 1314 11f4 0130D8E5 		ldrb	r3, [r8, #1]	@ zero_extendqisi2
 1315 11f8 0050A0E1 		mov	r5, r0
 1316 11fc 5AFDFFEA 		b	.L169
 1317              	.L280:
 1318 1200 0700A0E1 		mov	r0, r7
 1319              	.L191:
 1320 1204 0480A0E1 		mov	r8, r4
 1321 1208 0A20A0E3 		mov	r2, #10
 1322 120c 029089E3 		orr	r9, r9, #2
 1323              	.L193:
 1324 1210 6C0050E3 		cmp	r0, #108
 1325 1214 3300000A 		beq	.L374
 1326 1218 680050E3 		cmp	r0, #104
 1327 121c EEFFFF1A 		bne	.L252
 1328 1220 001096E5 		ldr	r1, [r6]
 1329 1224 020019E3 		tst	r9, #2
 1330 1228 040086E2 		add	r0, r6, #4
 1331 122c 7110FF06 		uxtheq	r1, r1
 1332 1230 7110BF16 		sxthne	r1, r1
 1333 1234 0060A0E1 		mov	r6, r0
 1334 1238 E9FFFFEA 		b	.L251
 1335              	.L279:
 1336 123c 0700A0E1 		mov	r0, r7
 1337              	.L358:
 1338 1240 0480A0E1 		mov	r8, r4
 1339 1244 1020A0E3 		mov	r2, #16
 1340 1248 F0FFFFEA 		b	.L193
 1341              	.L282:
 1342 124c 0480A0E1 		mov	r8, r4
 1343 1250 0A20A0E3 		mov	r2, #10
 1344 1254 E0FFFFEA 		b	.L252
 1345              	.L283:
 1346 1258 0700A0E1 		mov	r0, r7
 1347              	.L197:
 1348 125c 209089E3 		orr	r9, r9, #32
 1349 1260 F6FFFFEA 		b	.L358
 1350              	.L278:
 1351 1264 0840A0E1 		mov	r4, r8
 1352              	.L247:
 1353 1268 003096E5 		ldr	r3, [r6]
 1354 126c 0B2045E0 		sub	r2, r5, fp
 1355 1270 002083E5 		str	r2, [r3]
 1356 1274 046086E2 		add	r6, r6, #4
 1357 1278 0130D4E5 		ldrb	r3, [r4, #1]	@ zero_extendqisi2
 1358 127c 0480A0E1 		mov	r8, r4
 1359 1280 39FDFFEA 		b	.L169
 1360              	.L272:
 1361 1284 0840A0E1 		mov	r4, r8
 1362 1288 F3FFFFEA 		b	.L197
 1363              	.L266:
 1364 128c 0840A0E1 		mov	r4, r8
 1365 1290 EAFFFFEA 		b	.L358
 1366              	.L268:
 1367 1294 0840A0E1 		mov	r4, r8
 1368 1298 D9FFFFEA 		b	.L191
ARM GAS  C:\Users\ldebo\AppData\Local\Temp\ccevlpv4.s 			page 25


 1369              	.L269:
 1370 129c 0820A0E3 		mov	r2, #8
 1371 12a0 DAFFFFEA 		b	.L193
 1372              	.L196:
 1373 12a4 0A20A0E3 		mov	r2, #10
 1374 12a8 D8FFFFEA 		b	.L193
 1375              	.L192:
 1376 12ac 6C0052E3 		cmp	r2, #108
 1377 12b0 EBFFFF1A 		bne	.L278
 1378 12b4 003096E5 		ldr	r3, [r6]
 1379 12b8 0B2045E0 		sub	r2, r5, fp
 1380 12bc 002083E5 		str	r2, [r3]
 1381 12c0 046086E2 		add	r6, r6, #4
 1382 12c4 0230D4E5 		ldrb	r3, [r4, #2]	@ zero_extendqisi2
 1383 12c8 27FDFFEA 		b	.L169
 1384              	.L373:
 1385 12cc 0130C5E5 		strb	r3, [r5, #1]
 1386 12d0 0130D4E5 		ldrb	r3, [r4, #1]	@ zero_extendqisi2
 1387 12d4 025085E2 		add	r5, r5, #2
 1388 12d8 0480A0E1 		mov	r8, r4
 1389 12dc 22FDFFEA 		b	.L169
 1390              	.L277:
 1391 12e0 05E0A0E1 		mov	lr, r5
 1392 12e4 E6FEFFEA 		b	.L238
 1393              	.L374:
 1394 12e8 001096E5 		ldr	r1, [r6]
 1395 12ec 046086E2 		add	r6, r6, #4
 1396 12f0 BBFFFFEA 		b	.L251
 1397              	.L258:
 1398 12f4 00C096E5 		ldr	ip, [r6]
 1399 12f8 0220D4E5 		ldrb	r2, [r4, #2]	@ zero_extendqisi2
 1400 12fc CCCFCCE1 		bic	ip, ip, ip, asr #31
 1401 1300 046086E2 		add	r6, r6, #4
 1402 1304 024084E2 		add	r4, r4, #2
 1403 1308 4DFDFFEA 		b	.L182
 1404              	.L262:
 1405 130c 0300A0E1 		mov	r0, r3
 1406 1310 27FEFFEA 		b	.L166
 1407              	.L229:
 1408 1314 012045E2 		sub	r2, r5, #1
 1409 1318 00C088E0 		add	ip, r8, r0
 1410              	.L234:
 1411 131c 0110D8E4 		ldrb	r1, [r8], #1	@ zero_extendqisi2
 1412 1320 0C0058E1 		cmp	r8, ip
 1413 1324 0110E2E5 		strb	r1, [r2, #1]!
 1414 1328 FBFFFF1A 		bne	.L234
 1415 132c A9FEFFEA 		b	.L235
 1416              	.L276:
 1417 1330 05E0A0E1 		mov	lr, r5
 1418 1334 5CFEFFEA 		b	.L220
 1419              	.L274:
 1420 1338 0500A0E1 		mov	r0, r5
 1421 133c 029043E2 		sub	r9, r3, #2
 1422 1340 2CFFFFEA 		b	.L200
 1423              	.L275:
 1424 1344 0130A0E1 		mov	r3, r1
 1425 1348 76FEFFEA 		b	.L218
ARM GAS  C:\Users\ldebo\AppData\Local\Temp\ccevlpv4.s 			page 26


 1426              	.L273:
 1427 134c 0130A0E1 		mov	r3, r1
 1428 1350 49FFFFEA 		b	.L198
 1429              	.L376:
 1430              		.align	2
 1431              	.L375:
 1432 1354 20202020 		.word	538976288
 1433              		.size	emb_vsprintf, .-emb_vsprintf
 1434              		.align	2
 1435              		.global	emb_sprintf
 1436              		.syntax unified
 1437              		.arm
 1438              		.fpu vfp
 1439              		.type	emb_sprintf, %function
 1440              	emb_sprintf:
 1441              		@ args = 4, pretend = 12, frame = 8
 1442              		@ frame_needed = 0, uses_anonymous_args = 1
 1443 1358 0E002DE9 		push	{r1, r2, r3}
 1444 135c 04E02DE5 		str	lr, [sp, #-4]!
 1445 1360 08D04DE2 		sub	sp, sp, #8
 1446 1364 10308DE2 		add	r3, sp, #16
 1447 1368 0320A0E1 		mov	r2, r3
 1448 136c 0C109DE5 		ldr	r1, [sp, #12]
 1449 1370 04308DE5 		str	r3, [sp, #4]
 1450 1374 FEFFFFEB 		bl	emb_vsprintf
 1451 1378 08D08DE2 		add	sp, sp, #8
 1452              		@ sp needed
 1453 137c 04E09DE4 		ldr	lr, [sp], #4
 1454 1380 0CD08DE2 		add	sp, sp, #12
 1455 1384 1EFF2FE1 		bx	lr
 1456              		.size	emb_sprintf, .-emb_sprintf
 1457              		.align	2
 1458              		.global	printf
 1459              		.syntax unified
 1460              		.arm
 1461              		.fpu vfp
 1462              		.type	printf, %function
 1463              	printf:
 1464              		@ args = 4, pretend = 16, frame = 520
 1465              		@ frame_needed = 0, uses_anonymous_args = 1
 1466 1388 0F002DE9 		push	{r0, r1, r2, r3}
 1467 138c 70402DE9 		push	{r4, r5, r6, lr}
 1468 1390 82DF4DE2 		sub	sp, sp, #520
 1469 1394 873F8DE2 		add	r3, sp, #540
 1470 1398 0320A0E1 		mov	r2, r3
 1471 139c 08008DE2 		add	r0, sp, #8
 1472 13a0 18129DE5 		ldr	r1, [sp, #536]
 1473 13a4 04308DE5 		str	r3, [sp, #4]
 1474 13a8 FEFFFFEB 		bl	emb_vsprintf
 1475 13ac 006050E2 		subs	r6, r0, #0
 1476 13b0 070000DA 		ble	.L379
 1477 13b4 08308DE2 		add	r3, sp, #8
 1478 13b8 015046E2 		sub	r5, r6, #1
 1479 13bc 055083E0 		add	r5, r3, r5
 1480 13c0 014043E2 		sub	r4, r3, #1
 1481              	.L381:
 1482 13c4 0100F4E5 		ldrb	r0, [r4, #1]!	@ zero_extendqisi2
ARM GAS  C:\Users\ldebo\AppData\Local\Temp\ccevlpv4.s 			page 27


 1483 13c8 FEFFFFEB 		bl	Embedded_Console_WriteChar
 1484 13cc 050054E1 		cmp	r4, r5
 1485 13d0 FBFFFF1A 		bne	.L381
 1486              	.L379:
 1487 13d4 0600A0E1 		mov	r0, r6
 1488 13d8 82DF8DE2 		add	sp, sp, #520
 1489              		@ sp needed
 1490 13dc 7040BDE8 		pop	{r4, r5, r6, lr}
 1491 13e0 10D08DE2 		add	sp, sp, #16
 1492 13e4 1EFF2FE1 		bx	lr
 1493              		.size	printf, .-printf
 1494              		.comm	__errno,4,4
 1495              		.section	.rodata
 1496              		.align	2
 1497              		.set	.LANCHOR0,. + 0
 1498              		.type	digits.5807, %object
 1499              		.size	digits.5807, 16
 1500              	digits.5807:
 1501 0000 30313233 		.ascii	"0123456789ABCDEF"
 1501      34353637 
 1501      38394142 
 1501      43444546 
 1502              		.ident	"GCC: (GNU Tools for ARM Embedded Processors 6-2017-q2-update) 6.3.1 20170620 (release) [AR
ARM GAS  C:\Users\ldebo\AppData\Local\Temp\ccevlpv4.s 			page 28


DEFINED SYMBOLS
                            *ABS*:00000000 emb-stdio.c
C:\Users\ldebo\AppData\Local\Temp\ccevlpv4.s:16     .text:00000000 $a
C:\Users\ldebo\AppData\Local\Temp\ccevlpv4.s:21     .text:00000000 number
C:\Users\ldebo\AppData\Local\Temp\ccevlpv4.s:515    .text:000006dc $d
C:\Users\ldebo\AppData\Local\Temp\ccevlpv4.s:519    .text:000006e8 $a
C:\Users\ldebo\AppData\Local\Temp\ccevlpv4.s:525    .text:000006e8 strnlen
C:\Users\ldebo\AppData\Local\Temp\ccevlpv4.s:557    .text:00000730 emb_vsprintf
C:\Users\ldebo\AppData\Local\Temp\ccevlpv4.s:592    .text:0000079c $d
C:\Users\ldebo\AppData\Local\Temp\ccevlpv4.s:610    .text:000007e0 $a
C:\Users\ldebo\AppData\Local\Temp\ccevlpv4.s:653    .text:00000864 $d
C:\Users\ldebo\AppData\Local\Temp\ccevlpv4.s:738    .text:000009b4 $a
C:\Users\ldebo\AppData\Local\Temp\ccevlpv4.s:778    .text:00000a44 $d
C:\Users\ldebo\AppData\Local\Temp\ccevlpv4.s:863    .text:00000b94 $a
C:\Users\ldebo\AppData\Local\Temp\ccevlpv4.s:1432   .text:00001354 $d
C:\Users\ldebo\AppData\Local\Temp\ccevlpv4.s:1434   .text:00001358 $a
C:\Users\ldebo\AppData\Local\Temp\ccevlpv4.s:1440   .text:00001358 emb_sprintf
C:\Users\ldebo\AppData\Local\Temp\ccevlpv4.s:1463   .text:00001388 printf
                            *COM*:00000004 __errno
C:\Users\ldebo\AppData\Local\Temp\ccevlpv4.s:1496   .rodata:00000000 $d
C:\Users\ldebo\AppData\Local\Temp\ccevlpv4.s:1500   .rodata:00000000 digits.5807

UNDEFINED SYMBOLS
__aeabi_uidiv
__aeabi_uidivmod
Embedded_Console_WriteChar
ARM GAS  C:\Users\ldebo\AppData\Local\Temp\ccevlpv4.s 			page 1


   1              		.arch armv6zk
   2              		.eabi_attribute 28, 1
   3              		.eabi_attribute 20, 1
   4              		.eabi_attribute 21, 1
   5              		.eabi_attribute 23, 3
   6              		.eabi_attribute 24, 1
   7              		.eabi_attribute 25, 1
   8              		.eabi_attribute 26, 1
   9              		.eabi_attribute 30, 2
  10              		.eabi_attribute 34, 0
  11              		.eabi_attribute 18, 4
  12              		.file	"rpi-GLES.c"
  13              		.text
  14              		.align	2
  15              		.global	InitV3D
  16              		.syntax unified
  17              		.arm
  18              		.fpu vfp
  19              		.type	InitV3D, %function
  20              	InitV3D:
  21              		@ args = 0, pretend = 0, frame = 0
  22              		@ frame_needed = 0, uses_anonymous_args = 0
  23 0000 04E02DE5 		str	lr, [sp, #-4]!
  24 0004 0420A0E3 		mov	r2, #4
  25 0008 01E0A0E3 		mov	lr, #1
  26 000c 05C0A0E3 		mov	ip, #5
  27 0010 0830A0E3 		mov	r3, #8
  28 0014 5C009FE5 		ldr	r0, .L8
  29 0018 5C109FE5 		ldr	r1, .L8+4
  30 001c 24D04DE2 		sub	sp, sp, #36
  31 0020 14208DE5 		str	r2, [sp, #20]
  32 0024 10208DE5 		str	r2, [sp, #16]
  33 0028 0C008DE5 		str	r0, [sp, #12]
  34 002c 08108DE5 		str	r1, [sp, #8]
  35 0030 18E08DE5 		str	lr, [sp, #24]
  36 0034 08108DE8 		stm	sp, {r3, ip}
  37 0038 40209FE5 		ldr	r2, .L8+8
  38 003c 0910A0E3 		mov	r1, #9
  39 0040 0000A0E3 		mov	r0, #0
  40 0044 FEFFFFEB 		bl	mailbox_tag_message
  41 0048 000050E3 		cmp	r0, #0
  42 004c 0700000A 		beq	.L2
  43 0050 2C309FE5 		ldr	r3, .L8+12
  44 0054 2C209FE5 		ldr	r2, .L8+16
  45 0058 003093E5 		ldr	r3, [r3]
  46 005c 033583E2 		add	r3, r3, #12582912
  47 0060 000093E5 		ldr	r0, [r3]
  48 0064 020040E0 		sub	r0, r0, r2
  49 0068 100F6FE1 		clz	r0, r0
  50 006c A002A0E1 		lsr	r0, r0, #5
  51              	.L2:
  52 0070 24D08DE2 		add	sp, sp, #36
  53              		@ sp needed
  54 0074 04F09DE4 		ldr	pc, [sp], #4
  55              	.L9:
  56              		.align	2
  57              	.L8:
ARM GAS  C:\Users\ldebo\AppData\Local\Temp\ccevlpv4.s 			page 2


  58 0078 12000300 		.word	196626
  59 007c 80B2E60E 		.word	250000000
  60 0080 02800300 		.word	229378
  61 0084 00000000 		.word	RPi_IO_Base_Addr
  62 0088 56334402 		.word	38024022
  63              		.size	InitV3D, .-InitV3D
  64              		.align	2
  65              		.global	V3D_mem_alloc
  66              		.syntax unified
  67              		.arm
  68              		.fpu vfp
  69              		.type	V3D_mem_alloc, %function
  70              	V3D_mem_alloc:
  71              		@ args = 0, pretend = 0, frame = 24
  72              		@ frame_needed = 0, uses_anonymous_args = 0
  73 008c 0C30A0E3 		mov	r3, #12
  74 0090 04E02DE5 		str	lr, [sp, #-4]!
  75 0094 2CD04DE2 		sub	sp, sp, #44
  76 0098 07008DE9 		stmib	sp, {r0, r1, r2}
  77 009c 00308DE5 		str	r3, [sp]
  78 00a0 18209FE5 		ldr	r2, .L14
  79 00a4 0610A0E3 		mov	r1, #6
  80 00a8 10008DE2 		add	r0, sp, #16
  81 00ac FEFFFFEB 		bl	mailbox_tag_message
  82 00b0 000050E3 		cmp	r0, #0
  83 00b4 1C009D15 		ldrne	r0, [sp, #28]
  84 00b8 2CD08DE2 		add	sp, sp, #44
  85              		@ sp needed
  86 00bc 04F09DE4 		ldr	pc, [sp], #4
  87              	.L15:
  88              		.align	2
  89              	.L14:
  90 00c0 0C000300 		.word	196620
  91              		.size	V3D_mem_alloc, .-V3D_mem_alloc
  92              		.align	2
  93              		.global	V3D_mem_free
  94              		.syntax unified
  95              		.arm
  96              		.fpu vfp
  97              		.type	V3D_mem_free, %function
  98              	V3D_mem_free:
  99              		@ args = 0, pretend = 0, frame = 0
 100              		@ frame_needed = 0, uses_anonymous_args = 0
 101 00c4 0430A0E3 		mov	r3, #4
 102 00c8 04E02DE5 		str	lr, [sp, #-4]!
 103 00cc 0CD04DE2 		sub	sp, sp, #12
 104 00d0 04008DE5 		str	r0, [sp, #4]
 105 00d4 00308DE5 		str	r3, [sp]
 106 00d8 0310A0E1 		mov	r1, r3
 107 00dc 0C209FE5 		ldr	r2, .L18
 108 00e0 0000A0E3 		mov	r0, #0
 109 00e4 FEFFFFEB 		bl	mailbox_tag_message
 110 00e8 0CD08DE2 		add	sp, sp, #12
 111              		@ sp needed
 112 00ec 04F09DE4 		ldr	pc, [sp], #4
 113              	.L19:
 114              		.align	2
ARM GAS  C:\Users\ldebo\AppData\Local\Temp\ccevlpv4.s 			page 3


 115              	.L18:
 116 00f0 0F000300 		.word	196623
 117              		.size	V3D_mem_free, .-V3D_mem_free
 118              		.align	2
 119              		.global	V3D_mem_lock
 120              		.syntax unified
 121              		.arm
 122              		.fpu vfp
 123              		.type	V3D_mem_lock, %function
 124              	V3D_mem_lock:
 125              		@ args = 0, pretend = 0, frame = 16
 126              		@ frame_needed = 0, uses_anonymous_args = 0
 127 00f4 0430A0E3 		mov	r3, #4
 128 00f8 04E02DE5 		str	lr, [sp, #-4]!
 129 00fc 1CD04DE2 		sub	sp, sp, #28
 130 0100 04008DE5 		str	r0, [sp, #4]
 131 0104 00308DE5 		str	r3, [sp]
 132 0108 0310A0E1 		mov	r1, r3
 133 010c 14209FE5 		ldr	r2, .L24
 134 0110 08008DE2 		add	r0, sp, #8
 135 0114 FEFFFFEB 		bl	mailbox_tag_message
 136 0118 000050E3 		cmp	r0, #0
 137 011c 14009D15 		ldrne	r0, [sp, #20]
 138 0120 1CD08DE2 		add	sp, sp, #28
 139              		@ sp needed
 140 0124 04F09DE4 		ldr	pc, [sp], #4
 141              	.L25:
 142              		.align	2
 143              	.L24:
 144 0128 0D000300 		.word	196621
 145              		.size	V3D_mem_lock, .-V3D_mem_lock
 146              		.align	2
 147              		.global	V3D_mem_unlock
 148              		.syntax unified
 149              		.arm
 150              		.fpu vfp
 151              		.type	V3D_mem_unlock, %function
 152              	V3D_mem_unlock:
 153              		@ args = 0, pretend = 0, frame = 0
 154              		@ frame_needed = 0, uses_anonymous_args = 0
 155 012c 0430A0E3 		mov	r3, #4
 156 0130 04E02DE5 		str	lr, [sp, #-4]!
 157 0134 0CD04DE2 		sub	sp, sp, #12
 158 0138 04008DE5 		str	r0, [sp, #4]
 159 013c 00308DE5 		str	r3, [sp]
 160 0140 0310A0E1 		mov	r1, r3
 161 0144 0C209FE5 		ldr	r2, .L28
 162 0148 0000A0E3 		mov	r0, #0
 163 014c FEFFFFEB 		bl	mailbox_tag_message
 164 0150 0CD08DE2 		add	sp, sp, #12
 165              		@ sp needed
 166 0154 04F09DE4 		ldr	pc, [sp], #4
 167              	.L29:
 168              		.align	2
 169              	.L28:
 170 0158 0E000300 		.word	196622
 171              		.size	V3D_mem_unlock, .-V3D_mem_unlock
ARM GAS  C:\Users\ldebo\AppData\Local\Temp\ccevlpv4.s 			page 4


 172              		.align	2
 173              		.global	V3D_execute_code
 174              		.syntax unified
 175              		.arm
 176              		.fpu vfp
 177              		.type	V3D_execute_code, %function
 178              	V3D_execute_code:
 179              		@ args = 12, pretend = 0, frame = 0
 180              		@ frame_needed = 0, uses_anonymous_args = 0
 181 015c 1CC0A0E3 		mov	ip, #28
 182 0160 30402DE9 		push	{r4, r5, lr}
 183 0164 24D04DE2 		sub	sp, sp, #36
 184 0168 30509DE5 		ldr	r5, [sp, #48]
 185 016c 34409DE5 		ldr	r4, [sp, #52]
 186 0170 38E09DE5 		ldr	lr, [sp, #56]
 187 0174 0F008DE9 		stmib	sp, {r0, r1, r2, r3}
 188 0178 00C08DE5 		str	ip, [sp]
 189 017c 0C30A0E1 		mov	r3, ip
 190 0180 14508DE5 		str	r5, [sp, #20]
 191 0184 18408DE5 		str	r4, [sp, #24]
 192 0188 1CE08DE5 		str	lr, [sp, #28]
 193 018c 10209FE5 		ldr	r2, .L32
 194 0190 0A10A0E3 		mov	r1, #10
 195 0194 0000A0E3 		mov	r0, #0
 196 0198 FEFFFFEB 		bl	mailbox_tag_message
 197 019c 24D08DE2 		add	sp, sp, #36
 198              		@ sp needed
 199 01a0 3080BDE8 		pop	{r4, r5, pc}
 200              	.L33:
 201              		.align	2
 202              	.L32:
 203 01a4 10000300 		.word	196624
 204              		.size	V3D_execute_code, .-V3D_execute_code
 205              		.align	2
 206              		.global	V3D_execute_qpu
 207              		.syntax unified
 208              		.arm
 209              		.fpu vfp
 210              		.type	V3D_execute_qpu, %function
 211              	V3D_execute_qpu:
 212              		@ args = 0, pretend = 0, frame = 0
 213              		@ frame_needed = 0, uses_anonymous_args = 0
 214 01a8 10C0A0E3 		mov	ip, #16
 215 01ac 04E02DE5 		str	lr, [sp, #-4]!
 216 01b0 1CD04DE2 		sub	sp, sp, #28
 217 01b4 0F008DE9 		stmib	sp, {r0, r1, r2, r3}
 218 01b8 00C08DE5 		str	ip, [sp]
 219 01bc 0C30A0E1 		mov	r3, ip
 220 01c0 10209FE5 		ldr	r2, .L36
 221 01c4 0710A0E3 		mov	r1, #7
 222 01c8 0000A0E3 		mov	r0, #0
 223 01cc FEFFFFEB 		bl	mailbox_tag_message
 224 01d0 1CD08DE2 		add	sp, sp, #28
 225              		@ sp needed
 226 01d4 04F09DE4 		ldr	pc, [sp], #4
 227              	.L37:
 228              		.align	2
ARM GAS  C:\Users\ldebo\AppData\Local\Temp\ccevlpv4.s 			page 5


 229              	.L36:
 230 01d8 11000300 		.word	196625
 231              		.size	V3D_execute_qpu, .-V3D_execute_qpu
 232              		.align	2
 233              		.global	DoRotate
 234              		.syntax unified
 235              		.arm
 236              		.fpu vfp
 237              		.type	DoRotate, %function
 238              	DoRotate:
 239              		@ args = 0, pretend = 0, frame = 0
 240              		@ frame_needed = 0, uses_anonymous_args = 0
 241 01dc 3C309FE5 		ldr	r3, .L43+8
 242 01e0 0C6B9FED 		vldr.64	d6, .L43
 243 01e4 007AD3ED 		vldr.32	s15, [r3]
 244 01e8 270A30EE 		vadd.f32	s0, s0, s15
 245 01ec C07AB7EE 		vcvt.f64.f32	d7, s0
 246 01f0 C67BB4EE 		vcmpe.f64	d7, d6
 247 01f4 10FAF1EE 		vmrs	APSR_nzcv, FPSCR
 248 01f8 460B37AE 		vsubge.f64	d0, d7, d6
 249 01fc C00BB7AE 		vcvtge.f32.f64	s0, d0
 250 0200 10402DE9 		push	{r4, lr}
 251 0204 000A83ED 		vstr.32	s0, [r3]
 252 0208 FEFFFFEB 		bl	cosf
 253 020c 10309FE5 		ldr	r3, .L43+12
 254 0210 000A83ED 		vstr.32	s0, [r3]
 255 0214 1080BDE8 		pop	{r4, pc}
 256              	.L44:
 257              		.align	3
 258              	.L43:
 259 0218 43423A52 		.word	1379549763
 260 021c FB211940 		.word	1075388923
 261 0220 00000000 		.word	.LANCHOR0
 262 0224 00000000 		.word	.LANCHOR1
 263              		.size	DoRotate, .-DoRotate
 264              		.align	2
 265              		.global	testTriangle
 266              		.syntax unified
 267              		.arm
 268              		.fpu vfp
 269              		.type	testTriangle, %function
 270              	testTriangle:
 271              		@ args = 0, pretend = 0, frame = 112
 272              		@ frame_needed = 0, uses_anonymous_args = 0
 273 0228 F04F2DE9 		push	{r4, r5, r6, r7, r8, r9, r10, fp, lr}
 274 022c 0CC0A0E3 		mov	ip, #12
 275 0230 02E5A0E3 		mov	lr, #8388608
 276 0234 1860A0E3 		mov	r6, #24
 277 0238 015AA0E3 		mov	r5, #4096
 278 023c 84D04DE2 		sub	sp, sp, #132
 279 0240 18008DE5 		str	r0, [sp, #24]
 280 0244 1C108DE5 		str	r1, [sp, #28]
 281 0248 20208DE5 		str	r2, [sp, #32]
 282 024c 0340A0E1 		mov	r4, r3
 283 0250 0C608DE5 		str	r6, [sp, #12]
 284 0254 08508DE5 		str	r5, [sp, #8]
 285 0258 00508DE8 		stm	sp, {ip, lr}
ARM GAS  C:\Users\ldebo\AppData\Local\Temp\ccevlpv4.s 			page 6


 286 025c 0C30A0E1 		mov	r3, ip
 287 0260 68008DE2 		add	r0, sp, #104
 288 0264 34209FE5 		ldr	r2, .L85
 289 0268 0610A0E3 		mov	r1, #6
 290 026c FEFFFFEB 		bl	mailbox_tag_message
 291 0270 000050E3 		cmp	r0, #0
 292 0274 0300000A 		beq	.L62
 293 0278 74309DE5 		ldr	r3, [sp, #116]
 294 027c 000053E3 		cmp	r3, #0
 295 0280 24308DE5 		str	r3, [sp, #36]
 296 0284 2C00001A 		bne	.L47
 297              	.L62:
 298 0288 000054E3 		cmp	r4, #0
 299 028c 0100000A 		beq	.L45
 300 0290 0C009FE5 		ldr	r0, .L85+4
 301 0294 34FF2FE1 		blx	r4
 302              	.L45:
 303 0298 84D08DE2 		add	sp, sp, #132
 304              		@ sp needed
 305 029c F08FBDE8 		pop	{r4, r5, r6, r7, r8, r9, r10, fp, pc}
 306              	.L86:
 307              		.align	2
 308              	.L85:
 309 02a0 0C000300 		.word	196620
 310 02a4 00000000 		.word	.LC0
 311 02a8 0D000300 		.word	196621
 312 02ac 00000000 		.word	.LANCHOR1
 313 02b0 72D10000 		.word	53618
 314 02b4 BF0D8E95 		.word	-1785852481
 315 02b8 0D8E9500 		.word	9801229
 316 02bc 234872D1 		.word	-781039581
 317 02c0 718E8100 		.word	8490609
 318 02c4 76718E81 		.word	-2121371274
 319 02c8 4872D100 		.word	13726280
 320 02cc 8E950000 		.word	38286
 321 02d0 21480240 		.word	1073891361
 322 02d4 62480210 		.word	268585058
 323 02d8 759E8100 		.word	8494709
 324 02dc 09709E80 		.word	-2137100279
 325 02e0 709E8000 		.word	8429168
 326 02e4 9E800000 		.word	32926
 327 02e8 9E810000 		.word	33182
 328 02ec 738E8100 		.word	8490611
 329 02f0 A3484211 		.word	289556643
 330 02f4 42110000 		.word	4418
 331 02f8 12709E80 		.word	-2137100270
 332 02fc 60110000 		.word	4448
 333 0300 C0769E15 		.word	362706624
 334 0304 769E1500 		.word	1416822
 335 0308 02300000 		.word	12290
 336 030c E3495011 		.word	290474467
 337 0310 49501100 		.word	1134665
 338 0314 A70B0230 		.word	805440423
 339 0318 0B023000 		.word	3146251
 340 031c 50110000 		.word	4432
 341 0320 E7090010 		.word	268437991
 342 0324 00000000 		.word	RPi_IO_Base_Addr
ARM GAS  C:\Users\ldebo\AppData\Local\Temp\ccevlpv4.s 			page 7


 343 0328 0E000300 		.word	196622
 344 032c 0F000300 		.word	196623
 345 0330 9A99993E 		.word	1050253722
 346 0334 CDCCCC3E 		.word	1053609165
 347 0338 CDCCAC3F 		.word	1068289229
 348              	.L47:
 349 033c 0320A0E1 		mov	r2, r3
 350 0340 0430A0E3 		mov	r3, #4
 351 0344 04208DE5 		str	r2, [sp, #4]
 352 0348 68008DE2 		add	r0, sp, #104
 353 034c 00308DE5 		str	r3, [sp]
 354 0350 0310A0E1 		mov	r1, r3
 355 0354 B4201FE5 		ldr	r2, .L85+8
 356 0358 FEFFFFEB 		bl	mailbox_tag_message
 357 035c 000050E3 		cmp	r0, #0
 358 0360 CB02000A 		beq	.L63
 359 0364 74309DE5 		ldr	r3, [sp, #116]
 360 0368 2C308DE5 		str	r3, [sp, #44]
 361 036c 062A83E2 		add	r2, r3, #24576
 362 0370 029C83E2 		add	r9, r3, #512
 363 0374 807083E2 		add	r7, r3, #128
 364 0378 706083E2 		add	r6, r3, #112
 365 037c FE8C83E2 		add	r8, r3, #65024
 366 0380 FF5C83E2 		add	r5, r3, #65280
 367 0384 014C83E2 		add	r4, r3, #256
 368 0388 2C009DE5 		ldr	r0, [sp, #44]
 369 038c E23C83E2 		add	r3, r3, #57856
 370 0390 10208DE5 		str	r2, [sp, #16]
 371 0394 30308DE5 		str	r3, [sp, #48]
 372              	.L49:
 373 0398 FEFFFFEB 		bl	GPUaddrToARMaddr
 374 039c 7030A0E3 		mov	r3, #112
 375 03a0 0030C0E5 		strb	r3, [r0]
 376 03a4 4030A0E3 		mov	r3, #64
 377 03a8 0630C0E5 		strb	r3, [r0, #6]
 378 03ac 0430A0E3 		mov	r3, #4
 379 03b0 38E0A0E3 		mov	lr, #56
 380 03b4 0F30C0E5 		strb	r3, [r0, #15]
 381 03b8 0630A0E3 		mov	r3, #6
 382 03bc 10B09DE5 		ldr	fp, [sp, #16]
 383 03c0 0990C0E5 		strb	r9, [r0, #9]
 384 03c4 2BA4A0E1 		lsr	r10, fp, #8
 385 03c8 02A0C0E5 		strb	r10, [r0, #2]
 386 03cc 2BA8A0E1 		lsr	r10, fp, #16
 387 03d0 03A0C0E5 		strb	r10, [r0, #3]
 388 03d4 2BACA0E1 		lsr	r10, fp, #24
 389 03d8 04A0C0E5 		strb	r10, [r0, #4]
 390 03dc 29A4A0E1 		lsr	r10, r9, #8
 391 03e0 0AA0C0E5 		strb	r10, [r0, #10]
 392 03e4 29A8A0E1 		lsr	r10, r9, #16
 393 03e8 299CA0E1 		lsr	r9, r9, #24
 394 03ec 0C90C0E5 		strb	r9, [r0, #12]
 395 03f0 18909DE5 		ldr	r9, [sp, #24]
 396 03f4 11E0C0E5 		strb	lr, [r0, #17]
 397 03f8 3FE089E2 		add	lr, r9, #63
 398 03fc 4EE3A0E1 		asr	lr, lr, #6
 399 0400 0BA0C0E5 		strb	r10, [r0, #11]
ARM GAS  C:\Users\ldebo\AppData\Local\Temp\ccevlpv4.s 			page 8


 400 0404 14E08DE5 		str	lr, [sp, #20]
 401 0408 0EA0A0E1 		mov	r10, lr
 402 040c 1CE09DE5 		ldr	lr, [sp, #28]
 403 0410 1030C0E5 		strb	r3, [r0, #16]
 404 0414 AE30A0E1 		lsr	r3, lr, #1
 405 0418 903A07EE 		vmov	s15, r3	@ int
 406 041c 3D7A1FED 		vldr.32	s14, .L85+144
 407 0420 E77AF8EE 		vcvt.f32.s32	s15, s15
 408 0424 877A27EE 		vmul.f32	s14, s15, s14
 409 0428 32C0A0E3 		mov	ip, #50
 410 042c 0129A0E3 		mov	r2, #16384
 411 0430 6610A0E3 		mov	r1, #102
 412 0434 C77ABCEE 		vcvt.u32.f32	s14, s14
 413 0438 6030A0E3 		mov	r3, #96
 414 043c 12C0C0E5 		strb	ip, [r0, #18]
 415 0440 3FC08EE2 		add	ip, lr, #63
 416 0444 4CC3A0E1 		asr	ip, ip, #6
 417 0448 01B0C0E5 		strb	fp, [r0, #1]
 418 044c 0520C0E5 		strb	r2, [r0, #5]
 419 0450 0720C0E5 		strb	r2, [r0, #7]
 420 0454 0820C0E5 		strb	r2, [r0, #8]
 421 0458 1420C0E5 		strb	r2, [r0, #20]
 422 045c 1520C0E5 		strb	r2, [r0, #21]
 423 0460 1620C0E5 		strb	r2, [r0, #22]
 424 0464 1720C0E5 		strb	r2, [r0, #23]
 425 0468 0DA0C0E5 		strb	r10, [r0, #13]
 426 046c 1310C0E5 		strb	r1, [r0, #19]
 427 0470 0EC0C0E5 		strb	ip, [r0, #14]
 428 0474 B896CDE1 		strh	r9, [sp, #104]	@ movhi
 429 0478 1890C0E5 		strb	r9, [r0, #24]
 430 047c 6910DDE5 		ldrb	r1, [sp, #105]	@ zero_extendqisi2
 431 0480 B6E6CDE1 		strh	lr, [sp, #102]	@ movhi
 432 0484 0A7A8DED 		vstr.32	s14, [sp, #40]	@ int
 433 0488 1C30C0E5 		strb	r3, [r0, #28]
 434 048c 0330A0E3 		mov	r3, #3
 435 0490 1D30C0E5 		strb	r3, [r0, #29]
 436 0494 0430A0E3 		mov	r3, #4
 437 0498 2B30C0E5 		strb	r3, [r0, #43]
 438 049c 0630A0E3 		mov	r3, #6
 439 04a0 3430C0E5 		strb	r3, [r0, #52]
 440 04a4 6730A0E3 		mov	r3, #103
 441 04a8 1910C0E5 		strb	r1, [r0, #25]
 442 04ac 2E14A0E1 		lsr	r1, lr, #8
 443 04b0 1B10C0E5 		strb	r1, [r0, #27]
 444 04b4 2030C0E5 		strb	r3, [r0, #32]
 445 04b8 2010A0E3 		mov	r1, #32
 446 04bc 4130A0E3 		mov	r3, #65
 447 04c0 2A10C0E5 		strb	r1, [r0, #42]
 448 04c4 2530C0E5 		strb	r3, [r0, #37]
 449 04c8 2614A0E1 		lsr	r1, r6, #8
 450 04cc 2734A0E1 		lsr	r3, r7, #8
 451 04d0 2670C0E5 		strb	r7, [r0, #38]
 452 04d4 2730C0E5 		strb	r3, [r0, #39]
 453 04d8 3110C0E5 		strb	r1, [r0, #49]
 454 04dc 2738A0E1 		lsr	r3, r7, #16
 455 04e0 2618A0E1 		lsr	r1, r6, #16
 456 04e4 277CA0E1 		lsr	r7, r7, #24
ARM GAS  C:\Users\ldebo\AppData\Local\Temp\ccevlpv4.s 			page 9


 457 04e8 2970C0E5 		strb	r7, [r0, #41]
 458 04ec 3210C0E5 		strb	r1, [r0, #50]
 459 04f0 0270A0E3 		mov	r7, #2
 460 04f4 3310E0E3 		mvn	r1, #51
 461 04f8 3060C0E5 		strb	r6, [r0, #48]
 462 04fc 266CA0E1 		lsr	r6, r6, #24
 463 0500 A9B0A0E1 		lsr	fp, r9, #1
 464 0504 1AE0C0E5 		strb	lr, [r0, #26]
 465 0508 B892DDE1 		ldrh	r9, [sp, #40]
 466 050c 1E20C0E5 		strb	r2, [r0, #30]
 467 0510 2120C0E5 		strb	r2, [r0, #33]
 468 0514 2220C0E5 		strb	r2, [r0, #34]
 469 0518 2320C0E5 		strb	r2, [r0, #35]
 470 051c 2420C0E5 		strb	r2, [r0, #36]
 471 0520 2D20C0E5 		strb	r2, [r0, #45]
 472 0524 2E20C0E5 		strb	r2, [r0, #46]
 473 0528 2F20C0E5 		strb	r2, [r0, #47]
 474 052c 3520C0E5 		strb	r2, [r0, #53]
 475 0530 3620C0E5 		strb	r2, [r0, #54]
 476 0534 3720C0E5 		strb	r2, [r0, #55]
 477 0538 3A20C0E5 		strb	r2, [r0, #58]
 478 053c 2830C0E5 		strb	r3, [r0, #40]
 479 0540 3360C0E5 		strb	r6, [r0, #51]
 480 0544 8210C0E5 		strb	r1, [r0, #130]
 481 0548 1F70C0E5 		strb	r7, [r0, #31]
 482 054c 0970A0E3 		mov	r7, #9
 483 0550 2C70C0E5 		strb	r7, [r0, #44]
 484 0554 0570A0E3 		mov	r7, #5
 485 0558 8B6A1FED 		vldr.32	s12, .L85+148
 486 055c 90BA06EE 		vmov	s13, fp	@ int
 487 0560 3870C0E5 		strb	r7, [r0, #56]
 488 0564 0170A0E3 		mov	r7, #1
 489 0568 865A67EE 		vmul.f32	s11, s15, s12
 490 056c E66AF8EE 		vcvt.f32.s32	s13, s13
 491 0570 3970C0E5 		strb	r7, [r0, #57]
 492 0574 8070C0E5 		strb	r7, [r0, #128]
 493 0578 1870A0E3 		mov	r7, #24
 494 057c 866A66EE 		vmul.f32	s13, s13, s12
 495 0580 E56ABCEE 		vcvt.u32.f32	s12, s11
 496 0584 8170C0E5 		strb	r7, [r0, #129]
 497 0588 0370A0E3 		mov	r7, #3
 498 058c 0D6A8DED 		vstr.32	s12, [sp, #52]	@ int
 499 0590 0B32A0E1 		lsl	r3, fp, #4
 500 0594 8370C0E5 		strb	r7, [r0, #131]
 501 0598 2574A0E1 		lsr	r7, r5, #8
 502 059c 8970C0E5 		strb	r7, [r0, #137]
 503 05a0 0031C0E5 		strb	r3, [r0, #256]
 504 05a4 2374A0E1 		lsr	r7, r3, #8
 505 05a8 B436CDE1 		strh	r3, [sp, #100]	@ movhi
 506 05ac E66AFCEE 		vcvt.u32.f32	s13, s13
 507 05b0 0030A0E3 		mov	r3, #0
 508 05b4 A15A5FED 		vldr.32	s11, .L85+152
 509 05b8 2868A0E1 		lsr	r6, r8, #16
 510 05bc 281CA0E1 		lsr	r1, r8, #24
 511 05c0 8C40C0E5 		strb	r4, [r0, #140]
 512 05c4 8660C0E5 		strb	r6, [r0, #134]
 513 05c8 8710C0E5 		strb	r1, [r0, #135]
ARM GAS  C:\Users\ldebo\AppData\Local\Temp\ccevlpv4.s 			page 10


 514 05cc 2464A0E1 		lsr	r6, r4, #8
 515 05d0 2418A0E1 		lsr	r1, r4, #16
 516 05d4 244CA0E1 		lsr	r4, r4, #24
 517 05d8 28E4A0E1 		lsr	lr, r8, #8
 518 05dc 8F40C0E5 		strb	r4, [r0, #143]
 519 05e0 B443DDE1 		ldrh	r4, [sp, #52]
 520 05e4 8850C0E5 		strb	r5, [r0, #136]
 521 05e8 85E0C0E5 		strb	lr, [r0, #133]
 522 05ec 25E8A0E1 		lsr	lr, r5, #16
 523 05f0 255CA0E1 		lsr	r5, r5, #24
 524 05f4 8B50C0E5 		strb	r5, [r0, #139]
 525 05f8 095044E0 		sub	r5, r4, r9
 526 05fc 0552A0E1 		lsl	r5, r5, #4
 527 0600 8D60C0E5 		strb	r6, [r0, #141]
 528 0604 60631FE5 		ldr	r6, .L85+12
 529 0608 0171C0E5 		strb	r7, [r0, #257]
 530 060c 2574A0E1 		lsr	r7, r5, #8
 531 0610 8480C0E5 		strb	r8, [r0, #132]
 532 0614 0421C0E5 		strb	r2, [r0, #260]
 533 0618 0821C0E5 		strb	r2, [r0, #264]
 534 061c 0C21C0E5 		strb	r2, [r0, #268]
 535 0620 1021C0E5 		strb	r2, [r0, #272]
 536 0624 8AE0C0E5 		strb	lr, [r0, #138]
 537 0628 8E10C0E5 		strb	r1, [r0, #142]
 538 062c 0251C0E5 		strb	r5, [r0, #258]
 539 0630 0371C0E5 		strb	r7, [r0, #259]
 540 0634 0A6ACDED 		vstr.32	s13, [sp, #40]	@ int
 541 0638 B256CDE1 		strh	r5, [sp, #98]	@ movhi
 542 063c 0531C0E5 		strb	r3, [r0, #261]
 543 0640 477AB8EE 		vcvt.f32.u32	s14, s14
 544 0644 0931C0E5 		strb	r3, [r0, #265]
 545 0648 A57A67EE 		vmul.f32	s15, s15, s11
 546 064c 006A96ED 		vldr.32	s12, [r6]
 547 0650 E77AFCEE 		vcvt.u32.f32	s15, s15
 548 0654 666AF8EE 		vcvt.f32.u32	s13, s13
 549 0658 067A27EE 		vmul.f32	s14, s14, s12
 550 065c 0E7ACDED 		vstr.32	s15, [sp, #56]	@ int
 551 0660 866A66EE 		vmul.f32	s13, s13, s12
 552 0664 C77AFDEE 		vcvt.s32.f32	s15, s14
 553 0668 0F7ACDED 		vstr.32	s15, [sp, #60]	@ int
 554 066c E67AFDEE 		vcvt.s32.f32	s15, s13
 555 0670 0D7ACDED 		vstr.32	s15, [sp, #52]	@ int
 556 0674 8010A0E3 		mov	r1, #128
 557 0678 3FE0A0E3 		mov	lr, #63
 558 067c B872DDE1 		ldrh	r7, [sp, #40]
 559 0680 095084E0 		add	r5, r4, r9
 560 0684 B463DDE1 		ldrh	r6, [sp, #52]
 561 0688 B843DDE1 		ldrh	r4, [sp, #56]
 562 068c 07804BE0 		sub	r8, fp, r7
 563 0690 00005AE3 		cmp	r10, #0
 564 0694 07708BE0 		add	r7, fp, r7
 565 0698 BCA3DDE1 		ldrh	r10, [sp, #60]
 566 069c 0772A0E1 		lsl	r7, r7, #4
 567 06a0 06904BE0 		sub	r9, fp, r6
 568 06a4 0552A0E1 		lsl	r5, r5, #4
 569 06a8 06608BE0 		add	r6, fp, r6
 570 06ac 77B0FFE6 		uxth	fp, r7
ARM GAS  C:\Users\ldebo\AppData\Local\Temp\ccevlpv4.s 			page 11


 571 06b0 0A7044E0 		sub	r7, r4, r10
 572 06b4 7550FFE6 		uxth	r5, r5
 573 06b8 0992A0E1 		lsl	r9, r9, #4
 574 06bc 0662A0E1 		lsl	r6, r6, #4
 575 06c0 0A4084E0 		add	r4, r4, r10
 576 06c4 0882A0E1 		lsl	r8, r8, #4
 577 06c8 0772A0E1 		lsl	r7, r7, #4
 578 06cc 7770FFE6 		uxth	r7, r7
 579 06d0 7880FFE6 		uxth	r8, r8
 580 06d4 0611C0E5 		strb	r1, [r0, #262]
 581 06d8 0A11C0E5 		strb	r1, [r0, #266]
 582 06dc 0E11C0E5 		strb	r1, [r0, #270]
 583 06e0 07E1C0E5 		strb	lr, [r0, #263]
 584 06e4 0BE1C0E5 		strb	lr, [r0, #267]
 585 06e8 0FE1C0E5 		strb	lr, [r0, #271]
 586 06ec 1A51C0E5 		strb	r5, [r0, #282]
 587 06f0 1321C0E5 		strb	r2, [r0, #275]
 588 06f4 1421C0E5 		strb	r2, [r0, #276]
 589 06f8 1721C0E5 		strb	r2, [r0, #279]
 590 06fc 1C21C0E5 		strb	r2, [r0, #284]
 591 0700 1E11C0E5 		strb	r1, [r0, #286]
 592 0704 1FE1C0E5 		strb	lr, [r0, #287]
 593 0708 2021C0E5 		strb	r2, [r0, #288]
 594 070c 2211C0E5 		strb	r1, [r0, #290]
 595 0710 23E1C0E5 		strb	lr, [r0, #291]
 596 0714 0D31C0E5 		strb	r3, [r0, #269]
 597 0718 1131C0E5 		strb	r3, [r0, #273]
 598 071c 1231C0E5 		strb	r3, [r0, #274]
 599 0720 BE55CDE1 		strh	r5, [sp, #94]	@ movhi
 600 0724 1531C0E5 		strb	r3, [r0, #277]
 601 0728 1631C0E5 		strb	r3, [r0, #278]
 602 072c 1D31C0E5 		strb	r3, [r0, #285]
 603 0730 2131C0E5 		strb	r3, [r0, #289]
 604 0734 0442A0E1 		lsl	r4, r4, #4
 605 0738 2421C0E5 		strb	r2, [r0, #292]
 606 073c 1891C0E5 		strb	r9, [r0, #280]
 607 0740 3061C0E5 		strb	r6, [r0, #304]
 608 0744 B096CDE1 		strh	r9, [sp, #96]	@ movhi
 609 0748 BC65CDE1 		strh	r6, [sp, #92]	@ movhi
 610 074c 2994A0E1 		lsr	r9, r9, #8
 611 0750 2664A0E1 		lsr	r6, r6, #8
 612 0754 7440FFE6 		uxth	r4, r4
 613 0758 1991C0E5 		strb	r9, [r0, #281]
 614 075c 3161C0E5 		strb	r6, [r0, #305]
 615 0760 2594A0E1 		lsr	r9, r5, #8
 616 0764 3251C0E5 		strb	r5, [r0, #306]
 617 0768 2764A0E1 		lsr	r6, r7, #8
 618 076c BA55CDE1 		strh	r5, [sp, #90]	@ movhi
 619 0770 2854A0E1 		lsr	r5, r8, #8
 620 0774 2721C0E5 		strb	r2, [r0, #295]
 621 0778 2821C0E5 		strb	r2, [r0, #296]
 622 077c 2B21C0E5 		strb	r2, [r0, #299]
 623 0780 2C21C0E5 		strb	r2, [r0, #300]
 624 0784 2E11C0E5 		strb	r1, [r0, #302]
 625 0788 2FE1C0E5 		strb	lr, [r0, #303]
 626 078c 1B91C0E5 		strb	r9, [r0, #283]
 627 0790 3391C0E5 		strb	r9, [r0, #307]
ARM GAS  C:\Users\ldebo\AppData\Local\Temp\ccevlpv4.s 			page 12


 628 0794 3421C0E5 		strb	r2, [r0, #308]
 629 0798 3611C0E5 		strb	r1, [r0, #310]
 630 079c 37E1C0E5 		strb	lr, [r0, #311]
 631 07a0 3821C0E5 		strb	r2, [r0, #312]
 632 07a4 3A11C0E5 		strb	r1, [r0, #314]
 633 07a8 3BE1C0E5 		strb	lr, [r0, #315]
 634 07ac 3C21C0E5 		strb	r2, [r0, #316]
 635 07b0 2531C0E5 		strb	r3, [r0, #293]
 636 07b4 2631C0E5 		strb	r3, [r0, #294]
 637 07b8 2931C0E5 		strb	r3, [r0, #297]
 638 07bc 2A31C0E5 		strb	r3, [r0, #298]
 639 07c0 2D31C0E5 		strb	r3, [r0, #301]
 640 07c4 3531C0E5 		strb	r3, [r0, #309]
 641 07c8 3931C0E5 		strb	r3, [r0, #313]
 642 07cc 3D31C0E5 		strb	r3, [r0, #317]
 643 07d0 3E31C0E5 		strb	r3, [r0, #318]
 644 07d4 3F21C0E5 		strb	r2, [r0, #319]
 645 07d8 4881C0E5 		strb	r8, [r0, #328]
 646 07dc 4951C0E5 		strb	r5, [r0, #329]
 647 07e0 4B61C0E5 		strb	r6, [r0, #331]
 648 07e4 6081C0E5 		strb	r8, [r0, #352]
 649 07e8 2464A0E1 		lsr	r6, r4, #8
 650 07ec 6151C0E5 		strb	r5, [r0, #353]
 651 07f0 B885CDE1 		strh	r8, [sp, #88]	@ movhi
 652 07f4 2B54A0E1 		lsr	r5, fp, #8
 653 07f8 B485CDE1 		strh	r8, [sp, #84]	@ movhi
 654 07fc 2784A0E1 		lsr	r8, r7, #8
 655 0800 4021C0E5 		strb	r2, [r0, #320]
 656 0804 4211C0E5 		strb	r1, [r0, #322]
 657 0808 43E1C0E5 		strb	lr, [r0, #323]
 658 080c 4421C0E5 		strb	r2, [r0, #324]
 659 0810 4721C0E5 		strb	r2, [r0, #327]
 660 0814 4C21C0E5 		strb	r2, [r0, #332]
 661 0818 4A71C0E5 		strb	r7, [r0, #330]
 662 081c 6241C0E5 		strb	r4, [r0, #354]
 663 0820 4E11C0E5 		strb	r1, [r0, #334]
 664 0824 4FE1C0E5 		strb	lr, [r0, #335]
 665 0828 5021C0E5 		strb	r2, [r0, #336]
 666 082c 5211C0E5 		strb	r1, [r0, #338]
 667 0830 53E1C0E5 		strb	lr, [r0, #339]
 668 0834 5421C0E5 		strb	r2, [r0, #340]
 669 0838 5721C0E5 		strb	r2, [r0, #343]
 670 083c 5821C0E5 		strb	r2, [r0, #344]
 671 0840 4131C0E5 		strb	r3, [r0, #321]
 672 0844 4531C0E5 		strb	r3, [r0, #325]
 673 0848 4631C0E5 		strb	r3, [r0, #326]
 674 084c B675CDE1 		strh	r7, [sp, #86]	@ movhi
 675 0850 4D31C0E5 		strb	r3, [r0, #333]
 676 0854 B245CDE1 		strh	r4, [sp, #82]	@ movhi
 677 0858 5131C0E5 		strb	r3, [r0, #337]
 678 085c 5531C0E5 		strb	r3, [r0, #341]
 679 0860 5631C0E5 		strb	r3, [r0, #342]
 680 0864 5931C0E5 		strb	r3, [r0, #345]
 681 0868 5B21C0E5 		strb	r2, [r0, #347]
 682 086c 5C21C0E5 		strb	r2, [r0, #348]
 683 0870 5E11C0E5 		strb	r1, [r0, #350]
 684 0874 5FE1C0E5 		strb	lr, [r0, #351]
ARM GAS  C:\Users\ldebo\AppData\Local\Temp\ccevlpv4.s 			page 13


 685 0878 6421C0E5 		strb	r2, [r0, #356]
 686 087c 6611C0E5 		strb	r1, [r0, #358]
 687 0880 67E1C0E5 		strb	lr, [r0, #359]
 688 0884 6821C0E5 		strb	r2, [r0, #360]
 689 0888 6A11C0E5 		strb	r1, [r0, #362]
 690 088c 6BE1C0E5 		strb	lr, [r0, #363]
 691 0890 6361C0E5 		strb	r6, [r0, #355]
 692 0894 6C21C0E5 		strb	r2, [r0, #364]
 693 0898 7A71C0E5 		strb	r7, [r0, #378]
 694 089c 7B81C0E5 		strb	r8, [r0, #379]
 695 08a0 78B1C0E5 		strb	fp, [r0, #376]
 696 08a4 6F21C0E5 		strb	r2, [r0, #367]
 697 08a8 7021C0E5 		strb	r2, [r0, #368]
 698 08ac 7211C0E5 		strb	r1, [r0, #370]
 699 08b0 73E1C0E5 		strb	lr, [r0, #371]
 700 08b4 7421C0E5 		strb	r2, [r0, #372]
 701 08b8 7721C0E5 		strb	r2, [r0, #375]
 702 08bc 5A31C0E5 		strb	r3, [r0, #346]
 703 08c0 5D31C0E5 		strb	r3, [r0, #349]
 704 08c4 6531C0E5 		strb	r3, [r0, #357]
 705 08c8 6931C0E5 		strb	r3, [r0, #361]
 706 08cc BE74CDE1 		strh	r7, [sp, #78]	@ movhi
 707 08d0 B0B5CDE1 		strh	fp, [sp, #80]	@ movhi
 708 08d4 6D31C0E5 		strb	r3, [r0, #365]
 709 08d8 6E31C0E5 		strb	r3, [r0, #366]
 710 08dc 7131C0E5 		strb	r3, [r0, #369]
 711 08e0 7531C0E5 		strb	r3, [r0, #373]
 712 08e4 7631C0E5 		strb	r3, [r0, #374]
 713 08e8 7C21C0E5 		strb	r2, [r0, #380]
 714 08ec 7E11C0E5 		strb	r1, [r0, #382]
 715 08f0 7FE1C0E5 		strb	lr, [r0, #383]
 716 08f4 8021C0E5 		strb	r2, [r0, #384]
 717 08f8 8211C0E5 		strb	r1, [r0, #386]
 718 08fc 83E1C0E5 		strb	lr, [r0, #387]
 719 0900 8421C0E5 		strb	r2, [r0, #388]
 720 0904 8611C0E5 		strb	r1, [r0, #390]
 721 0908 87E1C0E5 		strb	lr, [r0, #391]
 722 090c 8821C0E5 		strb	r2, [r0, #392]
 723 0910 7951C0E5 		strb	r5, [r0, #377]
 724 0914 8B21C0E5 		strb	r2, [r0, #395]
 725 0918 9241C0E5 		strb	r4, [r0, #402]
 726 091c 9361C0E5 		strb	r6, [r0, #403]
 727 0920 90B1C0E5 		strb	fp, [r0, #400]
 728 0924 9151C0E5 		strb	r5, [r0, #401]
 729 0928 8C21C0E5 		strb	r2, [r0, #396]
 730 092c 8F21C0E5 		strb	r2, [r0, #399]
 731 0930 9421C0E5 		strb	r2, [r0, #404]
 732 0934 9611C0E5 		strb	r1, [r0, #406]
 733 0938 97E1C0E5 		strb	lr, [r0, #407]
 734 093c 9821C0E5 		strb	r2, [r0, #408]
 735 0940 7D31C0E5 		strb	r3, [r0, #381]
 736 0944 8131C0E5 		strb	r3, [r0, #385]
 737 0948 8531C0E5 		strb	r3, [r0, #389]
 738 094c 8931C0E5 		strb	r3, [r0, #393]
 739 0950 8A31C0E5 		strb	r3, [r0, #394]
 740 0954 BA44CDE1 		strh	r4, [sp, #74]	@ movhi
 741 0958 BCB4CDE1 		strh	fp, [sp, #76]	@ movhi
ARM GAS  C:\Users\ldebo\AppData\Local\Temp\ccevlpv4.s 			page 14


 742 095c 8D31C0E5 		strb	r3, [r0, #397]
 743 0960 8E31C0E5 		strb	r3, [r0, #398]
 744 0964 9531C0E5 		strb	r3, [r0, #405]
 745 0968 9931C0E5 		strb	r3, [r0, #409]
 746 096c 9A11C0E5 		strb	r1, [r0, #410]
 747 0970 9C21C0E5 		strb	r2, [r0, #412]
 748 0974 9F21C0E5 		strb	r2, [r0, #415]
 749 0978 A021C0E5 		strb	r2, [r0, #416]
 750 097c A421C0E5 		strb	r2, [r0, #420]
 751 0980 7020C0E5 		strb	r2, [r0, #112]
 752 0984 0120A0E3 		mov	r2, #1
 753 0988 7120C0E5 		strb	r2, [r0, #113]
 754 098c 0220A0E3 		mov	r2, #2
 755 0990 7220C0E5 		strb	r2, [r0, #114]
 756 0994 0320A0E3 		mov	r2, #3
 757 0998 7320C0E5 		strb	r2, [r0, #115]
 758 099c 0420A0E3 		mov	r2, #4
 759 09a0 7420C0E5 		strb	r2, [r0, #116]
 760 09a4 0520A0E3 		mov	r2, #5
 761 09a8 7520C0E5 		strb	r2, [r0, #117]
 762 09ac 0420A0E3 		mov	r2, #4
 763 09b0 7620C0E5 		strb	r2, [r0, #118]
 764 09b4 0620A0E3 		mov	r2, #6
 765 09b8 7720C0E5 		strb	r2, [r0, #119]
 766 09bc 0520A0E3 		mov	r2, #5
 767 09c0 0240A0E3 		mov	r4, #2
 768 09c4 7820C0E5 		strb	r2, [r0, #120]
 769 09c8 0F2A80E2 		add	r2, r0, #61440
 770 09cc 9BE1C0E5 		strb	lr, [r0, #411]
 771 09d0 A211C0E5 		strb	r1, [r0, #418]
 772 09d4 A3E1C0E5 		strb	lr, [r0, #419]
 773 09d8 A611C0E5 		strb	r1, [r0, #422]
 774 09dc A7E1C0E5 		strb	lr, [r0, #423]
 775 09e0 9D31C0E5 		strb	r3, [r0, #413]
 776 09e4 9E31C0E5 		strb	r3, [r0, #414]
 777 09e8 A131C0E5 		strb	r3, [r0, #417]
 778 09ec A531C0E5 		strb	r3, [r0, #421]
 779 09f0 0E4EC2E5 		strb	r4, [r2, #3598]
 780 09f4 4040A0E3 		mov	r4, #64
 781 09f8 0F4EC2E5 		strb	r4, [r2, #3599]
 782 09fc 0240A0E3 		mov	r4, #2
 783 0a00 10B0A0E3 		mov	fp, #16
 784 0a04 164EC2E5 		strb	r4, [r2, #3606]
 785 0a08 4060A0E3 		mov	r6, #64
 786 0a0c 64471FE5 		ldr	r4, .L85+16
 787 0a10 17BEC2E5 		strb	fp, [r2, #3607]
 788 0a14 064EC2E5 		strb	r4, [r2, #3590]
 789 0a18 6AB0E0E3 		mvn	fp, #106
 790 0a1c 2E40E0E3 		mvn	r4, #46
 791 0a20 186EC2E5 		strb	r6, [r2, #3608]
 792 0a24 78871FE5 		ldr	r8, .L85+20
 793 0a28 78771FE5 		ldr	r7, .L85+24
 794 0a2c 78571FE5 		ldr	r5, .L85+28
 795 0a30 78671FE5 		ldr	r6, .L85+32
 796 0a34 008EC2E5 		strb	r8, [r2, #3584]
 797 0a38 017EC2E5 		strb	r7, [r2, #3585]
 798 0a3c 03BEC2E5 		strb	fp, [r2, #3587]
ARM GAS  C:\Users\ldebo\AppData\Local\Temp\ccevlpv4.s 			page 15


 799 0a40 045EC2E5 		strb	r5, [r2, #3588]
 800 0a44 074EC2E5 		strb	r4, [r2, #3591]
 801 0a48 096EC2E5 		strb	r6, [r2, #3593]
 802 0a4c 90671FE5 		ldr	r6, .L85+36
 803 0a50 90471FE5 		ldr	r4, .L85+40
 804 0a54 086EC2E5 		strb	r6, [r2, #3592]
 805 0a58 106EC2E5 		strb	r6, [r2, #3600]
 806 0a5c 7E60E0E3 		mvn	r6, #126
 807 0a60 0B6EC2E5 		strb	r6, [r2, #3595]
 808 0a64 136EC2E5 		strb	r6, [r2, #3603]
 809 0a68 1B6EC2E5 		strb	r6, [r2, #3611]
 810 0a6c 7060A0E3 		mov	r6, #112
 811 0a70 AC571FE5 		ldr	r5, .L85+44
 812 0a74 054EC2E5 		strb	r4, [r2, #3589]
 813 0a78 025EC2E5 		strb	r5, [r2, #3586]
 814 0a7c 0A5EC2E5 		strb	r5, [r2, #3594]
 815 0a80 125EC2E5 		strb	r5, [r2, #3602]
 816 0a84 0D4EC2E5 		strb	r4, [r2, #3597]
 817 0a88 154EC2E5 		strb	r4, [r2, #3605]
 818 0a8c 1D4EC2E5 		strb	r4, [r2, #3613]
 819 0a90 231EC2E5 		strb	r1, [r2, #3619]
 820 0a94 2B1EC2E5 		strb	r1, [r2, #3627]
 821 0a98 D0E71FE5 		ldr	lr, .L85+48
 822 0a9c D0871FE5 		ldr	r8, .L85+52
 823 0aa0 D0771FE5 		ldr	r7, .L85+56
 824 0aa4 D0571FE5 		ldr	r5, .L85+60
 825 0aa8 D0471FE5 		ldr	r4, .L85+64
 826 0aac D0171FE5 		ldr	r1, .L85+68
 827 0ab0 0CEEC2E5 		strb	lr, [r2, #3596]
 828 0ab4 148EC2E5 		strb	r8, [r2, #3604]
 829 0ab8 D8E71FE5 		ldr	lr, .L85+72
 830 0abc 197EC2E5 		strb	r7, [r2, #3609]
 831 0ac0 296EC2E5 		strb	r6, [r2, #3625]
 832 0ac4 396EC2E5 		strb	r6, [r2, #3641]
 833 0ac8 205EC2E5 		strb	r5, [r2, #3616]
 834 0acc 214EC2E5 		strb	r4, [r2, #3617]
 835 0ad0 221EC2E5 		strb	r1, [r2, #3618]
 836 0ad4 F0971FE5 		ldr	r9, .L85+76
 837 0ad8 F0871FE5 		ldr	r8, .L85+80
 838 0adc F0771FE5 		ldr	r7, .L85+84
 839 0ae0 F0671FE5 		ldr	r6, .L85+88
 840 0ae4 F0571FE5 		ldr	r5, .L85+92
 841 0ae8 F0471FE5 		ldr	r4, .L85+96
 842 0aec F0171FE5 		ldr	r1, .L85+100
 843 0af0 119EC2E5 		strb	r9, [r2, #3601]
 844 0af4 1AEEC2E5 		strb	lr, [r2, #3610]
 845 0af8 2AEEC2E5 		strb	lr, [r2, #3626]
 846 0afc 32EEC2E5 		strb	lr, [r2, #3634]
 847 0b00 1C8EC2E5 		strb	r8, [r2, #3612]
 848 0b04 1E7EC2E5 		strb	r7, [r2, #3614]
 849 0b08 286EC2E5 		strb	r6, [r2, #3624]
 850 0b0c 2E5EC2E5 		strb	r5, [r2, #3630]
 851 0b10 383EC2E5 		strb	r3, [r2, #3640]
 852 0b14 304EC2E5 		strb	r4, [r2, #3632]
 853 0b18 311EC2E5 		strb	r1, [r2, #3633]
 854 0b1c 1C181FE5 		ldr	r1, .L85+104
 855 0b20 6180E0E3 		mvn	r8, #97
ARM GAS  C:\Users\ldebo\AppData\Local\Temp\ccevlpv4.s 			page 16


 856 0b24 361EC2E5 		strb	r1, [r2, #3638]
 857 0b28 3010A0E3 		mov	r1, #48
 858 0b2c 371EC2E5 		strb	r1, [r2, #3639]
 859 0b30 0E1A80E2 		add	r1, r0, #57344
 860 0b34 E20C80E2 		add	r0, r0, #57856
 861 0b38 28008DE5 		str	r0, [sp, #40]
 862 0b3c 20009DE5 		ldr	r0, [sp, #32]
 863 0b40 3A8EC2E5 		strb	r8, [r2, #3642]
 864 0b44 2084A0E1 		lsr	r8, r0, #8
 865 0b48 34808DE5 		str	r8, [sp, #52]
 866 0b4c 0980A0E3 		mov	r8, #9
 867 0b50 4C781FE5 		ldr	r7, .L85+108
 868 0b54 1560A0E3 		mov	r6, #21
 869 0b58 247EC2E5 		strb	r7, [r2, #3620]
 870 0b5c 2C7EC2E5 		strb	r7, [r2, #3628]
 871 0b60 0070A0E1 		mov	r7, r0
 872 0b64 3D8EC2E5 		strb	r8, [r2, #3645]
 873 0b68 7080A0E3 		mov	r8, #112
 874 0b6c 336EC2E5 		strb	r6, [r2, #3635]
 875 0b70 68681FE5 		ldr	r6, .L85+112
 876 0b74 11A0A0E3 		mov	r10, #17
 877 0b78 256EC2E5 		strb	r6, [r2, #3621]
 878 0b7c 2D6EC2E5 		strb	r6, [r2, #3629]
 879 0b80 42EEC2E5 		strb	lr, [r2, #3650]
 880 0b84 276CA0E1 		lsr	r6, r7, #24
 881 0b88 09E0A0E3 		mov	lr, #9
 882 0b8c 1070A0E3 		mov	r7, #16
 883 0b90 84581FE5 		ldr	r5, .L85+116
 884 0b94 84481FE5 		ldr	r4, .L85+120
 885 0b98 418EC2E5 		strb	r8, [r2, #3649]
 886 0b9c 1C809DE5 		ldr	r8, [sp, #28]
 887 0ba0 345EC2E5 		strb	r5, [r2, #3636]
 888 0ba4 354EC2E5 		strb	r4, [r2, #3637]
 889 0ba8 94581FE5 		ldr	r5, .L85+124
 890 0bac 94481FE5 		ldr	r4, .L85+128
 891 0bb0 2884A0E1 		lsr	r8, r8, #8
 892 0bb4 3F7EC2E5 		strb	r7, [r2, #3647]
 893 0bb8 45EEC2E5 		strb	lr, [r2, #3653]
 894 0bbc 1FAEC2E5 		strb	r10, [r2, #3615]
 895 0bc0 27AEC2E5 		strb	r10, [r2, #3623]
 896 0bc4 2FAEC2E5 		strb	r10, [r2, #3631]
 897 0bc8 265EC2E5 		strb	r5, [r2, #3622]
 898 0bcc 3B3EC2E5 		strb	r3, [r2, #3643]
 899 0bd0 18709DE5 		ldr	r7, [sp, #24]
 900 0bd4 3E3EC2E5 		strb	r3, [r2, #3646]
 901 0bd8 403EC2E5 		strb	r3, [r2, #3648]
 902 0bdc 38808DE5 		str	r8, [sp, #56]
 903 0be0 433EC2E5 		strb	r3, [r2, #3651]
 904 0be4 463EC2E5 		strb	r3, [r2, #3654]
 905 0be8 475EC2E5 		strb	r5, [r2, #3655]
 906 0bec 18509DE5 		ldr	r5, [sp, #24]
 907 0bf0 3C4EC2E5 		strb	r4, [r2, #3644]
 908 0bf4 444EC2E5 		strb	r4, [r2, #3652]
 909 0bf8 28209DE5 		ldr	r2, [sp, #40]
 910 0bfc FF90A0E3 		mov	r9, #255
 911 0c00 238082E2 		add	r8, r2, #35
 912 0c04 2020DDE5 		ldrb	r2, [sp, #32]	@ zero_extendqisi2
ARM GAS  C:\Users\ldebo\AppData\Local\Temp\ccevlpv4.s 			page 17


 913 0c08 1CE09DE5 		ldr	lr, [sp, #28]
 914 0c0c 0F22C1E5 		strb	r2, [r1, #527]
 915 0c10 7220A0E3 		mov	r2, #114
 916 0c14 0022C1E5 		strb	r2, [r1, #512]
 917 0c18 7120A0E3 		mov	r2, #113
 918 0c1c 0E22C1E5 		strb	r2, [r1, #526]
 919 0c20 3420DDE5 		ldrb	r2, [sp, #52]	@ zero_extendqisi2
 920 0c24 2008A0E1 		lsr	r0, r0, #16
 921 0c28 1022C1E5 		strb	r2, [r1, #528]
 922 0c2c 0420A0E3 		mov	r2, #4
 923 0c30 B854CDE1 		strh	r5, [sp, #72]	@ movhi
 924 0c34 1722C1E5 		strb	r2, [r1, #535]
 925 0c38 0132C1E5 		strb	r3, [r1, #513]
 926 0c3c 0232C1E5 		strb	r3, [r1, #514]
 927 0c40 0332C1E5 		strb	r3, [r1, #515]
 928 0c44 0532C1E5 		strb	r3, [r1, #517]
 929 0c48 0632C1E5 		strb	r3, [r1, #518]
 930 0c4c 0732C1E5 		strb	r3, [r1, #519]
 931 0c50 0932C1E5 		strb	r3, [r1, #521]
 932 0c54 0A32C1E5 		strb	r3, [r1, #522]
 933 0c58 0B32C1E5 		strb	r3, [r1, #523]
 934 0c5c 0C32C1E5 		strb	r3, [r1, #524]
 935 0c60 0D32C1E5 		strb	r3, [r1, #525]
 936 0c64 1102C1E5 		strb	r0, [r1, #529]
 937 0c68 1262C1E5 		strb	r6, [r1, #530]
 938 0c6c 0492C1E5 		strb	r9, [r1, #516]
 939 0c70 0892C1E5 		strb	r9, [r1, #520]
 940 0c74 1352C1E5 		strb	r5, [r1, #531]
 941 0c78 15E2C1E5 		strb	lr, [r1, #533]
 942 0c7c 1832C1E5 		strb	r3, [r1, #536]
 943 0c80 1A32C1E5 		strb	r3, [r1, #538]
 944 0c84 1B32C1E5 		strb	r3, [r1, #539]
 945 0c88 3820DDE5 		ldrb	r2, [sp, #56]	@ zero_extendqisi2
 946 0c8c 73B0A0E3 		mov	fp, #115
 947 0c90 1622C1E5 		strb	r2, [r1, #534]
 948 0c94 1C20A0E3 		mov	r2, #28
 949 0c98 2774A0E1 		lsr	r7, r7, #8
 950 0c9c 1D32C1E5 		strb	r3, [r1, #541]
 951 0ca0 1E32C1E5 		strb	r3, [r1, #542]
 952 0ca4 1F32C1E5 		strb	r3, [r1, #543]
 953 0ca8 2032C1E5 		strb	r3, [r1, #544]
 954 0cac 2132C1E5 		strb	r3, [r1, #545]
 955 0cb0 2232C1E5 		strb	r3, [r1, #546]
 956 0cb4 1472C1E5 		strb	r7, [r1, #532]
 957 0cb8 B6E4CDE1 		strh	lr, [sp, #70]	@ movhi
 958 0cbc 1C22C1E5 		strb	r2, [r1, #540]
 959 0cc0 19B2C1E5 		strb	fp, [r1, #537]
 960 0cc4 2D00000A 		beq	.L51
 961 0cc8 0B60A0E1 		mov	r6, fp
 962 0ccc 0A50A0E1 		mov	r5, r10
 963 0cd0 1870A0E3 		mov	r7, #24
 964 0cd4 0300A0E1 		mov	r0, r3
 965 0cd8 14309DE5 		ldr	r3, [sp, #20]
 966 0cdc 8C218CE0 		add	r2, ip, ip, lsl #3
 967 0ce0 8342A0E1 		lsl	r4, r3, #5
 968 0ce4 013043E2 		sub	r3, r3, #1
 969 0ce8 18208DE5 		str	r2, [sp, #24]
ARM GAS  C:\Users\ldebo\AppData\Local\Temp\ccevlpv4.s 			page 18


 970 0cec 1C308DE5 		str	r3, [sp, #28]
 971 0cf0 01904CE2 		sub	r9, ip, #1
 972              	.L53:
 973 0cf4 00005CE3 		cmp	ip, #0
 974 0cf8 1900000A 		beq	.L54
 975 0cfc 1C309DE5 		ldr	r3, [sp, #28]
 976 0d00 70E0EFE6 		uxtb	lr, r0
 977 0d04 000053E1 		cmp	r3, r0
 978 0d08 6D00000A 		beq	.L84
 979 0d0c 0010A0E3 		mov	r1, #0
 980 0d10 10209DE5 		ldr	r2, [sp, #16]
 981 0d14 093088E2 		add	r3, r8, #9
 982              	.L56:
 983 0d18 22A4A0E1 		lsr	r10, r2, #8
 984 0d1c 071043E5 		strb	r1, [r3, #-7]
 985 0d20 011081E2 		add	r1, r1, #1
 986 0d24 22B8A0E1 		lsr	fp, r2, #16
 987 0d28 04A043E5 		strb	r10, [r3, #-4]
 988 0d2c 01005CE1 		cmp	ip, r1
 989 0d30 22ACA0E1 		lsr	r10, r2, #24
 990 0d34 052043E5 		strb	r2, [r3, #-5]
 991 0d38 096043E5 		strb	r6, [r3, #-9]
 992 0d3c 08E043E5 		strb	lr, [r3, #-8]
 993 0d40 065043E5 		strb	r5, [r3, #-6]
 994 0d44 017043E5 		strb	r7, [r3, #-1]
 995 0d48 03B043E5 		strb	fp, [r3, #-3]
 996 0d4c 02A043E5 		strb	r10, [r3, #-2]
 997 0d50 042082E0 		add	r2, r2, r4
 998 0d54 093083E2 		add	r3, r3, #9
 999 0d58 EEFFFF1A 		bne	.L56
 1000              	.L83:
 1001 0d5c 18309DE5 		ldr	r3, [sp, #24]
 1002 0d60 038088E0 		add	r8, r8, r3
 1003              	.L54:
 1004 0d64 14309DE5 		ldr	r3, [sp, #20]
 1005 0d68 010080E2 		add	r0, r0, #1
 1006 0d6c 000053E1 		cmp	r3, r0
 1007 0d70 10309DE5 		ldr	r3, [sp, #16]
 1008 0d74 203083E2 		add	r3, r3, #32
 1009 0d78 10308DE5 		str	r3, [sp, #16]
 1010 0d7c DCFFFF1A 		bne	.L53
 1011              	.L51:
 1012 0d80 0100A0E3 		mov	r0, #1
 1013 0d84 681A1FE5 		ldr	r1, .L85+132
 1014 0d88 2CC09DE5 		ldr	ip, [sp, #44]
 1015 0d8c 003091E5 		ldr	r3, [r1]
 1016 0d90 3B208CE2 		add	r2, ip, #59
 1017 0d94 033583E2 		add	r3, r3, #12582912
 1018 0d98 340183E5 		str	r0, [r3, #308]
 1019 0d9c 003091E5 		ldr	r3, [r1]
 1020 0da0 28E09DE5 		ldr	lr, [sp, #40]
 1021 0da4 033583E2 		add	r3, r3, #12582912
 1022 0da8 10C183E5 		str	ip, [r3, #272]
 1023 0dac 003091E5 		ldr	r3, [r1]
 1024 0db0 0E8048E0 		sub	r8, r8, lr
 1025 0db4 033583E2 		add	r3, r3, #12582912
 1026 0db8 082183E5 		str	r2, [r3, #264]
ARM GAS  C:\Users\ldebo\AppData\Local\Temp\ccevlpv4.s 			page 19


 1027 0dbc 000091E5 		ldr	r0, [r1]
 1028 0dc0 030580E2 		add	r0, r0, #12582912
 1029 0dc4 012C80E2 		add	r2, r0, #256
 1030              	.L58:
 1031 0dc8 003092E5 		ldr	r3, [r2]
 1032 0dcc 200013E3 		tst	r3, #32
 1033 0dd0 FCFFFF1A 		bne	.L58
 1034 0dd4 4D2F80E2 		add	r2, r0, #308
 1035              	.L59:
 1036 0dd8 003092E5 		ldr	r3, [r2]
 1037 0ddc 000053E3 		cmp	r3, #0
 1038 0de0 FCFFFF0A 		beq	.L59
 1039 0de4 2030A0E3 		mov	r3, #32
 1040 0de8 01C0A0E3 		mov	ip, #1
 1041 0dec 003180E5 		str	r3, [r0, #256]
 1042 0df0 003091E5 		ldr	r3, [r1]
 1043 0df4 30009DE5 		ldr	r0, [sp, #48]
 1044 0df8 033583E2 		add	r3, r3, #12582912
 1045 0dfc 38C183E5 		str	ip, [r3, #312]
 1046 0e00 003091E5 		ldr	r3, [r1]
 1047 0e04 002088E0 		add	r2, r8, r0
 1048 0e08 033583E2 		add	r3, r3, #12582912
 1049 0e0c 140183E5 		str	r0, [r3, #276]
 1050 0e10 003091E5 		ldr	r3, [r1]
 1051 0e14 033583E2 		add	r3, r3, #12582912
 1052 0e18 0C2183E5 		str	r2, [r3, #268]
 1053 0e1c 001091E5 		ldr	r1, [r1]
 1054 0e20 031581E2 		add	r1, r1, #12582912
 1055 0e24 412F81E2 		add	r2, r1, #260
 1056              	.L60:
 1057 0e28 003092E5 		ldr	r3, [r2]
 1058 0e2c 200013E3 		tst	r3, #32
 1059 0e30 FCFFFF1A 		bne	.L60
 1060 0e34 4E2F81E2 		add	r2, r1, #312
 1061              	.L61:
 1062 0e38 003092E5 		ldr	r3, [r2]
 1063 0e3c 000053E3 		cmp	r3, #0
 1064 0e40 FCFFFF0A 		beq	.L61
 1065 0e44 0440A0E3 		mov	r4, #4
 1066 0e48 2030A0E3 		mov	r3, #32
 1067 0e4c 24509DE5 		ldr	r5, [sp, #36]
 1068 0e50 043181E5 		str	r3, [r1, #260]
 1069 0e54 342B1FE5 		ldr	r2, .L85+136
 1070 0e58 0430A0E1 		mov	r3, r4
 1071 0e5c 0410A0E1 		mov	r1, r4
 1072 0e60 04508DE5 		str	r5, [sp, #4]
 1073 0e64 00408DE5 		str	r4, [sp]
 1074 0e68 0000A0E3 		mov	r0, #0
 1075 0e6c FEFFFFEB 		bl	mailbox_tag_message
 1076 0e70 00408DE5 		str	r4, [sp]
 1077 0e74 04508DE5 		str	r5, [sp, #4]
 1078 0e78 0430A0E1 		mov	r3, r4
 1079 0e7c 0410A0E1 		mov	r1, r4
 1080 0e80 5C2B1FE5 		ldr	r2, .L85+140
 1081 0e84 0000A0E3 		mov	r0, #0
 1082 0e88 FEFFFFEB 		bl	mailbox_tag_message
 1083 0e8c 84D08DE2 		add	sp, sp, #132
ARM GAS  C:\Users\ldebo\AppData\Local\Temp\ccevlpv4.s 			page 20


 1084              		@ sp needed
 1085 0e90 F08FBDE8 		pop	{r4, r5, r6, r7, r8, r9, r10, fp, pc}
 1086              	.L63:
 1087 0e94 E23CA0E3 		mov	r3, #57856
 1088 0e98 30308DE5 		str	r3, [sp, #48]
 1089 0e9c 063AA0E3 		mov	r3, #24576
 1090 0ea0 2C008DE5 		str	r0, [sp, #44]
 1091 0ea4 014CA0E3 		mov	r4, #256
 1092 0ea8 FF5CA0E3 		mov	r5, #65280
 1093 0eac FE8CA0E3 		mov	r8, #65024
 1094 0eb0 7060A0E3 		mov	r6, #112
 1095 0eb4 8070A0E3 		mov	r7, #128
 1096 0eb8 029CA0E3 		mov	r9, #512
 1097 0ebc 10308DE5 		str	r3, [sp, #16]
 1098 0ec0 34FDFFEA 		b	.L49
 1099              	.L84:
 1100 0ec4 0010A0E3 		mov	r1, #0
 1101 0ec8 10209DE5 		ldr	r2, [sp, #16]
 1102 0ecc 093088E2 		add	r3, r8, #9
 1103              	.L52:
 1104 0ed0 010059E1 		cmp	r9, r1
 1105 0ed4 19B0A003 		moveq	fp, #25
 1106 0ed8 18B0A013 		movne	fp, #24
 1107 0edc 22A4A0E1 		lsr	r10, r2, #8
 1108 0ee0 071043E5 		strb	r1, [r3, #-7]
 1109 0ee4 011081E2 		add	r1, r1, #1
 1110 0ee8 01B043E5 		strb	fp, [r3, #-1]
 1111 0eec 04A043E5 		strb	r10, [r3, #-4]
 1112 0ef0 22B8A0E1 		lsr	fp, r2, #16
 1113 0ef4 22ACA0E1 		lsr	r10, r2, #24
 1114 0ef8 01005CE1 		cmp	ip, r1
 1115 0efc 052043E5 		strb	r2, [r3, #-5]
 1116 0f00 096043E5 		strb	r6, [r3, #-9]
 1117 0f04 08E043E5 		strb	lr, [r3, #-8]
 1118 0f08 065043E5 		strb	r5, [r3, #-6]
 1119 0f0c 03B043E5 		strb	fp, [r3, #-3]
 1120 0f10 02A043E5 		strb	r10, [r3, #-2]
 1121 0f14 042082E0 		add	r2, r2, r4
 1122 0f18 093083E2 		add	r3, r3, #9
 1123 0f1c EBFFFF1A 		bne	.L52
 1124 0f20 8DFFFFEA 		b	.L83
 1125              		.size	testTriangle, .-testTriangle
 1126              		.global	angle
 1127              		.global	cosTheta
 1128              		.global	fShaderStr
 1129              		.global	vShaderStr
 1130              		.data
 1131              		.align	2
 1132              		.set	.LANCHOR1,. + 0
 1133              		.type	cosTheta, %object
 1134              		.size	cosTheta, 4
 1135              	cosTheta:
 1136 0000 0000803F 		.word	1065353216
 1137              		.type	fShaderStr, %object
 1138              		.size	fShaderStr, 372
 1139              	fShaderStr:
 1140 0004 70726563 		.ascii	"precision mediump float;                           "
ARM GAS  C:\Users\ldebo\AppData\Local\Temp\ccevlpv4.s 			page 21


 1140      6973696F 
 1140      6E206D65 
 1140      6469756D 
 1140      7020666C 
 1141 0037 200A7661 		.ascii	" \012varying vec2 v_texCoord;                      "
 1141      7279696E 
 1141      67207665 
 1141      63322076 
 1141      5F746578 
 1142 0067 20202020 		.ascii	"      \012uniform sampler2D s_texture;             "
 1142      20200A75 
 1142      6E69666F 
 1142      726D2073 
 1142      616D706C 
 1143 0097 20202020 		.ascii	"           \012void main()                         "
 1143      20202020 
 1143      2020200A 
 1143      766F6964 
 1143      206D6169 
 1144 00c7 20202020 		.ascii	"                \012{                              "
 1144      20202020 
 1144      20202020 
 1144      20202020 
 1144      0A7B2020 
 1145 00f7 20202020 		.ascii	"                     \012  gl_FragColor = texture2D"
 1145      20202020 
 1145      20202020 
 1145      20202020 
 1145      20202020 
 1146 0127 2820735F 		.ascii	"( s_texture, v_texCoord );\012}                    "
 1146      74657874 
 1146      7572652C 
 1146      20765F74 
 1146      6578436F 
 1147 0157 20202020 		.ascii	"                               \012\000"
 1147      20202020 
 1147      20202020 
 1147      20202020 
 1147      20202020 
 1148              		.type	vShaderStr, %object
 1149              		.size	vShaderStr, 281
 1150              	vShaderStr:
 1151 0178 756E6966 		.ascii	"uniform mat4 u_rotateMx;  \012attribute vec4 a_posi"
 1151      6F726D20 
 1151      6D617434 
 1151      20755F72 
 1151      6F746174 
 1152 01a8 74696F6E 		.ascii	"tion;   \012attribute vec2 a_texCoord;   \012varyin"
 1152      3B202020 
 1152      0A617474 
 1152      72696275 
 1152      74652076 
 1153 01d5 67207665 		.ascii	"g vec2 v_texCoord;     \012void main()             "
 1153      63322076 
 1153      5F746578 
 1153      436F6F72 
 1153      643B2020 
ARM GAS  C:\Users\ldebo\AppData\Local\Temp\ccevlpv4.s 			page 22


 1154 0205 20202020 		.ascii	"     \012{                            \012   gl_Pos"
 1154      200A7B20 
 1154      20202020 
 1154      20202020 
 1154      20202020 
 1155 0232 6974696F 		.ascii	"ition = u_rotateMx * a_position; \012   v_texCoord "
 1155      6E203D20 
 1155      755F726F 
 1155      74617465 
 1155      4D78202A 
 1156 0262 3D20615F 		.ascii	"= a_texCoord;  \012}                            \012"
 1156      74657843 
 1156      6F6F7264 
 1156      3B20200A 
 1156      7D202020 
 1157 0290 00       		.ascii	"\000"
 1158              		.bss
 1159              		.align	2
 1160              		.set	.LANCHOR0,. + 0
 1161              		.type	angle, %object
 1162              		.size	angle, 4
 1163              	angle:
 1164 0000 00000000 		.space	4
 1165              		.section	.rodata.str1.4,"aMS",%progbits,1
 1166              		.align	2
 1167              	.LC0:
 1168 0000 4572726F 		.ascii	"Error: Unable to allocate memory\000"
 1168      723A2055 
 1168      6E61626C 
 1168      6520746F 
 1168      20616C6C 
 1169              		.ident	"GCC: (GNU Tools for ARM Embedded Processors 6-2017-q2-update) 6.3.1 20170620 (release) [AR
ARM GAS  C:\Users\ldebo\AppData\Local\Temp\ccevlpv4.s 			page 23


DEFINED SYMBOLS
                            *ABS*:00000000 rpi-GLES.c
C:\Users\ldebo\AppData\Local\Temp\ccevlpv4.s:14     .text:00000000 $a
C:\Users\ldebo\AppData\Local\Temp\ccevlpv4.s:20     .text:00000000 InitV3D
C:\Users\ldebo\AppData\Local\Temp\ccevlpv4.s:58     .text:00000078 $d
C:\Users\ldebo\AppData\Local\Temp\ccevlpv4.s:64     .text:0000008c $a
C:\Users\ldebo\AppData\Local\Temp\ccevlpv4.s:70     .text:0000008c V3D_mem_alloc
C:\Users\ldebo\AppData\Local\Temp\ccevlpv4.s:90     .text:000000c0 $d
C:\Users\ldebo\AppData\Local\Temp\ccevlpv4.s:92     .text:000000c4 $a
C:\Users\ldebo\AppData\Local\Temp\ccevlpv4.s:98     .text:000000c4 V3D_mem_free
C:\Users\ldebo\AppData\Local\Temp\ccevlpv4.s:116    .text:000000f0 $d
C:\Users\ldebo\AppData\Local\Temp\ccevlpv4.s:118    .text:000000f4 $a
C:\Users\ldebo\AppData\Local\Temp\ccevlpv4.s:124    .text:000000f4 V3D_mem_lock
C:\Users\ldebo\AppData\Local\Temp\ccevlpv4.s:144    .text:00000128 $d
C:\Users\ldebo\AppData\Local\Temp\ccevlpv4.s:146    .text:0000012c $a
C:\Users\ldebo\AppData\Local\Temp\ccevlpv4.s:152    .text:0000012c V3D_mem_unlock
C:\Users\ldebo\AppData\Local\Temp\ccevlpv4.s:170    .text:00000158 $d
C:\Users\ldebo\AppData\Local\Temp\ccevlpv4.s:172    .text:0000015c $a
C:\Users\ldebo\AppData\Local\Temp\ccevlpv4.s:178    .text:0000015c V3D_execute_code
C:\Users\ldebo\AppData\Local\Temp\ccevlpv4.s:203    .text:000001a4 $d
C:\Users\ldebo\AppData\Local\Temp\ccevlpv4.s:205    .text:000001a8 $a
C:\Users\ldebo\AppData\Local\Temp\ccevlpv4.s:211    .text:000001a8 V3D_execute_qpu
C:\Users\ldebo\AppData\Local\Temp\ccevlpv4.s:230    .text:000001d8 $d
C:\Users\ldebo\AppData\Local\Temp\ccevlpv4.s:232    .text:000001dc $a
C:\Users\ldebo\AppData\Local\Temp\ccevlpv4.s:238    .text:000001dc DoRotate
C:\Users\ldebo\AppData\Local\Temp\ccevlpv4.s:259    .text:00000218 $d
C:\Users\ldebo\AppData\Local\Temp\ccevlpv4.s:264    .text:00000228 $a
C:\Users\ldebo\AppData\Local\Temp\ccevlpv4.s:270    .text:00000228 testTriangle
C:\Users\ldebo\AppData\Local\Temp\ccevlpv4.s:309    .text:000002a0 $d
C:\Users\ldebo\AppData\Local\Temp\ccevlpv4.s:349    .text:0000033c $a
C:\Users\ldebo\AppData\Local\Temp\ccevlpv4.s:1163   .bss:00000000 angle
C:\Users\ldebo\AppData\Local\Temp\ccevlpv4.s:1135   .data:00000000 cosTheta
C:\Users\ldebo\AppData\Local\Temp\ccevlpv4.s:1139   .data:00000004 fShaderStr
C:\Users\ldebo\AppData\Local\Temp\ccevlpv4.s:1150   .data:00000178 vShaderStr
C:\Users\ldebo\AppData\Local\Temp\ccevlpv4.s:1131   .data:00000000 $d
C:\Users\ldebo\AppData\Local\Temp\ccevlpv4.s:1159   .bss:00000000 $d
C:\Users\ldebo\AppData\Local\Temp\ccevlpv4.s:1166   .rodata.str1.4:00000000 $d

UNDEFINED SYMBOLS
mailbox_tag_message
RPi_IO_Base_Addr
cosf
GPUaddrToARMaddr
