AARCH64 GAS  C:\Users\ldebo\AppData\Local\Temp\cchOloIf.s 			page 1


   1              		.arch armv8-a
   2              		.file	"main.c"
   3              		.text
   4              		.align	2
   5              		.p2align 4,,15
   6              		.global	c_irq_handler
   7              		.type	c_irq_handler, %function
   8              	c_irq_handler:
   9 0000 01000090 		adrp	x1, .LANCHOR0
  10 0004 20004039 		ldrb	w0, [x1, #:lo12:.LANCHOR0]
  11 0008 C0000035 		cbnz	w0, .L5
  12 000c 22008052 		mov	w2, 1
  13 0010 20008052 		mov	w0, 1
  14 0014 22000039 		strb	w2, [x1, #:lo12:.LANCHOR0]
  15 0018 00000014 		b	set_Activity_LED
  16 001c 1F2003D5 		.p2align 3
  17              	.L5:
  18 0020 3F000039 		strb	wzr, [x1, #:lo12:.LANCHOR0]
  19 0024 00008052 		mov	w0, 0
  20 0028 00000014 		b	set_Activity_LED
  21              		.size	c_irq_handler, .-c_irq_handler
  22              		.align	2
  23 002c 1F2003D5 		.p2align 4,,15
  24              		.global	kernel_main
  25              		.type	kernel_main, %function
  26              	kernel_main:
  27 0030 F353BBA9 		stp	x19, x20, [sp, -80]!
  28 0034 13000090 		adrp	x19, .LANCHOR0
  29 0038 73020091 		add	x19, x19, :lo12:.LANCHOR0
  30 003c F55B01A9 		stp	x21, x22, [sp, 16]
  31 0040 15000090 		adrp	x21, printf
  32 0044 B4020091 		add	x20, x21, :lo12:printf
  33 0048 F76302A9 		stp	x23, x24, [sp, 32]
  34 004c 17000090 		adrp	x23, halfScrWth
  35 0050 F97B03A9 		stp	x25, x30, [sp, 48]
  36 0054 00000094 		bl	InitV3D
  37 0058 000080D2 		mov	x0, 0
  38 005c 00000094 		bl	ARM_setmaxspeed
  39 0060 030080D2 		mov	x3, 0
  40 0064 02048052 		mov	w2, 32
  41 0068 01008052 		mov	w1, 0
  42 006c 00008052 		mov	w0, 0
  43 0070 00000094 		bl	PiConsole_Init
  44 0074 18000090 		adrp	x24, halfScrHt
  45 0078 01000090 		adrp	x1, c_irq_handler
  46 007c 21000091 		add	x1, x1, :lo12:c_irq_handler
  47 0080 00249452 		mov	w0, 41248
  48 0084 E000A072 		movk	w0, 0x7, lsl 16
  49 0088 00000094 		bl	TimerIrqSetup
  50 008c 73220091 		add	x19, x19, 8
  51 0090 00000094 		bl	EnableInterrupts
  52 0094 00000094 		bl	GetConsole_Width
  53 0098 007C0153 		lsr	w0, w0, 1
  54 009c E00200B9 		str	w0, [x23, #:lo12:halfScrWth]
  55 00a0 00000094 		bl	GetConsole_Height
  56 00a4 22008052 		mov	w2, 1
  57 00a8 E10314AA 		mov	x1, x20
AARCH64 GAS  C:\Users\ldebo\AppData\Local\Temp\cchOloIf.s 			page 2


  58 00ac 0324C21A 		lsr	w3, w0, w2
  59 00b0 E00314AA 		mov	x0, x20
  60 00b4 030300B9 		str	w3, [x24, #:lo12:halfScrHt]
  61 00b8 00000094 		bl	sdInitCard
  62 00bc 00000094 		bl	GetConsole_Width
  63 00c0 F603002A 		mov	w22, w0
  64 00c4 00000094 		bl	GetConsole_Height
  65 00c8 F903002A 		mov	w25, w0
  66 00cc 00000094 		bl	GetConsole_FrameBuffer
  67 00d0 E003002A 		uxtw	x0, w0
  68 00d4 00000094 		bl	ARMaddrToGPUaddr
  69 00d8 E303002A 		mov	w3, w0
  70 00dc E203192A 		mov	w2, w25
  71 00e0 E103162A 		mov	w1, w22
  72 00e4 E00313AA 		mov	x0, x19
  73 00e8 00000094 		bl	SetupRenderer
  74 00ec 8005001C 		ldr	s0, .LC0
  75 00f0 00000090 		adrp	x0, .LC1
  76 00f4 E20314AA 		mov	x2, x20
  77 00f8 E10313AA 		mov	x1, x19
  78 00fc 00000091 		add	x0, x0, :lo12:.LC1
  79 0100 00000094 		bl	CreateVertexData
  80 0104 1F1C0072 		tst	w0, 255
  81 0108 C1000054 		bne	.L7
  82 010c 00000090 		adrp	x0, .LC2
  83 0110 00000091 		add	x0, x0, :lo12:.LC2
  84 0114 00000094 		bl	printf
  85              	.L8:
  86 0118 00000014 		b	.L8
  87 011c 1F2003D5 		.p2align 3
  88              	.L7:
  89 0120 0004000F 		movi	v0.2s, #0
  90 0124 010340B9 		ldr	w1, [x24, #:lo12:halfScrHt]
  91 0128 E00240B9 		ldr	w0, [x23, #:lo12:halfScrWth]
  92 012c E20313AA 		mov	x2, x19
  93 0130 E82300FD 		str	d8, [sp, 64]
  94 0134 F40313AA 		mov	x20, x19
  95 0138 18030091 		add	x24, x24, :lo12:halfScrHt
  96 013c F7020091 		add	x23, x23, :lo12:halfScrWth
  97 0140 16E284D2 		mov	x22, 10000
  98 0144 00000094 		bl	DoRotate
  99 0148 00000094 		bl	timer_getTickCount
 100 014c F30300AA 		mov	x19, x0
 101 0150 8802001C 		ldr	s8, .LC3
 102 0154 04000014 		b	.L10
 103              		.p2align 3
 104              	.L9:
 105 0158 A1020091 		add	x1, x21, :lo12:printf
 106 015c E00314AA 		mov	x0, x20
 107 0160 00000094 		bl	RenderModel
 108              	.L10:
 109 0164 00000094 		bl	timer_getTickCount
 110 0168 E10300AA 		mov	x1, x0
 111 016c E00313AA 		mov	x0, x19
 112 0170 00000094 		bl	tick_difference
 113 0174 1F0016EB 		cmp	x0, x22
 114 0178 09FFFF54 		bls	.L9
AARCH64 GAS  C:\Users\ldebo\AppData\Local\Temp\cchOloIf.s 			page 3


 115 017c 0041201E 		fmov	s0, s8
 116 0180 E00240B9 		ldr	w0, [x23]
 117 0184 010340B9 		ldr	w1, [x24]
 118 0188 E20314AA 		mov	x2, x20
 119 018c 00000094 		bl	DoRotate
 120 0190 00000094 		bl	timer_getTickCount
 121 0194 F30300AA 		mov	x19, x0
 122 0198 F0FFFF17 		b	.L9
 123              		.size	kernel_main, .-kernel_main
 124              		.align	2
 125              	.LC0:
 126 019c 0000C843 		.word	1137180672
 127              		.align	2
 128              	.LC3:
 129 01a0 0AD7233C 		.word	1008981770
 130              		.global	model
 131              		.comm	halfScrHt,4,4
 132              		.comm	halfScrWth,4,4
 133              		.comm	__errno,4,4
 134              		.bss
 135              		.align	3
 136              		.set	.LANCHOR0,. + 0
 137              		.type	lit, %object
 138              		.size	lit, 1
 139              	lit:
 140 0000 00       		.zero	1
 141 0001 00000000 		.zero	7
 141      000000
 142              		.type	model, %object
 143              		.size	model, 224
 144              	model:
 145 0008 00000000 		.zero	224
 145      00000000 
 145      00000000 
 145      00000000 
 145      00000000 
 146              		.section	.rodata.str1.8,"aMS",@progbits,1
 147              		.align	3
 148              	.LC1:
 149 0000 5C416972 		.string	"\\AirCraft\\pitts\\pitts.obj"
 149      43726166 
 149      745C7069 
 149      7474735C 
 149      70697474 
 150 001a 00000000 		.zero	6
 150      0000
 151              	.LC2:
 152 0020 4D6F6465 		.string	"Model load failed .. check why\n"
 152      6C206C6F 
 152      61642066 
 152      61696C65 
 152      64202E2E 
 153              		.ident	"GCC: (Linaro GCC 7.1-2017.05) 7.1.1 20170510"
AARCH64 GAS  C:\Users\ldebo\AppData\Local\Temp\cchOloIf.s 			page 4


DEFINED SYMBOLS
                            *ABS*:0000000000000000 main.c
C:\Users\ldebo\AppData\Local\Temp\cchOloIf.s:4      .text:0000000000000000 $x
C:\Users\ldebo\AppData\Local\Temp\cchOloIf.s:8      .text:0000000000000000 c_irq_handler
C:\Users\ldebo\AppData\Local\Temp\cchOloIf.s:26     .text:0000000000000030 kernel_main
                            *COM*:0000000000000004 halfScrWth
                            *COM*:0000000000000004 halfScrHt
C:\Users\ldebo\AppData\Local\Temp\cchOloIf.s:126    .text:000000000000019c $d
C:\Users\ldebo\AppData\Local\Temp\cchOloIf.s:129    .text:00000000000001a0 $d
C:\Users\ldebo\AppData\Local\Temp\cchOloIf.s:144    .bss:0000000000000008 model
                            *COM*:0000000000000004 __errno
C:\Users\ldebo\AppData\Local\Temp\cchOloIf.s:135    .bss:0000000000000000 $d
C:\Users\ldebo\AppData\Local\Temp\cchOloIf.s:139    .bss:0000000000000000 lit
C:\Users\ldebo\AppData\Local\Temp\cchOloIf.s:147    .rodata.str1.8:0000000000000000 $d

UNDEFINED SYMBOLS
set_Activity_LED
printf
InitV3D
ARM_setmaxspeed
PiConsole_Init
TimerIrqSetup
EnableInterrupts
GetConsole_Width
GetConsole_Height
sdInitCard
GetConsole_FrameBuffer
ARMaddrToGPUaddr
SetupRenderer
CreateVertexData
DoRotate
timer_getTickCount
RenderModel
tick_difference
AARCH64 GAS  C:\Users\ldebo\AppData\Local\Temp\cchOloIf.s 			page 1


   1              	# 1 "SmartStart64.S"
   1              	﻿;/*"++++++++++++++++++++++++++++++++++++++++++++++++++++++++++++++++++++++++"
   0              	
   0              	
   2              	;@"																			"			
   3              	;@"      Filename: smartstart64.s											"
   4              	;@"      Copyright(c): Leon de Boer(LdB) 2017								"
   5              	;@"      Version: 2.03														"
   6              	;@"																			"		
   7              	;@"***************[ THIS CODE IS FREEWARE UNDER CC Attribution]*************"
   8              	;@"																            "
   9              	;@"     This sourcecode is released for the purpose to promote programming  "
  10              	;@"  on the Raspberry Pi. You may redistribute it and/or modify with the    "
  11              	;@"  following disclaimer and condition.                                    "
  12              	;@"																            "
  13              	;@"      The SOURCE CODE is distributed "AS IS" WITHOUT WARRANTIES AS TO    "
  14              	;@"   PERFORMANCE OF MERCHANTABILITY WHETHER EXPRESSED OR IMPLIED.          "
  15              	;@"   Redistributions of source code must retain the copyright notices to   "
  16              	;@"   maintain the author credit (attribution) .							"
  17              	;@"																			"
  18              	;@"*************************************************************************"
  19              	;@"                                                                         "
  20              	;@"       This code expands on my earlier SmartStart bootstub assembler for "
  21              	;@" the Pi3. It directly supports multicore operation in C/C++. To do that  "
  22              	;@" it provides stack space to each core and provides a modified bootloader " 
  23              	;@" spinlock that protects against registers X0-X7 trashed. As any C/C++    "
  24              	;@" 64 bit compiler will trash those registers, to use C/C++ in multicore   "
  25              	;@" programming this protection must be done.								"
  26              	;@"       This is a matching paired AARCH64 stub for the 64bit linker file  "
  27              	;@" and carries the samme arrangement as AARCH32 to ease porting.		    "
  28              	;@"																            "
  29              	;@"+++++++++++++++++++++++[ REVISIONS ]+++++++++++++++++++++++++++++++++++++"
  30              	;@"  1.01 Initial release .. Pi autodetection main aim                      "
  31              	;@"  1.02 Many functions moved out C to aide 32/64 bit compatability        "
  32              	;@"  2.01 Futher reductions to bare minmum assembeler code                  "
  33              	;@"  2.02 Multicore functionality added                                     "
  34              	;@"  2.03 Timer Irq support added  											"
  35              	;@"+++++++++++++++++++++++++++++++++++++++++++++++++++++++++++++++++++++++"*/
  36              	
  37              	.section ".text.startup", "ax", %progbits
  38              	.balign	4
  39              	.globl _start
  40              	_start:	
  41 0000 0C000010 		adr x12, _start							// Hold boot address in high register R12
  42 0004 610D0058 		ldr x1, =RPi_BootAddr					// Address of RPi_BootAddr
  43 0008 2C0000B9 		str w12, [x1]							// Store the boot address
  44              	
  45 000c 600D0058 		ldr	x0, =0x3F000000						// No need to detect address in 64bit mode it has to be 0x3F000000 on Pi3
  46 0010 810D0058 		ldr x1, =RPi_IO_Base_Addr				// Address of RPi_IO_Base_Addr
  47 0014 200000B9 		str w0, [x1]							// Store the IO base address
  48              	
  49 0018 200080D2 		mov x0, #1								// Multicore support starts as 1 core
  50 001c 610D0058 		ldr x1, =RPi_CoresReady					// Address of RPi_CoresReady
  51 0020 200000B9 		str w0, [x1]							// Store the CoresReady count as 1
  52              	
  53 0024 001380D2 		mov x0, #0x98							// Compiled for ARM8 CPU in AARCH64 and supports 4 cores
  54 0028 410D0058 		ldr x1, =RPi_CompileMode				// Address of RPi_CompileMode
AARCH64 GAS  C:\Users\ldebo\AppData\Local\Temp\cchOloIf.s 			page 2


  55 002c 200000B9 		str w0, [x1]							// Store the compiler mode  
  56              	
  57 0030 000038D5 		mrs	x0, midr_el1						// Read CPU Id register
  58 0034 210D0058 		ldr x1, =RPi_CpuId						// Address of RPi_CpuId
  59 0038 200000B9 		str w0, [x1]							// Store the CPU id 
  60              	
  61              	//"================================================================"
  62              	//  Initialize Generic Timers for Core0
  63              	//"================================================================"
  64 003c 00E13CD5 		mrs	x0, cnthctl_el2
  65 0040 000440B2 		orr	x0, x0, #0x3						/* Enable EL1 access to timers */
  66 0044 00E11CD5 		msr	cnthctl_el2, x0
  67 0048 7FE01CD5 		msr	cntvoff_el2, xzr
  68              		
  69              		/* Not sure if I want this yet */
  70 004c 00E138D5 		mrs	x0, cntkctl_el1
  71 0050 000440B2 		orr	x0, x0, #0x3						/* Enable EL0 access to timers */
  72 0054 00E118D5 		msr	cntkctl_el1, x0
  73              	
  74              	//"================================================================"
  75              	//  Setup stack pointers for each core and each CPU operation mode
  76              	//"================================================================"
  77              	multicore_start:
  78 0058 420C0058 	    ldr x2, = __EL2_stack_core0				// Address of EL2_stack_core0 stack pointer value
  79 005c 630C0058 	    ldr x3, = __EL1_stack_core0				// Address of EL1_stack_core0 stack pointer value
  80 0060 840C0058 	    ldr x4, = __EL0_stack_core0				// Address of EL0_stack_core0 stack pointer value
  81 0064 A60038D5 		mrs x6, mpidr_el1						// Read core id on ARM8
  82 0068 C60440F2 		ands x6, x6, #0x3						// Make cpu id bitmask
  83 006c C0010054 		beq set_stacks							// Ready to set core 0 stacks
  84 0070 420C0058 	    ldr x2, = __EL2_stack_core1				// Address of EL2_stack_core1 stack pointer value
  85 0074 630C0058 	    ldr x3, = __EL1_stack_core1				// Address of EL1_stack_core1 stack pointer value
  86 0078 840C0058 	    ldr x4, = __EL0_stack_core1				// Address of EL0_stack_core1 stack pointer value
  87 007c DF0400F1 		cmp x6, #1								// Check cpu id for core 1
  88 0080 20010054 		beq set_stacks							// Ready to set core 1 stacks
  89 0084 620C0058 	    ldr x2, = __EL2_stack_core2				// Address of EL2_stack_core2 stack pointer value
  90 0088 830C0058 	    ldr x3, = __EL1_stack_core2				// Address of EL1_stack_core2 stack pointer value
  91 008c A40C0058 	    ldr x4, = __EL0_stack_core2				// Address of EL0_stack_core2 stack pointer value
  92 0090 DF0800F1 		cmp x6, #2								// Check cpu id for core 2
  93 0094 80000054 		beq set_stacks							// Ready to set core 1 stacks
  94 0098 820C0058 	    ldr x2, = __EL2_stack_core3				// Address of EL2_stack_core3 stack pointer value
  95 009c A30C0058 	    ldr x3, = __EL1_stack_core3				// Address of EL1_stack_core3 stack pointer value
  96 00a0 C40C0058 	    ldr x4, = __EL0_stack_core3				// Address of EL0_stack_core3 stack pointer value
  97              	set_stacks:
  98 00a4 5F000091 		mov	sp, x2								/* EL2 stack set */
  99 00a8 03411CD5 		msr	sp_el1, x3							/* EL1 stack set */
 100 00ac 044118D5 		msr	sp_el0, x4							/* EL0 stack set */
 101              	
 102              	//"================================================================"
 103              	//  Initilize MPID/MPIDR registers for all Cores
 104              	//"================================================================"
 105 00b0 000038D5 		mrs	x0, midr_el1
 106 00b4 A10038D5 		mrs	x1, mpidr_el1
 107 00b8 00001CD5 		msr	vpidr_el2, x0
 108 00bc A1001CD5 		msr	vmpidr_el2, x1
 109              	
 110              	//"================================================================"
 111              	//  Disable coprocessor traps for all Cores
AARCH64 GAS  C:\Users\ldebo\AppData\Local\Temp\cchOloIf.s 			page 3


 112              	//"================================================================"
 113 00c0 E07F86D2 		mov	x0, #0x33ff
 114 00c4 40111CD5 		msr	cptr_el2, x0						// Disable coprocessor traps to EL2
 115 00c8 7F111CD5 		msr	hstr_el2, xzr						// Disable coprocessor traps to EL2
 116 00cc 0006A0D2 		mov	x0, #3 << 20
 117 00d0 401018D5 		msr	cpacr_el1, x0						// Enable FP/SIMD at EL1
 118              	
 119              	//"================================================================"
 120              	//  Initialize HCR_EL2 so EL1 is 64 bits for all Cores
 121              	//"================================================================"
 122 00d4 0000B0D2 		mov	x0, #(1 << 31)						// 64bit EL1
 123 00d8 00111CD5 		msr	hcr_el2, x0
 124              	
 125              	//"================================================================"
 126              	//  Initialize SCTLR_EL1 for all Cores
 127              	//"================================================================"
 128              	    /*  RES1 bits (29,28,23,22,20,11) to 1
 129              		 *  RES0 bits (31,30,27,21,17,13,10,6) +
 130              		 *  UCI,EE,EOE,WXN,nTWE,nTWI,UCT,DZE,I,UMA,SED,ITD,
 131              		 *  CP15BEN,SA0,SA,C,A,M to 0 */
 132 00dc 000081D2 		mov	x0, #0x0800
 133 00e0 001AA6F2 		movk	x0, #0x30d0, lsl #16
 134 00e4 00007EB2 		orr    x0, x0, #(0x1 << 2)            // The C bit on (data cache). 
 135 00e8 000074B2 		orr    x0, x0, #(0x1 << 12)           // The I bit on (instruction cache)
 136 00ec 001018D5 		msr	sctlr_el1, x0
 137              	
 138              	//"================================================================"
 139              	//  Return to the EL1_SP1 mode from EL2 for all Cores
 140              	//"================================================================"
 141 00f0 A07880D2 		mov	x0, #0x3c5							// EL1_SP1 | D | A | I | F
 142 00f4 00401CD5 		msr	spsr_el2, x0						// Set spsr_el2 with settings
 143 00f8 60000010 		adr	x0, exit_el1						// Address to exit EL2
 144 00fc 20401CD5 		msr	elr_el2, x0							// Set elevated return register
 145 0100 E0039FD6 		eret									// Call elevated return
 146              	exit_el1:
 147 0104 A60038D5 		mrs x6, mpidr_el1						// Read core id on ARM8
 148 0108 C6044092 		and x6, x6, #0x3						// Make cpu id bitmask
 149 010c C60000B4 		cbz x6, cpu0_exit_multicore_park		// Core0 continues on
 150              	
 151              	//"================================================================"
 152              	//      Now park Core 1,2,3 into secondary spinloop on BCM2837
 153              	//"================================================================"
 154 0110 C1050058 		ldr x1, =RPi_CoresReady					// Address of CoreReady count
 155 0114 200040B9 		ldr w0, [x1]							// Load current core count 
 156 0118 00040011 		add w0, w0, #1							// Add one as core about to go ready
 157 011c 200000B9 		str w0, [x1]							// Update CoreReady count
 158 0120 50000014 		b  StartSecondarySpin					// Jump to setup secondary spin
 159              	cpu0_exit_multicore_park:
 160              	
 161              	//"================================================================"
 162              	//  Set vector table for EL1 for Core0 (All others cores parked)
 163              	//"================================================================"
 164 0124 E0080058 	    ldr x0, =VectorTable						
 165 0128 00C018D5 	    msr vbar_el1,x0
 166              	
 167              	//"================================================================"
 168              	//  About to go to into C kernel clear BSS (Core0 only)
AARCH64 GAS  C:\Users\ldebo\AppData\Local\Temp\cchOloIf.s 			page 4


 169              	//"================================================================"
 170 012c E3080058 		ldr x3, =__bss_end__
 171 0130 00090058 		ldr x0, =__bss_start__
 172 0134 1F0003EB 		cmp	x0, x3
 173 0138 82000054 		bcs	.bss_cleared
 174              	.bss_zero_loop:
 175 013c 1F4400B8 		str	wzr, [x0], 4
 176 0140 7F0000EB 		cmp	x3, x0
 177 0144 C8FFFF54 		bhi	.bss_zero_loop
 178              	.bss_cleared:
 179              	
 180              	//"================================================================"
 181              	//			Core0 will bring Core 1,2,3 to secondary spin 
 182              	//"================================================================"
 183              	#define spin_cpu1 0xe0
 184 0148 011C80D2 		mov x1, #spin_cpu1						// Spin core1 jump address
 185 014c 62080058 		ldr x2, =multicore_start				// Function we are going to call
 186 0150 220000F9 		str	x2, [x1]							// Store the function address to core1
 187 0154 9F2003D5 		sev										// Wake core1 up
 188 0158 83030058 	 	ldr x3, =RPi_CoresReady					// Set CoresReady count address
 189              	.WaitCore1ACK:
 190 015c 610040B9 		ldr	w1, [x3]							// Read CoresReady count
 191 0160 3F080071 		cmp	w1, #2								// Wait for setting of second core ready
 192 0164 C1FFFF54 		bne	.WaitCore1ACK						// Core1 not ready so read again
 193              	#define spin_cpu2 0xe8
 194 0168 011D80D2 		mov x1, #spin_cpu2						// Spin core2 jump address
 195 016c 62070058 		ldr x2, =multicore_start				// Function we are going to call
 196 0170 220000F9 		str	x2, [x1]							// Store the function address to core2
 197 0174 9F2003D5 		sev										// Wake core2 up
 198 0178 83020058 	 	ldr x3, =RPi_CoresReady					// Set CoresReady count address
 199              	.WaitCore2ACK:
 200 017c 610040B9 		ldr	w1, [x3]							// Read CoresReady count
 201 0180 3F0C0071 		cmp	w1, #3								// Wait for setting of third core ready
 202 0184 C1FFFF54 		bne	.WaitCore2ACK						// Core2 not ready so read again
 203              	#define spin_cpu3 0xf0
 204 0188 011E80D2 		mov x1, #spin_cpu3						// Spin core3 jump address
 205 018c 62060058 		ldr x2, =multicore_start				// Function we are going to call
 206 0190 220000F9 		str	x2, [x1]							// Store the function address to core3
 207 0194 9F2003D5 		sev										// Wake core3 up
 208 0198 83010058 	 	ldr x3, =RPi_CoresReady					// Set CoresReady count address
 209              	.WaitCore3ACK:
 210 019c 610040B9 		ldr	w1, [x3]							// Read CoresReady count
 211 01a0 3F100071 		cmp	w1, #4								// Wait for setting of third core ready
 212 01a4 C1FFFF54 		bne	.WaitCore3ACK						// Core3 not ready so read again
 213              	
 214              	//"================================================================"
 215              	// Finally that all done Core0 jumps to the C compiler entry point
 216              	//"================================================================"
 217 01a8 00000014 		b kernel_main							// Jump out to C kernel 
 218              	
 219              	/*================================================================"
 220              	      Just safety incase C code ever returns back
 221              	"================================================================*/
 222              	hang:
 223 01ac 00000014 		b hang
 224              	.balign	4
 225 01b0 00000000 	.ltorg										/* Tell assembler ltorg data for code above can go here */
AARCH64 GAS  C:\Users\ldebo\AppData\Local\Temp\cchOloIf.s 			page 5


 225      00000000 
 225      0000003F 
 225      00000000 
 225      00000000 
 226              	
 227              	
 228              	/*++++++++++++++++++++++++++++++++++++++++++++++++++++++++++++++++++++++++++}
 229              	{    Modified bootloader Spin loop but tolerant on registers X0-X7 for C    }
 230              	{++++++++++++++++++++++++++++++++++++++++++++++++++++++++++++++++++++++++++*/
 231              	#define spin_cpu0 0xd8
 232              	.balign	4
 233              	StartSecondarySpin:
 234 0260 A60038D5 		mrs x6, MPIDR_EL1						// Fetch core Id
 235 0264 C6044092 		and x6, x6, #0x3						// Create 2 bit mask of core Id
 236 0268 051B80D2 		mov x5, #spin_cpu0						// Load address of spins
 237 026c 010080D2 		mov x1, #0                              // zero x1 register
 238 0270 A17826F8 		str x1, [x5, x6, lsl #3]				// Make sure caller address is zeroed
 239              	secondary_spin:
 240 0274 5F2003D5 		wfe										// This is all I really want processor to sleep
 241 0278 A47866F8 	    ldr x4, [x5, x6, lsl #3]				// Fetch address that has been set
 242 027c C4FFFFB4 		cbz x4, secondary_spin					// If zero spin 
 243 0280 000080D2 		mov x0, #0
 244 0284 A07826F8 		str x0, [x5, x6, lsl #3]				// Zero caller address
 245 0288 010080D2 		mov x1, #0
 246 028c 020080D2 		mov x2, #0
 247 0290 030080D2 		mov x3, #0
 248 0294 80003FD6 		blr x4									// Call the function set
 249 0298 F2FFFF17 		b StartSecondarySpin					// Loop back to spinlock
 250              	
 251              	
 252              	.globl RPi_CpuIdString
 253              	RPi_CpuIdString:
 254 029c 60000058 		ldr x0, =ARM8_STR						// Can not be anything but a Cortex-a53 						
 255 02a0 C0035FD6 		ret										// Return
 256              	.balign	4
 257 02a4 00000000 	.ltorg										/* Tell assembler ltorg data for code above can go here */
 257      00000000 
 257      00000000 
 258              	
 259              	
 260              	.globl EnableInterrupts
 261              	EnableInterrupts:
 262 02b0 FF4203D5 		msr daifclr,#2
 263 02b4 C0035FD6 		ret
 264              	
 265              	.globl DisableInterrupts
 266              	DisableInterrupts:
 267 02b8 DF4203D5 		msr daifset,#2
 268 02bc C0035FD6 		ret
 269              	
 270              	.globl CoreExecute
 271              	CoreExecute:
 272 02c0 001C40F2 		ands x0, x0, #255
 273 02c4 A0010054 		beq CoreExecuteFail
 274 02c8 C3010058 		ldr x3, =RPi_CoresReady
 275 02cc 620040B9 		ldr w2, [x3]							// Fetch cores ready count
 276 02d0 1F00026B 		cmp w0, w2
AARCH64 GAS  C:\Users\ldebo\AppData\Local\Temp\cchOloIf.s 			page 6


 277 02d4 22010054 		bcs	CoreExecuteFail
 278 02d8 060080D2 		mov x6, #0
 279 02dc E603002A 		mov w6, w0
 280 02e0 051B80D2 		mov x5, #spin_cpu0						// Load address of spins
 281 02e4 A17826F8 		str x1, [x5, x6, lsl #3]				// Save caller address
 282 02e8 9F3F03D5 		dsb sy
 283 02ec 9F2003D5 		sev
 284 02f0 200080D2 		mov x0, #1
 285 02f4 C0035FD6 		ret
 286              	CoreExecuteFail:
 287 02f8 000080D2 		mov x0, #0
 288 02fc C0035FD6 		ret
 289              	.balign	4
 290 0300 00000000 	.ltorg										// Tell assembler ltorg data for this code can go here
 290      00000000 
 291              	
 292              	/*++++++++++++++++++++++++++++++++++++++++++++++++++++++++++++++++++++++++++}
 293              	{				IRQ HELPER ROUTINES PROVIDE BY RPi-SmartStart API		    }
 294              	{++++++++++++++++++++++++++++++++++++++++++++++++++++++++++++++++++++++++++*/
 295              	
 296              	/* "PROVIDE C FUNCTION: TimerIrqHandler setTimerIrqAddress ( TimerIrqHandler* ARMaddress);" */
 297              	.section .text.setTimerIrqAddress, "ax", %progbits
 298              	.balign	4
 299              	.globl setTimerIrqAddress;
 300              	.type setTimerIrqAddress, %function
 301              	setTimerIrqAddress:
 302 0000 DF4203D5 		msr daifset,#2							// Disable irq interrupts as we are clearly changing call
 303 0004 A1000058 		ldr x1, =RPi_TimerIrqAddr				// Load address of function to call on interrupt 
 304 0008 220040F9 		ldr x2, [x1]							// Load current irq call address
 305 000c 200000F9 		str x0, [x1]							// Store the new function pointer address we were given
 306 0010 E00302AA 		mov x0, x2								// return the old call function
 307 0014 C0035FD6 		ret										// Return
 308              	.balign	4
 309 0018 00000000 	.ltorg										// Tell assembler ltorg data for this code can go here
 309      00000000 
 310              	.size	setTimerIrqAddress, .-setTimerIrqAddress
 311              	
 312              	/*++++++++++++++++++++++++++++++++++++++++++++++++++++++++++++++++++++++++++}
 313              	{			VC4 ADDRESS HELPER ROUTINES PROVIDE BY RPi-SmartStart API	    }
 314              	{++++++++++++++++++++++++++++++++++++++++++++++++++++++++++++++++++++++++++*/
 315              	
 316              	/* "PROVIDE C FUNCTION: uint32_t ARMaddrToGPUaddr (void* ARMaddress);" */
 317              	.section .text.ARMaddrToGPUaddr, "ax", %progbits
 318              	.balign	4
 319              	.globl ARMaddrToGPUaddr;		
 320              	.type ARMaddrToGPUaddr, %function
 321              	//"================================================================"
 322              	// ARMaddrToGPUaddr -- AARCH64 Pi3 code
 323              	// C Function: uint32_t ARMaddrToGPUaddr (void* ARMaddress);
 324              	// Entry: x0 will have ARMAddress value
 325              	//"================================================================"
 326              	ARMaddrToGPUaddr:
 327 0000 0100B8D2 		mov x1, #0xC0000000						// ARM to VC conversion value
 328 0004 000001AA 		orr x0, x0, x1							// Create bus address
 329 0008 C0035FD6 		ret										// Return
 330              	.balign	4
 331              	.ltorg										// Tell assembler ltorg data for this code can go here
AARCH64 GAS  C:\Users\ldebo\AppData\Local\Temp\cchOloIf.s 			page 7


 332              	.size	ARMaddrToGPUaddr, .-ARMaddrToGPUaddr
 333              	
 334              	
 335              	/* "PROVIDE C FUNCTION: uint32_t GPUaddrToARMaddr (uint32_t BUSaddress);" */
 336              	.section .text.GPUaddrToARMaddr, "ax", %progbits
 337              	.balign	4
 338              	.globl GPUaddrToARMaddr;		
 339              	.type GPUaddrToARMaddr, %function
 340              	//"================================================================"
 341              	// GPUaddrToARMaddr -- AARCH64 Pi3 code
 342              	// C Function: uint32_t GPUaddrToARMaddr (uint32_t BUSaddress);
 343              	// Entry: x0 will have GPUAddress value
 344              	//"================================================================"
 345              	GPUaddrToARMaddr:
 346 0000 0100B8D2 		mov x1, #0xC0000000						// ARM to VC conversion value	
 347 0004 0000218A 		bic x0, x0, x1							// Create arm address
 348 0008 C0035FD6 		ret										// Return
 349              	.balign	4
 350              	.ltorg										// Tell assembler ltorg data for this code can go here
 351              	.size	GPUaddrToARMaddr, .-GPUaddrToARMaddr
 352              	
 353              	
 354              	/* Re-entrant interrupt handler stub */
 355              	/* http://infocenter.arm.com/help/index.jsp?topic=/com.arm.doc.den0024a/ch10s05.html */
 356              	.globl irq_handler
 357              	irq_handler:
 358 000c FD7BBFA9 		stp	x29, x30, [sp, #-16]!
 359 0010 FB73BFA9 		stp	x27, x28, [sp, #-16]!
 360 0014 F96BBFA9 		stp	x25, x26, [sp, #-16]!
 361 0018 F763BFA9 		stp	x23, x24, [sp, #-16]!
 362 001c F55BBFA9 		stp	x21, x22, [sp, #-16]!
 363 0020 F353BFA9 		stp	x19, x20, [sp, #-16]!
 364 0024 F14BBFA9 		stp	x17, x18, [sp, #-16]!
 365 0028 EF43BFA9 		stp	x15, x16, [sp, #-16]!
 366 002c ED3BBFA9 		stp	x13, x14, [sp, #-16]!
 367 0030 EB33BFA9 		stp	x11, x12, [sp, #-16]!
 368 0034 E92BBFA9 		stp	x9, x10, [sp, #-16]!
 369 0038 E723BFA9 		stp	x7, x8, [sp, #-16]!
 370 003c E51BBFA9 		stp	x5, x6, [sp, #-16]!
 371 0040 E313BFA9 		stp	x3, x4, [sp, #-16]!
 372 0044 E10BBFA9 		stp	x1, x2, [sp, #-16]!
 373 0048 E00F1FF8 		str	x0, [sp, #-16]!
 374              		
 375 004c 014038D5 		mrs	x1, SPSR_EL1
 376 0050 224038D5 		mrs	x2, ELR_EL1
 377 0054 E10BBFA9 		stp	x1, x2, [sp, #-16]!
 378              	
 379              		
 380              		//  if (IRQ->IRQBasicPending.Timer_IRQ_pending) {				// Check irq on timer is triggered
 381              		//	  ARMTIMER->Clear = 1;										// Write any value to register to clear irq ... PAGE 198
 382              		//	  IRQ->IRQPending1 &= ~0x1;									// Clear timer pending irq bit 0
 383              		//  }
 384 0058 80790058 		ldr x0, =RPi_IO_Base_Addr
 385 005c 000040B9 		ldr	w0, [x0]						// Fetch Pi IO base address
 386 0060 03409652 		mov	w3, 45568						// W3 = 0xB200
 387 0064 0100030B 		add	w1, w0, w3						// W1 = Pi IO base addres + 0xB200
 388 0068 220040B9 		ldr	w2, [x1]						// W2 = IRQ->IRQBasicPending
AARCH64 GAS  C:\Users\ldebo\AppData\Local\Temp\cchOloIf.s 			page 8


 389 006c E2000036 		tbz	x2, 0, .TimerIrqNotPending	    // If timer IRQ pending not yet exit		
 390 0070 02809652 		mov	w2, 46080						// W2 = 0xB400
 391 0074 0000020B 		add	w0, w0, w2						// Add Pi Base Addr + 0xB400
 392 0078 020C00B9 		str	w2, [x0, 12]					// Store W2 to IRQPending1 clearing it				
 393 007c 200440B9 		ldr	w0, [x1, 4]						// W0 = IRQPending1
 394 0080 00781F12 		and	w0, w0, -2						// Clear timer pending irq bit 0
 395 0084 200400B9 		str	w0, [x1, 4]						// Write IRQPending1 clearing
 396              	.TimerIrqNotPending:
 397              	
 398 0088 FF4203D5 		msr daifclr,#2						// Enable irq interrupts
 399 008c 20780058 		ldr x0, =RPi_TimerIrqAddr			// Address to TimerIrqAddr
 400 0090 000040F9 		ldr x0, [x0]						// Load TimerIrqAddr value
 401 0094 600000B4 		cbz x0, no_irqset					// If zero no irq set 
 402 0098 00003FD6 		blr x0								// Call Irqhandler that has been set
 403 009c DF4203D5 		msr daifset,#2						// Disable irq interrupts
 404              	no_irqset:
 405              	
 406              	
 407 00a0 E10BC1A8 		ldp	x1, x2, [sp], #16
 408 00a4 224018D5 		msr	ELR_EL1, x2
 409 00a8 014018D5 		msr	SPSR_EL1, x1
 410              	
 411 00ac E00741F8 		ldr	x0, [sp], #16
 412 00b0 E10BC1A8 		ldp	x1, x2, [sp], #16
 413 00b4 E313C1A8 		ldp	x3, x4, [sp], #16
 414 00b8 E51BC1A8 		ldp	x5, x6, [sp], #16
 415 00bc E723C1A8 		ldp	x7, x8, [sp], #16
 416 00c0 E92BC1A8 		ldp	x9, x10, [sp], #16
 417 00c4 EB33C1A8 		ldp	x11, x12, [sp], #16
 418 00c8 ED3BC1A8 		ldp	x13, x14, [sp], #16
 419 00cc EF43C1A8 		ldp	x15, x16, [sp], #16
 420 00d0 F14BC1A8 		ldp	x17, x18, [sp], #16
 421 00d4 F353C1A8 		ldp	x19, x20, [sp], #16
 422 00d8 F55BC1A8 		ldp	x21, x22, [sp], #16
 423 00dc F763C1A8 		ldp	x23, x24, [sp], #16
 424 00e0 F96BC1A8 		ldp	x25, x26, [sp], #16
 425 00e4 FB73C1A8 		ldp	x27, x28, [sp], #16
 426 00e8 FD7BC1A8 		ldp	x29, x30, [sp], #16
 427 00ec E0039FD6 		eret
 428              	
 429              	/* macro to align handlers every 0x80 bytes */
 430              	.macro	vector handler
 431              	.balign 0x80
 432              	b	\handler
 433              	.endm
 434              	
 435 00f0 1F2003D5 	.balign 0x800
 435      1F2003D5 
 435      1F2003D5 
 435      1F2003D5 
 435      1F2003D5 
 436              	.globl	VectorTable
 437              	VectorTable:
 438              		/* from current EL with sp_el0 */
 439 0800 00000014 		vector	_start			/* Synchronous */
 440 0804 1F2003D5 		vector  hang			/* IRQ */
 440      1F2003D5 
AARCH64 GAS  C:\Users\ldebo\AppData\Local\Temp\cchOloIf.s 			page 9


 440      1F2003D5 
 440      1F2003D5 
 440      1F2003D5 
 441 0884 1F2003D5 		vector	hang			/* FIQ */
 441      1F2003D5 
 441      1F2003D5 
 441      1F2003D5 
 441      1F2003D5 
 442 0904 1F2003D5 		vector	hang			/* SErrorStub */
 442      1F2003D5 
 442      1F2003D5 
 442      1F2003D5 
 442      1F2003D5 
 443              	
 444              		/* from current EL with sp_elx, x != 0 */
 445 0984 1F2003D5 		vector	hang			/* Synchronous */
 445      1F2003D5 
 445      1F2003D5 
 445      1F2003D5 
 445      1F2003D5 
 446 0a04 1F2003D5 		vector	irq_handler		/* IRQ */
 446      1F2003D5 
 446      1F2003D5 
 446      1F2003D5 
 446      1F2003D5 
 447 0a84 1F2003D5 		vector	hang			/* FIQ */
 447      1F2003D5 
 447      1F2003D5 
 447      1F2003D5 
 447      1F2003D5 
 448 0b04 1F2003D5 		vector	hang			/* SErrorStub */
 448      1F2003D5 
 448      1F2003D5 
 448      1F2003D5 
 448      1F2003D5 
 449              	
 450              		/* from lower EL, target EL minus 1 is AArch64 */
 451 0b84 1F2003D5 		vector	hang			/* Synchronous */
 451      1F2003D5 
 451      1F2003D5 
 451      1F2003D5 
 451      1F2003D5 
 452 0c04 1F2003D5 		vector  hang			/* IRQ */
 452      1F2003D5 
 452      1F2003D5 
 452      1F2003D5 
 452      1F2003D5 
 453 0c84 1F2003D5 		vector	hang			/* FIQ */
 453      1F2003D5 
 453      1F2003D5 
 453      1F2003D5 
 453      1F2003D5 
 454 0d04 1F2003D5 		vector	hang			/* SErrorStub */
 454      1F2003D5 
 454      1F2003D5 
 454      1F2003D5 
 454      1F2003D5 
AARCH64 GAS  C:\Users\ldebo\AppData\Local\Temp\cchOloIf.s 			page 10


 455              	
 456              		/* from lower EL, target EL minus 1 is AArch32 */
 457 0d84 1F2003D5 		vector	hang			/* Synchronous */
 457      1F2003D5 
 457      1F2003D5 
 457      1F2003D5 
 457      1F2003D5 
 458 0e04 1F2003D5 		vector  hang			/* IRQ */
 458      1F2003D5 
 458      1F2003D5 
 458      1F2003D5 
 458      1F2003D5 
 459 0e84 1F2003D5 		vector	hang			/* FIQ */
 459      1F2003D5 
 459      1F2003D5 
 459      1F2003D5 
 459      1F2003D5 
 460 0f04 1F2003D5 		vector	hang			/* SErrorStub */
 460      1F2003D5 
 460      1F2003D5 
 460      1F2003D5 
 460      1F2003D5 
 461              	
 462              	/*==========================================================================}
 463              	;{					  CPU STRING CONSTANT DEFINITIONS					    }
 464              	;{=========================================================================*/
 465 0f84 00000000 	.section ".rodata.cpuid", "a", %progbits
 466              	.balign	4
 467 0000 636F7274 	ARM8_STR: .string "cortex-a53\0"
 467      65782D61 
 467      35330000 
 468              	
 469              	/****************************************************************
 470              	       	   DATA FOR SMARTSTART64  EXPOSED TO INTERFACE 
 471              	****************************************************************/
 472              	.section ".data.smartstart64", "aw"
 473              	.balign 4
 474              	
 475              	.globl RPi_IO_Base_Addr;				// Make sure Pi_IO_Base_Addr label is global
 476 0000 00000000 	RPi_IO_Base_Addr : .4byte 0;			// Peripheral Base addr is 4 byte variable in 64bit mode
 477              	
 478              	.globl RPi_BootAddr;					// Make sure RPi_BootAddr label is global
 479 0004 00000000 	RPi_BootAddr : .4byte 0;				// CPU boot address is 4 byte variable in 64bit mode
 480              	
 481              	.globl RPi_CoresReady;					// Make sure RPi_CoresReady label is global
 482 0008 00000000 	RPi_CoresReady : .4byte 0;				// CPU cores ready for use is 4 byte variable in 32bit mode
 483              	
 484              	.globl RPi_CPUBootMode;					// Make sure RPi_CPUBootMode label is global
 485 000c 00000000 	RPi_CPUBootMode : .4byte 0;				// CPU Boot Mode is 4 byte variable in 64bit mode
 486              	
 487              	.globl RPi_CpuId;						// Make sure RPi_CpuId label is global
 488 0010 00000000 	RPi_CpuId : .4byte 0;					// CPU Id is 4 byte variable in 64bit mode
 489              	
 490              	.globl RPi_CompileMode;					// Make sure RPi_CompileMode label is global
 491 0014 00000000 	RPi_CompileMode : .4byte 0;				// Compile mode is 4 byte variable in 64bit mode
 492              	
 493              	/****************************************************************
AARCH64 GAS  C:\Users\ldebo\AppData\Local\Temp\cchOloIf.s 			page 11


 494              	       	   DATA FOR SMARTSTART64  NOT EXPOSED TO INTERFACE 
 495              	****************************************************************/
 496 0018 00000000 	RPi_TimerIrqAddr : .8byte 0;			// Timer Irq Address...
 496      00000000 
AARCH64 GAS  C:\Users\ldebo\AppData\Local\Temp\cchOloIf.s 			page 12


DEFINED SYMBOLS
      SmartStart64.S:38     .text.startup:0000000000000000 $x
      SmartStart64.S:40     .text.startup:0000000000000000 _start
      SmartStart64.S:479    .data.smartstart64:0000000000000004 RPi_BootAddr
      SmartStart64.S:476    .data.smartstart64:0000000000000000 RPi_IO_Base_Addr
      SmartStart64.S:482    .data.smartstart64:0000000000000008 RPi_CoresReady
      SmartStart64.S:491    .data.smartstart64:0000000000000014 RPi_CompileMode
      SmartStart64.S:488    .data.smartstart64:0000000000000010 RPi_CpuId
      SmartStart64.S:77     .text.startup:0000000000000058 multicore_start
      SmartStart64.S:97     .text.startup:00000000000000a4 set_stacks
      SmartStart64.S:146    .text.startup:0000000000000104 exit_el1
      SmartStart64.S:159    .text.startup:0000000000000124 cpu0_exit_multicore_park
      SmartStart64.S:233    .text.startup:0000000000000260 StartSecondarySpin
      SmartStart64.S:437    .text.GPUaddrToARMaddr:0000000000000800 VectorTable
      SmartStart64.S:178    .text.startup:0000000000000148 .bss_cleared
      SmartStart64.S:174    .text.startup:000000000000013c .bss_zero_loop
      SmartStart64.S:189    .text.startup:000000000000015c .WaitCore1ACK
      SmartStart64.S:199    .text.startup:000000000000017c .WaitCore2ACK
      SmartStart64.S:209    .text.startup:000000000000019c .WaitCore3ACK
      SmartStart64.S:222    .text.startup:00000000000001ac hang
      SmartStart64.S:225    .text.startup:00000000000001b0 $d
      SmartStart64.S:232    .text.startup:0000000000000260 $x
      SmartStart64.S:239    .text.startup:0000000000000274 secondary_spin
      SmartStart64.S:253    .text.startup:000000000000029c RPi_CpuIdString
      SmartStart64.S:467    .rodata.cpuid:0000000000000000 ARM8_STR
      SmartStart64.S:257    .text.startup:00000000000002a8 $d
      SmartStart64.S:261    .text.startup:00000000000002b0 EnableInterrupts
      SmartStart64.S:262    .text.startup:00000000000002b0 $x
      SmartStart64.S:266    .text.startup:00000000000002b8 DisableInterrupts
      SmartStart64.S:271    .text.startup:00000000000002c0 CoreExecute
      SmartStart64.S:286    .text.startup:00000000000002f8 CoreExecuteFail
      SmartStart64.S:290    .text.startup:0000000000000300 $d
      SmartStart64.S:298    .text.setTimerIrqAddress:0000000000000000 $x
      SmartStart64.S:301    .text.setTimerIrqAddress:0000000000000000 setTimerIrqAddress
      SmartStart64.S:496    .data.smartstart64:0000000000000018 RPi_TimerIrqAddr
      SmartStart64.S:309    .text.setTimerIrqAddress:0000000000000018 $d
      SmartStart64.S:318    .text.ARMaddrToGPUaddr:0000000000000000 $x
      SmartStart64.S:326    .text.ARMaddrToGPUaddr:0000000000000000 ARMaddrToGPUaddr
      SmartStart64.S:337    .text.GPUaddrToARMaddr:0000000000000000 $x
      SmartStart64.S:345    .text.GPUaddrToARMaddr:0000000000000000 GPUaddrToARMaddr
      SmartStart64.S:357    .text.GPUaddrToARMaddr:000000000000000c irq_handler
      SmartStart64.S:396    .text.GPUaddrToARMaddr:0000000000000088 .TimerIrqNotPending
      SmartStart64.S:404    .text.GPUaddrToARMaddr:00000000000000a0 no_irqset
      SmartStart64.S:466    .rodata.cpuid:0000000000000000 $d
      SmartStart64.S:473    .data.smartstart64:0000000000000000 $d
      SmartStart64.S:485    .data.smartstart64:000000000000000c RPi_CPUBootMode
      SmartStart64.S:496    .text.GPUaddrToARMaddr:0000000000000f88 $d

UNDEFINED SYMBOLS
__EL2_stack_core0
__EL1_stack_core0
__EL0_stack_core0
__EL2_stack_core1
__EL1_stack_core1
__EL0_stack_core1
__EL2_stack_core2
__EL1_stack_core2
AARCH64 GAS  C:\Users\ldebo\AppData\Local\Temp\cchOloIf.s 			page 13


__EL0_stack_core2
__EL2_stack_core3
__EL1_stack_core3
__EL0_stack_core3
__bss_end__
__bss_start__
kernel_main
AARCH64 GAS  C:\Users\ldebo\AppData\Local\Temp\cchOloIf.s 			page 1


   1              		.arch armv8-a
   2              		.file	"rpi-SmartStart.c"
   3              		.text
   4              		.align	2
   5              		.p2align 4,,15
   6              		.type	ClearArea16, %function
   7              	ClearArea16:
   8 0000 09204029 		ldp	w9, w8, [x0]
   9 0004 4A00020B 		add	w10, w2, w2
  10 0008 0C0840B9 		ldr	w12, [x0, 8]
  11 000c 2B781F53 		lsl	w11, w1, 1
  12 0010 06B84039 		ldrb	w6, [x0, 46]
  13 0014 8400026B 		subs	w4, w4, w2
  14 0018 07B04039 		ldrb	w7, [x0, 44]
  15 001c 298108AA 		orr	x9, x9, x8, lsl 32
  16 0020 05B44039 		ldrb	w5, [x0, 45]
  17 0024 29010B8B 		add	x9, x9, x11
  18 0028 4A7D0C1B 		mul	w10, w10, w12
  19 002c C67C0353 		lsr	w6, w6, 3
  20 0030 E77C0353 		lsr	w7, w7, 3
  21 0034 29010A8B 		add	x9, x9, x10
  22 0038 A07C0253 		lsr	w0, w5, 2
  23 003c 60030054 		beq	.L1
  24 0040 8C7D7FD3 		ubfiz	x12, x12, 1, 32
  25 0044 6300016B 		subs	w3, w3, w1
  26 0048 00030054 		beq	.L1
  27 004c 63040051 		sub	w3, w3, #1
  28 0050 4B0080D2 		mov	x11, 2
  29 0054 6B45238B 		add	x11, x11, x3, uxtw 1
  30 0058 08081B53 		ubfiz	w8, w0, 5, 3
  31 005c 037C0353 		lsr	w3, w0, 3
  32 0060 0A008052 		mov	w10, 0
  33 0064 1F2003D5 		.p2align 3
  34              	.L3:
  35 0068 E10309AA 		mov	x1, x9
  36 006c 6501098B 		add	x5, x11, x9
  37              		.p2align 3
  38              	.L4:
  39 0070 20044039 		ldrb	w0, [x1, 1]
  40 0074 E200082A 		orr	w2, w7, w8
  41 0078 21080091 		add	x1, x1, 2
  42 007c 22E01F38 		strb	w2, [x1, -2]
  43 0080 00701D12 		and	w0, w0, -8
  44 0084 3F0005EB 		cmp	x1, x5
  45 0088 0000032A 		orr	w0, w0, w3
  46 008c C0101D33 		bfi	w0, w6, 3, 5
  47 0090 20F01F38 		strb	w0, [x1, -1]
  48 0094 E1FEFF54 		bne	.L4
  49 0098 4A050011 		add	w10, w10, 1
  50 009c 29010C8B 		add	x9, x9, x12
  51 00a0 5F01046B 		cmp	w10, w4
  52 00a4 21FEFF54 		bne	.L3
  53              	.L1:
  54 00a8 C0035FD6 		ret
  55              		.size	ClearArea16, .-ClearArea16
  56              		.align	2
  57 00ac 1F2003D5 		.p2align 4,,15
AARCH64 GAS  C:\Users\ldebo\AppData\Local\Temp\cchOloIf.s 			page 2


  58              		.type	VertLine16, %function
  59              	VertLine16:
  60 00b0 050840B9 		ldr	w5, [x0, 8]
  61 00b4 04B04229 		ldp	w4, w12, [x0, 20]
  62 00b8 A900050B 		add	w9, w5, w5
  63 00bc 0A0C4029 		ldp	w10, w3, [x0]
  64 00c0 8400040B 		add	w4, w4, w4
  65 00c4 07984039 		ldrb	w7, [x0, 38]
  66 00c8 297D0C1B 		mul	w9, w9, w12
  67 00cc 06944039 		ldrb	w6, [x0, 37]
  68 00d0 08904039 		ldrb	w8, [x0, 36]
  69 00d4 438103AA 		orr	x3, x10, x3, lsl 32
  70 00d8 63C0248B 		add	x3, x3, x4, sxtw
  71 00dc E77C0353 		lsr	w7, w7, 3
  72 00e0 C67C0253 		lsr	w6, w6, 2
  73 00e4 6300098B 		add	x3, x3, x9
  74 00e8 087D0353 		lsr	w8, w8, 3
  75 00ec 81020034 		cbz	w1, .L14
  76 00f0 A57C7FD3 		ubfiz	x5, x5, 1, 32
  77 00f4 CB081B53 		ubfiz	w11, w6, 5, 3
  78 00f8 5F040071 		cmp	w2, 1
  79 00fc C67C0353 		lsr	w6, w6, 3
  80 0100 EA0305CB 		neg	x10, x5
  81 0104 20020054 		beq	.L18
  82 0108 05008052 		mov	w5, 0
  83 010c 1F2003D5 		.p2align 3
  84              	.L16:
  85 0110 64044039 		ldrb	w4, [x3, 1]
  86 0114 09010B2A 		orr	w9, w8, w11
  87 0118 69000039 		strb	w9, [x3]
  88 011c A5040011 		add	w5, w5, 1
  89 0120 84701D12 		and	w4, w4, -8
  90 0124 3F00056B 		cmp	w1, w5
  91 0128 8400062A 		orr	w4, w4, w6
  92 012c E4101D33 		bfi	w4, w7, 3, 5
  93 0130 64040039 		strb	w4, [x3, 1]
  94 0134 63000A8B 		add	x3, x3, x10
  95 0138 C1FEFF54 		bne	.L16
  96              	.L14:
  97 013c 4130011B 		madd	w1, w2, w1, w12
  98 0140 011800B9 		str	w1, [x0, 24]
  99 0144 C0035FD6 		ret
 100              		.p2align 3
 101              	.L18:
 102 0148 09008052 		mov	w9, 0
 103 014c 1F2003D5 		.p2align 3
 104              	.L15:
 105 0150 64044039 		ldrb	w4, [x3, 1]
 106 0154 0A010B2A 		orr	w10, w8, w11
 107 0158 6A000039 		strb	w10, [x3]
 108 015c 29050011 		add	w9, w9, 1
 109 0160 84701D12 		and	w4, w4, -8
 110 0164 3F00096B 		cmp	w1, w9
 111 0168 8400062A 		orr	w4, w4, w6
 112 016c E4101D33 		bfi	w4, w7, 3, 5
 113 0170 64040039 		strb	w4, [x3, 1]
 114 0174 6300058B 		add	x3, x3, x5
AARCH64 GAS  C:\Users\ldebo\AppData\Local\Temp\cchOloIf.s 			page 3


 115 0178 C1FEFF54 		bne	.L15
 116 017c 4130011B 		madd	w1, w2, w1, w12
 117 0180 011800B9 		str	w1, [x0, 24]
 118 0184 C0035FD6 		ret
 119              		.size	VertLine16, .-VertLine16
 120              		.align	2
 121 0188 1F2003D5 		.p2align 4,,15
 121      1F2003D5 
 122              		.type	HorzLine16, %function
 123              	HorzLine16:
 124 0190 030840B9 		ldr	w3, [x0, 8]
 125 0194 0C904229 		ldp	w12, w4, [x0, 20]
 126 0198 6300030B 		add	w3, w3, w3
 127 019c 06144029 		ldp	w6, w5, [x0]
 128 01a0 08984039 		ldrb	w8, [x0, 38]
 129 01a4 647C041B 		mul	w4, w3, w4
 130 01a8 07944039 		ldrb	w7, [x0, 37]
 131 01ac 83010C0B 		add	w3, w12, w12
 132 01b0 09904039 		ldrb	w9, [x0, 36]
 133 01b4 C58005AA 		orr	x5, x6, x5, lsl 32
 134 01b8 A3C0238B 		add	x3, x5, x3, sxtw
 135 01bc 087D0353 		lsr	w8, w8, 3
 136 01c0 E77C0253 		lsr	w7, w7, 2
 137 01c4 8400038B 		add	x4, x4, x3
 138 01c8 297D0353 		lsr	w9, w9, 3
 139 01cc 01020034 		cbz	w1, .L25
 140 01d0 EA081B53 		ubfiz	w10, w7, 5, 3
 141 01d4 4B7C7F93 		sbfiz	x11, x2, 1, 32
 142 01d8 E77C0353 		lsr	w7, w7, 3
 143 01dc 05008052 		mov	w5, 0
 144              		.p2align 3
 145              	.L26:
 146 01e0 83044039 		ldrb	w3, [x4, 1]
 147 01e4 26010A2A 		orr	w6, w9, w10
 148 01e8 86000039 		strb	w6, [x4]
 149 01ec A5040011 		add	w5, w5, 1
 150 01f0 63701D12 		and	w3, w3, -8
 151 01f4 3F00056B 		cmp	w1, w5
 152 01f8 6300072A 		orr	w3, w3, w7
 153 01fc 03111D33 		bfi	w3, w8, 3, 5
 154 0200 83040039 		strb	w3, [x4, 1]
 155 0204 84000B8B 		add	x4, x4, x11
 156 0208 C1FEFF54 		bne	.L26
 157              	.L25:
 158 020c 4130011B 		madd	w1, w2, w1, w12
 159 0210 011400B9 		str	w1, [x0, 20]
 160 0214 C0035FD6 		ret
 161              		.size	HorzLine16, .-HorzLine16
 162              		.align	2
 163 0218 1F2003D5 		.p2align 4,,15
 163      1F2003D5 
 164              		.type	DiagLine16, %function
 165              	DiagLine16:
 166 0220 050840B9 		ldr	w5, [x0, 8]
 167 0224 3F00026B 		cmp	w1, w2
 168 0228 08184029 		ldp	w8, w6, [x0]
 169 022c A700050B 		add	w7, w5, w5
AARCH64 GAS  C:\Users\ldebo\AppData\Local\Temp\cchOloIf.s 			page 4


 170 0230 10C44229 		ldp	w16, w17, [x0, 20]
 171 0234 2290821A 		csel	w2, w1, w2, ls
 172 0238 0C984039 		ldrb	w12, [x0, 38]
 173 023c 088106AA 		orr	x8, x8, x6, lsl 32
 174 0240 0A944039 		ldrb	w10, [x0, 37]
 175 0244 0602100B 		add	w6, w16, w16
 176 0248 0D904039 		ldrb	w13, [x0, 36]
 177 024c E77C111B 		mul	w7, w7, w17
 178 0250 06C1268B 		add	x6, x8, x6, sxtw
 179 0254 8C7D0353 		lsr	w12, w12, 3
 180 0258 4A7D0253 		lsr	w10, w10, 2
 181 025c C600078B 		add	x6, x6, x7
 182 0260 AD7D0353 		lsr	w13, w13, 3
 183 0264 21030034 		cbz	w1, .L32
 184 0268 AB7C041B 		mul	w11, w5, w4
 185 026c 4E091B53 		ubfiz	w14, w10, 5, 3
 186 0270 6F7C7F93 		sbfiz	x15, x3, 1, 32
 187 0274 4A7D0353 		lsr	w10, w10, 3
 188 0278 6B010B8B 		add	x11, x11, x11
 189 027c 08008052 		mov	w8, 0
 190 0280 07008052 		mov	w7, 0
 191 0284 1F2003D5 		.p2align 3
 192              	.L34:
 193 0288 C5044039 		ldrb	w5, [x6, 1]
 194 028c A9010E2A 		orr	w9, w13, w14
 195 0290 C9000039 		strb	w9, [x6]
 196 0294 E700020B 		add	w7, w7, w2
 197 0298 A5701D12 		and	w5, w5, -8
 198 029c 08050011 		add	w8, w8, 1
 199 02a0 A5000A2A 		orr	w5, w5, w10
 200 02a4 3F00076B 		cmp	w1, w7
 201 02a8 85111D33 		bfi	w5, w12, 3, 5
 202 02ac C5040039 		strb	w5, [x6, 1]
 203 02b0 C6000F8B 		add	x6, x6, x15
 204 02b4 68000054 		bhi	.L33
 205 02b8 E700014B 		sub	w7, w7, w1
 206 02bc C6000B8B 		add	x6, x6, x11
 207              	.L33:
 208 02c0 3F00086B 		cmp	w1, w8
 209 02c4 21FEFF54 		bne	.L34
 210              	.L32:
 211 02c8 6140011B 		madd	w1, w3, w1, w16
 212 02cc 8244021B 		madd	w2, w4, w2, w17
 213 02d0 01880229 		stp	w1, w2, [x0, 20]
 214 02d4 C0035FD6 		ret
 215              		.size	DiagLine16, .-DiagLine16
 216              		.align	2
 217 02d8 1F2003D5 		.p2align 4,,15
 217      1F2003D5 
 218              		.type	WriteChar16, %function
 219              	WriteChar16:
 220 02e0 0B0840B9 		ldr	w11, [x0, 8]
 221 02e4 211C1E53 		ubfiz	w1, w1, 2, 8
 222 02e8 F37BBFA9 		stp	x19, x30, [sp, -16]!
 223 02ec 12000090 		adrp	x18, BitFont
 224 02f0 52020091 		add	x18, x18, :lo12:BitFont
 225 02f4 04084029 		ldp	w4, w2, [x0]
AARCH64 GAS  C:\Users\ldebo\AppData\Local\Temp\cchOloIf.s 			page 5


 226 02f8 63010B0B 		add	w3, w11, w11
 227 02fc 1E944229 		ldp	w30, w5, [x0, 20]
 228 0300 33100011 		add	w19, w1, 4
 229 0304 11984039 		ldrb	w17, [x0, 38]
 230 0308 848002AA 		orr	x4, x4, x2, lsl 32
 231 030c 10944039 		ldrb	w16, [x0, 37]
 232 0310 C2031E0B 		add	w2, w30, w30
 233 0314 0F904039 		ldrb	w15, [x0, 36]
 234 0318 637C051B 		mul	w3, w3, w5
 235 031c 0EA84039 		ldrb	w14, [x0, 42]
 236 0320 82C0228B 		add	x2, x4, x2, sxtw
 237 0324 0DA44039 		ldrb	w13, [x0, 41]
 238 0328 317E0353 		lsr	w17, w17, 3
 239 032c 0CA04039 		ldrb	w12, [x0, 40]
 240 0330 107E0253 		lsr	w16, w16, 2
 241 0334 EF7D0353 		lsr	w15, w15, 3
 242 0338 CE7D0353 		lsr	w14, w14, 3
 243 033c AD7D0253 		lsr	w13, w13, 2
 244 0340 6300028B 		add	x3, x3, x2
 245 0344 8C7D0353 		lsr	w12, w12, 3
 246 0348 6B7D7FD3 		ubfiz	x11, x11, 1, 32
 247              	.L43:
 248 034c 465A61B8 		ldr	w6, [x18, w1, uxtw 2]
 249 0350 05008052 		mov	w5, 0
 250 0354 1F2003D5 		.p2align 3
 251              	.L42:
 252 0358 E2030D2A 		mov	w2, w13
 253 035c EA030E2A 		mov	w10, w14
 254 0360 E4030C2A 		mov	w4, w12
 255 0364 A9080012 		and	w9, w5, 7
 256 0368 8600F836 		tbz	w6, #31, .L40
 257 036c EA03112A 		mov	w10, w17
 258 0370 E203102A 		mov	w2, w16
 259 0374 E4030F2A 		mov	w4, w15
 260              	.L40:
 261 0378 28097FD3 		ubfiz	x8, x9, 1, 3
 262 037c 8414022A 		orr	w4, w4, w2, lsl 5
 263 0380 6700088B 		add	x7, x3, x8
 264 0384 3F1D0071 		cmp	w9, 7
 265 0388 A5040011 		add	w5, w5, 1
 266 038c 69000B8B 		add	x9, x3, x11
 267 0390 64682838 		strb	w4, [x3, x8]
 268 0394 C600060B 		add	w6, w6, w6
 269 0398 2301839A 		csel	x3, x9, x3, eq
 270 039c BF800071 		cmp	w5, 32
 271 03a0 E4044039 		ldrb	w4, [x7, 1]
 272 03a4 84701D12 		and	w4, w4, -8
 273 03a8 820C422A 		orr	w2, w4, w2, lsr 3
 274 03ac 42111D33 		bfi	w2, w10, 3, 5
 275 03b0 E2040039 		strb	w2, [x7, 1]
 276 03b4 21FDFF54 		bne	.L42
 277 03b8 21040011 		add	w1, w1, 1
 278 03bc 3F00136B 		cmp	w1, w19
 279 03c0 61FCFF54 		bne	.L43
 280 03c4 DE230011 		add	w30, w30, 8
 281 03c8 1E1400B9 		str	w30, [x0, 20]
 282 03cc F37BC1A8 		ldp	x19, x30, [sp], 16
AARCH64 GAS  C:\Users\ldebo\AppData\Local\Temp\cchOloIf.s 			page 6


 283 03d0 C0035FD6 		ret
 284              		.size	WriteChar16, .-WriteChar16
 285              		.align	2
 286 03d4 1F2003D5 		.p2align 4,,15
 286      1F2003D5 
 286      1F2003D5 
 287              		.type	TransparentWriteChar16, %function
 288              	TransparentWriteChar16:
 289 03e0 0A0840B9 		ldr	w10, [x0, 8]
 290 03e4 211C1E53 		ubfiz	w1, w1, 2, 8
 291 03e8 03084029 		ldp	w3, w2, [x0]
 292 03ec 44010A0B 		add	w4, w10, w10
 293 03f0 10944229 		ldp	w16, w5, [x0, 20]
 294 03f4 0F000090 		adrp	x15, BitFont
 295 03f8 EF010091 		add	x15, x15, :lo12:BitFont
 296 03fc 0B944039 		ldrb	w11, [x0, 37]
 297 0400 638002AA 		orr	x3, x3, x2, lsl 32
 298 0404 0D984039 		ldrb	w13, [x0, 38]
 299 0408 847C051B 		mul	w4, w4, w5
 300 040c 0C904039 		ldrb	w12, [x0, 36]
 301 0410 0202100B 		add	w2, w16, w16
 302 0414 6B7D0253 		lsr	w11, w11, 2
 303 0418 62C0228B 		add	x2, x3, x2, sxtw
 304 041c 6E091B53 		ubfiz	w14, w11, 5, 3
 305 0420 31100011 		add	w17, w1, 4
 306 0424 AD7D0353 		lsr	w13, w13, 3
 307 0428 8C7D0353 		lsr	w12, w12, 3
 308 042c 6B7D0353 		lsr	w11, w11, 3
 309 0430 8400028B 		add	x4, x4, x2
 310 0434 4A7D7FD3 		ubfiz	x10, x10, 1, 32
 311              	.L52:
 312 0438 E35961B8 		ldr	w3, [x15, w1, uxtw 2]
 313 043c 02008052 		mov	w2, 0
 314              		.p2align 3
 315              	.L51:
 316 0440 46080012 		and	w6, w2, 7
 317 0444 87000A8B 		add	x7, x4, x10
 318 0448 42040011 		add	w2, w2, 1
 319 044c 4301F836 		tbz	w3, #31, .L49
 320 0450 C5087FD3 		ubfiz	x5, x6, 1, 3
 321 0454 88010E2A 		orr	w8, w12, w14
 322 0458 8900058B 		add	x9, x4, x5
 323 045c 88682538 		strb	w8, [x4, x5]
 324 0460 25054039 		ldrb	w5, [x9, 1]
 325 0464 A5701D12 		and	w5, w5, -8
 326 0468 A5000B2A 		orr	w5, w5, w11
 327 046c A5111D33 		bfi	w5, w13, 3, 5
 328 0470 25050039 		strb	w5, [x9, 1]
 329              	.L49:
 330 0474 DF1C0071 		cmp	w6, 7
 331 0478 6300030B 		add	w3, w3, w3
 332 047c E400849A 		csel	x4, x7, x4, eq
 333 0480 5F800071 		cmp	w2, 32
 334 0484 E1FDFF54 		bne	.L51
 335 0488 21040011 		add	w1, w1, 1
 336 048c 3F02016B 		cmp	w17, w1
 337 0490 41FDFF54 		bne	.L52
AARCH64 GAS  C:\Users\ldebo\AppData\Local\Temp\cchOloIf.s 			page 7


 338 0494 10220011 		add	w16, w16, 8
 339 0498 101400B9 		str	w16, [x0, 20]
 340 049c C0035FD6 		ret
 341              		.size	TransparentWriteChar16, .-TransparentWriteChar16
 342              		.align	2
 343              		.p2align 4,,15
 344              		.type	PutImage16, %function
 345              	PutImage16:
 346 04a0 090840B9 		ldr	w9, [x0, 8]
 347 04a4 841C0012 		and	w4, w4, 255
 348 04a8 081C4029 		ldp	w8, w7, [x0]
 349 04ac 2501090B 		add	w5, w9, w9
 350 04b0 061840B9 		ldr	w6, [x0, 24]
 351 04b4 001440B9 		ldr	w0, [x0, 20]
 352 04b8 078107AA 		orr	x7, x8, x7, lsl 32
 353 04bc 0000000B 		add	w0, w0, w0
 354 04c0 A67C061B 		mul	w6, w5, w6
 355 04c4 E5C0208B 		add	x5, x7, x0, sxtw
 356 04c8 A500068B 		add	x5, x5, x6
 357 04cc 82030034 		cbz	w2, .L55
 358 04d0 297D7FD3 		ubfiz	x9, x9, 1, 32
 359 04d4 EA0309CB 		neg	x10, x9
 360 04d8 21030034 		cbz	w1, .L55
 361 04dc 27040051 		sub	w7, w1, #1
 362 04e0 08008052 		mov	w8, 0
 363 04e4 E7040091 		add	x7, x7, 1
 364 04e8 E700078B 		add	x7, x7, x7
 365 04ec 1F2003D5 		.p2align 3
 366              	.L58:
 367 04f0 000080D2 		mov	x0, 0
 368 04f4 1F2003D5 		.p2align 3
 369              	.L59:
 370 04f8 61686038 		ldrb	w1, [x3, x0]
 371 04fc 6600008B 		add	x6, x3, x0
 372 0500 A1682038 		strb	w1, [x5, x0]
 373 0504 A100008B 		add	x1, x5, x0
 374 0508 00080091 		add	x0, x0, 2
 375 050c C6044039 		ldrb	w6, [x6, 1]
 376 0510 1F0007EB 		cmp	x0, x7
 377 0514 26040039 		strb	w6, [x1, 1]
 378 0518 01FFFF54 		bne	.L59
 379 051c 9F000071 		cmp	w4, 0
 380 0520 A0000A8B 		add	x0, x5, x10
 381 0524 08050011 		add	w8, w8, 1
 382 0528 A500098B 		add	x5, x5, x9
 383 052c A500809A 		csel	x5, x5, x0, eq
 384 0530 6300078B 		add	x3, x3, x7
 385 0534 5F00086B 		cmp	w2, w8
 386 0538 C1FDFF54 		bne	.L58
 387              	.L55:
 388 053c C0035FD6 		ret
 389              		.size	PutImage16, .-PutImage16
 390              		.align	2
 391              		.p2align 4,,15
 392              		.type	ClearArea24, %function
 393              	ClearArea24:
 394 0540 09144029 		ldp	w9, w5, [x0]
AARCH64 GAS  C:\Users\ldebo\AppData\Local\Temp\cchOloIf.s 			page 8


 395 0544 4604020B 		add	w6, w2, w2, lsl 1
 396 0548 080840B9 		ldr	w8, [x0, 8]
 397 054c 2704010B 		add	w7, w1, w1, lsl 1
 398 0550 8400026B 		subs	w4, w4, w2
 399 0554 258105AA 		orr	x5, x9, x5, lsl 32
 400 0558 A500078B 		add	x5, x5, x7
 401 055c C67C081B 		mul	w6, w6, w8
 402 0560 A500068B 		add	x5, x5, x6
 403 0564 40030054 		beq	.L70
 404 0568 67008052 		mov	w7, 3
 405 056c 6300016B 		subs	w3, w3, w1
 406 0570 087DA79B 		umull	x8, w8, w7
 407 0574 C0020054 		beq	.L70
 408 0578 63040051 		sub	w3, w3, #1
 409 057c 620080D2 		mov	x2, 3
 410 0580 01B00091 		add	x1, x0, 44
 411 0584 06008052 		mov	w6, 0
 412 0588 6708A79B 		umaddl	x7, w3, w7, x2
 413 058c 1F2003D5 		.p2align 3
 414              	.L72:
 415 0590 E00305AA 		mov	x0, x5
 416 0594 E300058B 		add	x3, x7, x5
 417              		.p2align 3
 418              	.L73:
 419 0598 000C0091 		add	x0, x0, 3
 420 059c 22004039 		ldrb	w2, [x1]
 421 05a0 1F0003EB 		cmp	x0, x3
 422 05a4 02D01F38 		strb	w2, [x0, -3]
 423 05a8 22044039 		ldrb	w2, [x1, 1]
 424 05ac 02E01F38 		strb	w2, [x0, -2]
 425 05b0 22084039 		ldrb	w2, [x1, 2]
 426 05b4 02F01F38 		strb	w2, [x0, -1]
 427 05b8 01FFFF54 		bne	.L73
 428 05bc C6040011 		add	w6, w6, 1
 429 05c0 A500088B 		add	x5, x5, x8
 430 05c4 DF00046B 		cmp	w6, w4
 431 05c8 41FEFF54 		bne	.L72
 432              	.L70:
 433 05cc C0035FD6 		ret
 434              		.size	ClearArea24, .-ClearArea24
 435              		.align	2
 436              		.p2align 4,,15
 437              		.type	VertLine24, %function
 438              	VertLine24:
 439 05d0 050840B9 		ldr	w5, [x0, 8]
 440 05d4 04A04229 		ldp	w4, w8, [x0, 20]
 441 05d8 070C4029 		ldp	w7, w3, [x0]
 442 05dc A604050B 		add	w6, w5, w5, lsl 1
 443 05e0 8404040B 		add	w4, w4, w4, lsl 1
 444 05e4 E38003AA 		orr	x3, x7, x3, lsl 32
 445 05e8 C67C081B 		mul	w6, w6, w8
 446 05ec 63C0248B 		add	x3, x3, x4, sxtw
 447 05f0 6300068B 		add	x3, x3, x6
 448 05f4 61020034 		cbz	w1, .L82
 449 05f8 64008052 		mov	w4, 3
 450 05fc 5F040071 		cmp	w2, 1
 451 0600 A57CA49B 		umull	x5, w5, w4
AARCH64 GAS  C:\Users\ldebo\AppData\Local\Temp\cchOloIf.s 			page 9


 452 0604 04900091 		add	x4, x0, 36
 453 0608 E70305CB 		neg	x7, x5
 454 060c 20020054 		beq	.L86
 455 0610 05008052 		mov	w5, 0
 456 0614 1F2003D5 		.p2align 3
 457              	.L84:
 458 0618 86004039 		ldrb	w6, [x4]
 459 061c A5040011 		add	w5, w5, 1
 460 0620 66000039 		strb	w6, [x3]
 461 0624 3F00056B 		cmp	w1, w5
 462 0628 86044039 		ldrb	w6, [x4, 1]
 463 062c 66040039 		strb	w6, [x3, 1]
 464 0630 86084039 		ldrb	w6, [x4, 2]
 465 0634 66080039 		strb	w6, [x3, 2]
 466 0638 6300078B 		add	x3, x3, x7
 467 063c E1FEFF54 		bne	.L84
 468              	.L82:
 469 0640 4120011B 		madd	w1, w2, w1, w8
 470 0644 011800B9 		str	w1, [x0, 24]
 471 0648 C0035FD6 		ret
 472 064c 1F2003D5 		.p2align 3
 473              	.L86:
 474 0650 06008052 		mov	w6, 0
 475 0654 1F2003D5 		.p2align 3
 476              	.L83:
 477 0658 87004039 		ldrb	w7, [x4]
 478 065c C6040011 		add	w6, w6, 1
 479 0660 67000039 		strb	w7, [x3]
 480 0664 3F00066B 		cmp	w1, w6
 481 0668 87044039 		ldrb	w7, [x4, 1]
 482 066c 67040039 		strb	w7, [x3, 1]
 483 0670 87084039 		ldrb	w7, [x4, 2]
 484 0674 67080039 		strb	w7, [x3, 2]
 485 0678 6300058B 		add	x3, x3, x5
 486 067c E1FEFF54 		bne	.L83
 487 0680 4120011B 		madd	w1, w2, w1, w8
 488 0684 011800B9 		str	w1, [x0, 24]
 489 0688 C0035FD6 		ret
 490              		.size	VertLine24, .-VertLine24
 491              		.align	2
 492 068c 1F2003D5 		.p2align 4,,15
 493              		.type	HorzLine24, %function
 494              	HorzLine24:
 495 0690 030840B9 		ldr	w3, [x0, 8]
 496 0694 08984229 		ldp	w8, w6, [x0, 20]
 497 0698 07144029 		ldp	w7, w5, [x0]
 498 069c 6304030B 		add	w3, w3, w3, lsl 1
 499 06a0 0405080B 		add	w4, w8, w8, lsl 1
 500 06a4 E58005AA 		orr	x5, x7, x5, lsl 32
 501 06a8 637C061B 		mul	w3, w3, w6
 502 06ac A4C0248B 		add	x4, x5, x4, sxtw
 503 06b0 6300048B 		add	x3, x3, x4
 504 06b4 E1010034 		cbz	w1, .L93
 505 06b8 67008052 		mov	w7, 3
 506 06bc 05900091 		add	x5, x0, 36
 507 06c0 04008052 		mov	w4, 0
 508 06c4 477C279B 		smull	x7, w2, w7
AARCH64 GAS  C:\Users\ldebo\AppData\Local\Temp\cchOloIf.s 			page 10


 509              		.p2align 3
 510              	.L94:
 511 06c8 A6004039 		ldrb	w6, [x5]
 512 06cc 84040011 		add	w4, w4, 1
 513 06d0 66000039 		strb	w6, [x3]
 514 06d4 3F00046B 		cmp	w1, w4
 515 06d8 A6044039 		ldrb	w6, [x5, 1]
 516 06dc 66040039 		strb	w6, [x3, 1]
 517 06e0 A6084039 		ldrb	w6, [x5, 2]
 518 06e4 66080039 		strb	w6, [x3, 2]
 519 06e8 6300078B 		add	x3, x3, x7
 520 06ec E1FEFF54 		bne	.L94
 521              	.L93:
 522 06f0 4120011B 		madd	w1, w2, w1, w8
 523 06f4 011400B9 		str	w1, [x0, 20]
 524 06f8 C0035FD6 		ret
 525              		.size	HorzLine24, .-HorzLine24
 526              		.align	2
 527 06fc 1F2003D5 		.p2align 4,,15
 528              		.type	DiagLine24, %function
 529              	DiagLine24:
 530 0700 060840B9 		ldr	w6, [x0, 8]
 531 0704 3F00026B 		cmp	w1, w2
 532 0708 0CB44229 		ldp	w12, w13, [x0, 20]
 533 070c 2290821A 		csel	w2, w1, w2, ls
 534 0710 09204029 		ldp	w9, w8, [x0]
 535 0714 C704060B 		add	w7, w6, w6, lsl 1
 536 0718 85050C0B 		add	w5, w12, w12, lsl 1
 537 071c 288108AA 		orr	x8, x9, x8, lsl 32
 538 0720 E77C0D1B 		mul	w7, w7, w13
 539 0724 05C1258B 		add	x5, x8, x5, sxtw
 540 0728 A500078B 		add	x5, x5, x7
 541 072c 01030034 		cbz	w1, .L100
 542 0730 CA7C041B 		mul	w10, w6, w4
 543 0734 69008052 		mov	w9, 3
 544 0738 08900091 		add	x8, x0, 36
 545 073c 07008052 		mov	w7, 0
 546 0740 6B7C299B 		smull	x11, w3, w9
 547 0744 06008052 		mov	w6, 0
 548 0748 4A7DA99B 		umull	x10, w10, w9
 549 074c 1F2003D5 		.p2align 3
 550              	.L102:
 551 0750 09014039 		ldrb	w9, [x8]
 552 0754 C600020B 		add	w6, w6, w2
 553 0758 A9000039 		strb	w9, [x5]
 554 075c E7040011 		add	w7, w7, 1
 555 0760 3F00066B 		cmp	w1, w6
 556 0764 09054039 		ldrb	w9, [x8, 1]
 557 0768 A9040039 		strb	w9, [x5, 1]
 558 076c 09094039 		ldrb	w9, [x8, 2]
 559 0770 A9080039 		strb	w9, [x5, 2]
 560 0774 A5000B8B 		add	x5, x5, x11
 561 0778 68000054 		bhi	.L101
 562 077c C600014B 		sub	w6, w6, w1
 563 0780 A5000A8B 		add	x5, x5, x10
 564              	.L101:
 565 0784 3F00076B 		cmp	w1, w7
AARCH64 GAS  C:\Users\ldebo\AppData\Local\Temp\cchOloIf.s 			page 11


 566 0788 41FEFF54 		bne	.L102
 567              	.L100:
 568 078c 6130011B 		madd	w1, w3, w1, w12
 569 0790 8234021B 		madd	w2, w4, w2, w13
 570 0794 01880229 		stp	w1, w2, [x0, 20]
 571 0798 C0035FD6 		ret
 572              		.size	DiagLine24, .-DiagLine24
 573              		.align	2
 574 079c 1F2003D5 		.p2align 4,,15
 575              		.type	WriteChar24, %function
 576              	WriteChar24:
 577 07a0 0B0840B9 		ldr	w11, [x0, 8]
 578 07a4 65008052 		mov	w5, 3
 579 07a8 0E984229 		ldp	w14, w6, [x0, 20]
 580 07ac 211C1E53 		ubfiz	w1, w1, 2, 8
 581 07b0 07104029 		ldp	w7, w4, [x0]
 582 07b4 63050B0B 		add	w3, w11, w11, lsl 1
 583 07b8 C2050E0B 		add	w2, w14, w14, lsl 1
 584 07bc 6B7DA59B 		umull	x11, w11, w5
 585 07c0 0D000090 		adrp	x13, BitFont
 586 07c4 AD010091 		add	x13, x13, :lo12:BitFont
 587 07c8 E48004AA 		orr	x4, x7, x4, lsl 32
 588 07cc 637C061B 		mul	w3, w3, w6
 589 07d0 82C0228B 		add	x2, x4, x2, sxtw
 590 07d4 2F100011 		add	w15, w1, 4
 591 07d8 EC03052A 		mov	w12, w5
 592 07dc 6300028B 		add	x3, x3, x2
 593              	.L111:
 594 07e0 A55961B8 		ldr	w5, [x13, w1, uxtw 2]
 595 07e4 04008052 		mov	w4, 0
 596              		.p2align 3
 597              	.L110:
 598 07e8 82080012 		and	w2, w4, 7
 599 07ec 6A000B8B 		add	x10, x3, x11
 600 07f0 09A04039 		ldrb	w9, [x0, 40]
 601 07f4 84040011 		add	w4, w4, 1
 602 07f8 08A44039 		ldrb	w8, [x0, 41]
 603 07fc 07A84039 		ldrb	w7, [x0, 42]
 604 0800 8500F836 		tbz	w5, #31, .L108
 605 0804 09904039 		ldrb	w9, [x0, 36]
 606 0808 08944039 		ldrb	w8, [x0, 37]
 607 080c 07984039 		ldrb	w7, [x0, 38]
 608              	.L108:
 609 0810 5F1C0071 		cmp	w2, 7
 610 0814 427C2C9B 		smull	x2, w2, w12
 611 0818 A500050B 		add	w5, w5, w5
 612 081c 6600028B 		add	x6, x3, x2
 613 0820 69682238 		strb	w9, [x3, x2]
 614 0824 4301839A 		csel	x3, x10, x3, eq
 615 0828 C8040039 		strb	w8, [x6, 1]
 616 082c 9F800071 		cmp	w4, 32
 617 0830 C7080039 		strb	w7, [x6, 2]
 618 0834 A1FDFF54 		bne	.L110
 619 0838 21040011 		add	w1, w1, 1
 620 083c 3F000F6B 		cmp	w1, w15
 621 0840 01FDFF54 		bne	.L111
 622 0844 CE210011 		add	w14, w14, 8
AARCH64 GAS  C:\Users\ldebo\AppData\Local\Temp\cchOloIf.s 			page 12


 623 0848 0E1400B9 		str	w14, [x0, 20]
 624 084c C0035FD6 		ret
 625              		.size	WriteChar24, .-WriteChar24
 626              		.align	2
 627              		.p2align 4,,15
 628              		.type	TransparentWriteChar24, %function
 629              	TransparentWriteChar24:
 630 0850 0A0840B9 		ldr	w10, [x0, 8]
 631 0854 65008052 		mov	w5, 3
 632 0858 0E984229 		ldp	w14, w6, [x0, 20]
 633 085c 211C1E53 		ubfiz	w1, w1, 2, 8
 634 0860 070C4029 		ldp	w7, w3, [x0]
 635 0864 44050A0B 		add	w4, w10, w10, lsl 1
 636 0868 C2050E0B 		add	w2, w14, w14, lsl 1
 637 086c 4A7DA59B 		umull	x10, w10, w5
 638 0870 0D000090 		adrp	x13, BitFont
 639 0874 AD010091 		add	x13, x13, :lo12:BitFont
 640 0878 E38003AA 		orr	x3, x7, x3, lsl 32
 641 087c 847C061B 		mul	w4, w4, w6
 642 0880 62C0228B 		add	x2, x3, x2, sxtw
 643 0884 2F100011 		add	w15, w1, 4
 644 0888 EC03052A 		mov	w12, w5
 645 088c 8400028B 		add	x4, x4, x2
 646              	.L118:
 647 0890 A35961B8 		ldr	w3, [x13, w1, uxtw 2]
 648 0894 02008052 		mov	w2, 0
 649              		.p2align 3
 650              	.L117:
 651 0898 45080012 		and	w5, w2, 7
 652 089c 86000A8B 		add	x6, x4, x10
 653 08a0 42040011 		add	w2, w2, 1
 654 08a4 2301F836 		tbz	w3, #31, .L115
 655 08a8 A97C2C9B 		smull	x9, w5, w12
 656 08ac 0B904039 		ldrb	w11, [x0, 36]
 657 08b0 8700098B 		add	x7, x4, x9
 658 08b4 8B682938 		strb	w11, [x4, x9]
 659 08b8 09944039 		ldrb	w9, [x0, 37]
 660 08bc E9040039 		strb	w9, [x7, 1]
 661 08c0 08984039 		ldrb	w8, [x0, 38]
 662 08c4 E8080039 		strb	w8, [x7, 2]
 663              	.L115:
 664 08c8 BF1C0071 		cmp	w5, 7
 665 08cc 6300030B 		add	w3, w3, w3
 666 08d0 C400849A 		csel	x4, x6, x4, eq
 667 08d4 5F800071 		cmp	w2, 32
 668 08d8 01FEFF54 		bne	.L117
 669 08dc 21040011 		add	w1, w1, 1
 670 08e0 FF01016B 		cmp	w15, w1
 671 08e4 61FDFF54 		bne	.L118
 672 08e8 CE210011 		add	w14, w14, 8
 673 08ec 0E1400B9 		str	w14, [x0, 20]
 674 08f0 C0035FD6 		ret
 675              		.size	TransparentWriteChar24, .-TransparentWriteChar24
 676              		.align	2
 677 08f4 1F2003D5 		.p2align 4,,15
 677      1F2003D5 
 677      1F2003D5 
AARCH64 GAS  C:\Users\ldebo\AppData\Local\Temp\cchOloIf.s 			page 13


 678              		.type	PutImage24, %function
 679              	PutImage24:
 680 0900 0A0840B9 		ldr	w10, [x0, 8]
 681 0904 841C0012 		and	w4, w4, 255
 682 0908 059C4229 		ldp	w5, w7, [x0, 20]
 683 090c 08184029 		ldp	w8, w6, [x0]
 684 0910 40050A0B 		add	w0, w10, w10, lsl 1
 685 0914 A504050B 		add	w5, w5, w5, lsl 1
 686 0918 068106AA 		orr	x6, x8, x6, lsl 32
 687 091c 007C071B 		mul	w0, w0, w7
 688 0920 C6C0258B 		add	x6, x6, x5, sxtw
 689 0924 C600008B 		add	x6, x6, x0
 690 0928 E2030034 		cbz	w2, .L121
 691 092c 60008052 		mov	w0, 3
 692 0930 4A7DA09B 		umull	x10, w10, w0
 693 0934 EB030ACB 		neg	x11, x10
 694 0938 61030034 		cbz	w1, .L121
 695 093c 28040051 		sub	w8, w1, #1
 696 0940 09008052 		mov	w9, 0
 697 0944 08050091 		add	x8, x8, 1
 698 0948 0805088B 		add	x8, x8, x8, lsl 1
 699 094c 1F2003D5 		.p2align 3
 700              	.L124:
 701 0950 000080D2 		mov	x0, 0
 702 0954 1F2003D5 		.p2align 3
 703              	.L125:
 704 0958 61686038 		ldrb	w1, [x3, x0]
 705 095c 6500008B 		add	x5, x3, x0
 706 0960 C1682038 		strb	w1, [x6, x0]
 707 0964 C100008B 		add	x1, x6, x0
 708 0968 000C0091 		add	x0, x0, 3
 709 096c A7044039 		ldrb	w7, [x5, 1]
 710 0970 1F0008EB 		cmp	x0, x8
 711 0974 27040039 		strb	w7, [x1, 1]
 712 0978 A5084039 		ldrb	w5, [x5, 2]
 713 097c 25080039 		strb	w5, [x1, 2]
 714 0980 C1FEFF54 		bne	.L125
 715 0984 9F000071 		cmp	w4, 0
 716 0988 C0000B8B 		add	x0, x6, x11
 717 098c 29050011 		add	w9, w9, 1
 718 0990 C6000A8B 		add	x6, x6, x10
 719 0994 C600809A 		csel	x6, x6, x0, eq
 720 0998 6300088B 		add	x3, x3, x8
 721 099c 5F00096B 		cmp	w2, w9
 722 09a0 81FDFF54 		bne	.L124
 723              	.L121:
 724 09a4 C0035FD6 		ret
 725              		.size	PutImage24, .-PutImage24
 726              		.align	2
 727 09a8 1F2003D5 		.p2align 4,,15
 727      1F2003D5 
 728              		.type	ClearArea32, %function
 729              	ClearArea32:
 730 09b0 060840B9 		ldr	w6, [x0, 8]
 731 09b4 45741E53 		lsl	w5, w2, 2
 732 09b8 8400026B 		subs	w4, w4, w2
 733 09bc 07084029 		ldp	w7, w2, [x0]
AARCH64 GAS  C:\Users\ldebo\AppData\Local\Temp\cchOloIf.s 			page 14


 734 09c0 A67C061B 		mul	w6, w5, w6
 735 09c4 E28002AA 		orr	x2, x7, x2, lsl 32
 736 09c8 4540258B 		add	x5, x2, x5, uxtw
 737 09cc A640268B 		add	x6, x5, x6, uxtw
 738 09d0 60020054 		beq	.L136
 739 09d4 6300016B 		subs	w3, w3, w1
 740 09d8 20020054 		beq	.L136
 741 09dc 63040051 		sub	w3, w3, #1
 742 09e0 880080D2 		mov	x8, 4
 743 09e4 05B00091 		add	x5, x0, 44
 744 09e8 0849238B 		add	x8, x8, x3, uxtw 2
 745 09ec 07008052 		mov	w7, 0
 746              		.p2align 3
 747              	.L139:
 748 09f0 E10306AA 		mov	x1, x6
 749 09f4 0301068B 		add	x3, x8, x6
 750              		.p2align 3
 751              	.L140:
 752 09f8 A20040B9 		ldr	w2, [x5]
 753 09fc 224400B8 		str	w2, [x1], 4
 754 0a00 7F0001EB 		cmp	x3, x1
 755 0a04 A1FFFF54 		bne	.L140
 756 0a08 010840B9 		ldr	w1, [x0, 8]
 757 0a0c E7040011 		add	w7, w7, 1
 758 0a10 FF00046B 		cmp	w7, w4
 759 0a14 C608018B 		add	x6, x6, x1, lsl 2
 760 0a18 C1FEFF54 		bne	.L139
 761              	.L136:
 762 0a1c C0035FD6 		ret
 763              		.size	ClearArea32, .-ClearArea32
 764              		.align	2
 765              		.p2align 4,,15
 766              		.type	VertLine32, %function
 767              	VertLine32:
 768 0a20 030840B9 		ldr	w3, [x0, 8]
 769 0a24 04984229 		ldp	w4, w6, [x0, 20]
 770 0a28 07144029 		ldp	w7, w5, [x0]
 771 0a2c 63741E53 		lsl	w3, w3, 2
 772 0a30 84741E53 		lsl	w4, w4, 2
 773 0a34 637C061B 		mul	w3, w3, w6
 774 0a38 E58005AA 		orr	x5, x7, x5, lsl 32
 775 0a3c A4C0248B 		add	x4, x5, x4, sxtw
 776 0a40 8340238B 		add	x3, x4, x3, uxtw
 777 0a44 A1010034 		cbz	w1, .L150
 778 0a48 06900091 		add	x6, x0, 36
 779 0a4c 04008052 		mov	w4, 0
 780 0a50 5F040071 		cmp	w2, 1
 781 0a54 A0010054 		beq	.L151
 782              		.p2align 3
 783              	.L152:
 784 0a58 C50040B9 		ldr	w5, [x6]
 785 0a5c 84040011 		add	w4, w4, 1
 786 0a60 650000B9 		str	w5, [x3]
 787 0a64 3F00046B 		cmp	w1, w4
 788 0a68 050840B9 		ldr	w5, [x0, 8]
 789 0a6c 630805CB 		sub	x3, x3, x5, lsl 2
 790 0a70 41FFFF54 		bne	.L152
AARCH64 GAS  C:\Users\ldebo\AppData\Local\Temp\cchOloIf.s 			page 15


 791              	.L153:
 792 0a74 061840B9 		ldr	w6, [x0, 24]
 793              	.L150:
 794 0a78 4118011B 		madd	w1, w2, w1, w6
 795 0a7c 011800B9 		str	w1, [x0, 24]
 796 0a80 C0035FD6 		ret
 797 0a84 1F2003D5 		.p2align 3
 798              	.L151:
 799 0a88 C50040B9 		ldr	w5, [x6]
 800 0a8c 84040011 		add	w4, w4, 1
 801 0a90 650000B9 		str	w5, [x3]
 802 0a94 3F00046B 		cmp	w1, w4
 803 0a98 050840B9 		ldr	w5, [x0, 8]
 804 0a9c 6308058B 		add	x3, x3, x5, lsl 2
 805 0aa0 A0FEFF54 		beq	.L153
 806 0aa4 C50040B9 		ldr	w5, [x6]
 807 0aa8 84040011 		add	w4, w4, 1
 808 0aac 650000B9 		str	w5, [x3]
 809 0ab0 3F00046B 		cmp	w1, w4
 810 0ab4 050840B9 		ldr	w5, [x0, 8]
 811 0ab8 6308058B 		add	x3, x3, x5, lsl 2
 812 0abc 61FEFF54 		bne	.L151
 813 0ac0 EDFFFF17 		b	.L153
 814              		.size	VertLine32, .-VertLine32
 815              		.align	2
 816 0ac4 1F2003D5 		.p2align 4,,15
 816      1F2003D5 
 816      1F2003D5 
 817              		.type	HorzLine32, %function
 818              	HorzLine32:
 819 0ad0 030840B9 		ldr	w3, [x0, 8]
 820 0ad4 069C4229 		ldp	w6, w7, [x0, 20]
 821 0ad8 08144029 		ldp	w8, w5, [x0]
 822 0adc 63741E53 		lsl	w3, w3, 2
 823 0ae0 C4741E53 		lsl	w4, w6, 2
 824 0ae4 637C071B 		mul	w3, w3, w7
 825 0ae8 058105AA 		orr	x5, x8, x5, lsl 32
 826 0aec A4C0248B 		add	x4, x5, x4, sxtw
 827 0af0 8340238B 		add	x3, x4, x3, uxtw
 828 0af4 81010034 		cbz	w1, .L162
 829 0af8 477C7E93 		sbfiz	x7, x2, 2, 32
 830 0afc 06900091 		add	x6, x0, 36
 831 0b00 04008052 		mov	w4, 0
 832 0b04 1F2003D5 		.p2align 3
 833              	.L163:
 834 0b08 C50040B9 		ldr	w5, [x6]
 835 0b0c 84040011 		add	w4, w4, 1
 836 0b10 650000B9 		str	w5, [x3]
 837 0b14 3F00046B 		cmp	w1, w4
 838 0b18 6300078B 		add	x3, x3, x7
 839 0b1c 61FFFF54 		bne	.L163
 840 0b20 061440B9 		ldr	w6, [x0, 20]
 841              	.L162:
 842 0b24 4118011B 		madd	w1, w2, w1, w6
 843 0b28 011400B9 		str	w1, [x0, 20]
 844 0b2c C0035FD6 		ret
 845              		.size	HorzLine32, .-HorzLine32
AARCH64 GAS  C:\Users\ldebo\AppData\Local\Temp\cchOloIf.s 			page 16


 846              		.align	2
 847              		.p2align 4,,15
 848              		.type	DiagLine32, %function
 849              	DiagLine32:
 850 0b30 050840B9 		ldr	w5, [x0, 8]
 851 0b34 3F00026B 		cmp	w1, w2
 852 0b38 09A04229 		ldp	w9, w8, [x0, 20]
 853 0b3c 2290821A 		csel	w2, w1, w2, ls
 854 0b40 0A1C4029 		ldp	w10, w7, [x0]
 855 0b44 A5741E53 		lsl	w5, w5, 2
 856 0b48 26751E53 		lsl	w6, w9, 2
 857 0b4c A57C081B 		mul	w5, w5, w8
 858 0b50 478107AA 		orr	x7, x10, x7, lsl 32
 859 0b54 E6C0268B 		add	x6, x7, x6, sxtw
 860 0b58 C540258B 		add	x5, x6, x5, uxtw
 861 0b5c 61020034 		cbz	w1, .L169
 862 0b60 6A7C7E93 		sbfiz	x10, x3, 2, 32
 863 0b64 09900091 		add	x9, x0, 36
 864 0b68 07008052 		mov	w7, 0
 865 0b6c 06008052 		mov	w6, 0
 866              		.p2align 3
 867              	.L171:
 868 0b70 280140B9 		ldr	w8, [x9]
 869 0b74 C600020B 		add	w6, w6, w2
 870 0b78 A80000B9 		str	w8, [x5]
 871 0b7c E7040011 		add	w7, w7, 1
 872 0b80 3F00066B 		cmp	w1, w6
 873 0b84 A5000A8B 		add	x5, x5, x10
 874 0b88 A8000054 		bhi	.L170
 875 0b8c 080840B9 		ldr	w8, [x0, 8]
 876 0b90 C600014B 		sub	w6, w6, w1
 877 0b94 887C081B 		mul	w8, w4, w8
 878 0b98 A508088B 		add	x5, x5, x8, lsl 2
 879              	.L170:
 880 0b9c 3F00076B 		cmp	w1, w7
 881 0ba0 81FEFF54 		bne	.L171
 882 0ba4 09A04229 		ldp	w9, w8, [x0, 20]
 883              	.L169:
 884 0ba8 6124011B 		madd	w1, w3, w1, w9
 885 0bac 4220041B 		madd	w2, w2, w4, w8
 886 0bb0 01880229 		stp	w1, w2, [x0, 20]
 887 0bb4 C0035FD6 		ret
 888              		.size	DiagLine32, .-DiagLine32
 889              		.align	2
 890 0bb8 1F2003D5 		.p2align 4,,15
 890      1F2003D5 
 891              		.type	WriteChar32, %function
 892              	WriteChar32:
 893 0bc0 070840B9 		ldr	w7, [x0, 8]
 894 0bc4 211C1E53 		ubfiz	w1, w1, 2, 8
 895 0bc8 02904229 		ldp	w2, w4, [x0, 20]
 896 0bcc 08000090 		adrp	x8, BitFont
 897 0bd0 08010091 		add	x8, x8, :lo12:BitFont
 898 0bd4 050C4029 		ldp	w5, w3, [x0]
 899 0bd8 E7741E53 		lsl	w7, w7, 2
 900 0bdc 42741E53 		lsl	w2, w2, 2
 901 0be0 FF4300D1 		sub	sp, sp, #16
AARCH64 GAS  C:\Users\ldebo\AppData\Local\Temp\cchOloIf.s 			page 17


 902 0be4 29100011 		add	w9, w1, 4
 903 0be8 E77C041B 		mul	w7, w7, w4
 904 0bec A38003AA 		orr	x3, x5, x3, lsl 32
 905 0bf0 62C0228B 		add	x2, x3, x2, sxtw
 906 0bf4 4740278B 		add	x7, x2, x7, uxtw
 907              	.L181:
 908 0bf8 035961B8 		ldr	w3, [x8, w1, uxtw 2]
 909 0bfc 02008052 		mov	w2, 0
 910 0c00 0F000014 		b	.L180
 911 0c04 1F2003D5 		.p2align 3
 912              	.L186:
 913 0c08 052840B9 		ldr	w5, [x0, 40]
 914 0c0c E50B00B9 		str	w5, [sp, 8]
 915              	.L178:
 916 0c10 E503042A 		uxtw	x5, w4
 917 0c14 E60B40B9 		ldr	w6, [sp, 8]
 918 0c18 42040011 		add	w2, w2, 1
 919 0c1c 9F1C0071 		cmp	w4, 7
 920 0c20 6300030B 		add	w3, w3, w3
 921 0c24 E67825B8 		str	w6, [x7, x5, lsl 2]
 922 0c28 61000054 		bne	.L179
 923 0c2c 040840B9 		ldr	w4, [x0, 8]
 924 0c30 E708048B 		add	x7, x7, x4, lsl 2
 925              	.L179:
 926 0c34 5F800071 		cmp	w2, 32
 927 0c38 C0000054 		beq	.L185
 928              	.L180:
 929 0c3c 44080012 		and	w4, w2, 7
 930 0c40 43FEFF36 		tbz	w3, #31, .L186
 931 0c44 052440B9 		ldr	w5, [x0, 36]
 932 0c48 E50B00B9 		str	w5, [sp, 8]
 933 0c4c F1FFFF17 		b	.L178
 934              		.p2align 3
 935              	.L185:
 936 0c50 21040011 		add	w1, w1, 1
 937 0c54 3F01016B 		cmp	w9, w1
 938 0c58 01FDFF54 		bne	.L181
 939 0c5c 011440B9 		ldr	w1, [x0, 20]
 940 0c60 21200011 		add	w1, w1, 8
 941 0c64 011400B9 		str	w1, [x0, 20]
 942 0c68 FF430091 		add	sp, sp, 16
 943 0c6c C0035FD6 		ret
 944              		.size	WriteChar32, .-WriteChar32
 945              		.align	2
 946              		.p2align 4,,15
 947              		.type	TransparentWriteChar32, %function
 948              	TransparentWriteChar32:
 949 0c70 060840B9 		ldr	w6, [x0, 8]
 950 0c74 211C1E53 		ubfiz	w1, w1, 2, 8
 951 0c78 02904229 		ldp	w2, w4, [x0, 20]
 952 0c7c 08000090 		adrp	x8, BitFont
 953 0c80 08010091 		add	x8, x8, :lo12:BitFont
 954 0c84 050C4029 		ldp	w5, w3, [x0]
 955 0c88 C6741E53 		lsl	w6, w6, 2
 956 0c8c 42741E53 		lsl	w2, w2, 2
 957 0c90 29100011 		add	w9, w1, 4
 958 0c94 C67C041B 		mul	w6, w6, w4
AARCH64 GAS  C:\Users\ldebo\AppData\Local\Temp\cchOloIf.s 			page 18


 959 0c98 A38003AA 		orr	x3, x5, x3, lsl 32
 960 0c9c 62C0228B 		add	x2, x3, x2, sxtw
 961 0ca0 4640268B 		add	x6, x2, x6, uxtw
 962              	.L191:
 963 0ca4 035961B8 		ldr	w3, [x8, w1, uxtw 2]
 964 0ca8 02008052 		mov	w2, 0
 965 0cac 1F2003D5 		.p2align 3
 966              	.L190:
 967 0cb0 44080012 		and	w4, w2, 7
 968 0cb4 42040011 		add	w2, w2, 1
 969 0cb8 8300F836 		tbz	w3, #31, .L188
 970 0cbc E503042A 		uxtw	x5, w4
 971 0cc0 072440B9 		ldr	w7, [x0, 36]
 972 0cc4 C77825B8 		str	w7, [x6, x5, lsl 2]
 973              	.L188:
 974 0cc8 9F1C0071 		cmp	w4, 7
 975 0ccc 6300030B 		add	w3, w3, w3
 976 0cd0 61000054 		bne	.L189
 977 0cd4 040840B9 		ldr	w4, [x0, 8]
 978 0cd8 C608048B 		add	x6, x6, x4, lsl 2
 979              	.L189:
 980 0cdc 5F800071 		cmp	w2, 32
 981 0ce0 81FEFF54 		bne	.L190
 982 0ce4 21040011 		add	w1, w1, 1
 983 0ce8 3F01016B 		cmp	w9, w1
 984 0cec C1FDFF54 		bne	.L191
 985 0cf0 011440B9 		ldr	w1, [x0, 20]
 986 0cf4 21200011 		add	w1, w1, 8
 987 0cf8 011400B9 		str	w1, [x0, 20]
 988 0cfc C0035FD6 		ret
 989              		.size	TransparentWriteChar32, .-TransparentWriteChar32
 990              		.align	2
 991              		.p2align 4,,15
 992              		.type	PutImage32, %function
 993              	PutImage32:
 994 0d00 060840B9 		ldr	w6, [x0, 8]
 995 0d04 841C0012 		and	w4, w4, 255
 996 0d08 05A04229 		ldp	w5, w8, [x0, 20]
 997 0d0c 091C4029 		ldp	w9, w7, [x0]
 998 0d10 C6741E53 		lsl	w6, w6, 2
 999 0d14 A5741E53 		lsl	w5, w5, 2
 1000 0d18 C67C081B 		mul	w6, w6, w8
 1001 0d1c 278107AA 		orr	x7, x9, x7, lsl 32
 1002 0d20 E5C0258B 		add	x5, x7, x5, sxtw
 1003 0d24 A640268B 		add	x6, x5, x6, uxtw
 1004 0d28 E2020034 		cbz	w2, .L194
 1005 0d2c C1020034 		cbz	w1, .L194
 1006 0d30 27040051 		sub	w7, w1, #1
 1007 0d34 08008052 		mov	w8, 0
 1008 0d38 E7040091 		add	x7, x7, 1
 1009 0d3c E7F47ED3 		lsl	x7, x7, 2
 1010              		.p2align 3
 1011              	.L197:
 1012 0d40 010080D2 		mov	x1, 0
 1013 0d44 1F2003D5 		.p2align 3
 1014              	.L198:
 1015 0d48 656861B8 		ldr	w5, [x3, x1]
AARCH64 GAS  C:\Users\ldebo\AppData\Local\Temp\cchOloIf.s 			page 19


 1016 0d4c C56821B8 		str	w5, [x6, x1]
 1017 0d50 21100091 		add	x1, x1, 4
 1018 0d54 FF0001EB 		cmp	x7, x1
 1019 0d58 81FFFF54 		bne	.L198
 1020 0d5c 010840B9 		ldr	w1, [x0, 8]
 1021 0d60 9F000071 		cmp	w4, 0
 1022 0d64 08050011 		add	w8, w8, 1
 1023 0d68 6300078B 		add	x3, x3, x7
 1024 0d6c 21F47ED3 		lsl	x1, x1, 2
 1025 0d70 C50001CB 		sub	x5, x6, x1
 1026 0d74 C600018B 		add	x6, x6, x1
 1027 0d78 C600859A 		csel	x6, x6, x5, eq
 1028 0d7c 5F00086B 		cmp	w2, w8
 1029 0d80 01FEFF54 		bne	.L197
 1030              	.L194:
 1031 0d84 C0035FD6 		ret
 1032              		.size	PutImage32, .-PutImage32
 1033              		.align	2
 1034 0d88 1F2003D5 		.p2align 4,,15
 1034      1F2003D5 
 1035              		.type	mailbox_tag_message.constprop.7, %function
 1036              	mailbox_tag_message.constprop.7:
 1037 0d90 F353B1A9 		stp	x19, x20, [sp, -240]!
 1038 0d94 080B80D2 		mov	x8, 88
 1039 0d98 E1058012 		mov	w1, -48
 1040 0d9c F40300AA 		mov	x20, x0
 1041 0da0 F3030391 		add	x19, sp, 192
 1042 0da4 FE0B00F9 		str	x30, [sp, 16]
 1043 0da8 EA03012A 		mov	w10, w1
 1044 0dac ECC30391 		add	x12, sp, 240
 1045 0db0 EB030391 		add	x11, sp, 192
 1046 0db4 EC3302A9 		stp	x12, x12, [sp, 32]
 1047 0db8 680E18F8 		str	x8, [x19, -128]!
 1048 0dbc E803012A 		mov	w8, w1
 1049 0dc0 EB1B00F9 		str	x11, [sp, 48]
 1050 0dc4 60220091 		add	x0, x19, 8
 1051 0dc8 69520191 		add	x9, x19, 84
 1052 0dcc E17F0729 		stp	w1, wzr, [sp, 56]
 1053 0dd0 FF9700B9 		str	wzr, [sp, 148]
 1054 0dd4 E20F0CA9 		stp	x2, x3, [sp, 192]
 1055 0dd8 02008052 		mov	w2, 0
 1056 0ddc E4170DA9 		stp	x4, x5, [sp, 208]
 1057 0de0 E61F0EA9 		stp	x6, x7, [sp, 224]
 1058 0de4 1F2003D5 		.p2align 3
 1059              	.L213:
 1060 0de8 0806F837 		tbnz	w8, #31, .L210
 1061 0dec E1030CAA 		mov	x1, x12
 1062 0df0 8C210091 		add	x12, x12, 8
 1063              	.L211:
 1064 0df4 210040B9 		ldr	w1, [x1]
 1065 0df8 014400B8 		str	w1, [x0], 4
 1066 0dfc 1F0009EB 		cmp	x0, x9
 1067 0e00 41FFFF54 		bne	.L213
 1068 0e04 E2040035 		cbnz	w2, .L233
 1069              	.L214:
 1070 0e08 E00313AA 		mov	x0, x19
 1071 0e0c 00000094 		bl	ARMaddrToGPUaddr
AARCH64 GAS  C:\Users\ldebo\AppData\Local\Temp\cchOloIf.s 			page 20


 1072 0e10 01000090 		adrp	x1, RPi_IO_Base_Addr
 1073 0e14 210040B9 		ldr	w1, [x1, #:lo12:RPi_IO_Base_Addr]
 1074 0e18 006C1C12 		and	w0, w0, -16
 1075 0e1c 02001D32 		orr	w2, w0, 8
 1076 0e20 00109752 		mov	w0, 47232
 1077 0e24 2100000B 		add	w1, w1, w0
 1078              		.p2align 3
 1079              	.L215:
 1080 0e28 203840B9 		ldr	w0, [x1, 56]
 1081 0e2c E0FFFF37 		tbnz	w0, #31, .L215
 1082 0e30 222000B9 		str	w2, [x1, 32]
 1083 0e34 1F2003D5 		.p2align 3
 1084              	.L216:
 1085 0e38 201840B9 		ldr	w0, [x1, 24]
 1086 0e3c E0FFF737 		tbnz	x0, 30, .L216
 1087 0e40 200040B9 		ldr	w0, [x1]
 1088 0e44 000C0012 		and	w0, w0, 15
 1089 0e48 1F200071 		cmp	w0, 8
 1090 0e4c 61FFFF54 		bne	.L216
 1091 0e50 E24740B9 		ldr	w2, [sp, 68]
 1092 0e54 0100B052 		mov	w1, -2147483648
 1093 0e58 00008052 		mov	w0, 0
 1094 0e5c 5F00016B 		cmp	w2, w1
 1095 0e60 80000054 		beq	.L234
 1096 0e64 FE0B40F9 		ldr	x30, [sp, 16]
 1097 0e68 F353CFA8 		ldp	x19, x20, [sp], 240
 1098 0e6c C0035FD6 		ret
 1099              	.L234:
 1100 0e70 000080D2 		mov	x0, 0
 1101 0e74 F40000B4 		cbz	x20, .L220
 1102              		.p2align 3
 1103              	.L219:
 1104 0e78 6102008B 		add	x1, x19, x0
 1105 0e7c 210840B9 		ldr	w1, [x1, 8]
 1106 0e80 816A20B8 		str	w1, [x20, x0]
 1107 0e84 00100091 		add	x0, x0, 4
 1108 0e88 1F3001F1 		cmp	x0, 76
 1109 0e8c 61FFFF54 		bne	.L219
 1110              	.L220:
 1111 0e90 FE0B40F9 		ldr	x30, [sp, 16]
 1112 0e94 20008052 		mov	w0, 1
 1113 0e98 F353CFA8 		ldp	x19, x20, [sp], 240
 1114 0e9c C0035FD6 		ret
 1115              	.L233:
 1116 0ea0 EA3B00B9 		str	w10, [sp, 56]
 1117 0ea4 D9FFFF17 		b	.L214
 1118              	.L210:
 1119 0ea8 0A210011 		add	w10, w8, 8
 1120 0eac 5F010071 		cmp	w10, 0
 1121 0eb0 CD000054 		ble	.L212
 1122 0eb4 E1030CAA 		mov	x1, x12
 1123 0eb8 E8030A2A 		mov	w8, w10
 1124 0ebc 8C210091 		add	x12, x12, 8
 1125 0ec0 22008052 		mov	w2, 1
 1126 0ec4 CCFFFF17 		b	.L211
 1127              	.L212:
 1128 0ec8 E1C30391 		add	x1, sp, 240
AARCH64 GAS  C:\Users\ldebo\AppData\Local\Temp\cchOloIf.s 			page 21


 1129 0ecc 22008052 		mov	w2, 1
 1130 0ed0 21C0288B 		add	x1, x1, x8, sxtw
 1131 0ed4 E8030A2A 		mov	w8, w10
 1132 0ed8 C7FFFF17 		b	.L211
 1133              		.size	mailbox_tag_message.constprop.7, .-mailbox_tag_message.constprop.7
 1134              		.align	2
 1135 0edc 1F2003D5 		.p2align 4,,15
 1136              		.type	mailbox_tag_message.constprop.4, %function
 1137              	mailbox_tag_message.constprop.4:
 1138 0ee0 FE0F12F8 		str	x30, [sp, -224]!
 1139 0ee4 010480D2 		mov	x1, 32
 1140 0ee8 E0830391 		add	x0, sp, 224
 1141 0eec E28F0BA9 		stp	x2, x3, [sp, 184]
 1142 0ef0 070001CB 		sub	x7, x0, x1
 1143 0ef4 E4970CA9 		stp	x4, x5, [sp, 200]
 1144 0ef8 E66F00F9 		str	x6, [sp, 216]
 1145 0efc E0018012 		mov	w0, -16
 1146 0f00 E3CB40B9 		ldr	w3, [sp, 200]
 1147 0f04 E6830391 		add	x6, sp, 224
 1148 0f08 E40040B9 		ldr	w4, [x7]
 1149 0f0c E5C30291 		add	x5, sp, 176
 1150 0f10 E61B01A9 		stp	x6, x6, [sp, 16]
 1151 0f14 E51300F9 		str	x5, [sp, 32]
 1152 0f18 E07F0529 		stp	w0, wzr, [sp, 40]
 1153 0f1c E11B00F9 		str	x1, [sp, 48]
 1154 0f20 E10306AA 		mov	x1, x6
 1155 0f24 E23B00B9 		str	w2, [sp, 56]
 1156 0f28 E20306AA 		mov	x2, x6
 1157 0f2c E48F0729 		stp	w4, w3, [sp, 60]
 1158 0f30 FF4F00B9 		str	wzr, [sp, 76]
 1159 0f34 A004F837 		tbnz	w0, #31, .L245
 1160 0f38 C1200091 		add	x1, x6, 8
 1161 0f3c E10B00F9 		str	x1, [sp, 16]
 1162              	.L246:
 1163 0f40 420040B9 		ldr	w2, [x2]
 1164 0f44 E24700B9 		str	w2, [sp, 68]
 1165 0f48 A000F836 		tbz	w0, #31, .L248
 1166 0f4c 1F1C0031 		cmn	w0, #7
 1167 0f50 6A000054 		bge	.L248
 1168 0f54 E10F40F9 		ldr	x1, [sp, 24]
 1169 0f58 21C0208B 		add	x1, x1, x0, sxtw
 1170              	.L248:
 1171 0f5c 210040B9 		ldr	w1, [x1]
 1172 0f60 E0C30091 		add	x0, sp, 48
 1173 0f64 E14B00B9 		str	w1, [sp, 72]
 1174 0f68 00000094 		bl	ARMaddrToGPUaddr
 1175 0f6c 006C1C12 		and	w0, w0, -16
 1176 0f70 01000090 		adrp	x1, RPi_IO_Base_Addr
 1177 0f74 210040B9 		ldr	w1, [x1, #:lo12:RPi_IO_Base_Addr]
 1178 0f78 02001D32 		orr	w2, w0, 8
 1179 0f7c 00109752 		mov	w0, 47232
 1180 0f80 2100000B 		add	w1, w1, w0
 1181 0f84 1F2003D5 		.p2align 3
 1182              	.L249:
 1183 0f88 203840B9 		ldr	w0, [x1, 56]
 1184 0f8c E0FFFF37 		tbnz	w0, #31, .L249
 1185 0f90 222000B9 		str	w2, [x1, 32]
AARCH64 GAS  C:\Users\ldebo\AppData\Local\Temp\cchOloIf.s 			page 22


 1186 0f94 1F2003D5 		.p2align 3
 1187              	.L250:
 1188 0f98 201840B9 		ldr	w0, [x1, 24]
 1189 0f9c E0FFF737 		tbnz	x0, 30, .L250
 1190 0fa0 200040B9 		ldr	w0, [x1]
 1191 0fa4 000C0012 		and	w0, w0, 15
 1192 0fa8 1F200071 		cmp	w0, 8
 1193 0fac 61FFFF54 		bne	.L250
 1194 0fb0 E13740B9 		ldr	w1, [sp, 52]
 1195 0fb4 0000B052 		mov	w0, -2147483648
 1196 0fb8 FE074EF8 		ldr	x30, [sp], 224
 1197 0fbc 3F00006B 		cmp	w1, w0
 1198 0fc0 E0179F1A 		cset	w0, eq
 1199 0fc4 C0035FD6 		ret
 1200              	.L245:
 1201 0fc8 03200011 		add	w3, w0, 8
 1202 0fcc E32B00B9 		str	w3, [sp, 40]
 1203 0fd0 7F000071 		cmp	w3, 0
 1204 0fd4 AD000054 		ble	.L247
 1205 0fd8 C1200091 		add	x1, x6, 8
 1206 0fdc E003032A 		mov	w0, w3
 1207 0fe0 E10B00F9 		str	x1, [sp, 16]
 1208 0fe4 D7FFFF17 		b	.L246
 1209              	.L247:
 1210 0fe8 E20F40F9 		ldr	x2, [sp, 24]
 1211 0fec 42C0208B 		add	x2, x2, x0, sxtw
 1212 0ff0 E003032A 		mov	w0, w3
 1213 0ff4 D3FFFF17 		b	.L246
 1214              		.size	mailbox_tag_message.constprop.4, .-mailbox_tag_message.constprop.4
 1215              		.align	2
 1216 0ff8 1F2003D5 		.p2align 4,,15
 1216      1F2003D5 
 1217              		.type	mailbox_tag_message.constprop.5, %function
 1218              	mailbox_tag_message.constprop.5:
 1219 1000 F37BB2A9 		stp	x19, x30, [sp, -224]!
 1220 1004 070480D2 		mov	x7, 32
 1221 1008 F30300AA 		mov	x19, x0
 1222 100c E1830391 		add	x1, sp, 224
 1223 1010 E28F0BA9 		stp	x2, x3, [sp, 184]
 1224 1014 280007CB 		sub	x8, x1, x7
 1225 1018 E4970CA9 		stp	x4, x5, [sp, 200]
 1226 101c E66F00F9 		str	x6, [sp, 216]
 1227 1020 E1018012 		mov	w1, -16
 1228 1024 E3CB40B9 		ldr	w3, [sp, 200]
 1229 1028 E6830391 		add	x6, sp, 224
 1230 102c 040140B9 		ldr	w4, [x8]
 1231 1030 E5C30291 		add	x5, sp, 176
 1232 1034 E61B01A9 		stp	x6, x6, [sp, 16]
 1233 1038 E003012A 		mov	w0, w1
 1234 103c E51300F9 		str	x5, [sp, 32]
 1235 1040 E17F0529 		stp	w1, wzr, [sp, 40]
 1236 1044 E10306AA 		mov	x1, x6
 1237 1048 E71B00F9 		str	x7, [sp, 48]
 1238 104c E23B00B9 		str	w2, [sp, 56]
 1239 1050 E20306AA 		mov	x2, x6
 1240 1054 E48F0729 		stp	w4, w3, [sp, 60]
 1241 1058 FF4F00B9 		str	wzr, [sp, 76]
AARCH64 GAS  C:\Users\ldebo\AppData\Local\Temp\cchOloIf.s 			page 23


 1242 105c 0006F837 		tbnz	w0, #31, .L266
 1243 1060 C2200091 		add	x2, x6, 8
 1244 1064 E20B00F9 		str	x2, [sp, 16]
 1245              	.L267:
 1246 1068 210040B9 		ldr	w1, [x1]
 1247 106c E14700B9 		str	w1, [sp, 68]
 1248 1070 A000F836 		tbz	w0, #31, .L269
 1249 1074 1F1C0031 		cmn	w0, #7
 1250 1078 6A000054 		bge	.L269
 1251 107c E20F40F9 		ldr	x2, [sp, 24]
 1252 1080 42C0208B 		add	x2, x2, x0, sxtw
 1253              	.L269:
 1254 1084 410040B9 		ldr	w1, [x2]
 1255 1088 E0C30091 		add	x0, sp, 48
 1256 108c E14B00B9 		str	w1, [sp, 72]
 1257 1090 00000094 		bl	ARMaddrToGPUaddr
 1258 1094 006C1C12 		and	w0, w0, -16
 1259 1098 01000090 		adrp	x1, RPi_IO_Base_Addr
 1260 109c 210040B9 		ldr	w1, [x1, #:lo12:RPi_IO_Base_Addr]
 1261 10a0 02001D32 		orr	w2, w0, 8
 1262 10a4 00109752 		mov	w0, 47232
 1263 10a8 2100000B 		add	w1, w1, w0
 1264 10ac 1F2003D5 		.p2align 3
 1265              	.L270:
 1266 10b0 203840B9 		ldr	w0, [x1, 56]
 1267 10b4 E0FFFF37 		tbnz	w0, #31, .L270
 1268 10b8 222000B9 		str	w2, [x1, 32]
 1269 10bc 1F2003D5 		.p2align 3
 1270              	.L271:
 1271 10c0 201840B9 		ldr	w0, [x1, 24]
 1272 10c4 E0FFF737 		tbnz	x0, 30, .L271
 1273 10c8 200040B9 		ldr	w0, [x1]
 1274 10cc 000C0012 		and	w0, w0, 15
 1275 10d0 1F200071 		cmp	w0, 8
 1276 10d4 61FFFF54 		bne	.L271
 1277 10d8 E23740B9 		ldr	w2, [sp, 52]
 1278 10dc 0100B052 		mov	w1, -2147483648
 1279 10e0 00008052 		mov	w0, 0
 1280 10e4 5F00016B 		cmp	w2, w1
 1281 10e8 60000054 		beq	.L281
 1282 10ec F37BCEA8 		ldp	x19, x30, [sp], 224
 1283 10f0 C0035FD6 		ret
 1284              	.L281:
 1285 10f4 F30000B4 		cbz	x19, .L275
 1286 10f8 E40F4729 		ldp	w4, w3, [sp, 56]
 1287 10fc 640E0029 		stp	w4, w3, [x19]
 1288 1100 E2074829 		ldp	w2, w1, [sp, 64]
 1289 1104 62060129 		stp	w2, w1, [x19, 8]
 1290 1108 E04B40B9 		ldr	w0, [sp, 72]
 1291 110c 601200B9 		str	w0, [x19, 16]
 1292              	.L275:
 1293 1110 20008052 		mov	w0, 1
 1294 1114 F37BCEA8 		ldp	x19, x30, [sp], 224
 1295 1118 C0035FD6 		ret
 1296              	.L266:
 1297 111c 03200011 		add	w3, w0, 8
 1298 1120 E32B00B9 		str	w3, [sp, 40]
AARCH64 GAS  C:\Users\ldebo\AppData\Local\Temp\cchOloIf.s 			page 24


 1299 1124 7F000071 		cmp	w3, 0
 1300 1128 AD000054 		ble	.L268
 1301 112c C2200091 		add	x2, x6, 8
 1302 1130 E003032A 		mov	w0, w3
 1303 1134 E20B00F9 		str	x2, [sp, 16]
 1304 1138 CCFFFF17 		b	.L267
 1305              	.L268:
 1306 113c E10F40F9 		ldr	x1, [sp, 24]
 1307 1140 21C0208B 		add	x1, x1, x0, sxtw
 1308 1144 E003032A 		mov	w0, w3
 1309 1148 C8FFFF17 		b	.L267
 1310              		.size	mailbox_tag_message.constprop.5, .-mailbox_tag_message.constprop.5
 1311              		.align	2
 1312 114c 1F2003D5 		.p2align 4,,15
 1313              		.type	mailbox_tag_message.constprop.6, %function
 1314              	mailbox_tag_message.constprop.6:
 1315 1150 F37BB3A9 		stp	x19, x30, [sp, -208]!
 1316 1154 E6008012 		mov	w6, -8
 1317 1158 810380D2 		mov	x1, 28
 1318 115c F30300AA 		mov	x19, x0
 1319 1160 E7C30291 		add	x7, sp, 176
 1320 1164 E71300F9 		str	x7, [sp, 32]
 1321 1168 E67F0529 		stp	w6, wzr, [sp, 40]
 1322 116c DF1C0031 		cmn	w6, #7
 1323 1170 E11B00F9 		str	x1, [sp, 48]
 1324 1174 E20F0729 		stp	w2, w3, [sp, 56]
 1325 1178 E44300B9 		str	w4, [sp, 64]
 1326 117c FF4B00B9 		str	wzr, [sp, 72]
 1327 1180 E20F0BA9 		stp	x2, x3, [sp, 176]
 1328 1184 E4170CA9 		stp	x4, x5, [sp, 192]
 1329 1188 E5430391 		add	x5, sp, 208
 1330 118c E51701A9 		stp	x5, x5, [sp, 16]
 1331 1190 E00305AA 		mov	x0, x5
 1332 1194 4A000054 		bge	.L292
 1333 1198 A0C0268B 		add	x0, x5, x6, sxtw
 1334              	.L292:
 1335 119c 010040B9 		ldr	w1, [x0]
 1336 11a0 E0C30091 		add	x0, sp, 48
 1337 11a4 E14700B9 		str	w1, [sp, 68]
 1338 11a8 00000094 		bl	ARMaddrToGPUaddr
 1339 11ac 006C1C12 		and	w0, w0, -16
 1340 11b0 01000090 		adrp	x1, RPi_IO_Base_Addr
 1341 11b4 210040B9 		ldr	w1, [x1, #:lo12:RPi_IO_Base_Addr]
 1342 11b8 02001D32 		orr	w2, w0, 8
 1343 11bc 00109752 		mov	w0, 47232
 1344 11c0 2100000B 		add	w1, w1, w0
 1345 11c4 1F2003D5 		.p2align 3
 1346              	.L293:
 1347 11c8 203840B9 		ldr	w0, [x1, 56]
 1348 11cc E0FFFF37 		tbnz	w0, #31, .L293
 1349 11d0 222000B9 		str	w2, [x1, 32]
 1350 11d4 1F2003D5 		.p2align 3
 1351              	.L294:
 1352 11d8 201840B9 		ldr	w0, [x1, 24]
 1353 11dc E0FFF737 		tbnz	x0, 30, .L294
 1354 11e0 200040B9 		ldr	w0, [x1]
 1355 11e4 000C0012 		and	w0, w0, 15
AARCH64 GAS  C:\Users\ldebo\AppData\Local\Temp\cchOloIf.s 			page 25


 1356 11e8 1F200071 		cmp	w0, 8
 1357 11ec 61FFFF54 		bne	.L294
 1358 11f0 E23740B9 		ldr	w2, [sp, 52]
 1359 11f4 0100B052 		mov	w1, -2147483648
 1360 11f8 00008052 		mov	w0, 0
 1361 11fc 5F00016B 		cmp	w2, w1
 1362 1200 60000054 		beq	.L304
 1363              	.L296:
 1364 1204 F37BCDA8 		ldp	x19, x30, [sp], 208
 1365 1208 C0035FD6 		ret
 1366              	.L304:
 1367 120c 20008052 		mov	w0, 1
 1368 1210 B3FFFFB4 		cbz	x19, .L296
 1369 1214 E40F4729 		ldp	w4, w3, [sp, 56]
 1370 1218 640E0029 		stp	w4, w3, [x19]
 1371 121c E2074829 		ldp	w2, w1, [sp, 64]
 1372 1220 62060129 		stp	w2, w1, [x19, 8]
 1373 1224 F37BCDA8 		ldp	x19, x30, [sp], 208
 1374 1228 C0035FD6 		ret
 1375              		.size	mailbox_tag_message.constprop.6, .-mailbox_tag_message.constprop.6
 1376              		.align	2
 1377 122c 1F2003D5 		.p2align 4,,15
 1378              		.global	gpio_setup
 1379              		.type	gpio_setup, %function
 1380              	gpio_setup:
 1381 1230 1FD80071 		cmp	w0, 54
 1382 1234 03008052 		mov	w3, 0
 1383 1238 2298477A 		ccmp	w1, 7, 2, ls
 1384 123c 69000054 		bls	.L308
 1385 1240 E003032A 		mov	w0, w3
 1386 1244 C0035FD6 		ret
 1387              		.p2align 3
 1388              	.L308:
 1389 1248 A2999952 		mov	w2, 52429
 1390 124c 8299B972 		movk	w2, 0xcccc, lsl 16
 1391 1250 47018052 		mov	w7, 10
 1392 1254 03000090 		adrp	x3, RPi_IO_Base_Addr
 1393 1258 650040B9 		ldr	w5, [x3, #:lo12:RPi_IO_Base_Addr]
 1394 125c 23008052 		mov	w3, 1
 1395 1260 027CA29B 		umull	x2, w0, w2
 1396 1264 E4008052 		mov	w4, 7
 1397 1268 A5004811 		add	w5, w5, 2097152
 1398 126c 42FC63D3 		lsr	x2, x2, 35
 1399 1270 E603022A 		uxtw	x6, w2
 1400 1274 4280071B 		msub	w2, w2, w7, w0
 1401 1278 A77866B8 		ldr	w7, [x5, x6, lsl 2]
 1402 127c 4204020B 		add	w2, w2, w2, lsl 1
 1403 1280 8020C21A 		lsl	w0, w4, w2
 1404 1284 E000200A 		bic	w0, w7, w0
 1405 1288 2120C21A 		lsl	w1, w1, w2
 1406 128c 2100002A 		orr	w1, w1, w0
 1407 1290 E003032A 		mov	w0, w3
 1408 1294 A17826B8 		str	w1, [x5, x6, lsl 2]
 1409 1298 C0035FD6 		ret
 1410              		.size	gpio_setup, .-gpio_setup
 1411              		.align	2
 1412 129c 1F2003D5 		.p2align 4,,15
AARCH64 GAS  C:\Users\ldebo\AppData\Local\Temp\cchOloIf.s 			page 26


 1413              		.global	gpio_output
 1414              		.type	gpio_output, %function
 1415              	gpio_output:
 1416 12a0 211C0012 		and	w1, w1, 255
 1417 12a4 1FD80071 		cmp	w0, 54
 1418 12a8 C8020054 		bhi	.L312
 1419 12ac 04100012 		and	w4, w0, 31
 1420 12b0 02000090 		adrp	x2, RPi_IO_Base_Addr
 1421 12b4 430040B9 		ldr	w3, [x2, #:lo12:RPi_IO_Base_Addr]
 1422 12b8 027C0553 		lsr	w2, w0, 5
 1423 12bc 25008052 		mov	w5, 1
 1424 12c0 42687ED3 		ubfiz	x2, x2, 2, 27
 1425 12c4 A420C41A 		lsl	w4, w5, w4
 1426 12c8 60004811 		add	w0, w3, 2097152
 1427 12cc E1000035 		cbnz	w1, .L313
 1428 12d0 42800091 		add	x2, x2, 32
 1429 12d4 E103052A 		mov	w1, w5
 1430 12d8 0200028B 		add	x2, x0, x2
 1431 12dc E003012A 		mov	w0, w1
 1432 12e0 440800B9 		str	w4, [x2, 8]
 1433 12e4 C0035FD6 		ret
 1434              		.p2align 3
 1435              	.L313:
 1436 12e8 43400091 		add	x3, x2, 16
 1437 12ec 0300038B 		add	x3, x0, x3
 1438 12f0 E003012A 		mov	w0, w1
 1439 12f4 640C00B9 		str	w4, [x3, 12]
 1440 12f8 C0035FD6 		ret
 1441 12fc 1F2003D5 		.p2align 3
 1442              	.L312:
 1443 1300 01008052 		mov	w1, 0
 1444 1304 E003012A 		mov	w0, w1
 1445 1308 C0035FD6 		ret
 1446              		.size	gpio_output, .-gpio_output
 1447              		.align	2
 1448 130c 1F2003D5 		.p2align 4,,15
 1449              		.global	gpio_input
 1450              		.type	gpio_input, %function
 1451              	gpio_input:
 1452 1310 1FD80071 		cmp	w0, 54
 1453 1314 E8010054 		bhi	.L316
 1454 1318 01000090 		adrp	x1, RPi_IO_Base_Addr
 1455 131c 220040B9 		ldr	w2, [x1, #:lo12:RPi_IO_Base_Addr]
 1456 1320 017C0553 		lsr	w1, w0, 5
 1457 1324 00100012 		and	w0, w0, 31
 1458 1328 42004811 		add	w2, w2, 2097152
 1459 132c 21300091 		add	x1, x1, 12
 1460 1330 4108018B 		add	x1, x2, x1, lsl 2
 1461 1334 22008052 		mov	w2, 1
 1462 1338 4020C01A 		lsl	w0, w2, w0
 1463 133c 210440B9 		ldr	w1, [x1, 4]
 1464 1340 1F00016A 		tst	w0, w1
 1465 1344 E0079F1A 		cset	w0, ne
 1466 1348 C0035FD6 		ret
 1467 134c 1F2003D5 		.p2align 3
 1468              	.L316:
 1469 1350 00008052 		mov	w0, 0
AARCH64 GAS  C:\Users\ldebo\AppData\Local\Temp\cchOloIf.s 			page 27


 1470 1354 C0035FD6 		ret
 1471              		.size	gpio_input, .-gpio_input
 1472              		.align	2
 1473 1358 1F2003D5 		.p2align 4,,15
 1473      1F2003D5 
 1474              		.global	gpio_checkEvent
 1475              		.type	gpio_checkEvent, %function
 1476              	gpio_checkEvent:
 1477 1360 1FD80071 		cmp	w0, 54
 1478 1364 A8010054 		bhi	.L319
 1479 1368 01000090 		adrp	x1, RPi_IO_Base_Addr
 1480 136c 220040B9 		ldr	w2, [x1, #:lo12:RPi_IO_Base_Addr]
 1481 1370 037C0553 		lsr	w3, w0, 5
 1482 1374 00100012 		and	w0, w0, 31
 1483 1378 42004811 		add	w2, w2, 2097152
 1484 137c 63400091 		add	x3, x3, 16
 1485 1380 21008052 		mov	w1, 1
 1486 1384 2020C01A 		lsl	w0, w1, w0
 1487 1388 417863B8 		ldr	w1, [x2, x3, lsl 2]
 1488 138c 1F00016A 		tst	w0, w1
 1489 1390 E0079F1A 		cset	w0, ne
 1490 1394 C0035FD6 		ret
 1491              		.p2align 3
 1492              	.L319:
 1493 1398 00008052 		mov	w0, 0
 1494 139c C0035FD6 		ret
 1495              		.size	gpio_checkEvent, .-gpio_checkEvent
 1496              		.align	2
 1497              		.p2align 4,,15
 1498              		.global	gpio_clearEvent
 1499              		.type	gpio_clearEvent, %function
 1500              	gpio_clearEvent:
 1501 13a0 1FD80071 		cmp	w0, 54
 1502 13a4 A8010054 		bhi	.L322
 1503 13a8 01000090 		adrp	x1, RPi_IO_Base_Addr
 1504 13ac 230040B9 		ldr	w3, [x1, #:lo12:RPi_IO_Base_Addr]
 1505 13b0 047C0553 		lsr	w4, w0, 5
 1506 13b4 01100012 		and	w1, w0, 31
 1507 13b8 63004811 		add	w3, w3, 2097152
 1508 13bc 84400091 		add	x4, x4, 16
 1509 13c0 22008052 		mov	w2, 1
 1510 13c4 E003022A 		mov	w0, w2
 1511 13c8 4120C11A 		lsl	w1, w2, w1
 1512 13cc 617824B8 		str	w1, [x3, x4, lsl 2]
 1513 13d0 C0035FD6 		ret
 1514 13d4 1F2003D5 		.p2align 3
 1515              	.L322:
 1516 13d8 00008052 		mov	w0, 0
 1517 13dc C0035FD6 		ret
 1518              		.size	gpio_clearEvent, .-gpio_clearEvent
 1519              		.align	2
 1520              		.p2align 4,,15
 1521              		.global	gpio_edgeDetect
 1522              		.type	gpio_edgeDetect, %function
 1523              	gpio_edgeDetect:
 1524 13e0 211C0012 		and	w1, w1, 255
 1525 13e4 421C0012 		and	w2, w2, 255
AARCH64 GAS  C:\Users\ldebo\AppData\Local\Temp\cchOloIf.s 			page 28


 1526 13e8 1FD80071 		cmp	w0, 54
 1527 13ec 28030054 		bhi	.L328
 1528 13f0 05100012 		and	w5, w0, 31
 1529 13f4 03000090 		adrp	x3, RPi_IO_Base_Addr
 1530 13f8 640040B9 		ldr	w4, [x3, #:lo12:RPi_IO_Base_Addr]
 1531 13fc 037C0553 		lsr	w3, w0, 5
 1532 1400 27008052 		mov	w7, 1
 1533 1404 E620C51A 		lsl	w6, w7, w5
 1534 1408 80004811 		add	w0, w4, 2097152
 1535 140c 21010034 		cbz	w1, .L325
 1536 1410 63687ED3 		ubfiz	x3, x3, 2, 27
 1537 1414 62020034 		cbz	w2, .L326
 1538 1418 64C00191 		add	x4, x3, 112
 1539 141c 0400048B 		add	x4, x0, x4
 1540 1420 E003022A 		mov	w0, w2
 1541 1424 860C00B9 		str	w6, [x4, 12]
 1542 1428 C0035FD6 		ret
 1543 142c 1F2003D5 		.p2align 3
 1544              	.L325:
 1545 1430 42020035 		cbnz	w2, .L329
 1546 1434 63687ED3 		ubfiz	x3, x3, 2, 27
 1547 1438 E203072A 		mov	w2, w7
 1548 143c 63400191 		add	x3, x3, 80
 1549 1440 0300038B 		add	x3, x0, x3
 1550 1444 E003022A 		mov	w0, w2
 1551 1448 660800B9 		str	w6, [x3, 8]
 1552 144c C0035FD6 		ret
 1553              		.p2align 3
 1554              	.L328:
 1555 1450 02008052 		mov	w2, 0
 1556 1454 E003022A 		mov	w0, w2
 1557 1458 C0035FD6 		ret
 1558 145c 1F2003D5 		.p2align 3
 1559              	.L326:
 1560 1460 E203012A 		mov	w2, w1
 1561 1464 61000191 		add	x1, x3, 64
 1562 1468 0400018B 		add	x4, x0, x1
 1563 146c E003022A 		mov	w0, w2
 1564 1470 860C00B9 		str	w6, [x4, 12]
 1565 1474 C0035FD6 		ret
 1566              		.p2align 3
 1567              	.L329:
 1568 1478 65687ED3 		ubfiz	x5, x3, 2, 27
 1569 147c A5000291 		add	x5, x5, 128
 1570 1480 0400058B 		add	x4, x0, x5
 1571 1484 E003022A 		mov	w0, w2
 1572 1488 860800B9 		str	w6, [x4, 8]
 1573 148c C0035FD6 		ret
 1574              		.size	gpio_edgeDetect, .-gpio_edgeDetect
 1575              		.align	2
 1576              		.p2align 4,,15
 1577              		.global	gpio_fixResistor
 1578              		.type	gpio_fixResistor, %function
 1579              	gpio_fixResistor:
 1580 1490 1FD80071 		cmp	w0, 54
 1581 1494 2298427A 		ccmp	w1, 2, 2, ls
 1582 1498 89000054 		bls	.L345
AARCH64 GAS  C:\Users\ldebo\AppData\Local\Temp\cchOloIf.s 			page 29


 1583 149c 00008052 		mov	w0, 0
 1584 14a0 C0035FD6 		ret
 1585 14a4 1F2003D5 		.p2align 3
 1586              	.L345:
 1587 14a8 02000090 		adrp	x2, RPi_IO_Base_Addr
 1588 14ac 420040B9 		ldr	w2, [x2, #:lo12:RPi_IO_Base_Addr]
 1589 14b0 46004811 		add	w6, w2, 2097152
 1590 14b4 420C4011 		add	w2, w2, 12288
 1591 14b8 C19400B9 		str	w1, [x6, 148]
 1592 14bc 1F2003D5 		.p2align 3
 1593              	.L332:
 1594 14c0 410840B9 		ldr	w1, [x2, 8]
 1595 14c4 440440B9 		ldr	w4, [x2, 4]
 1596 14c8 430840B9 		ldr	w3, [x2, 8]
 1597 14cc 3F00036B 		cmp	w1, w3
 1598 14d0 81FFFF54 		bne	.L332
 1599 14d4 E403042A 		uxtw	x4, w4
 1600 14d8 818001AA 		orr	x1, x4, x1, lsl 32
 1601 14dc 25080091 		add	x5, x1, 2
 1602              		.p2align 3
 1603              	.L333:
 1604 14e0 410840B9 		ldr	w1, [x2, 8]
 1605 14e4 440440B9 		ldr	w4, [x2, 4]
 1606 14e8 430840B9 		ldr	w3, [x2, 8]
 1607 14ec 3F00036B 		cmp	w1, w3
 1608 14f0 81FFFF54 		bne	.L333
 1609 14f4 E403042A 		uxtw	x4, w4
 1610 14f8 818001AA 		orr	x1, x4, x1, lsl 32
 1611 14fc BF0001EB 		cmp	x5, x1
 1612 1500 08FFFF54 		bhi	.L333
 1613 1504 057C0553 		lsr	w5, w0, 5
 1614 1508 00100012 		and	w0, w0, 31
 1615 150c C508058B 		add	x5, x6, x5, lsl 2
 1616 1510 21008052 		mov	w1, 1
 1617 1514 2020C01A 		lsl	w0, w1, w0
 1618 1518 A09800B9 		str	w0, [x5, 152]
 1619 151c 1F2003D5 		.p2align 3
 1620              	.L335:
 1621 1520 400840B9 		ldr	w0, [x2, 8]
 1622 1524 430440B9 		ldr	w3, [x2, 4]
 1623 1528 410840B9 		ldr	w1, [x2, 8]
 1624 152c 1F00016B 		cmp	w0, w1
 1625 1530 81FFFF54 		bne	.L335
 1626 1534 E303032A 		uxtw	x3, w3
 1627 1538 608000AA 		orr	x0, x3, x0, lsl 32
 1628 153c 04080091 		add	x4, x0, 2
 1629              		.p2align 3
 1630              	.L336:
 1631 1540 400840B9 		ldr	w0, [x2, 8]
 1632 1544 430440B9 		ldr	w3, [x2, 4]
 1633 1548 410840B9 		ldr	w1, [x2, 8]
 1634 154c 1F00016B 		cmp	w0, w1
 1635 1550 81FFFF54 		bne	.L336
 1636 1554 E303032A 		uxtw	x3, w3
 1637 1558 608000AA 		orr	x0, x3, x0, lsl 32
 1638 155c 9F0000EB 		cmp	x4, x0
 1639 1560 08FFFF54 		bhi	.L336
AARCH64 GAS  C:\Users\ldebo\AppData\Local\Temp\cchOloIf.s 			page 30


 1640 1564 DF9400B9 		str	wzr, [x6, 148]
 1641 1568 20008052 		mov	w0, 1
 1642 156c BF9800B9 		str	wzr, [x5, 152]
 1643 1570 C0035FD6 		ret
 1644              		.size	gpio_fixResistor, .-gpio_fixResistor
 1645              		.align	2
 1646 1574 1F2003D5 		.p2align 4,,15
 1646      1F2003D5 
 1646      1F2003D5 
 1647              		.global	timer_getTickCount
 1648              		.type	timer_getTickCount, %function
 1649              	timer_getTickCount:
 1650 1580 00000090 		adrp	x0, RPi_IO_Base_Addr
 1651 1584 010040B9 		ldr	w1, [x0, #:lo12:RPi_IO_Base_Addr]
 1652 1588 210C4011 		add	w1, w1, 12288
 1653 158c 1F2003D5 		.p2align 3
 1654              	.L347:
 1655 1590 220840B9 		ldr	w2, [x1, 8]
 1656 1594 200440B9 		ldr	w0, [x1, 4]
 1657 1598 230840B9 		ldr	w3, [x1, 8]
 1658 159c 5F00036B 		cmp	w2, w3
 1659 15a0 81FFFF54 		bne	.L347
 1660 15a4 E003002A 		uxtw	x0, w0
 1661 15a8 008002AA 		orr	x0, x0, x2, lsl 32
 1662 15ac C0035FD6 		ret
 1663              		.size	timer_getTickCount, .-timer_getTickCount
 1664              		.align	2
 1665              		.p2align 4,,15
 1666              		.global	timer_wait
 1667              		.type	timer_wait, %function
 1668              	timer_wait:
 1669 15b0 01000090 		adrp	x1, RPi_IO_Base_Addr
 1670 15b4 210040B9 		ldr	w1, [x1, #:lo12:RPi_IO_Base_Addr]
 1671 15b8 210C4011 		add	w1, w1, 12288
 1672 15bc 1F2003D5 		.p2align 3
 1673              	.L350:
 1674 15c0 220840B9 		ldr	w2, [x1, 8]
 1675 15c4 240440B9 		ldr	w4, [x1, 4]
 1676 15c8 230840B9 		ldr	w3, [x1, 8]
 1677 15cc 5F00036B 		cmp	w2, w3
 1678 15d0 81FFFF54 		bne	.L350
 1679 15d4 E403042A 		uxtw	x4, w4
 1680 15d8 828002AA 		orr	x2, x4, x2, lsl 32
 1681 15dc 4400008B 		add	x4, x2, x0
 1682              		.p2align 3
 1683              	.L351:
 1684 15e0 200840B9 		ldr	w0, [x1, 8]
 1685 15e4 230440B9 		ldr	w3, [x1, 4]
 1686 15e8 220840B9 		ldr	w2, [x1, 8]
 1687 15ec 1F00026B 		cmp	w0, w2
 1688 15f0 81FFFF54 		bne	.L351
 1689 15f4 E303032A 		uxtw	x3, w3
 1690 15f8 608000AA 		orr	x0, x3, x0, lsl 32
 1691 15fc 9F0000EB 		cmp	x4, x0
 1692 1600 08FFFF54 		bhi	.L351
 1693 1604 C0035FD6 		ret
 1694              		.size	timer_wait, .-timer_wait
AARCH64 GAS  C:\Users\ldebo\AppData\Local\Temp\cchOloIf.s 			page 31


 1695              		.align	2
 1696 1608 1F2003D5 		.p2align 4,,15
 1696      1F2003D5 
 1697              		.global	tick_difference
 1698              		.type	tick_difference, %function
 1699              	tick_difference:
 1700 1610 200000CB 		sub	x0, x1, x0
 1701 1614 C0035FD6 		ret
 1702              		.size	tick_difference, .-tick_difference
 1703              		.align	2
 1704 1618 1F2003D5 		.p2align 4,,15
 1704      1F2003D5 
 1705              		.global	mailbox_write
 1706              		.type	mailbox_write, %function
 1707              	mailbox_write:
 1708 1620 1F240071 		cmp	w0, 9
 1709 1624 A8010054 		bhi	.L360
 1710 1628 02000090 		adrp	x2, RPi_IO_Base_Addr
 1711 162c 420040B9 		ldr	w2, [x2, #:lo12:RPi_IO_Base_Addr]
 1712 1630 216C1C12 		and	w1, w1, -16
 1713 1634 0000012A 		orr	w0, w0, w1
 1714 1638 01109752 		mov	w1, 47232
 1715 163c 4200010B 		add	w2, w2, w1
 1716              		.p2align 3
 1717              	.L359:
 1718 1640 413840B9 		ldr	w1, [x2, 56]
 1719 1644 E1FFFF37 		tbnz	w1, #31, .L359
 1720 1648 402000B9 		str	w0, [x2, 32]
 1721 164c 20008052 		mov	w0, 1
 1722 1650 C0035FD6 		ret
 1723 1654 1F2003D5 		.p2align 3
 1724              	.L360:
 1725 1658 00008052 		mov	w0, 0
 1726 165c C0035FD6 		ret
 1727              		.size	mailbox_write, .-mailbox_write
 1728              		.align	2
 1729              		.p2align 4,,15
 1730              		.global	mailbox_read
 1731              		.type	mailbox_read, %function
 1732              	mailbox_read:
 1733 1660 1F240071 		cmp	w0, 9
 1734 1664 A8010054 		bhi	.L366
 1735 1668 01000090 		adrp	x1, RPi_IO_Base_Addr
 1736 166c 220040B9 		ldr	w2, [x1, #:lo12:RPi_IO_Base_Addr]
 1737 1670 01109752 		mov	w1, 47232
 1738 1674 4200010B 		add	w2, w2, w1
 1739              		.p2align 3
 1740              	.L364:
 1741 1678 411840B9 		ldr	w1, [x2, 24]
 1742 167c E1FFF737 		tbnz	x1, 30, .L364
 1743 1680 410040B9 		ldr	w1, [x2]
 1744 1684 230C0012 		and	w3, w1, 15
 1745 1688 1F00036B 		cmp	w0, w3
 1746 168c 61FFFF54 		bne	.L364
 1747 1690 206C1C12 		and	w0, w1, -16
 1748 1694 C0035FD6 		ret
 1749              		.p2align 3
AARCH64 GAS  C:\Users\ldebo\AppData\Local\Temp\cchOloIf.s 			page 32


 1750              	.L366:
 1751 1698 A0D59B52 		mov	w0, 57005
 1752 169c A0DDBF72 		movk	w0, 0xfeed, lsl 16
 1753 16a0 C0035FD6 		ret
 1754              		.size	mailbox_read, .-mailbox_read
 1755              		.align	2
 1756 16a4 1F2003D5 		.p2align 4,,15
 1756      1F2003D5 
 1756      1F2003D5 
 1757              		.global	mailbox_tag_message
 1758              		.type	mailbox_tag_message, %function
 1759              	mailbox_tag_message:
 1760 16b0 F353B1A9 		stp	x19, x20, [sp, -240]!
 1761 16b4 341C0012 		and	w20, w1, 255
 1762 16b8 880A0011 		add	w8, w20, 2
 1763 16bc 810E0011 		add	w1, w20, 3
 1764 16c0 F3030391 		add	x19, sp, 192
 1765 16c4 F57B01A9 		stp	x21, x30, [sp, 16]
 1766 16c8 087D4093 		sxtw	x8, w8
 1767 16cc 21741E53 		lsl	w1, w1, 2
 1768 16d0 E9030391 		add	x9, sp, 192
 1769 16d4 E91B00F9 		str	x9, [sp, 48]
 1770 16d8 610E18B8 		str	w1, [x19, -128]!
 1771 16dc E1058012 		mov	w1, -48
 1772 16e0 E26300F9 		str	x2, [sp, 192]
 1773 16e4 E2C30391 		add	x2, sp, 240
 1774 16e8 7F7A28B8 		str	wzr, [x19, x8, lsl 2]
 1775 16ec F50300AA 		mov	x21, x0
 1776 16f0 E20B02A9 		stp	x2, x2, [sp, 32]
 1777 16f4 E17F0729 		stp	w1, wzr, [sp, 56]
 1778 16f8 FF4700B9 		str	wzr, [sp, 68]
 1779 16fc E3930CA9 		stp	x3, x4, [sp, 200]
 1780 1700 E59B0DA9 		stp	x5, x6, [sp, 216]
 1781 1704 E77700F9 		str	x7, [sp, 232]
 1782 1708 14020034 		cbz	w20, .L377
 1783 170c 82060051 		sub	w2, w20, #1
 1784 1710 63320091 		add	x3, x19, 12
 1785 1714 E403012A 		mov	w4, w1
 1786 1718 E6C30391 		add	x6, sp, 240
 1787 171c 60220091 		add	x0, x19, 8
 1788 1720 6348228B 		add	x3, x3, x2, uxtw 2
 1789 1724 05008052 		mov	w5, 0
 1790              		.p2align 3
 1791              	.L375:
 1792 1728 8106F837 		tbnz	w1, #31, .L372
 1793 172c E20306AA 		mov	x2, x6
 1794 1730 C6200091 		add	x6, x6, 8
 1795              	.L373:
 1796 1734 420040B9 		ldr	w2, [x2]
 1797 1738 024400B8 		str	w2, [x0], 4
 1798 173c 7F0000EB 		cmp	x3, x0
 1799 1740 41FFFF54 		bne	.L375
 1800 1744 65050035 		cbnz	w5, .L397
 1801              	.L377:
 1802 1748 E00313AA 		mov	x0, x19
 1803 174c 00000094 		bl	ARMaddrToGPUaddr
 1804 1750 01000090 		adrp	x1, RPi_IO_Base_Addr
AARCH64 GAS  C:\Users\ldebo\AppData\Local\Temp\cchOloIf.s 			page 33


 1805 1754 220040B9 		ldr	w2, [x1, #:lo12:RPi_IO_Base_Addr]
 1806 1758 006C1C12 		and	w0, w0, -16
 1807 175c 01001D32 		orr	w1, w0, 8
 1808 1760 00109752 		mov	w0, 47232
 1809 1764 4200000B 		add	w2, w2, w0
 1810              		.p2align 3
 1811              	.L371:
 1812 1768 403840B9 		ldr	w0, [x2, 56]
 1813 176c E0FFFF37 		tbnz	w0, #31, .L371
 1814 1770 412000B9 		str	w1, [x2, 32]
 1815 1774 1F2003D5 		.p2align 3
 1816              	.L378:
 1817 1778 401840B9 		ldr	w0, [x2, 24]
 1818 177c E0FFF737 		tbnz	x0, 30, .L378
 1819 1780 400040B9 		ldr	w0, [x2]
 1820 1784 000C0012 		and	w0, w0, 15
 1821 1788 1F200071 		cmp	w0, 8
 1822 178c 61FFFF54 		bne	.L378
 1823 1790 E24740B9 		ldr	w2, [sp, 68]
 1824 1794 0100B052 		mov	w1, -2147483648
 1825 1798 00008052 		mov	w0, 0
 1826 179c 5F00016B 		cmp	w2, w1
 1827 17a0 80000054 		beq	.L398
 1828 17a4 F57B41A9 		ldp	x21, x30, [sp, 16]
 1829 17a8 F353CFA8 		ldp	x19, x20, [sp], 240
 1830 17ac C0035FD6 		ret
 1831              	.L398:
 1832 17b0 950100B4 		cbz	x21, .L382
 1833 17b4 74010034 		cbz	w20, .L382
 1834 17b8 81060051 		sub	w1, w20, #1
 1835 17bc 000080D2 		mov	x0, 0
 1836 17c0 21040091 		add	x1, x1, 1
 1837 17c4 21F47ED3 		lsl	x1, x1, 2
 1838              		.p2align 3
 1839              	.L383:
 1840 17c8 6202008B 		add	x2, x19, x0
 1841 17cc 420840B9 		ldr	w2, [x2, 8]
 1842 17d0 A26A20B8 		str	w2, [x21, x0]
 1843 17d4 00100091 		add	x0, x0, 4
 1844 17d8 3F0000EB 		cmp	x1, x0
 1845 17dc 61FFFF54 		bne	.L383
 1846              	.L382:
 1847 17e0 F57B41A9 		ldp	x21, x30, [sp, 16]
 1848 17e4 20008052 		mov	w0, 1
 1849 17e8 F353CFA8 		ldp	x19, x20, [sp], 240
 1850 17ec C0035FD6 		ret
 1851              	.L397:
 1852 17f0 E43B00B9 		str	w4, [sp, 56]
 1853 17f4 D5FFFF17 		b	.L377
 1854              	.L372:
 1855 17f8 24200011 		add	w4, w1, 8
 1856 17fc 9F000071 		cmp	w4, 0
 1857 1800 CD000054 		ble	.L374
 1858 1804 E20306AA 		mov	x2, x6
 1859 1808 E103042A 		mov	w1, w4
 1860 180c C6200091 		add	x6, x6, 8
 1861 1810 25008052 		mov	w5, 1
AARCH64 GAS  C:\Users\ldebo\AppData\Local\Temp\cchOloIf.s 			page 34


 1862 1814 C8FFFF17 		b	.L373
 1863              	.L374:
 1864 1818 E2C30391 		add	x2, sp, 240
 1865 181c 25008052 		mov	w5, 1
 1866 1820 42C0218B 		add	x2, x2, x1, sxtw
 1867 1824 E103042A 		mov	w1, w4
 1868 1828 C3FFFF17 		b	.L373
 1869              		.size	mailbox_tag_message, .-mailbox_tag_message
 1870              		.align	2
 1871 182c 1F2003D5 		.p2align 4,,15
 1872              		.global	TimerIrqSetup
 1873              		.type	TimerIrqSetup, %function
 1874              	TimerIrqSetup:
 1875 1830 F353BBA9 		stp	x19, x20, [sp, -80]!
 1876 1834 14809652 		mov	w20, 46080
 1877 1838 F303002A 		mov	w19, w0
 1878 183c 04018052 		mov	w4, 8
 1879 1840 F55B01A9 		stp	x21, x22, [sp, 16]
 1880 1844 15000090 		adrp	x21, RPi_IO_Base_Addr
 1881 1848 A20240B9 		ldr	w2, [x21, #:lo12:RPi_IO_Base_Addr]
 1882 184c FE1300F9 		str	x30, [sp, 32]
 1883 1850 E303042A 		mov	w3, w4
 1884 1854 4200140B 		add	w2, w2, w20
 1885 1858 FFFF03A9 		stp	xzr, xzr, [sp, 56]
 1886 185c FF4B00B9 		str	wzr, [sp, 72]
 1887 1860 F60301AA 		mov	x22, x1
 1888 1864 06008052 		mov	w6, 0
 1889 1868 85008052 		mov	w5, 4
 1890 186c 400840B9 		ldr	w0, [x2, 8]
 1891 1870 A1008052 		mov	w1, 5
 1892 1874 00781812 		and	w0, w0, -129
 1893 1878 400800B9 		str	w0, [x2, 8]
 1894 187c E0E30091 		add	x0, sp, 56
 1895 1880 42008052 		mov	w2, 2
 1896 1884 6200A072 		movk	w2, 0x3, lsl 16
 1897 1888 DEFDFF97 		bl	mailbox_tag_message.constprop.5
 1898 188c E14B40B9 		ldr	w1, [sp, 72]
 1899 1890 63BA8952 		mov	w3, 19923
 1900 1894 430CA272 		movk	w3, 0x1062, lsl 16
 1901 1898 629B86D2 		mov	x2, 13531
 1902 189c C2F6BAF2 		movk	x2, 0xd7b6, lsl 16
 1903 18a0 42D0DBF2 		movk	x2, 0xde82, lsl 32
 1904 18a4 6263E8F2 		movk	x2, 0x431b, lsl 48
 1905 18a8 217CA39B 		umull	x1, w1, w3
 1906 18ac E00316AA 		mov	x0, x22
 1907 18b0 21FC64D3 		lsr	x1, x1, 36
 1908 18b4 E14B00B9 		str	w1, [sp, 72]
 1909 18b8 737EA19B 		umull	x19, w19, w1
 1910 18bc 737EC29B 		umulh	x19, x19, x2
 1911 18c0 00000094 		bl	setTimerIrqAddress
 1912 18c4 A10240B9 		ldr	w1, [x21, #:lo12:RPi_IO_Base_Addr]
 1913 18c8 02409652 		mov	w2, 45568
 1914 18cc 2300020B 		add	w3, w1, w2
 1915 18d0 2100140B 		add	w1, w1, w20
 1916 18d4 73FE52D3 		lsr	x19, x19, 18
 1917 18d8 621840B9 		ldr	w2, [x3, 24]
 1918 18dc 42000032 		orr	w2, w2, 1
AARCH64 GAS  C:\Users\ldebo\AppData\Local\Temp\cchOloIf.s 			page 35


 1919 18e0 621800B9 		str	w2, [x3, 24]
 1920 18e4 330000B9 		str	w19, [x1]
 1921 18e8 220840B9 		ldr	w2, [x1, 8]
 1922 18ec 42001F32 		orr	w2, w2, 2
 1923 18f0 220800B9 		str	w2, [x1, 8]
 1924 18f4 220840B9 		ldr	w2, [x1, 8]
 1925 18f8 42741C12 		and	w2, w2, -13
 1926 18fc 220800B9 		str	w2, [x1, 8]
 1927 1900 220840B9 		ldr	w2, [x1, 8]
 1928 1904 42001B32 		orr	w2, w2, 32
 1929 1908 220800B9 		str	w2, [x1, 8]
 1930 190c 220840B9 		ldr	w2, [x1, 8]
 1931 1910 42001932 		orr	w2, w2, 128
 1932 1914 220800B9 		str	w2, [x1, 8]
 1933 1918 F55B41A9 		ldp	x21, x22, [sp, 16]
 1934 191c FE1340F9 		ldr	x30, [sp, 32]
 1935 1920 F353C5A8 		ldp	x19, x20, [sp], 80
 1936 1924 C0035FD6 		ret
 1937              		.size	TimerIrqSetup, .-TimerIrqSetup
 1938              		.align	2
 1939 1928 1F2003D5 		.p2align 4,,15
 1939      1F2003D5 
 1940              		.global	set_Activity_LED
 1941              		.type	set_Activity_LED, %function
 1942              	set_Activity_LED:
 1943 1930 01000090 		adrp	x1, RPi_CpuId
 1944 1934 210040B9 		ldr	w1, [x1, #:lo12:RPi_CpuId]
 1945 1938 F37BBEA9 		stp	x19, x30, [sp, -32]!
 1946 193c 131C0012 		and	w19, w0, 255
 1947 1940 203C44D3 		ubfx	x0, x1, 4, 12
 1948 1944 1F1C3071 		cmp	w0, 3079
 1949 1948 80040054 		beq	.L403
 1950 194c 1F0C3471 		cmp	w0, 3331
 1951 1950 80020054 		beq	.L404
 1952 1954 1FD82D71 		cmp	w0, 2934
 1953 1958 C0000054 		beq	.L418
 1954 195c 13008052 		mov	w19, 0
 1955              	.L402:
 1956 1960 E003132A 		mov	w0, w19
 1957 1964 F37BC2A8 		ldp	x19, x30, [sp], 32
 1958 1968 C0035FD6 		ret
 1959 196c 1F2003D5 		.p2align 3
 1960              	.L418:
 1961 1970 00000090 		adrp	x0, .LANCHOR0
 1962 1974 01004039 		ldrb	w1, [x0, #:lo12:.LANCHOR0]
 1963 1978 C1040034 		cbz	w1, .L406
 1964              	.L417:
 1965 197c 00000090 		adrp	x0, .LANCHOR1
 1966 1980 000040B9 		ldr	w0, [x0, #:lo12:.LANCHOR1]
 1967 1984 1FD80071 		cmp	w0, 54
 1968 1988 C9060054 		bls	.L410
 1969 198c 33008052 		mov	w19, 1
 1970 1990 E003132A 		mov	w0, w19
 1971 1994 F37BC2A8 		ldp	x19, x30, [sp], 32
 1972 1998 C0035FD6 		ret
 1973 199c 1F2003D5 		.p2align 3
 1974              	.L404:
AARCH64 GAS  C:\Users\ldebo\AppData\Local\Temp\cchOloIf.s 			page 36


 1975 19a0 E603132A 		mov	w6, w19
 1976 19a4 04018052 		mov	w4, 8
 1977 19a8 45108052 		mov	w5, 130
 1978 19ac E303042A 		mov	w3, w4
 1979 19b0 A1008052 		mov	w1, 5
 1980 19b4 22089052 		mov	w2, 32833
 1981 19b8 6200A072 		movk	w2, 0x3, lsl 16
 1982 19bc 000080D2 		mov	x0, 0
 1983 19c0 48FDFF97 		bl	mailbox_tag_message.constprop.4
 1984 19c4 131C0012 		and	w19, w0, 255
 1985 19c8 E003132A 		mov	w0, w19
 1986 19cc F37BC2A8 		ldp	x19, x30, [sp], 32
 1987 19d0 C0035FD6 		ret
 1988 19d4 1F2003D5 		.p2align 3
 1989              	.L403:
 1990 19d8 00000090 		adrp	x0, RPi_IO_Base_Addr
 1991 19dc 000040B9 		ldr	w0, [x0, #:lo12:RPi_IO_Base_Addr]
 1992 19e0 01009052 		mov	w1, 32768
 1993 19e4 00004811 		add	w0, w0, 2097152
 1994 19e8 D3000035 		cbnz	w19, .L419
 1995 19ec 012C00B9 		str	w1, [x0, 44]
 1996 19f0 33008052 		mov	w19, 1
 1997 19f4 E003132A 		mov	w0, w19
 1998 19f8 F37BC2A8 		ldp	x19, x30, [sp], 32
 1999 19fc C0035FD6 		ret
 2000              		.p2align 3
 2001              	.L419:
 2002 1a00 012000B9 		str	w1, [x0, 32]
 2003 1a04 E003132A 		mov	w0, w19
 2004 1a08 F37BC2A8 		ldp	x19, x30, [sp], 32
 2005 1a0c C0035FD6 		ret
 2006              		.p2align 3
 2007              	.L406:
 2008 1a10 21008052 		mov	w1, 1
 2009 1a14 83008052 		mov	w3, 4
 2010 1a18 01000039 		strb	w1, [x0, #:lo12:.LANCHOR0]
 2011 1a1c 05008052 		mov	w5, 0
 2012 1a20 04008052 		mov	w4, 0
 2013 1a24 42008052 		mov	w2, 2
 2014 1a28 2200A072 		movk	w2, 0x1, lsl 16
 2015 1a2c E103032A 		mov	w1, w3
 2016 1a30 E0430091 		add	x0, sp, 16
 2017 1a34 C7FDFF97 		bl	mailbox_tag_message.constprop.6
 2018 1a38 1F1C0072 		tst	w0, 255
 2019 1a3c 00FAFF54 		beq	.L417
 2020 1a40 E01F40B9 		ldr	w0, [sp, 28]
 2021 1a44 02000090 		adrp	x2, .LANCHOR1
 2022 1a48 00080051 		sub	w0, w0, #2
 2023 1a4c 1F340071 		cmp	w0, 13
 2024 1a50 C8020054 		bhi	.L409
 2025 1a54 01028052 		mov	w1, 16
 2026 1a58 E003012A 		mov	w0, w1
 2027 1a5c 410000B9 		str	w1, [x2, #:lo12:.LANCHOR1]
 2028              	.L410:
 2029 1a60 02100012 		and	w2, w0, 31
 2030 1a64 01000090 		adrp	x1, RPi_IO_Base_Addr
 2031 1a68 210040B9 		ldr	w1, [x1, #:lo12:RPi_IO_Base_Addr]
AARCH64 GAS  C:\Users\ldebo\AppData\Local\Temp\cchOloIf.s 			page 37


 2032 1a6c 23008052 		mov	w3, 1
 2033 1a70 007C0553 		lsr	w0, w0, 5
 2034 1a74 6220C21A 		lsl	w2, w3, w2
 2035 1a78 21004811 		add	w1, w1, 2097152
 2036 1a7c 00687ED3 		ubfiz	x0, x0, 2, 27
 2037 1a80 D3000035 		cbnz	w19, .L420
 2038 1a84 00800091 		add	x0, x0, 32
 2039 1a88 F303032A 		mov	w19, w3
 2040 1a8c 2100008B 		add	x1, x1, x0
 2041 1a90 220800B9 		str	w2, [x1, 8]
 2042 1a94 B3FFFF17 		b	.L402
 2043              		.p2align 3
 2044              	.L420:
 2045 1a98 00400091 		add	x0, x0, 16
 2046 1a9c 2100008B 		add	x1, x1, x0
 2047 1aa0 220C00B9 		str	w2, [x1, 12]
 2048 1aa4 AFFFFF17 		b	.L402
 2049              		.p2align 3
 2050              	.L409:
 2051 1aa8 E1058052 		mov	w1, 47
 2052 1aac E003012A 		mov	w0, w1
 2053 1ab0 410000B9 		str	w1, [x2, #:lo12:.LANCHOR1]
 2054 1ab4 EBFFFF17 		b	.L410
 2055              		.size	set_Activity_LED, .-set_Activity_LED
 2056              		.align	2
 2057 1ab8 1F2003D5 		.p2align 4,,15
 2057      1F2003D5 
 2058              		.global	ARM_setmaxspeed
 2059              		.type	ARM_setmaxspeed, %function
 2060              	ARM_setmaxspeed:
 2061 1ac0 F353BCA9 		stp	x19, x20, [sp, -64]!
 2062 1ac4 04018052 		mov	w4, 8
 2063 1ac8 F40300AA 		mov	x20, x0
 2064 1acc 06008052 		mov	w6, 0
 2065 1ad0 65008052 		mov	w5, 3
 2066 1ad4 E303042A 		mov	w3, w4
 2067 1ad8 82008052 		mov	w2, 4
 2068 1adc 6200A072 		movk	w2, 0x3, lsl 16
 2069 1ae0 A1008052 		mov	w1, 5
 2070 1ae4 E0A30091 		add	x0, sp, 40
 2071 1ae8 FE0B00F9 		str	x30, [sp, 16]
 2072 1aec FFFF02A9 		stp	xzr, xzr, [sp, 40]
 2073 1af0 FF3B00B9 		str	wzr, [sp, 56]
 2074 1af4 43FDFF97 		bl	mailbox_tag_message.constprop.5
 2075 1af8 1F1C0072 		tst	w0, 255
 2076 1afc E1000054 		bne	.L422
 2077              	.L424:
 2078 1b00 13008052 		mov	w19, 0
 2079              	.L423:
 2080 1b04 E003132A 		mov	w0, w19
 2081 1b08 FE0B40F9 		ldr	x30, [sp, 16]
 2082 1b0c F353C4A8 		ldp	x19, x20, [sp], 64
 2083 1b10 C0035FD6 		ret
 2084 1b14 1F2003D5 		.p2align 3
 2085              	.L422:
 2086 1b18 E63B40B9 		ldr	w6, [sp, 56]
 2087 1b1c 04018052 		mov	w4, 8
AARCH64 GAS  C:\Users\ldebo\AppData\Local\Temp\cchOloIf.s 			page 38


 2088 1b20 65008052 		mov	w5, 3
 2089 1b24 E303042A 		mov	w3, w4
 2090 1b28 42009052 		mov	w2, 32770
 2091 1b2c 6200A072 		movk	w2, 0x3, lsl 16
 2092 1b30 A1008052 		mov	w1, 5
 2093 1b34 E0A30091 		add	x0, sp, 40
 2094 1b38 32FDFF97 		bl	mailbox_tag_message.constprop.5
 2095 1b3c 131C0072 		ands	w19, w0, 255
 2096 1b40 00FEFF54 		beq	.L424
 2097 1b44 14FEFFB4 		cbz	x20, .L423
 2098 1b48 E13B40B9 		ldr	w1, [sp, 56]
 2099 1b4c 00000090 		adrp	x0, .LC0
 2100 1b50 00000091 		add	x0, x0, :lo12:.LC0
 2101 1b54 80023FD6 		blr	x20
 2102 1b58 E003132A 		mov	w0, w19
 2103 1b5c FE0B40F9 		ldr	x30, [sp, 16]
 2104 1b60 F353C4A8 		ldp	x19, x20, [sp], 64
 2105 1b64 C0035FD6 		ret
 2106              		.size	ARM_setmaxspeed, .-ARM_setmaxspeed
 2107              		.align	2
 2108 1b68 1F2003D5 		.p2align 4,,15
 2108      1F2003D5 
 2109              		.global	displaySmartStart
 2110              		.type	displaySmartStart, %function
 2111              	displaySmartStart:
 2112 1b70 800300B4 		cbz	x0, .L432
 2113 1b74 03000090 		adrp	x3, RPi_CompileMode
 2114 1b78 610040B9 		ldr	w1, [x3, #:lo12:RPi_CompileMode]
 2115 1b7c F37BBFA9 		stp	x19, x30, [sp, -16]!
 2116 1b80 F30300AA 		mov	x19, x0
 2117 1b84 620040B9 		ldr	w2, [x3, #:lo12:RPi_CompileMode]
 2118 1b88 210C0012 		and	w1, w1, 15
 2119 1b8c 630040B9 		ldr	w3, [x3, #:lo12:RPi_CompileMode]
 2120 1b90 00000090 		adrp	x0, .LC1
 2121 1b94 00000091 		add	x0, x0, :lo12:.LC1
 2122 1b98 421044D3 		ubfx	x2, x2, 4, 1
 2123 1b9c 42040011 		add	w2, w2, 1
 2124 1ba0 631C45D3 		ubfx	x3, x3, 5, 3
 2125 1ba4 42681B53 		lsl	w2, w2, 5
 2126 1ba8 60023FD6 		blr	x19
 2127 1bac 00000094 		bl	RPi_CpuIdString
 2128 1bb0 01000090 		adrp	x1, RPi_CoresReady
 2129 1bb4 04000090 		adrp	x4, .LC2
 2130 1bb8 02000090 		adrp	x2, RPi_CpuId
 2131 1bbc 420040B9 		ldr	w2, [x2, #:lo12:RPi_CpuId]
 2132 1bc0 230040B9 		ldr	w3, [x1, #:lo12:RPi_CoresReady]
 2133 1bc4 E10300AA 		mov	x1, x0
 2134 1bc8 80000091 		add	x0, x4, :lo12:.LC2
 2135 1bcc E40313AA 		mov	x4, x19
 2136 1bd0 F37BC1A8 		ldp	x19, x30, [sp], 16
 2137 1bd4 423C44D3 		ubfx	x2, x2, 4, 12
 2138 1bd8 80001FD6 		br	x4
 2139 1bdc 1F2003D5 		.p2align 3
 2140              	.L432:
 2141 1be0 C0035FD6 		ret
 2142              		.size	displaySmartStart, .-displaySmartStart
 2143              		.align	2
AARCH64 GAS  C:\Users\ldebo\AppData\Local\Temp\cchOloIf.s 			page 39


 2144 1be4 1F2003D5 		.p2align 4,,15
 2144      1F2003D5 
 2144      1F2003D5 
 2145              		.global	Embedded_Console_WriteChar
 2146              		.type	Embedded_Console_WriteChar, %function
 2147              	Embedded_Console_WriteChar:
 2148 1bf0 011C0012 		and	w1, w0, 255
 2149 1bf4 3F280071 		cmp	w1, 10
 2150 1bf8 C0040054 		beq	.L439
 2151 1bfc 3F340071 		cmp	w1, 13
 2152 1c00 00040054 		beq	.L440
 2153 1c04 3F240071 		cmp	w1, 9
 2154 1c08 40020054 		beq	.L447
 2155 1c0c F37BBFA9 		stp	x19, x30, [sp, -16]!
 2156 1c10 13000090 		adrp	x19, .LANCHOR0
 2157 1c14 73020091 		add	x19, x19, :lo12:.LANCHOR0
 2158 1c18 73120091 		add	x19, x19, 4
 2159 1c1c E00313AA 		mov	x0, x19
 2160 1c20 648E4329 		ldp	w4, w3, [x19, 28]
 2161 1c24 650A4A29 		ldp	w5, w2, [x19, 80]
 2162 1c28 84701D53 		lsl	w4, w4, 3
 2163 1c2c 636C1C53 		lsl	w3, w3, 4
 2164 1c30 648E0229 		stp	w4, w3, [x19, 20]
 2165 1c34 A28002AA 		orr	x2, x5, x2, lsl 32
 2166 1c38 40003FD6 		blr	x2
 2167 1c3c 601E40B9 		ldr	w0, [x19, 28]
 2168 1c40 00040011 		add	w0, w0, 1
 2169 1c44 601E00B9 		str	w0, [x19, 28]
 2170 1c48 F37BC1A8 		ldp	x19, x30, [sp], 16
 2171 1c4c C0035FD6 		ret
 2172              		.p2align 3
 2173              	.L447:
 2174 1c50 01000090 		adrp	x1, .LANCHOR0
 2175 1c54 21000091 		add	x1, x1, :lo12:.LANCHOR0
 2176 1c58 202040B9 		ldr	w0, [x1, 32]
 2177 1c5c 00140011 		add	w0, w0, 5
 2178 1c60 E203006B 		negs	w2, w0
 2179 1c64 03040012 		and	w3, w0, 3
 2180 1c68 42040012 		and	w2, w2, 3
 2181 1c6c 6244825A 		csneg	w2, w3, w2, mi
 2182 1c70 0000024B 		sub	w0, w0, w2
 2183 1c74 202000B9 		str	w0, [x1, 32]
 2184 1c78 C0035FD6 		ret
 2185 1c7c 1F2003D5 		.p2align 3
 2186              	.L440:
 2187 1c80 00000090 		adrp	x0, .LANCHOR0+32
 2188 1c84 1F0000B9 		str	wzr, [x0, #:lo12:.LANCHOR0+32]
 2189 1c88 C0035FD6 		ret
 2190 1c8c 1F2003D5 		.p2align 3
 2191              	.L439:
 2192 1c90 00000090 		adrp	x0, .LANCHOR0
 2193 1c94 00000091 		add	x0, x0, :lo12:.LANCHOR0
 2194 1c98 012440B9 		ldr	w1, [x0, 36]
 2195 1c9c 21040011 		add	w1, w1, 1
 2196 1ca0 1F040429 		stp	wzr, w1, [x0, 32]
 2197 1ca4 C0035FD6 		ret
 2198              		.size	Embedded_Console_WriteChar, .-Embedded_Console_WriteChar
AARCH64 GAS  C:\Users\ldebo\AppData\Local\Temp\cchOloIf.s 			page 40


 2199              		.align	2
 2200 1ca8 1F2003D5 		.p2align 4,,15
 2200      1F2003D5 
 2201              		.global	WriteText
 2202              		.type	WriteText, %function
 2203              	WriteText:
 2204 1cb0 C20700B4 		cbz	x2, .L465
 2205 1cb4 F353BDA9 		stp	x19, x20, [sp, -48]!
 2206 1cb8 E303002A 		mov	w3, w0
 2207 1cbc F30302AA 		mov	x19, x2
 2208 1cc0 E00302AA 		mov	x0, x2
 2209 1cc4 F50B00F9 		str	x21, [sp, 16]
 2210 1cc8 15000090 		adrp	x21, .LANCHOR0
 2211 1ccc B5020091 		add	x21, x21, :lo12:.LANCHOR0
 2212 1cd0 FE1300F9 		str	x30, [sp, 32]
 2213 1cd4 A3060429 		stp	w3, w1, [x21, 32]
 2214 1cd8 00000094 		bl	strlen
 2215 1cdc 600400B4 		cbz	x0, .L448
 2216 1ce0 F60F00F9 		str	x22, [sp, 24]
 2217 1ce4 7602008B 		add	x22, x19, x0
 2218 1ce8 16000014 		b	.L455
 2219 1cec 1F2003D5 		.p2align 3
 2220              	.L470:
 2221 1cf0 B4120091 		add	x20, x21, 4
 2222 1cf4 E103022A 		mov	w1, w2
 2223 1cf8 E00314AA 		mov	x0, x20
 2224 1cfc 5F340071 		cmp	w2, 13
 2225 1d00 00050054 		beq	.L452
 2226 1d04 5F240071 		cmp	w2, 9
 2227 1d08 80030054 		beq	.L468
 2228 1d0c 848E4329 		ldp	w4, w3, [x20, 28]
 2229 1d10 850A4A29 		ldp	w5, w2, [x20, 80]
 2230 1d14 84701D53 		lsl	w4, w4, 3
 2231 1d18 636C1C53 		lsl	w3, w3, 4
 2232 1d1c 848E0229 		stp	w4, w3, [x20, 20]
 2233 1d20 A28002AA 		orr	x2, x5, x2, lsl 32
 2234 1d24 40003FD6 		blr	x2
 2235 1d28 801E40B9 		ldr	w0, [x20, 28]
 2236 1d2c 00040011 		add	w0, w0, 1
 2237 1d30 801E00B9 		str	w0, [x20, 28]
 2238              	.L454:
 2239 1d34 73060091 		add	x19, x19, 1
 2240 1d38 DF0213EB 		cmp	x22, x19
 2241 1d3c 40010054 		beq	.L469
 2242              	.L455:
 2243 1d40 62024039 		ldrb	w2, [x19]
 2244 1d44 5F280071 		cmp	w2, 10
 2245 1d48 41FDFF54 		bne	.L470
 2246 1d4c A12640B9 		ldr	w1, [x21, 36]
 2247 1d50 73060091 		add	x19, x19, 1
 2248 1d54 DF0213EB 		cmp	x22, x19
 2249 1d58 21040011 		add	w1, w1, 1
 2250 1d5c BF060429 		stp	wzr, w1, [x21, 32]
 2251 1d60 01FFFF54 		bne	.L455
 2252              	.L469:
 2253 1d64 F60F40F9 		ldr	x22, [sp, 24]
 2254              	.L448:
AARCH64 GAS  C:\Users\ldebo\AppData\Local\Temp\cchOloIf.s 			page 41


 2255 1d68 F50B40F9 		ldr	x21, [sp, 16]
 2256 1d6c FE1340F9 		ldr	x30, [sp, 32]
 2257 1d70 F353C3A8 		ldp	x19, x20, [sp], 48
 2258 1d74 C0035FD6 		ret
 2259              		.p2align 3
 2260              	.L468:
 2261 1d78 A12240B9 		ldr	w1, [x21, 32]
 2262 1d7c 21140011 		add	w1, w1, 5
 2263 1d80 E003016B 		negs	w0, w1
 2264 1d84 23040012 		and	w3, w1, 3
 2265 1d88 00040012 		and	w0, w0, 3
 2266 1d8c 6044805A 		csneg	w0, w3, w0, mi
 2267 1d90 2100004B 		sub	w1, w1, w0
 2268 1d94 A12200B9 		str	w1, [x21, 32]
 2269 1d98 E7FFFF17 		b	.L454
 2270 1d9c 1F2003D5 		.p2align 3
 2271              	.L452:
 2272 1da0 BF2200B9 		str	wzr, [x21, 32]
 2273 1da4 E4FFFF17 		b	.L454
 2274              		.p2align 3
 2275              	.L465:
 2276 1da8 C0035FD6 		ret
 2277              		.size	WriteText, .-WriteText
 2278              		.align	2
 2279 1dac 1F2003D5 		.p2align 4,,15
 2280              		.global	SetDCPenColor
 2281              		.type	SetDCPenColor, %function
 2282              	SetDCPenColor:
 2283 1db0 02008052 		mov	w2, 0
 2284 1db4 600000B4 		cbz	x0, .L471
 2285 1db8 022440B9 		ldr	w2, [x0, 36]
 2286 1dbc 012400B9 		str	w1, [x0, 36]
 2287              	.L471:
 2288 1dc0 E003022A 		mov	w0, w2
 2289 1dc4 C0035FD6 		ret
 2290              		.size	SetDCPenColor, .-SetDCPenColor
 2291              		.align	2
 2292 1dc8 1F2003D5 		.p2align 4,,15
 2292      1F2003D5 
 2293              		.global	SetDCBrushColor
 2294              		.type	SetDCBrushColor, %function
 2295              	SetDCBrushColor:
 2296 1dd0 02008052 		mov	w2, 0
 2297 1dd4 600000B4 		cbz	x0, .L474
 2298 1dd8 022C40B9 		ldr	w2, [x0, 44]
 2299 1ddc 012C00B9 		str	w1, [x0, 44]
 2300              	.L474:
 2301 1de0 E003022A 		mov	w0, w2
 2302 1de4 C0035FD6 		ret
 2303              		.size	SetDCBrushColor, .-SetDCBrushColor
 2304              		.align	2
 2305 1de8 1F2003D5 		.p2align 4,,15
 2305      1F2003D5 
 2306              		.global	MoveToEx
 2307              		.type	MoveToEx, %function
 2308              	MoveToEx:
 2309 1df0 400100B4 		cbz	x0, .L480
AARCH64 GAS  C:\Users\ldebo\AppData\Local\Temp\cchOloIf.s 			page 42


 2310 1df4 A30000B4 		cbz	x3, .L479
 2311 1df8 041440B9 		ldr	w4, [x0, 20]
 2312 1dfc 640000B9 		str	w4, [x3]
 2313 1e00 041840B9 		ldr	w4, [x0, 24]
 2314 1e04 640400B9 		str	w4, [x3, 4]
 2315              	.L479:
 2316 1e08 01880229 		stp	w1, w2, [x0, 20]
 2317 1e0c 20008052 		mov	w0, 1
 2318 1e10 C0035FD6 		ret
 2319 1e14 1F2003D5 		.p2align 3
 2320              	.L480:
 2321 1e18 00008052 		mov	w0, 0
 2322 1e1c C0035FD6 		ret
 2323              		.size	MoveToEx, .-MoveToEx
 2324              		.align	2
 2325              		.p2align 4,,15
 2326              		.global	LineTo
 2327              		.type	LineTo, %function
 2328              	LineTo:
 2329 1e20 800300B4 		cbz	x0, .L492
 2330 1e24 FE0F1FF8 		str	x30, [sp, -16]!
 2331 1e28 051440B9 		ldr	w5, [x0, 20]
 2332 1e2c BF00016B 		cmp	w5, w1
 2333 1e30 0C020054 		bgt	.L497
 2334 1e34 2500054B 		sub	w5, w1, w5
 2335 1e38 011840B9 		ldr	w1, [x0, 24]
 2336 1e3c 23008052 		mov	w3, 1
 2337 1e40 3F00026B 		cmp	w1, w2
 2338 1e44 0D020054 		ble	.L488
 2339              	.L498:
 2340 1e48 2100024B 		sub	w1, w1, w2
 2341 1e4c 02008012 		mov	w2, -1
 2342              	.L489:
 2343 1e50 45020035 		cbnz	w5, .L490
 2344 1e54 040C4729 		ldp	w4, w3, [x0, 56]
 2345 1e58 838003AA 		orr	x3, x4, x3, lsl 32
 2346 1e5c 60003FD6 		blr	x3
 2347 1e60 20008052 		mov	w0, 1
 2348              	.L484:
 2349 1e64 FE0741F8 		ldr	x30, [sp], 16
 2350 1e68 C0035FD6 		ret
 2351 1e6c 1F2003D5 		.p2align 3
 2352              	.L497:
 2353 1e70 A500014B 		sub	w5, w5, w1
 2354 1e74 011840B9 		ldr	w1, [x0, 24]
 2355 1e78 03008012 		mov	w3, -1
 2356 1e7c 3F00026B 		cmp	w1, w2
 2357 1e80 4CFEFF54 		bgt	.L498
 2358              	.L488:
 2359 1e84 4100014B 		sub	w1, w2, w1
 2360 1e88 22008052 		mov	w2, 1
 2361 1e8c F1FFFF17 		b	.L489
 2362              		.p2align 3
 2363              	.L492:
 2364 1e90 00008052 		mov	w0, 0
 2365 1e94 C0035FD6 		ret
 2366              		.p2align 3
AARCH64 GAS  C:\Users\ldebo\AppData\Local\Temp\cchOloIf.s 			page 43


 2367              	.L490:
 2368 1e98 41010034 		cbz	w1, .L499
 2369 1e9c 07184929 		ldp	w7, w6, [x0, 72]
 2370 1ea0 E403022A 		mov	w4, w2
 2371 1ea4 E203012A 		mov	w2, w1
 2372 1ea8 E103052A 		mov	w1, w5
 2373 1eac E58006AA 		orr	x5, x7, x6, lsl 32
 2374 1eb0 A0003FD6 		blr	x5
 2375 1eb4 20008052 		mov	w0, 1
 2376 1eb8 EBFFFF17 		b	.L484
 2377 1ebc 1F2003D5 		.p2align 3
 2378              	.L499:
 2379 1ec0 06104829 		ldp	w6, w4, [x0, 64]
 2380 1ec4 E203032A 		mov	w2, w3
 2381 1ec8 E103052A 		mov	w1, w5
 2382 1ecc C38004AA 		orr	x3, x6, x4, lsl 32
 2383 1ed0 60003FD6 		blr	x3
 2384 1ed4 20008052 		mov	w0, 1
 2385 1ed8 E3FFFF17 		b	.L484
 2386              		.size	LineTo, .-LineTo
 2387              		.align	2
 2388 1edc 1F2003D5 		.p2align 4,,15
 2389              		.global	TextOut
 2390              		.type	TextOut, %function
 2391              	TextOut:
 2392 1ee0 9F000071 		cmp	w4, 0
 2393 1ee4 641840FA 		ccmp	x3, 0, 4, ne
 2394 1ee8 00040054 		beq	.L508
 2395 1eec F353BDA9 		stp	x19, x20, [sp, -48]!
 2396 1ef0 9F000071 		cmp	w4, 0
 2397 1ef4 F55B01A9 		stp	x21, x22, [sp, 16]
 2398 1ef8 F503012A 		mov	w21, w1
 2399 1efc FE1700F9 		str	x30, [sp, 40]
 2400 1f00 F603022A 		mov	w22, w2
 2401 1f04 6D020054 		ble	.L504
 2402 1f08 84040051 		sub	w4, w4, #1
 2403 1f0c 13000090 		adrp	x19, .LANCHOR0
 2404 1f10 73020091 		add	x19, x19, :lo12:.LANCHOR0
 2405 1f14 F71300F9 		str	x23, [sp, 32]
 2406 1f18 77040091 		add	x23, x3, 1
 2407 1f1c F40303AA 		mov	x20, x3
 2408 1f20 73120091 		add	x19, x19, 4
 2409 1f24 F702048B 		add	x23, x23, x4
 2410              		.p2align 3
 2411              	.L503:
 2412 1f28 75DA0229 		stp	w21, w22, [x19, 20]
 2413 1f2c E00313AA 		mov	x0, x19
 2414 1f30 630A4A29 		ldp	w3, w2, [x19, 80]
 2415 1f34 B5220011 		add	w21, w21, 8
 2416 1f38 81164038 		ldrb	w1, [x20], 1
 2417 1f3c 628002AA 		orr	x2, x3, x2, lsl 32
 2418 1f40 40003FD6 		blr	x2
 2419 1f44 9F0217EB 		cmp	x20, x23
 2420 1f48 01FFFF54 		bne	.L503
 2421 1f4c F71340F9 		ldr	x23, [sp, 32]
 2422              	.L504:
 2423 1f50 20008052 		mov	w0, 1
AARCH64 GAS  C:\Users\ldebo\AppData\Local\Temp\cchOloIf.s 			page 44


 2424 1f54 FE1740F9 		ldr	x30, [sp, 40]
 2425 1f58 F55B41A9 		ldp	x21, x22, [sp, 16]
 2426 1f5c F353C3A8 		ldp	x19, x20, [sp], 48
 2427 1f60 C0035FD6 		ret
 2428 1f64 1F2003D5 		.p2align 3
 2429              	.L508:
 2430 1f68 00008052 		mov	w0, 0
 2431 1f6c C0035FD6 		ret
 2432              		.size	TextOut, .-TextOut
 2433              		.align	2
 2434              		.p2align 4,,15
 2435              		.global	TransparentTextOut
 2436              		.type	TransparentTextOut, %function
 2437              	TransparentTextOut:
 2438 1f70 420300B4 		cbz	x2, .L517
 2439 1f74 F353BDA9 		stp	x19, x20, [sp, -48]!
 2440 1f78 13000090 		adrp	x19, .LANCHOR0
 2441 1f7c 73020091 		add	x19, x19, :lo12:.LANCHOR0
 2442 1f80 F55B01A9 		stp	x21, x22, [sp, 16]
 2443 1f84 F503002A 		mov	w21, w0
 2444 1f88 FE1300F9 		str	x30, [sp, 32]
 2445 1f8c F603012A 		mov	w22, w1
 2446 1f90 F40302AA 		mov	x20, x2
 2447 1f94 73120091 		add	x19, x19, 4
 2448 1f98 40004039 		ldrb	w0, [x2]
 2449 1f9c 40010034 		cbz	w0, .L516
 2450              		.p2align 3
 2451              	.L515:
 2452 1fa0 75DA0229 		stp	w21, w22, [x19, 20]
 2453 1fa4 E00313AA 		mov	x0, x19
 2454 1fa8 620E4B29 		ldp	w2, w3, [x19, 88]
 2455 1fac B5220011 		add	w21, w21, 8
 2456 1fb0 81164038 		ldrb	w1, [x20], 1
 2457 1fb4 438003AA 		orr	x3, x2, x3, lsl 32
 2458 1fb8 60003FD6 		blr	x3
 2459 1fbc 80024039 		ldrb	w0, [x20]
 2460 1fc0 00FFFF35 		cbnz	w0, .L515
 2461              	.L516:
 2462 1fc4 20008052 		mov	w0, 1
 2463 1fc8 FE1340F9 		ldr	x30, [sp, 32]
 2464 1fcc F55B41A9 		ldp	x21, x22, [sp, 16]
 2465 1fd0 F353C3A8 		ldp	x19, x20, [sp], 48
 2466 1fd4 C0035FD6 		ret
 2467              		.p2align 3
 2468              	.L517:
 2469 1fd8 00008052 		mov	w0, 0
 2470 1fdc C0035FD6 		ret
 2471              		.size	TransparentTextOut, .-TransparentTextOut
 2472              		.align	2
 2473              		.p2align 4,,15
 2474              		.global	BmpOut
 2475              		.type	BmpOut, %function
 2476              	BmpOut:
 2477 1fe0 000200B4 		cbz	x0, .L527
 2478 1fe4 FE0F1FF8 		str	x30, [sp, -16]!
 2479 1fe8 4700040B 		add	w7, w2, w4
 2480 1fec E903032A 		mov	w9, w3
AARCH64 GAS  C:\Users\ldebo\AppData\Local\Temp\cchOloIf.s 			page 45


 2481 1ff0 E30305AA 		mov	x3, x5
 2482 1ff4 02144C29 		ldp	w2, w5, [x0, 96]
 2483 1ff8 E803042A 		mov	w8, w4
 2484 1ffc 019C0229 		stp	w1, w7, [x0, 20]
 2485 2000 24008052 		mov	w4, 1
 2486 2004 E103092A 		mov	w1, w9
 2487 2008 458005AA 		orr	x5, x2, x5, lsl 32
 2488 200c E203082A 		mov	w2, w8
 2489 2010 A0003FD6 		blr	x5
 2490 2014 20008052 		mov	w0, 1
 2491 2018 FE0741F8 		ldr	x30, [sp], 16
 2492 201c C0035FD6 		ret
 2493              		.p2align 3
 2494              	.L527:
 2495 2020 00008052 		mov	w0, 0
 2496 2024 C0035FD6 		ret
 2497              		.size	BmpOut, .-BmpOut
 2498              		.align	2
 2499 2028 1F2003D5 		.p2align 4,,15
 2499      1F2003D5 
 2500              		.global	CvtBmpLine
 2501              		.type	CvtBmpLine, %function
 2502              	CvtBmpLine:
 2503 2030 800600B4 		cbz	x0, .L551
 2504 2034 100282D2 		mov	x16, 4112
 2505 2038 FF6330CB 		sub	sp, sp, x16
 2506 203c FE0300F9 		str	x30, [sp]
 2507 2040 01880229 		stp	w1, w2, [x0, 20]
 2508 2044 061040B9 		ldr	w6, [x0, 16]
 2509 2048 DF00046B 		cmp	w6, w4
 2510 204c 20040054 		beq	.L535
 2511 2050 DF600071 		cmp	w6, 24
 2512 2054 20080054 		beq	.L536
 2513 2058 DF800071 		cmp	w6, 32
 2514 205c 60050054 		beq	.L537
 2515 2060 DF400071 		cmp	w6, 16
 2516 2064 61030054 		bne	.L535
 2517 2068 9F600071 		cmp	w4, 24
 2518 206c A0090054 		beq	.L539
 2519 2070 03030034 		cbz	w3, .L535
 2520 2074 68040051 		sub	w8, w3, #1
 2521 2078 E1430091 		add	x1, sp, 16
 2522 207c A848288B 		add	x8, x5, x8, uxtw 2
 2523 2080 08110091 		add	x8, x8, 4
 2524 2084 1F2003D5 		.p2align 3
 2525              	.L542:
 2526 2088 A2084039 		ldrb	w2, [x5, 2]
 2527 208c 21080091 		add	x1, x1, 2
 2528 2090 A4044039 		ldrb	w4, [x5, 1]
 2529 2094 A6444038 		ldrb	w6, [x5], 4
 2530 2098 27E05F38 		ldrb	w7, [x1, -2]
 2531 209c 427C0353 		lsr	w2, w2, 3
 2532 20a0 847C0253 		lsr	w4, w4, 2
 2533 20a4 1F0105EB 		cmp	x8, x5
 2534 20a8 C67C0353 		lsr	w6, w6, 3
 2535 20ac C7100033 		bfi	w7, w6, 0, 5
 2536 20b0 27E01F38 		strb	w7, [x1, -2]
AARCH64 GAS  C:\Users\ldebo\AppData\Local\Temp\cchOloIf.s 			page 46


 2537 20b4 26E05F78 		ldrh	w6, [x1, -2]
 2538 20b8 86141B33 		bfi	w6, w4, 5, 6
 2539 20bc 26E01F78 		strh	w6, [x1, -2]
 2540 20c0 24F05F38 		ldrb	w4, [x1, -1]
 2541 20c4 44101D33 		bfi	w4, w2, 3, 5
 2542 20c8 24F01F38 		strb	w4, [x1, -1]
 2543 20cc E1FDFF54 		bne	.L542
 2544              	.L535:
 2545 20d0 06144C29 		ldp	w6, w5, [x0, 96]
 2546 20d4 E103032A 		mov	w1, w3
 2547 20d8 24008052 		mov	w4, 1
 2548 20dc E3430091 		add	x3, sp, 16
 2549 20e0 22008052 		mov	w2, 1
 2550 20e4 C58005AA 		orr	x5, x6, x5, lsl 32
 2551 20e8 A0003FD6 		blr	x5
 2552 20ec FE0340F9 		ldr	x30, [sp]
 2553 20f0 20008052 		mov	w0, 1
 2554 20f4 100282D2 		mov	x16, 4112
 2555 20f8 FF63308B 		add	sp, sp, x16
 2556 20fc C0035FD6 		ret
 2557              		.p2align 3
 2558              	.L551:
 2559 2100 00008052 		mov	w0, 0
 2560 2104 C0035FD6 		ret
 2561              		.p2align 3
 2562              	.L537:
 2563 2108 9F400071 		cmp	w4, 16
 2564 210c 200B0054 		beq	.L547
 2565 2110 03FEFF34 		cbz	w3, .L535
 2566 2114 64040051 		sub	w4, w3, #1
 2567 2118 E10305AA 		mov	x1, x5
 2568 211c 84040091 		add	x4, x4, 1
 2569 2120 E2430091 		add	x2, sp, 16
 2570 2124 8404048B 		add	x4, x4, x4, lsl 1
 2571 2128 A500048B 		add	x5, x5, x4
 2572 212c 1F2003D5 		.p2align 3
 2573              	.L550:
 2574 2130 210C0091 		add	x1, x1, 3
 2575 2134 24D05F38 		ldrb	w4, [x1, -3]
 2576 2138 44440038 		strb	w4, [x2], 4
 2577 213c BF0001EB 		cmp	x5, x1
 2578 2140 26E05F38 		ldrb	w6, [x1, -2]
 2579 2144 24F05F38 		ldrb	w4, [x1, -1]
 2580 2148 46D01F38 		strb	w6, [x2, -3]
 2581 214c 44E01F38 		strb	w4, [x2, -2]
 2582 2150 01FFFF54 		bne	.L550
 2583 2154 DFFFFF17 		b	.L535
 2584              		.p2align 3
 2585              	.L536:
 2586 2158 9F400071 		cmp	w4, 16
 2587 215c A0050054 		beq	.L543
 2588 2160 83FBFF34 		cbz	w3, .L535
 2589 2164 62040051 		sub	w2, w3, #1
 2590 2168 E1430091 		add	x1, sp, 16
 2591 216c 42040091 		add	x2, x2, 1
 2592 2170 4204028B 		add	x2, x2, x2, lsl 1
 2593 2174 2200028B 		add	x2, x1, x2
AARCH64 GAS  C:\Users\ldebo\AppData\Local\Temp\cchOloIf.s 			page 47


 2594              		.p2align 3
 2595              	.L546:
 2596 2178 A5100091 		add	x5, x5, 4
 2597 217c A4C05F38 		ldrb	w4, [x5, -4]
 2598 2180 24340038 		strb	w4, [x1], 3
 2599 2184 A6D05F38 		ldrb	w6, [x5, -3]
 2600 2188 A4E05F38 		ldrb	w4, [x5, -2]
 2601 218c 3F0002EB 		cmp	x1, x2
 2602 2190 26E01F38 		strb	w6, [x1, -2]
 2603 2194 24F01F38 		strb	w4, [x1, -1]
 2604 2198 01FFFF54 		bne	.L546
 2605 219c CDFFFF17 		b	.L535
 2606              		.p2align 3
 2607              	.L539:
 2608 21a0 83F9FF34 		cbz	w3, .L535
 2609 21a4 64040051 		sub	w4, w3, #1
 2610 21a8 E20305AA 		mov	x2, x5
 2611 21ac 84040091 		add	x4, x4, 1
 2612 21b0 E1430091 		add	x1, sp, 16
 2613 21b4 8404048B 		add	x4, x4, x4, lsl 1
 2614 21b8 A500048B 		add	x5, x5, x4
 2615 21bc 1F2003D5 		.p2align 3
 2616              	.L541:
 2617 21c0 420C0091 		add	x2, x2, 3
 2618 21c4 47D05F38 		ldrb	w7, [x2, -3]
 2619 21c8 28004039 		ldrb	w8, [x1]
 2620 21cc 21080091 		add	x1, x1, 2
 2621 21d0 46E05F38 		ldrb	w6, [x2, -2]
 2622 21d4 5F0005EB 		cmp	x2, x5
 2623 21d8 E77C0353 		lsr	w7, w7, 3
 2624 21dc 44F05F38 		ldrb	w4, [x2, -1]
 2625 21e0 E8100033 		bfi	w8, w7, 0, 5
 2626 21e4 28E01F38 		strb	w8, [x1, -2]
 2627 21e8 C67C0253 		lsr	w6, w6, 2
 2628 21ec 847C0353 		lsr	w4, w4, 3
 2629 21f0 27E05F78 		ldrh	w7, [x1, -2]
 2630 21f4 C7141B33 		bfi	w7, w6, 5, 6
 2631 21f8 27E01F78 		strh	w7, [x1, -2]
 2632 21fc 26F05F38 		ldrb	w6, [x1, -1]
 2633 2200 86101D33 		bfi	w6, w4, 3, 5
 2634 2204 26F01F38 		strb	w6, [x1, -1]
 2635 2208 C1FDFF54 		bne	.L541
 2636 220c B1FFFF17 		b	.L535
 2637              		.p2align 3
 2638              	.L543:
 2639 2210 03F6FF34 		cbz	w3, .L535
 2640 2214 67040051 		sub	w7, w3, #1
 2641 2218 E4430091 		add	x4, sp, 16
 2642 221c E7040091 		add	x7, x7, 1
 2643 2220 E704078B 		add	x7, x7, x7, lsl 1
 2644 2224 8700078B 		add	x7, x4, x7
 2645              		.p2align 3
 2646              	.L545:
 2647 2228 A6004039 		ldrb	w6, [x5]
 2648 222c A5080091 		add	x5, x5, 2
 2649 2230 A1F05F38 		ldrb	w1, [x5, -1]
 2650 2234 E20301AA 		mov	x2, x1
AARCH64 GAS  C:\Users\ldebo\AppData\Local\Temp\cchOloIf.s 			page 48


 2651 2238 C81C45D3 		ubfx	x8, x6, 5, 3
 2652 223c 21087DD3 		ubfiz	x1, x1, 3, 3
 2653 2240 C6101D53 		ubfiz	w6, w6, 3, 5
 2654 2244 86340038 		strb	w6, [x4], 3
 2655 2248 421C43D3 		ubfx	x2, x2, 3, 5
 2656 224c 210008AA 		orr	x1, x1, x8
 2657 2250 42101D53 		ubfiz	w2, w2, 3, 5
 2658 2254 21141E53 		ubfiz	w1, w1, 2, 6
 2659 2258 81E01F38 		strb	w1, [x4, -2]
 2660 225c 82F01F38 		strb	w2, [x4, -1]
 2661 2260 9F0007EB 		cmp	x4, x7
 2662 2264 21FEFF54 		bne	.L545
 2663 2268 9AFFFF17 		b	.L535
 2664 226c 1F2003D5 		.p2align 3
 2665              	.L547:
 2666 2270 03F3FF34 		cbz	w3, .L535
 2667 2274 61040051 		sub	w1, w3, #1
 2668 2278 E8530091 		add	x8, sp, 20
 2669 227c E2430091 		add	x2, sp, 16
 2670 2280 0849218B 		add	x8, x8, x1, uxtw 2
 2671 2284 1F2003D5 		.p2align 3
 2672              	.L549:
 2673 2288 A6004039 		ldrb	w6, [x5]
 2674 228c 42100091 		add	x2, x2, 4
 2675 2290 A1044039 		ldrb	w1, [x5, 1]
 2676 2294 1F0102EB 		cmp	x8, x2
 2677 2298 A5080091 		add	x5, x5, 2
 2678 229c E40301AA 		mov	x4, x1
 2679 22a0 C71C45D3 		ubfx	x7, x6, 5, 3
 2680 22a4 21087DD3 		ubfiz	x1, x1, 3, 3
 2681 22a8 C6101D53 		ubfiz	w6, w6, 3, 5
 2682 22ac 841C43D3 		ubfx	x4, x4, 3, 5
 2683 22b0 210007AA 		orr	x1, x1, x7
 2684 22b4 84101D53 		ubfiz	w4, w4, 3, 5
 2685 22b8 21141E53 		ubfiz	w1, w1, 2, 6
 2686 22bc 46C01F38 		strb	w6, [x2, -4]
 2687 22c0 41D01F38 		strb	w1, [x2, -3]
 2688 22c4 44E01F38 		strb	w4, [x2, -2]
 2689 22c8 01FEFF54 		bne	.L549
 2690 22cc 81FFFF17 		b	.L535
 2691              		.size	CvtBmpLine, .-CvtBmpLine
 2692              		.align	2
 2693              		.p2align 4,,15
 2694              		.global	Rectangle
 2695              		.type	Rectangle, %function
 2696              	Rectangle:
 2697 22d0 000100B4 		cbz	x0, .L573
 2698 22d4 FE0F1FF8 		str	x30, [sp, -16]!
 2699 22d8 06144629 		ldp	w6, w5, [x0, 48]
 2700 22dc C58005AA 		orr	x5, x6, x5, lsl 32
 2701 22e0 A0003FD6 		blr	x5
 2702 22e4 20008052 		mov	w0, 1
 2703 22e8 FE0741F8 		ldr	x30, [sp], 16
 2704 22ec C0035FD6 		ret
 2705              		.p2align 3
 2706              	.L573:
 2707 22f0 00008052 		mov	w0, 0
AARCH64 GAS  C:\Users\ldebo\AppData\Local\Temp\cchOloIf.s 			page 49


 2708 22f4 C0035FD6 		ret
 2709              		.size	Rectangle, .-Rectangle
 2710              		.align	2
 2711 22f8 1F2003D5 		.p2align 4,,15
 2711      1F2003D5 
 2712              		.global	PiConsole_Init
 2713              		.type	PiConsole_Init, %function
 2714              	PiConsole_Init:
 2715 2300 FFC303D1 		sub	sp, sp, #240
 2716 2304 1F000071 		cmp	w0, 0
 2717 2308 2418407A 		ccmp	w1, 0, 4, ne
 2718 230c F35307A9 		stp	x19, x20, [sp, 112]
 2719 2310 F303002A 		mov	w19, w0
 2720 2314 F55B08A9 		stp	x21, x22, [sp, 128]
 2721 2318 F403012A 		mov	w20, w1
 2722 231c F77B09A9 		stp	x23, x30, [sp, 144]
 2723 2320 F503022A 		mov	w21, w2
 2724 2324 F70303AA 		mov	x23, x3
 2725 2328 80060054 		beq	.L603
 2726              	.L579:
 2727 232c 95010035 		cbnz	w21, .L583
 2728              	.L605:
 2729 2330 84008052 		mov	w4, 4
 2730 2334 05008052 		mov	w5, 0
 2731 2338 E303042A 		mov	w3, w4
 2732 233c A2008052 		mov	w2, 5
 2733 2340 8200A072 		movk	w2, 0x4, lsl 16
 2734 2344 E103042A 		mov	w1, w4
 2735 2348 E0830291 		add	x0, sp, 160
 2736 234c 81FBFF97 		bl	mailbox_tag_message.constprop.6
 2737 2350 1F1C0072 		tst	w0, 255
 2738 2354 40040054 		beq	.L584
 2739 2358 F5AF40B9 		ldr	w21, [sp, 172]
 2740              	.L583:
 2741 235c 80008052 		mov	w0, 4
 2742 2360 01028052 		mov	w1, 16
 2743 2364 04018052 		mov	w4, 8
 2744 2368 E40300B9 		str	w4, [sp]
 2745 236c E40B00B9 		str	w4, [sp, 8]
 2746 2370 87009052 		mov	w7, 32772
 2747 2374 8700A072 		movk	w7, 0x4, lsl 16
 2748 2378 F31300B9 		str	w19, [sp, 16]
 2749 237c E603142A 		mov	w6, w20
 2750 2380 F41B00B9 		str	w20, [sp, 24]
 2751 2384 E503132A 		mov	w5, w19
 2752 2388 E02B00B9 		str	w0, [sp, 40]
 2753 238c E303042A 		mov	w3, w4
 2754 2390 E03300B9 		str	w0, [sp, 48]
 2755 2394 62009052 		mov	w2, 32771
 2756 2398 8200A072 		movk	w2, 0x4, lsl 16
 2757 239c F53B00B9 		str	w21, [sp, 56]
 2758 23a0 E44B00B9 		str	w4, [sp, 72]
 2759 23a4 E05300B9 		str	w0, [sp, 80]
 2760 23a8 A0009052 		mov	w0, 32773
 2761 23ac 8000A072 		movk	w0, 0x4, lsl 16
 2762 23b0 E02300B9 		str	w0, [sp, 32]
 2763 23b4 E15B00B9 		str	w1, [sp, 88]
AARCH64 GAS  C:\Users\ldebo\AppData\Local\Temp\cchOloIf.s 			page 50


 2764 23b8 21008052 		mov	w1, 1
 2765 23bc 8100A072 		movk	w1, 0x4, lsl 16
 2766 23c0 E14300B9 		str	w1, [sp, 64]
 2767 23c4 FF6300B9 		str	wzr, [sp, 96]
 2768 23c8 61028052 		mov	w1, 19
 2769 23cc E0830291 		add	x0, sp, 160
 2770 23d0 70FAFF97 		bl	mailbox_tag_message.constprop.7
 2771 23d4 161C0072 		ands	w22, w0, 255
 2772 23d8 41030054 		bne	.L604
 2773              	.L584:
 2774 23dc 16008052 		mov	w22, 0
 2775              	.L581:
 2776 23e0 E003162A 		mov	w0, w22
 2777 23e4 F35347A9 		ldp	x19, x20, [sp, 112]
 2778 23e8 F55B48A9 		ldp	x21, x22, [sp, 128]
 2779 23ec F77B49A9 		ldp	x23, x30, [sp, 144]
 2780 23f0 FFC30391 		add	sp, sp, 240
 2781 23f4 C0035FD6 		ret
 2782              		.p2align 3
 2783              	.L603:
 2784 23f8 06008052 		mov	w6, 0
 2785 23fc 05008052 		mov	w5, 0
 2786 2400 04008052 		mov	w4, 0
 2787 2404 03018052 		mov	w3, 8
 2788 2408 62008052 		mov	w2, 3
 2789 240c 8200A072 		movk	w2, 0x4, lsl 16
 2790 2410 A1008052 		mov	w1, 5
 2791 2414 E0830291 		add	x0, sp, 160
 2792 2418 FAFAFF97 		bl	mailbox_tag_message.constprop.5
 2793 241c 1F1C0072 		tst	w0, 255
 2794 2420 E0FDFF54 		beq	.L584
 2795 2424 73000035 		cbnz	w19, .L582
 2796 2428 F3AF40B9 		ldr	w19, [sp, 172]
 2797 242c 14F8FF35 		cbnz	w20, .L579
 2798              		.p2align 3
 2799              	.L582:
 2800 2430 F4B340B9 		ldr	w20, [sp, 176]
 2801 2434 55F9FF35 		cbnz	w21, .L583
 2802 2438 BEFFFF17 		b	.L605
 2803 243c 1F2003D5 		.p2align 3
 2804              	.L604:
 2805 2440 E0E740B9 		ldr	w0, [sp, 228]
 2806 2444 00000094 		bl	GPUaddrToARMaddr
 2807 2448 E003002A 		uxtw	x0, w0
 2808 244c 02000090 		adrp	x2, .LANCHOR0
 2809 2450 42000091 		add	x2, x2, :lo12:.LANCHOR0
 2810 2454 41100091 		add	x1, x2, 4
 2811 2458 04008012 		mov	w4, -1
 2812 245c E39F0832 		mov	w3, -16711936
 2813 2460 BF620071 		cmp	w21, 24
 2814 2464 400400B9 		str	w0, [x2, 4]
 2815 2468 3FCC0029 		stp	wzr, w19, [x1, 4]
 2816 246c 34D40129 		stp	w20, w21, [x1, 12]
 2817 2470 24FC0429 		stp	w4, wzr, [x1, 36]
 2818 2474 232C00B9 		str	w3, [x1, 44]
 2819 2478 40020054 		beq	.L586
 2820 247c BF820071 		cmp	w21, 32
AARCH64 GAS  C:\Users\ldebo\AppData\Local\Temp\cchOloIf.s 			page 51


 2821 2480 C0070054 		beq	.L587
 2822 2484 BF420071 		cmp	w21, 16
 2823 2488 80050054 		beq	.L606
 2824              	.L585:
 2825 248c B7FAFFB4 		cbz	x23, .L581
 2826 2490 E303152A 		mov	w3, w21
 2827 2494 E203142A 		mov	w2, w20
 2828 2498 E103132A 		mov	w1, w19
 2829 249c 00000090 		adrp	x0, .LC3
 2830 24a0 00000091 		add	x0, x0, :lo12:.LC3
 2831 24a4 E0023FD6 		blr	x23
 2832 24a8 E003162A 		mov	w0, w22
 2833 24ac F35347A9 		ldp	x19, x20, [sp, 112]
 2834 24b0 F55B48A9 		ldp	x21, x22, [sp, 128]
 2835 24b4 F77B49A9 		ldp	x23, x30, [sp, 144]
 2836 24b8 FFC30391 		add	sp, sp, 240
 2837 24bc C0035FD6 		ret
 2838              		.p2align 3
 2839              	.L586:
 2840 24c0 07000090 		adrp	x7, ClearArea24
 2841 24c4 E7000091 		add	x7, x7, :lo12:ClearArea24
 2842 24c8 06000090 		adrp	x6, VertLine24
 2843 24cc C6000091 		add	x6, x6, :lo12:VertLine24
 2844 24d0 05000090 		adrp	x5, HorzLine24
 2845 24d4 A5000091 		add	x5, x5, :lo12:HorzLine24
 2846 24d8 04000090 		adrp	x4, DiagLine24
 2847 24dc 84000091 		add	x4, x4, :lo12:DiagLine24
 2848 24e0 03000090 		adrp	x3, WriteChar24
 2849 24e4 63000091 		add	x3, x3, :lo12:WriteChar24
 2850 24e8 02000090 		adrp	x2, TransparentWriteChar24
 2851 24ec 42000091 		add	x2, x2, :lo12:TransparentWriteChar24
 2852 24f0 00000090 		adrp	x0, PutImage24
 2853 24f4 00000091 		add	x0, x0, :lo12:PutImage24
 2854              	.L602:
 2855 24f8 EEFC60D3 		lsr	x14, x7, 32
 2856 24fc CDFC60D3 		lsr	x13, x6, 32
 2857 2500 ACFC60D3 		lsr	x12, x5, 32
 2858 2504 8BFC60D3 		lsr	x11, x4, 32
 2859 2508 6AFC60D3 		lsr	x10, x3, 32
 2860 250c 49FC60D3 		lsr	x9, x2, 32
 2861 2510 08FC60D3 		lsr	x8, x0, 32
 2862 2514 27380629 		stp	w7, w14, [x1, 48]
 2863 2518 26340729 		stp	w6, w13, [x1, 56]
 2864 251c 25300829 		stp	w5, w12, [x1, 64]
 2865 2520 242C0929 		stp	w4, w11, [x1, 72]
 2866 2524 23280A29 		stp	w3, w10, [x1, 80]
 2867 2528 22240B29 		stp	w2, w9, [x1, 88]
 2868 252c 20200C29 		stp	w0, w8, [x1, 96]
 2869 2530 D7FFFF17 		b	.L585
 2870 2534 1F2003D5 		.p2align 3
 2871              	.L606:
 2872 2538 07000090 		adrp	x7, ClearArea16
 2873 253c E7000091 		add	x7, x7, :lo12:ClearArea16
 2874 2540 06000090 		adrp	x6, VertLine16
 2875 2544 C6000091 		add	x6, x6, :lo12:VertLine16
 2876 2548 05000090 		adrp	x5, HorzLine16
 2877 254c A5000091 		add	x5, x5, :lo12:HorzLine16
AARCH64 GAS  C:\Users\ldebo\AppData\Local\Temp\cchOloIf.s 			page 52


 2878 2550 04000090 		adrp	x4, DiagLine16
 2879 2554 84000091 		add	x4, x4, :lo12:DiagLine16
 2880 2558 03000090 		adrp	x3, WriteChar16
 2881 255c 63000091 		add	x3, x3, :lo12:WriteChar16
 2882 2560 02000090 		adrp	x2, TransparentWriteChar16
 2883 2564 42000091 		add	x2, x2, :lo12:TransparentWriteChar16
 2884 2568 00000090 		adrp	x0, PutImage16
 2885 256c 00000091 		add	x0, x0, :lo12:PutImage16
 2886 2570 E2FFFF17 		b	.L602
 2887 2574 1F2003D5 		.p2align 3
 2888              	.L587:
 2889 2578 07000090 		adrp	x7, ClearArea32
 2890 257c E7000091 		add	x7, x7, :lo12:ClearArea32
 2891 2580 06000090 		adrp	x6, VertLine32
 2892 2584 C6000091 		add	x6, x6, :lo12:VertLine32
 2893 2588 05000090 		adrp	x5, HorzLine32
 2894 258c A5000091 		add	x5, x5, :lo12:HorzLine32
 2895 2590 04000090 		adrp	x4, DiagLine32
 2896 2594 84000091 		add	x4, x4, :lo12:DiagLine32
 2897 2598 03000090 		adrp	x3, WriteChar32
 2898 259c 63000091 		add	x3, x3, :lo12:WriteChar32
 2899 25a0 02000090 		adrp	x2, TransparentWriteChar32
 2900 25a4 42000091 		add	x2, x2, :lo12:TransparentWriteChar32
 2901 25a8 00000090 		adrp	x0, PutImage32
 2902 25ac 00000091 		add	x0, x0, :lo12:PutImage32
 2903 25b0 D2FFFF17 		b	.L602
 2904              		.size	PiConsole_Init, .-PiConsole_Init
 2905              		.align	2
 2906 25b4 1F2003D5 		.p2align 4,,15
 2906      1F2003D5 
 2906      1F2003D5 
 2907              		.global	GetConsoleDC
 2908              		.type	GetConsoleDC, %function
 2909              	GetConsoleDC:
 2910 25c0 00000090 		adrp	x0, .LANCHOR0
 2911 25c4 00000091 		add	x0, x0, :lo12:.LANCHOR0
 2912 25c8 00100091 		add	x0, x0, 4
 2913 25cc C0035FD6 		ret
 2914              		.size	GetConsoleDC, .-GetConsoleDC
 2915              		.align	2
 2916              		.p2align 4,,15
 2917              		.global	GetConsole_FrameBuffer
 2918              		.type	GetConsole_FrameBuffer, %function
 2919              	GetConsole_FrameBuffer:
 2920 25d0 00000090 		adrp	x0, .LANCHOR0+4
 2921 25d4 000040B9 		ldr	w0, [x0, #:lo12:.LANCHOR0+4]
 2922 25d8 C0035FD6 		ret
 2923              		.size	GetConsole_FrameBuffer, .-GetConsole_FrameBuffer
 2924              		.align	2
 2925 25dc 1F2003D5 		.p2align 4,,15
 2926              		.global	GetConsole_Width
 2927              		.type	GetConsole_Width, %function
 2928              	GetConsole_Width:
 2929 25e0 00000090 		adrp	x0, .LANCHOR0+12
 2930 25e4 000040B9 		ldr	w0, [x0, #:lo12:.LANCHOR0+12]
 2931 25e8 C0035FD6 		ret
 2932              		.size	GetConsole_Width, .-GetConsole_Width
AARCH64 GAS  C:\Users\ldebo\AppData\Local\Temp\cchOloIf.s 			page 53


 2933              		.align	2
 2934 25ec 1F2003D5 		.p2align 4,,15
 2935              		.global	GetConsole_Height
 2936              		.type	GetConsole_Height, %function
 2937              	GetConsole_Height:
 2938 25f0 00000090 		adrp	x0, .LANCHOR0+16
 2939 25f4 000040B9 		ldr	w0, [x0, #:lo12:.LANCHOR0+16]
 2940 25f8 C0035FD6 		ret
 2941              		.size	GetConsole_Height, .-GetConsole_Height
 2942              		.align	2
 2943 25fc 1F2003D5 		.p2align 4,,15
 2944              		.weak	_sbrk
 2945              		.type	_sbrk, %function
 2946              	_sbrk:
 2947 2600 02000090 		adrp	x2, .LANCHOR0
 2948 2604 42000091 		add	x2, x2, :lo12:.LANCHOR0
 2949 2608 03000090 		adrp	x3, _end
 2950 260c 63000091 		add	x3, x3, :lo12:_end
 2951 2610 413840F9 		ldr	x1, [x2, 112]
 2952 2614 3F0000F1 		cmp	x1, 0
 2953 2618 6100819A 		csel	x1, x3, x1, eq
 2954 261c 23C0208B 		add	x3, x1, x0, sxtw
 2955 2620 E00301AA 		mov	x0, x1
 2956 2624 433800F9 		str	x3, [x2, 112]
 2957 2628 C0035FD6 		ret
 2958              		.size	_sbrk, .-_sbrk
 2959              		.align	2
 2960 262c 1F2003D5 		.p2align 4,,15
 2961              		.weak	_kill
 2962              		.type	_kill, %function
 2963              	_kill:
 2964 2630 01000090 		adrp	x1, errno
 2965 2634 C2028052 		mov	w2, 22
 2966 2638 00008012 		mov	w0, -1
 2967 263c 220000B9 		str	w2, [x1, #:lo12:errno]
 2968 2640 C0035FD6 		ret
 2969              		.size	_kill, .-_kill
 2970              		.align	2
 2971 2644 1F2003D5 		.p2align 4,,15
 2971      1F2003D5 
 2971      1F2003D5 
 2972              		.weak	_getpid
 2973              		.type	_getpid, %function
 2974              	_getpid:
 2975 2650 20008052 		mov	w0, 1
 2976 2654 C0035FD6 		ret
 2977              		.size	_getpid, .-_getpid
 2978              		.align	2
 2979 2658 1F2003D5 		.p2align 4,,15
 2979      1F2003D5 
 2980              		.weak	_read
 2981              		.type	_read, %function
 2982              	_read:
 2983 2660 00008052 		mov	w0, 0
 2984 2664 C0035FD6 		ret
 2985              		.size	_read, .-_read
 2986              		.align	2
AARCH64 GAS  C:\Users\ldebo\AppData\Local\Temp\cchOloIf.s 			page 54


 2987 2668 1F2003D5 		.p2align 4,,15
 2987      1F2003D5 
 2988              		.weak	_close
 2989              		.type	_close, %function
 2990              	_close:
 2991 2670 00008012 		mov	w0, -1
 2992 2674 C0035FD6 		ret
 2993              		.size	_close, .-_close
 2994              		.align	2
 2995 2678 1F2003D5 		.p2align 4,,15
 2995      1F2003D5 
 2996              		.weak	_lseek
 2997              		.type	_lseek, %function
 2998              	_lseek:
 2999 2680 00008052 		mov	w0, 0
 3000 2684 C0035FD6 		ret
 3001              		.size	_lseek, .-_lseek
 3002              		.align	2
 3003 2688 1F2003D5 		.p2align 4,,15
 3003      1F2003D5 
 3004              		.weak	_isatty
 3005              		.type	_isatty, %function
 3006              	_isatty:
 3007 2690 20008052 		mov	w0, 1
 3008 2694 C0035FD6 		ret
 3009              		.size	_isatty, .-_isatty
 3010              		.align	2
 3011 2698 1F2003D5 		.p2align 4,,15
 3011      1F2003D5 
 3012              		.weak	_fstat
 3013              		.type	_fstat, %function
 3014              	_fstat:
 3015 26a0 02008452 		mov	w2, 8192
 3016 26a4 00008052 		mov	w0, 0
 3017 26a8 220400B9 		str	w2, [x1, 4]
 3018 26ac C0035FD6 		ret
 3019              		.size	_fstat, .-_fstat
 3020              		.align	2
 3021              		.p2align 4,,15
 3022              		.weak	_exit
 3023              		.type	_exit, %function
 3024              	_exit:
 3025              		.p2align 3
 3026              	.L622:
 3027 26b0 00000014 		b	.L622
 3028              		.size	_exit, .-_exit
 3029              		.align	2
 3030 26b4 1F2003D5 		.p2align 4,,15
 3030      1F2003D5 
 3030      1F2003D5 
 3031              		.global	_write
 3032              		.type	_write, %function
 3033              	_write:
 3034 26c0 F353BDA9 		stp	x19, x20, [sp, -48]!
 3035 26c4 5F000071 		cmp	w2, 0
 3036 26c8 F77B02A9 		stp	x23, x30, [sp, 32]
 3037 26cc F703022A 		mov	w23, w2
AARCH64 GAS  C:\Users\ldebo\AppData\Local\Temp\cchOloIf.s 			page 55


 3038 26d0 CD040054 		ble	.L624
 3039 26d4 F55B01A9 		stp	x21, x22, [sp, 16]
 3040 26d8 55040051 		sub	w21, w2, #1
 3041 26dc B5060091 		add	x21, x21, 1
 3042 26e0 16000090 		adrp	x22, .LANCHOR0
 3043 26e4 D6020091 		add	x22, x22, :lo12:.LANCHOR0
 3044 26e8 F40301AA 		mov	x20, x1
 3045 26ec 3500158B 		add	x21, x1, x21
 3046 26f0 15000014 		b	.L630
 3047 26f4 1F2003D5 		.p2align 3
 3048              	.L636:
 3049 26f8 D3120091 		add	x19, x22, 4
 3050 26fc E103032A 		mov	w1, w3
 3051 2700 E00313AA 		mov	x0, x19
 3052 2704 7F340071 		cmp	w3, 13
 3053 2708 C0040054 		beq	.L627
 3054 270c 7F240071 		cmp	w3, 9
 3055 2710 40030054 		beq	.L634
 3056 2714 65924329 		ldp	w5, w4, [x19, 28]
 3057 2718 620E4A29 		ldp	w2, w3, [x19, 80]
 3058 271c A5701D53 		lsl	w5, w5, 3
 3059 2720 846C1C53 		lsl	w4, w4, 4
 3060 2724 65920229 		stp	w5, w4, [x19, 20]
 3061 2728 438003AA 		orr	x3, x2, x3, lsl 32
 3062 272c 60003FD6 		blr	x3
 3063 2730 601E40B9 		ldr	w0, [x19, 28]
 3064 2734 00040011 		add	w0, w0, 1
 3065 2738 601E00B9 		str	w0, [x19, 28]
 3066              	.L629:
 3067 273c 9F0215EB 		cmp	x20, x21
 3068 2740 20010054 		beq	.L635
 3069              	.L630:
 3070 2744 83164038 		ldrb	w3, [x20], 1
 3071 2748 7F280071 		cmp	w3, 10
 3072 274c 61FDFF54 		bne	.L636
 3073 2750 C12640B9 		ldr	w1, [x22, 36]
 3074 2754 9F0215EB 		cmp	x20, x21
 3075 2758 21040011 		add	w1, w1, 1
 3076 275c DF060429 		stp	wzr, w1, [x22, 32]
 3077 2760 21FFFF54 		bne	.L630
 3078              	.L635:
 3079 2764 F55B41A9 		ldp	x21, x22, [sp, 16]
 3080              	.L624:
 3081 2768 E003172A 		mov	w0, w23
 3082 276c F77B42A9 		ldp	x23, x30, [sp, 32]
 3083 2770 F353C3A8 		ldp	x19, x20, [sp], 48
 3084 2774 C0035FD6 		ret
 3085              		.p2align 3
 3086              	.L634:
 3087 2778 C02240B9 		ldr	w0, [x22, 32]
 3088 277c 00140011 		add	w0, w0, 5
 3089 2780 E103006B 		negs	w1, w0
 3090 2784 03040012 		and	w3, w0, 3
 3091 2788 21040012 		and	w1, w1, 3
 3092 278c 6144815A 		csneg	w1, w3, w1, mi
 3093 2790 0000014B 		sub	w0, w0, w1
 3094 2794 C02200B9 		str	w0, [x22, 32]
AARCH64 GAS  C:\Users\ldebo\AppData\Local\Temp\cchOloIf.s 			page 56


 3095 2798 E9FFFF17 		b	.L629
 3096 279c 1F2003D5 		.p2align 3
 3097              	.L627:
 3098 27a0 DF2200B9 		str	wzr, [x22, 32]
 3099 27a4 E6FFFF17 		b	.L629
 3100              		.size	_write, .-_write
 3101              		.global	console
 3102              		.global	BitFontEnd
 3103              		.section	.rodata
 3104              		.align	2
 3105              		.type	BitFont, %object
 3106              		.size	BitFont, 4096
 3107              	BitFont:
 3108 0000 00000000 		.word	0
 3109 0004 00000000 		.word	0
 3110 0008 00000000 		.word	0
 3111 000c 00000000 		.word	0
 3112 0010 817E0000 		.word	32385
 3113 0014 BD8181A5 		.word	-1518239299
 3114 0018 7E818199 		.word	-1719565954
 3115 001c 00000000 		.word	0
 3116 0020 FF7E0000 		.word	32511
 3117 0024 C3FFFFDB 		.word	-603979837
 3118 0028 7EFFFFE7 		.word	-402653314
 3119 002c 00000000 		.word	0
 3120 0030 00000000 		.word	0
 3121 0034 FEFEFE6C 		.word	1828650750
 3122 0038 10387CFE 		.word	-25413616
 3123 003c 00000000 		.word	0
 3124 0040 00000000 		.word	0
 3125 0044 FE7C3810 		.word	272137470
 3126 0048 0010387C 		.word	2084048896
 3127 004c 00000000 		.word	0
 3128 0050 18000000 		.word	24
 3129 0054 E7E73C3C 		.word	1010624487
 3130 0058 3C1818E7 		.word	-417851332
 3131 005c 00000000 		.word	0
 3132 0060 18000000 		.word	24
 3133 0064 FFFF7E3C 		.word	1014956031
 3134 0068 3C18187E 		.word	2115508284
 3135 006c 00000000 		.word	0
 3136 0070 00000000 		.word	0
 3137 0074 3C180000 		.word	6204
 3138 0078 0000183C 		.word	1008205824
 3139 007c 00000000 		.word	0
 3140 0080 FFFFFFFF 		.word	-1
 3141 0084 C3E7FFFF 		.word	-6205
 3142 0088 FFFFE7C3 		.word	-1008205825
 3143 008c FFFFFFFF 		.word	-1
 3144 0090 00000000 		.word	0
 3145 0094 42663C00 		.word	3958338
 3146 0098 003C6642 		.word	1113996288
 3147 009c 00000000 		.word	0
 3148 00a0 FFFFFFFF 		.word	-1
 3149 00a4 BD99C3FF 		.word	-3958339
 3150 00a8 FFC399BD 		.word	-1113996289
 3151 00ac FFFFFFFF 		.word	-1
AARCH64 GAS  C:\Users\ldebo\AppData\Local\Temp\cchOloIf.s 			page 57


 3152 00b0 0E1E0000 		.word	7694
 3153 00b4 CC78321A 		.word	439515340
 3154 00b8 78CCCCCC 		.word	-858993544
 3155 00bc 00000000 		.word	0
 3156 00c0 663C0000 		.word	15462
 3157 00c4 3C666666 		.word	1717986876
 3158 00c8 18187E18 		.word	410916888
 3159 00cc 00000000 		.word	0
 3160 00d0 333F0000 		.word	16179
 3161 00d4 3030303F 		.word	1060122672
 3162 00d8 E0F07030 		.word	812708064
 3163 00dc 00000000 		.word	0
 3164 00e0 637F0000 		.word	32611
 3165 00e4 6363637F 		.word	2137219939
 3166 00e8 E6E76763 		.word	1667753958
 3167 00ec 000000C0 		.word	-1073741824
 3168 00f0 18000000 		.word	24
 3169 00f4 E73CDB18 		.word	417021159
 3170 00f8 1818DB3C 		.word	1020991512
 3171 00fc 00000000 		.word	0
 3172 0100 E0C08000 		.word	8437984
 3173 0104 F8FEF8F0 		.word	-252117256
 3174 0108 80C0E0F0 		.word	-253706112
 3175 010c 00000000 		.word	0
 3176 0110 0E060200 		.word	132622
 3177 0114 3EFE3E1E 		.word	507444798
 3178 0118 02060E1E 		.word	504235522
 3179 011c 00000000 		.word	0
 3180 0120 3C180000 		.word	6204
 3181 0124 1818187E 		.word	2115508248
 3182 0128 00183C7E 		.word	2117867520
 3183 012c 00000000 		.word	0
 3184 0130 66660000 		.word	26214
 3185 0134 66666666 		.word	1717986918
 3186 0138 66660066 		.word	1711302246
 3187 013c 00000000 		.word	0
 3188 0140 DB7F0000 		.word	32731
 3189 0144 1B7BDBDB 		.word	-606373093
 3190 0148 1B1B1B1B 		.word	454761243
 3191 014c 00000000 		.word	0
 3192 0150 60C67C00 		.word	8177248
 3193 0154 C6C66C38 		.word	946652870
 3194 0158 C60C386C 		.word	1815612614
 3195 015c 0000007C 		.word	2080374784
 3196 0160 00000000 		.word	0
 3197 0164 00000000 		.word	0
 3198 0168 FEFEFEFE 		.word	-16843010
 3199 016c 00000000 		.word	0
 3200 0170 3C180000 		.word	6204
 3201 0174 1818187E 		.word	2115508248
 3202 0178 7E183C7E 		.word	2117867646
 3203 017c 00000000 		.word	0
 3204 0180 3C180000 		.word	6204
 3205 0184 1818187E 		.word	2115508248
 3206 0188 18181818 		.word	404232216
 3207 018c 00000000 		.word	0
 3208 0190 18180000 		.word	6168
AARCH64 GAS  C:\Users\ldebo\AppData\Local\Temp\cchOloIf.s 			page 58


 3209 0194 18181818 		.word	404232216
 3210 0198 183C7E18 		.word	410926104
 3211 019c 00000000 		.word	0
 3212 01a0 00000000 		.word	0
 3213 01a4 FE0C1800 		.word	1576190
 3214 01a8 0000180C 		.word	202899456
 3215 01ac 00000000 		.word	0
 3216 01b0 00000000 		.word	0
 3217 01b4 FE603000 		.word	3170558
 3218 01b8 00003060 		.word	1613758464
 3219 01bc 00000000 		.word	0
 3220 01c0 00000000 		.word	0
 3221 01c4 C0C00000 		.word	49344
 3222 01c8 0000FEC0 		.word	-1057095680
 3223 01cc 00000000 		.word	0
 3224 01d0 00000000 		.word	0
 3225 01d4 FE6C2800 		.word	2649342
 3226 01d8 0000286C 		.word	1814560768
 3227 01dc 00000000 		.word	0
 3228 01e0 00000000 		.word	0
 3229 01e4 7C383810 		.word	272119932
 3230 01e8 00FEFE7C 		.word	2097085952
 3231 01ec 00000000 		.word	0
 3232 01f0 00000000 		.word	0
 3233 01f4 7C7CFEFE 		.word	-16876420
 3234 01f8 00103838 		.word	943198208
 3235 01fc 00000000 		.word	0
 3236 0200 00000000 		.word	0
 3237 0204 00000000 		.word	0
 3238 0208 00000000 		.word	0
 3239 020c 00000000 		.word	0
 3240 0210 3C180000 		.word	6204
 3241 0214 18183C3C 		.word	1010571288
 3242 0218 18180018 		.word	402659352
 3243 021c 00000000 		.word	0
 3244 0220 66666600 		.word	6710886
 3245 0224 00000024 		.word	603979776
 3246 0228 00000000 		.word	0
 3247 022c 00000000 		.word	0
 3248 0230 6C000000 		.word	108
 3249 0234 6C6CFE6C 		.word	1828613228
 3250 0238 6C6CFE6C 		.word	1828613228
 3251 023c 00000000 		.word	0
 3252 0240 C67C1818 		.word	404257990
 3253 0244 067CC0C2 		.word	-1027572730
 3254 0248 7CC68606 		.word	109495932
 3255 024c 00001818 		.word	404226048
 3256 0250 00000000 		.word	0
 3257 0254 180CC6C2 		.word	-1027208168
 3258 0258 86C66030 		.word	811648646
 3259 025c 00000000 		.word	0
 3260 0260 6C380000 		.word	14444
 3261 0264 DC76386C 		.word	1815639772
 3262 0268 76CCCCCC 		.word	-858993546
 3263 026c 00000000 		.word	0
 3264 0270 30303000 		.word	3158064
 3265 0274 00000060 		.word	1610612736
AARCH64 GAS  C:\Users\ldebo\AppData\Local\Temp\cchOloIf.s 			page 59


 3266 0278 00000000 		.word	0
 3267 027c 00000000 		.word	0
 3268 0280 180C0000 		.word	3096
 3269 0284 30303030 		.word	808464432
 3270 0288 0C183030 		.word	808458252
 3271 028c 00000000 		.word	0
 3272 0290 18300000 		.word	12312
 3273 0294 0C0C0C0C 		.word	202116108
 3274 0298 30180C0C 		.word	202119216
 3275 029c 00000000 		.word	0
 3276 02a0 00000000 		.word	0
 3277 02a4 FF3C6600 		.word	6700287
 3278 02a8 0000663C 		.word	1013317632
 3279 02ac 00000000 		.word	0
 3280 02b0 00000000 		.word	0
 3281 02b4 7E181800 		.word	1579134
 3282 02b8 00001818 		.word	404226048
 3283 02bc 00000000 		.word	0
 3284 02c0 00000000 		.word	0
 3285 02c4 00000000 		.word	0
 3286 02c8 18181800 		.word	1579032
 3287 02cc 00000030 		.word	805306368
 3288 02d0 00000000 		.word	0
 3289 02d4 FE000000 		.word	254
 3290 02d8 00000000 		.word	0
 3291 02dc 00000000 		.word	0
 3292 02e0 00000000 		.word	0
 3293 02e4 00000000 		.word	0
 3294 02e8 18180000 		.word	6168
 3295 02ec 00000000 		.word	0
 3296 02f0 00000000 		.word	0
 3297 02f4 180C0602 		.word	33950744
 3298 02f8 80C06030 		.word	811647104
 3299 02fc 00000000 		.word	0
 3300 0300 6C380000 		.word	14444
 3301 0304 D6D6C6C6 		.word	-960047402
 3302 0308 386CC6C6 		.word	-960074696
 3303 030c 00000000 		.word	0
 3304 0310 38180000 		.word	6200
 3305 0314 18181878 		.word	2014844952
 3306 0318 7E181818 		.word	404232318
 3307 031c 00000000 		.word	0
 3308 0320 C67C0000 		.word	31942
 3309 0324 30180C06 		.word	101455920
 3310 0328 FEC6C060 		.word	1623246590
 3311 032c 00000000 		.word	0
 3312 0330 C67C0000 		.word	31942
 3313 0334 063C0606 		.word	101071878
 3314 0338 7CC60606 		.word	101107324
 3315 033c 00000000 		.word	0
 3316 0340 1C0C0000 		.word	3100
 3317 0344 FECC6C3C 		.word	1013763326
 3318 0348 1E0C0C0C 		.word	202116126
 3319 034c 00000000 		.word	0
 3320 0350 C0FE0000 		.word	65216
 3321 0354 06FCC0C0 		.word	-1061094394
 3322 0358 7CC60606 		.word	101107324
AARCH64 GAS  C:\Users\ldebo\AppData\Local\Temp\cchOloIf.s 			page 60


 3323 035c 00000000 		.word	0
 3324 0360 60380000 		.word	14432
 3325 0364 C6FCC0C0 		.word	-1061094202
 3326 0368 7CC6C6C6 		.word	-960051588
 3327 036c 00000000 		.word	0
 3328 0370 C6FE0000 		.word	65222
 3329 0374 180C0606 		.word	101059608
 3330 0378 30303030 		.word	808464432
 3331 037c 00000000 		.word	0
 3332 0380 C67C0000 		.word	31942
 3333 0384 C67CC6C6 		.word	-960070458
 3334 0388 7CC6C6C6 		.word	-960051588
 3335 038c 00000000 		.word	0
 3336 0390 C67C0000 		.word	31942
 3337 0394 067EC6C6 		.word	-960070138
 3338 0398 780C0606 		.word	101059704
 3339 039c 00000000 		.word	0
 3340 03a0 00000000 		.word	0
 3341 03a4 00001818 		.word	404226048
 3342 03a8 00181800 		.word	1579008
 3343 03ac 00000000 		.word	0
 3344 03b0 00000000 		.word	0
 3345 03b4 00001818 		.word	404226048
 3346 03b8 30181800 		.word	1579056
 3347 03bc 00000000 		.word	0
 3348 03c0 06000000 		.word	6
 3349 03c4 6030180C 		.word	202911840
 3350 03c8 060C1830 		.word	806882310
 3351 03cc 00000000 		.word	0
 3352 03d0 00000000 		.word	0
 3353 03d4 00007E00 		.word	8257536
 3354 03d8 0000007E 		.word	2113929216
 3355 03dc 00000000 		.word	0
 3356 03e0 60000000 		.word	96
 3357 03e4 060C1830 		.word	806882310
 3358 03e8 6030180C 		.word	202911840
 3359 03ec 00000000 		.word	0
 3360 03f0 C67C0000 		.word	31942
 3361 03f4 18180CC6 		.word	-972285928
 3362 03f8 18180018 		.word	402659352
 3363 03fc 00000000 		.word	0
 3364 0400 7C000000 		.word	124
 3365 0404 DEDEC6C6 		.word	-960045346
 3366 0408 7CC0DCDE 		.word	-555958148
 3367 040c 00000000 		.word	0
 3368 0410 38100000 		.word	4152
 3369 0414 FEC6C66C 		.word	1824966398
 3370 0418 C6C6C6C6 		.word	-960051514
 3371 041c 00000000 		.word	0
 3372 0420 66FC0000 		.word	64614
 3373 0424 667C6666 		.word	1717992550
 3374 0428 FC666666 		.word	1717987068
 3375 042c 00000000 		.word	0
 3376 0430 663C0000 		.word	15462
 3377 0434 C0C0C0C2 		.word	-1027555136
 3378 0438 3C66C2C0 		.word	-1061001668
 3379 043c 00000000 		.word	0
AARCH64 GAS  C:\Users\ldebo\AppData\Local\Temp\cchOloIf.s 			page 61


 3380 0440 6CF80000 		.word	63596
 3381 0444 66666666 		.word	1717986918
 3382 0448 F86C6666 		.word	1717988600
 3383 044c 00000000 		.word	0
 3384 0450 66FE0000 		.word	65126
 3385 0454 68786862 		.word	1651013736
 3386 0458 FE666260 		.word	1617061630
 3387 045c 00000000 		.word	0
 3388 0460 66FE0000 		.word	65126
 3389 0464 68786862 		.word	1651013736
 3390 0468 F0606060 		.word	1616929008
 3391 046c 00000000 		.word	0
 3392 0470 663C0000 		.word	15462
 3393 0474 DEC0C0C2 		.word	-1027555106
 3394 0478 3A66C6C6 		.word	-960076230
 3395 047c 00000000 		.word	0
 3396 0480 C6C60000 		.word	50886
 3397 0484 C6FEC6C6 		.word	-960037178
 3398 0488 C6C6C6C6 		.word	-960051514
 3399 048c 00000000 		.word	0
 3400 0490 183C0000 		.word	15384
 3401 0494 18181818 		.word	404232216
 3402 0498 3C181818 		.word	404232252
 3403 049c 00000000 		.word	0
 3404 04a0 0C1E0000 		.word	7692
 3405 04a4 0C0C0C0C 		.word	202116108
 3406 04a8 78CCCCCC 		.word	-858993544
 3407 04ac 00000000 		.word	0
 3408 04b0 66E60000 		.word	58982
 3409 04b4 78786C66 		.word	1718384760
 3410 04b8 E666666C 		.word	1818650342
 3411 04bc 00000000 		.word	0
 3412 04c0 60F00000 		.word	61536
 3413 04c4 60606060 		.word	1616928864
 3414 04c8 FE666260 		.word	1617061630
 3415 04cc 00000000 		.word	0
 3416 04d0 EEC60000 		.word	50926
 3417 04d4 C6D6FEFE 		.word	-16853306
 3418 04d8 C6C6C6C6 		.word	-960051514
 3419 04dc 00000000 		.word	0
 3420 04e0 E6C60000 		.word	50918
 3421 04e4 CEDEFEF6 		.word	-151068978
 3422 04e8 C6C6C6C6 		.word	-960051514
 3423 04ec 00000000 		.word	0
 3424 04f0 C67C0000 		.word	31942
 3425 04f4 C6C6C6C6 		.word	-960051514
 3426 04f8 7CC6C6C6 		.word	-960051588
 3427 04fc 00000000 		.word	0
 3428 0500 66FC0000 		.word	64614
 3429 0504 607C6666 		.word	1717992544
 3430 0508 F0606060 		.word	1616929008
 3431 050c 00000000 		.word	0
 3432 0510 C67C0000 		.word	31942
 3433 0514 C6C6C6C6 		.word	-960051514
 3434 0518 7CDED6C6 		.word	-958996868
 3435 051c 00000E0C 		.word	202244096
 3436 0520 66FC0000 		.word	64614
AARCH64 GAS  C:\Users\ldebo\AppData\Local\Temp\cchOloIf.s 			page 62


 3437 0524 6C7C6666 		.word	1717992556
 3438 0528 E6666666 		.word	1717987046
 3439 052c 00000000 		.word	0
 3440 0530 C67C0000 		.word	31942
 3441 0534 0C3860C6 		.word	-966772724
 3442 0538 7CC6C606 		.word	113690236
 3443 053c 00000000 		.word	0
 3444 0540 7E7E0000 		.word	32382
 3445 0544 1818185A 		.word	1511528472
 3446 0548 3C181818 		.word	404232252
 3447 054c 00000000 		.word	0
 3448 0550 C6C60000 		.word	50886
 3449 0554 C6C6C6C6 		.word	-960051514
 3450 0558 7CC6C6C6 		.word	-960051588
 3451 055c 00000000 		.word	0
 3452 0560 C6C60000 		.word	50886
 3453 0564 C6C6C6C6 		.word	-960051514
 3454 0568 10386CC6 		.word	-965986288
 3455 056c 00000000 		.word	0
 3456 0570 C6C60000 		.word	50886
 3457 0574 D6D6C6C6 		.word	-960047402
 3458 0578 6CEEFED6 		.word	-687935892
 3459 057c 00000000 		.word	0
 3460 0580 C6C60000 		.word	50886
 3461 0584 38387C6C 		.word	1820080184
 3462 0588 C6C66C7C 		.word	2087503558
 3463 058c 00000000 		.word	0
 3464 0590 66660000 		.word	26214
 3465 0594 183C6666 		.word	1717976088
 3466 0598 3C181818 		.word	404232252
 3467 059c 00000000 		.word	0
 3468 05a0 C6FE0000 		.word	65222
 3469 05a4 30180C86 		.word	-2046027728
 3470 05a8 FEC6C260 		.word	1623377662
 3471 05ac 00000000 		.word	0
 3472 05b0 303C0000 		.word	15408
 3473 05b4 30303030 		.word	808464432
 3474 05b8 3C303030 		.word	808464444
 3475 05bc 00000000 		.word	0
 3476 05c0 80000000 		.word	128
 3477 05c4 3870E0C0 		.word	-1059033032
 3478 05c8 02060E1C 		.word	470681090
 3479 05cc 00000000 		.word	0
 3480 05d0 0C3C0000 		.word	15372
 3481 05d4 0C0C0C0C 		.word	202116108
 3482 05d8 3C0C0C0C 		.word	202116156
 3483 05dc 00000000 		.word	0
 3484 05e0 C66C3810 		.word	272133318
 3485 05e4 00000000 		.word	0
 3486 05e8 00000000 		.word	0
 3487 05ec 00000000 		.word	0
 3488 05f0 00000000 		.word	0
 3489 05f4 00000000 		.word	0
 3490 05f8 00000000 		.word	0
 3491 05fc 0000FF00 		.word	16711680
 3492 0600 00183030 		.word	808458240
 3493 0604 00000000 		.word	0
AARCH64 GAS  C:\Users\ldebo\AppData\Local\Temp\cchOloIf.s 			page 63


 3494 0608 00000000 		.word	0
 3495 060c 00000000 		.word	0
 3496 0610 00000000 		.word	0
 3497 0614 7C0C7800 		.word	7867516
 3498 0618 76CCCCCC 		.word	-858993546
 3499 061c 00000000 		.word	0
 3500 0620 60E00000 		.word	57440
 3501 0624 666C7860 		.word	1618504806
 3502 0628 7C666666 		.word	1717986940
 3503 062c 00000000 		.word	0
 3504 0630 00000000 		.word	0
 3505 0634 C0C67C00 		.word	8177344
 3506 0638 7CC6C0C0 		.word	-1061108100
 3507 063c 00000000 		.word	0
 3508 0640 0C1C0000 		.word	7180
 3509 0644 CC6C3C0C 		.word	205286604
 3510 0648 76CCCCCC 		.word	-858993546
 3511 064c 00000000 		.word	0
 3512 0650 00000000 		.word	0
 3513 0654 FEC67C00 		.word	8177406
 3514 0658 7CC6C0C0 		.word	-1061108100
 3515 065c 00000000 		.word	0
 3516 0660 6C380000 		.word	14444
 3517 0664 60F06064 		.word	1684074592
 3518 0668 F0606060 		.word	1616929008
 3519 066c 00000000 		.word	0
 3520 0670 00000000 		.word	0
 3521 0674 CCCC7600 		.word	7785676
 3522 0678 7CCCCCCC 		.word	-858993540
 3523 067c 0078CC0C 		.word	214726656
 3524 0680 60E00000 		.word	57440
 3525 0684 66766C60 		.word	1617720934
 3526 0688 E6666666 		.word	1717987046
 3527 068c 00000000 		.word	0
 3528 0690 18180000 		.word	6168
 3529 0694 18183800 		.word	3676184
 3530 0698 3C181818 		.word	404232252
 3531 069c 00000000 		.word	0
 3532 06a0 06060000 		.word	1542
 3533 06a4 06060E00 		.word	919046
 3534 06a8 06060606 		.word	101058054
 3535 06ac 003C6666 		.word	1717976064
 3536 06b0 60E00000 		.word	57440
 3537 06b4 786C6660 		.word	1617325176
 3538 06b8 E6666C78 		.word	2020370150
 3539 06bc 00000000 		.word	0
 3540 06c0 18380000 		.word	14360
 3541 06c4 18181818 		.word	404232216
 3542 06c8 3C181818 		.word	404232252
 3543 06cc 00000000 		.word	0
 3544 06d0 00000000 		.word	0
 3545 06d4 D6FEEC00 		.word	15531734
 3546 06d8 C6D6D6D6 		.word	-690563386
 3547 06dc 00000000 		.word	0
 3548 06e0 00000000 		.word	0
 3549 06e4 6666DC00 		.word	14444134
 3550 06e8 66666666 		.word	1717986918
AARCH64 GAS  C:\Users\ldebo\AppData\Local\Temp\cchOloIf.s 			page 64


 3551 06ec 00000000 		.word	0
 3552 06f0 00000000 		.word	0
 3553 06f4 C6C67C00 		.word	8177350
 3554 06f8 7CC6C6C6 		.word	-960051588
 3555 06fc 00000000 		.word	0
 3556 0700 00000000 		.word	0
 3557 0704 6666DC00 		.word	14444134
 3558 0708 7C666666 		.word	1717986940
 3559 070c 00F06060 		.word	1616965632
 3560 0710 00000000 		.word	0
 3561 0714 CCCC7600 		.word	7785676
 3562 0718 7CCCCCCC 		.word	-858993540
 3563 071c 001E0C0C 		.word	202120704
 3564 0720 00000000 		.word	0
 3565 0724 6676DC00 		.word	14448230
 3566 0728 F0606060 		.word	1616929008
 3567 072c 00000000 		.word	0
 3568 0730 00000000 		.word	0
 3569 0734 60C67C00 		.word	8177248
 3570 0738 7CC60C38 		.word	940361340
 3571 073c 00000000 		.word	0
 3572 0740 30100000 		.word	4144
 3573 0744 3030FC30 		.word	821833776
 3574 0748 1C363030 		.word	808465948
 3575 074c 00000000 		.word	0
 3576 0750 00000000 		.word	0
 3577 0754 CCCCCC00 		.word	13421772
 3578 0758 76CCCCCC 		.word	-858993546
 3579 075c 00000000 		.word	0
 3580 0760 00000000 		.word	0
 3581 0764 66666600 		.word	6710886
 3582 0768 183C6666 		.word	1717976088
 3583 076c 00000000 		.word	0
 3584 0770 00000000 		.word	0
 3585 0774 D6C6C600 		.word	13027030
 3586 0778 6CFED6D6 		.word	-690553236
 3587 077c 00000000 		.word	0
 3588 0780 00000000 		.word	0
 3589 0784 386CC600 		.word	13003832
 3590 0788 C66C3838 		.word	943221958
 3591 078c 00000000 		.word	0
 3592 0790 00000000 		.word	0
 3593 0794 C6C6C600 		.word	13027014
 3594 0798 7EC6C6C6 		.word	-960051586
 3595 079c 00F80C06 		.word	101513216
 3596 07a0 00000000 		.word	0
 3597 07a4 18CCFE00 		.word	16698392
 3598 07a8 FEC66030 		.word	811648766
 3599 07ac 00000000 		.word	0
 3600 07b0 180E0000 		.word	3608
 3601 07b4 18701818 		.word	404254744
 3602 07b8 0E181818 		.word	404232206
 3603 07bc 00000000 		.word	0
 3604 07c0 18180000 		.word	6168
 3605 07c4 18001818 		.word	404226072
 3606 07c8 18181818 		.word	404232216
 3607 07cc 00000000 		.word	0
AARCH64 GAS  C:\Users\ldebo\AppData\Local\Temp\cchOloIf.s 			page 65


 3608 07d0 18700000 		.word	28696
 3609 07d4 180E1818 		.word	404229656
 3610 07d8 70181818 		.word	404232304
 3611 07dc 00000000 		.word	0
 3612 07e0 DC760000 		.word	30428
 3613 07e4 00000000 		.word	0
 3614 07e8 00000000 		.word	0
 3615 07ec 00000000 		.word	0
 3616 07f0 00000000 		.word	0
 3617 07f4 C66C3810 		.word	272133318
 3618 07f8 00FEC6C6 		.word	-960037376
 3619 07fc 00000000 		.word	0
 3620 0800 663C0000 		.word	15462
 3621 0804 C0C0C0C2 		.word	-1027555136
 3622 0808 0C3C66C2 		.word	-1033487348
 3623 080c 00007C06 		.word	108789760
 3624 0810 00CC0000 		.word	52224
 3625 0814 CCCCCC00 		.word	13421772
 3626 0818 76CCCCCC 		.word	-858993546
 3627 081c 00000000 		.word	0
 3628 0820 30180C00 		.word	792624
 3629 0824 FEC67C00 		.word	8177406
 3630 0828 7CC6C0C0 		.word	-1061108100
 3631 082c 00000000 		.word	0
 3632 0830 6C381000 		.word	1063020
 3633 0834 7C0C7800 		.word	7867516
 3634 0838 76CCCCCC 		.word	-858993546
 3635 083c 00000000 		.word	0
 3636 0840 00CC0000 		.word	52224
 3637 0844 7C0C7800 		.word	7867516
 3638 0848 76CCCCCC 		.word	-858993546
 3639 084c 00000000 		.word	0
 3640 0850 18306000 		.word	6303768
 3641 0854 7C0C7800 		.word	7867516
 3642 0858 76CCCCCC 		.word	-858993546
 3643 085c 00000000 		.word	0
 3644 0860 386C3800 		.word	3697720
 3645 0864 7C0C7800 		.word	7867516
 3646 0868 76CCCCCC 		.word	-858993546
 3647 086c 00000000 		.word	0
 3648 0870 00000000 		.word	0
 3649 0874 6060663C 		.word	1013342304
 3650 0878 060C3C66 		.word	1715211270
 3651 087c 0000003C 		.word	1006632960
 3652 0880 6C381000 		.word	1063020
 3653 0884 FEC67C00 		.word	8177406
 3654 0888 7CC6C0C0 		.word	-1061108100
 3655 088c 00000000 		.word	0
 3656 0890 00C60000 		.word	50688
 3657 0894 FEC67C00 		.word	8177406
 3658 0898 7CC6C0C0 		.word	-1061108100
 3659 089c 00000000 		.word	0
 3660 08a0 18306000 		.word	6303768
 3661 08a4 FEC67C00 		.word	8177406
 3662 08a8 7CC6C0C0 		.word	-1061108100
 3663 08ac 00000000 		.word	0
 3664 08b0 00660000 		.word	26112
AARCH64 GAS  C:\Users\ldebo\AppData\Local\Temp\cchOloIf.s 			page 66


 3665 08b4 18183800 		.word	3676184
 3666 08b8 3C181818 		.word	404232252
 3667 08bc 00000000 		.word	0
 3668 08c0 663C1800 		.word	1588326
 3669 08c4 18183800 		.word	3676184
 3670 08c8 3C181818 		.word	404232252
 3671 08cc 00000000 		.word	0
 3672 08d0 18306000 		.word	6303768
 3673 08d4 18183800 		.word	3676184
 3674 08d8 3C181818 		.word	404232252
 3675 08dc 00000000 		.word	0
 3676 08e0 1000C600 		.word	12976144
 3677 08e4 C6C66C38 		.word	946652870
 3678 08e8 C6C6C6FE 		.word	-20527418
 3679 08ec 00000000 		.word	0
 3680 08f0 00386C38 		.word	946616320
 3681 08f4 C6C66C38 		.word	946652870
 3682 08f8 C6C6C6FE 		.word	-20527418
 3683 08fc 00000000 		.word	0
 3684 0900 00603018 		.word	405823488
 3685 0904 7C6066FE 		.word	-26845060
 3686 0908 FE666060 		.word	1616930558
 3687 090c 00000000 		.word	0
 3688 0910 00000000 		.word	0
 3689 0914 3676CC00 		.word	13399606
 3690 0918 6ED8D87E 		.word	2128140398
 3691 091c 00000000 		.word	0
 3692 0920 6C3E0000 		.word	15980
 3693 0924 CCFECCCC 		.word	-858980660
 3694 0928 CECCCCCC 		.word	-858993458
 3695 092c 00000000 		.word	0
 3696 0930 6C381000 		.word	1063020
 3697 0934 C6C67C00 		.word	8177350
 3698 0938 7CC6C6C6 		.word	-960051588
 3699 093c 00000000 		.word	0
 3700 0940 00C60000 		.word	50688
 3701 0944 C6C67C00 		.word	8177350
 3702 0948 7CC6C6C6 		.word	-960051588
 3703 094c 00000000 		.word	0
 3704 0950 18306000 		.word	6303768
 3705 0954 C6C67C00 		.word	8177350
 3706 0958 7CC6C6C6 		.word	-960051588
 3707 095c 00000000 		.word	0
 3708 0960 CC783000 		.word	3176652
 3709 0964 CCCCCC00 		.word	13421772
 3710 0968 76CCCCCC 		.word	-858993546
 3711 096c 00000000 		.word	0
 3712 0970 18306000 		.word	6303768
 3713 0974 CCCCCC00 		.word	13421772
 3714 0978 76CCCCCC 		.word	-858993546
 3715 097c 00000000 		.word	0
 3716 0980 00C60000 		.word	50688
 3717 0984 C6C6C600 		.word	13027014
 3718 0988 7EC6C6C6 		.word	-960051586
 3719 098c 00780C06 		.word	101480448
 3720 0990 7C00C600 		.word	12976252
 3721 0994 C6C6C6C6 		.word	-960051514
AARCH64 GAS  C:\Users\ldebo\AppData\Local\Temp\cchOloIf.s 			page 67


 3722 0998 7CC6C6C6 		.word	-960051588
 3723 099c 00000000 		.word	0
 3724 09a0 C600C600 		.word	12976326
 3725 09a4 C6C6C6C6 		.word	-960051514
 3726 09a8 7CC6C6C6 		.word	-960051588
 3727 09ac 00000000 		.word	0
 3728 09b0 3C181800 		.word	1579068
 3729 09b4 60606066 		.word	1717592160
 3730 09b8 18183C66 		.word	1715214360
 3731 09bc 00000000 		.word	0
 3732 09c0 646C3800 		.word	3697764
 3733 09c4 6060F060 		.word	1626366048
 3734 09c8 FCE66060 		.word	1616963324
 3735 09cc 00000000 		.word	0
 3736 09d0 66660000 		.word	26214
 3737 09d4 187E183C 		.word	1008238104
 3738 09d8 1818187E 		.word	2115508248
 3739 09dc 00000000 		.word	0
 3740 09e0 CCCCF800 		.word	16305356
 3741 09e4 DECCC4F8 		.word	-121320226
 3742 09e8 C6CCCCCC 		.word	-858993466
 3743 09ec 00000000 		.word	0
 3744 09f0 181B0E00 		.word	924440
 3745 09f4 187E1818 		.word	404258328
 3746 09f8 18181818 		.word	404232216
 3747 09fc 000070D8 		.word	-663748608
 3748 0a00 60301800 		.word	1585248
 3749 0a04 7C0C7800 		.word	7867516
 3750 0a08 76CCCCCC 		.word	-858993546
 3751 0a0c 00000000 		.word	0
 3752 0a10 30180C00 		.word	792624
 3753 0a14 18183800 		.word	3676184
 3754 0a18 3C181818 		.word	404232252
 3755 0a1c 00000000 		.word	0
 3756 0a20 60301800 		.word	1585248
 3757 0a24 C6C67C00 		.word	8177350
 3758 0a28 7CC6C6C6 		.word	-960051588
 3759 0a2c 00000000 		.word	0
 3760 0a30 60301800 		.word	1585248
 3761 0a34 CCCCCC00 		.word	13421772
 3762 0a38 76CCCCCC 		.word	-858993546
 3763 0a3c 00000000 		.word	0
 3764 0a40 DC760000 		.word	30428
 3765 0a44 6666DC00 		.word	14444134
 3766 0a48 66666666 		.word	1717986918
 3767 0a4c 00000000 		.word	0
 3768 0a50 C600DC76 		.word	1994129606
 3769 0a54 DEFEF6E6 		.word	-420020514
 3770 0a58 C6C6C6CE 		.word	-825833786
 3771 0a5c 00000000 		.word	0
 3772 0a60 6C6C3C00 		.word	3959916
 3773 0a64 007E003E 		.word	1040219648
 3774 0a68 00000000 		.word	0
 3775 0a6c 00000000 		.word	0
 3776 0a70 6C6C3800 		.word	3697772
 3777 0a74 007C0038 		.word	939555840
 3778 0a78 00000000 		.word	0
AARCH64 GAS  C:\Users\ldebo\AppData\Local\Temp\cchOloIf.s 			page 68


 3779 0a7c 00000000 		.word	0
 3780 0a80 30300000 		.word	12336
 3781 0a84 60303000 		.word	3158112
 3782 0a88 7CC6C6C0 		.word	-1060714884
 3783 0a8c 00000000 		.word	0
 3784 0a90 00000000 		.word	0
 3785 0a94 C0FE0000 		.word	65216
 3786 0a98 00C0C0C0 		.word	-1061109760
 3787 0a9c 00000000 		.word	0
 3788 0aa0 00000000 		.word	0
 3789 0aa4 06FE0000 		.word	65030
 3790 0aa8 00060606 		.word	101058048
 3791 0aac 00000000 		.word	0
 3792 0ab0 C2C0C000 		.word	12632258
 3793 0ab4 3018CCC6 		.word	-959702992
 3794 0ab8 0C86DC60 		.word	1625064972
 3795 0abc 00003E18 		.word	406716416
 3796 0ac0 C2C0C000 		.word	12632258
 3797 0ac4 3018CCC6 		.word	-959702992
 3798 0ac8 3E9ECE66 		.word	1724816958
 3799 0acc 00000606 		.word	101056512
 3800 0ad0 18180000 		.word	6168
 3801 0ad4 18181800 		.word	1579032
 3802 0ad8 183C3C3C 		.word	1010580504
 3803 0adc 00000000 		.word	0
 3804 0ae0 00000000 		.word	0
 3805 0ae4 D86C3600 		.word	3566808
 3806 0ae8 0000366C 		.word	1815478272
 3807 0aec 00000000 		.word	0
 3808 0af0 00000000 		.word	0
 3809 0af4 366CD800 		.word	14183478
 3810 0af8 0000D86C 		.word	1826095104
 3811 0afc 00000000 		.word	0
 3812 0b00 44114411 		.word	289673540
 3813 0b04 44114411 		.word	289673540
 3814 0b08 44114411 		.word	289673540
 3815 0b0c 44114411 		.word	289673540
 3816 0b10 AA55AA55 		.word	1437226410
 3817 0b14 AA55AA55 		.word	1437226410
 3818 0b18 AA55AA55 		.word	1437226410
 3819 0b1c AA55AA55 		.word	1437226410
 3820 0b20 77DD77DD 		.word	-579347081
 3821 0b24 77DD77DD 		.word	-579347081
 3822 0b28 77DD77DD 		.word	-579347081
 3823 0b2c 77DD77DD 		.word	-579347081
 3824 0b30 18181818 		.word	404232216
 3825 0b34 18181818 		.word	404232216
 3826 0b38 18181818 		.word	404232216
 3827 0b3c 18181818 		.word	404232216
 3828 0b40 18181818 		.word	404232216
 3829 0b44 F8181818 		.word	404232440
 3830 0b48 18181818 		.word	404232216
 3831 0b4c 18181818 		.word	404232216
 3832 0b50 18181818 		.word	404232216
 3833 0b54 F818F818 		.word	418912504
 3834 0b58 18181818 		.word	404232216
 3835 0b5c 18181818 		.word	404232216
AARCH64 GAS  C:\Users\ldebo\AppData\Local\Temp\cchOloIf.s 			page 69


 3836 0b60 36363636 		.word	909522486
 3837 0b64 F6363636 		.word	909522678
 3838 0b68 36363636 		.word	909522486
 3839 0b6c 36363636 		.word	909522486
 3840 0b70 00000000 		.word	0
 3841 0b74 FE000000 		.word	254
 3842 0b78 36363636 		.word	909522486
 3843 0b7c 36363636 		.word	909522486
 3844 0b80 00000000 		.word	0
 3845 0b84 F818F800 		.word	16259320
 3846 0b88 18181818 		.word	404232216
 3847 0b8c 18181818 		.word	404232216
 3848 0b90 36363636 		.word	909522486
 3849 0b94 F606F636 		.word	922093302
 3850 0b98 36363636 		.word	909522486
 3851 0b9c 36363636 		.word	909522486
 3852 0ba0 36363636 		.word	909522486
 3853 0ba4 36363636 		.word	909522486
 3854 0ba8 36363636 		.word	909522486
 3855 0bac 36363636 		.word	909522486
 3856 0bb0 00000000 		.word	0
 3857 0bb4 F606FE00 		.word	16647926
 3858 0bb8 36363636 		.word	909522486
 3859 0bbc 36363636 		.word	909522486
 3860 0bc0 36363636 		.word	909522486
 3861 0bc4 FE06F636 		.word	922093310
 3862 0bc8 00000000 		.word	0
 3863 0bcc 00000000 		.word	0
 3864 0bd0 36363636 		.word	909522486
 3865 0bd4 FE363636 		.word	909522686
 3866 0bd8 00000000 		.word	0
 3867 0bdc 00000000 		.word	0
 3868 0be0 18181818 		.word	404232216
 3869 0be4 F818F818 		.word	418912504
 3870 0be8 00000000 		.word	0
 3871 0bec 00000000 		.word	0
 3872 0bf0 00000000 		.word	0
 3873 0bf4 F8000000 		.word	248
 3874 0bf8 18181818 		.word	404232216
 3875 0bfc 18181818 		.word	404232216
 3876 0c00 18181818 		.word	404232216
 3877 0c04 1F181818 		.word	404232223
 3878 0c08 00000000 		.word	0
 3879 0c0c 00000000 		.word	0
 3880 0c10 18181818 		.word	404232216
 3881 0c14 FF181818 		.word	404232447
 3882 0c18 00000000 		.word	0
 3883 0c1c 00000000 		.word	0
 3884 0c20 00000000 		.word	0
 3885 0c24 FF000000 		.word	255
 3886 0c28 18181818 		.word	404232216
 3887 0c2c 18181818 		.word	404232216
 3888 0c30 18181818 		.word	404232216
 3889 0c34 1F181818 		.word	404232223
 3890 0c38 18181818 		.word	404232216
 3891 0c3c 18181818 		.word	404232216
 3892 0c40 00000000 		.word	0
AARCH64 GAS  C:\Users\ldebo\AppData\Local\Temp\cchOloIf.s 			page 70


 3893 0c44 FF000000 		.word	255
 3894 0c48 00000000 		.word	0
 3895 0c4c 00000000 		.word	0
 3896 0c50 18181818 		.word	404232216
 3897 0c54 FF181818 		.word	404232447
 3898 0c58 18181818 		.word	404232216
 3899 0c5c 18181818 		.word	404232216
 3900 0c60 18181818 		.word	404232216
 3901 0c64 1F181F18 		.word	404690975
 3902 0c68 18181818 		.word	404232216
 3903 0c6c 18181818 		.word	404232216
 3904 0c70 36363636 		.word	909522486
 3905 0c74 37363636 		.word	909522487
 3906 0c78 36363636 		.word	909522486
 3907 0c7c 36363636 		.word	909522486
 3908 0c80 36363636 		.word	909522486
 3909 0c84 3F303736 		.word	909586495
 3910 0c88 00000000 		.word	0
 3911 0c8c 00000000 		.word	0
 3912 0c90 00000000 		.word	0
 3913 0c94 37303F00 		.word	4141111
 3914 0c98 36363636 		.word	909522486
 3915 0c9c 36363636 		.word	909522486
 3916 0ca0 36363636 		.word	909522486
 3917 0ca4 FF00F736 		.word	922157311
 3918 0ca8 00000000 		.word	0
 3919 0cac 00000000 		.word	0
 3920 0cb0 00000000 		.word	0
 3921 0cb4 F700FF00 		.word	16711927
 3922 0cb8 36363636 		.word	909522486
 3923 0cbc 36363636 		.word	909522486
 3924 0cc0 36363636 		.word	909522486
 3925 0cc4 37303736 		.word	909586487
 3926 0cc8 36363636 		.word	909522486
 3927 0ccc 36363636 		.word	909522486
 3928 0cd0 00000000 		.word	0
 3929 0cd4 FF00FF00 		.word	16711935
 3930 0cd8 00000000 		.word	0
 3931 0cdc 00000000 		.word	0
 3932 0ce0 36363636 		.word	909522486
 3933 0ce4 F700F736 		.word	922157303
 3934 0ce8 36363636 		.word	909522486
 3935 0cec 36363636 		.word	909522486
 3936 0cf0 18181818 		.word	404232216
 3937 0cf4 FF00FF18 		.word	419365119
 3938 0cf8 00000000 		.word	0
 3939 0cfc 00000000 		.word	0
 3940 0d00 36363636 		.word	909522486
 3941 0d04 FF363636 		.word	909522687
 3942 0d08 00000000 		.word	0
 3943 0d0c 00000000 		.word	0
 3944 0d10 00000000 		.word	0
 3945 0d14 FF00FF00 		.word	16711935
 3946 0d18 18181818 		.word	404232216
 3947 0d1c 18181818 		.word	404232216
 3948 0d20 00000000 		.word	0
 3949 0d24 FF000000 		.word	255
AARCH64 GAS  C:\Users\ldebo\AppData\Local\Temp\cchOloIf.s 			page 71


 3950 0d28 36363636 		.word	909522486
 3951 0d2c 36363636 		.word	909522486
 3952 0d30 36363636 		.word	909522486
 3953 0d34 3F363636 		.word	909522495
 3954 0d38 00000000 		.word	0
 3955 0d3c 00000000 		.word	0
 3956 0d40 18181818 		.word	404232216
 3957 0d44 1F181F18 		.word	404690975
 3958 0d48 00000000 		.word	0
 3959 0d4c 00000000 		.word	0
 3960 0d50 00000000 		.word	0
 3961 0d54 1F181F00 		.word	2037791
 3962 0d58 18181818 		.word	404232216
 3963 0d5c 18181818 		.word	404232216
 3964 0d60 00000000 		.word	0
 3965 0d64 3F000000 		.word	63
 3966 0d68 36363636 		.word	909522486
 3967 0d6c 36363636 		.word	909522486
 3968 0d70 36363636 		.word	909522486
 3969 0d74 FF363636 		.word	909522687
 3970 0d78 36363636 		.word	909522486
 3971 0d7c 36363636 		.word	909522486
 3972 0d80 18181818 		.word	404232216
 3973 0d84 FF18FF18 		.word	419371263
 3974 0d88 18181818 		.word	404232216
 3975 0d8c 18181818 		.word	404232216
 3976 0d90 18181818 		.word	404232216
 3977 0d94 F8181818 		.word	404232440
 3978 0d98 00000000 		.word	0
 3979 0d9c 00000000 		.word	0
 3980 0da0 00000000 		.word	0
 3981 0da4 1F000000 		.word	31
 3982 0da8 18181818 		.word	404232216
 3983 0dac 18181818 		.word	404232216
 3984 0db0 FFFFFFFF 		.word	-1
 3985 0db4 FFFFFFFF 		.word	-1
 3986 0db8 FFFFFFFF 		.word	-1
 3987 0dbc FFFFFFFF 		.word	-1
 3988 0dc0 00000000 		.word	0
 3989 0dc4 FF000000 		.word	255
 3990 0dc8 FFFFFFFF 		.word	-1
 3991 0dcc FFFFFFFF 		.word	-1
 3992 0dd0 F0F0F0F0 		.word	-252645136
 3993 0dd4 F0F0F0F0 		.word	-252645136
 3994 0dd8 F0F0F0F0 		.word	-252645136
 3995 0ddc F0F0F0F0 		.word	-252645136
 3996 0de0 0F0F0F0F 		.word	252645135
 3997 0de4 0F0F0F0F 		.word	252645135
 3998 0de8 0F0F0F0F 		.word	252645135
 3999 0dec 0F0F0F0F 		.word	252645135
 4000 0df0 FFFFFFFF 		.word	-1
 4001 0df4 00FFFFFF 		.word	-256
 4002 0df8 00000000 		.word	0
 4003 0dfc 00000000 		.word	0
 4004 0e00 00000000 		.word	0
 4005 0e04 D8DC7600 		.word	7789784
 4006 0e08 76DCD8D8 		.word	-656876426
AARCH64 GAS  C:\Users\ldebo\AppData\Local\Temp\cchOloIf.s 			page 72


 4007 0e0c 00000000 		.word	0
 4008 0e10 CC780000 		.word	30924
 4009 0e14 CCD8CCCC 		.word	-858990388
 4010 0e18 CCC6C6C6 		.word	-960051508
 4011 0e1c 00000000 		.word	0
 4012 0e20 C6FE0000 		.word	65222
 4013 0e24 C0C0C0C6 		.word	-960446272
 4014 0e28 C0C0C0C0 		.word	-1061109568
 4015 0e2c 00000000 		.word	0
 4016 0e30 00000000 		.word	0
 4017 0e34 6C6C6CFE 		.word	-26448788
 4018 0e38 6C6C6C6C 		.word	1819044972
 4019 0e3c 00000000 		.word	0
 4020 0e40 FE000000 		.word	254
 4021 0e44 183060C6 		.word	-966774760
 4022 0e48 FEC66030 		.word	811648766
 4023 0e4c 00000000 		.word	0
 4024 0e50 00000000 		.word	0
 4025 0e54 D8D87E00 		.word	8313048
 4026 0e58 70D8D8D8 		.word	-656877456
 4027 0e5c 00000000 		.word	0
 4028 0e60 00000000 		.word	0
 4029 0e64 66666666 		.word	1717986918
 4030 0e68 60607C66 		.word	1719427168
 4031 0e6c 000000C0 		.word	-1073741824
 4032 0e70 00000000 		.word	0
 4033 0e74 1818DC76 		.word	1994135576
 4034 0e78 18181818 		.word	404232216
 4035 0e7c 00000000 		.word	0
 4036 0e80 7E000000 		.word	126
 4037 0e84 66663C18 		.word	406611558
 4038 0e88 7E183C66 		.word	1715214462
 4039 0e8c 00000000 		.word	0
 4040 0e90 38000000 		.word	56
 4041 0e94 FEC6C66C 		.word	1824966398
 4042 0e98 386CC6C6 		.word	-960074696
 4043 0e9c 00000000 		.word	0
 4044 0ea0 6C380000 		.word	14444
 4045 0ea4 6CC6C6C6 		.word	-960051604
 4046 0ea8 EE6C6C6C 		.word	1819045102
 4047 0eac 00000000 		.word	0
 4048 0eb0 301E0000 		.word	7728
 4049 0eb4 663E0C18 		.word	403455590
 4050 0eb8 3C666666 		.word	1717986876
 4051 0ebc 00000000 		.word	0
 4052 0ec0 00000000 		.word	0
 4053 0ec4 DBDB7E00 		.word	8313819
 4054 0ec8 00007EDB 		.word	-612499456
 4055 0ecc 00000000 		.word	0
 4056 0ed0 03000000 		.word	3
 4057 0ed4 DBDB7E06 		.word	108977115
 4058 0ed8 C0607EF3 		.word	-209821504
 4059 0edc 00000000 		.word	0
 4060 0ee0 301C0000 		.word	7216
 4061 0ee4 607C6060 		.word	1616936032
 4062 0ee8 1C306060 		.word	1616916508
 4063 0eec 00000000 		.word	0
AARCH64 GAS  C:\Users\ldebo\AppData\Local\Temp\cchOloIf.s 			page 73


 4064 0ef0 7C000000 		.word	124
 4065 0ef4 C6C6C6C6 		.word	-960051514
 4066 0ef8 C6C6C6C6 		.word	-960051514
 4067 0efc 00000000 		.word	0
 4068 0f00 00000000 		.word	0
 4069 0f04 FE0000FE 		.word	-33554178
 4070 0f08 00FE0000 		.word	65024
 4071 0f0c 00000000 		.word	0
 4072 0f10 00000000 		.word	0
 4073 0f14 187E1818 		.word	404258328
 4074 0f18 FF000018 		.word	402653439
 4075 0f1c 00000000 		.word	0
 4076 0f20 30000000 		.word	48
 4077 0f24 0C060C18 		.word	403441164
 4078 0f28 7E003018 		.word	405799038
 4079 0f2c 00000000 		.word	0
 4080 0f30 0C000000 		.word	12
 4081 0f34 30603018 		.word	405823536
 4082 0f38 7E000C18 		.word	403439742
 4083 0f3c 00000000 		.word	0
 4084 0f40 1B0E0000 		.word	3611
 4085 0f44 1818181B 		.word	454563864
 4086 0f48 18181818 		.word	404232216
 4087 0f4c 18181818 		.word	404232216
 4088 0f50 18181818 		.word	404232216
 4089 0f54 18181818 		.word	404232216
 4090 0f58 70D8D8D8 		.word	-656877456
 4091 0f5c 00000000 		.word	0
 4092 0f60 00000000 		.word	0
 4093 0f64 7E001818 		.word	404226174
 4094 0f68 00181800 		.word	1579008
 4095 0f6c 00000000 		.word	0
 4096 0f70 00000000 		.word	0
 4097 0f74 00DC7600 		.word	7789568
 4098 0f78 0000DC76 		.word	1994129408
 4099 0f7c 00000000 		.word	0
 4100 0f80 6C6C3800 		.word	3697772
 4101 0f84 00000038 		.word	939524096
 4102 0f88 00000000 		.word	0
 4103 0f8c 00000000 		.word	0
 4104 0f90 00000000 		.word	0
 4105 0f94 18000000 		.word	24
 4106 0f98 00000018 		.word	402653184
 4107 0f9c 00000000 		.word	0
 4108 0fa0 00000000 		.word	0
 4109 0fa4 00000000 		.word	0
 4110 0fa8 00000018 		.word	402653184
 4111 0fac 00000000 		.word	0
 4112 0fb0 0C0C0F00 		.word	986124
 4113 0fb4 EC0C0C0C 		.word	202116332
 4114 0fb8 1C3C6C6C 		.word	1819032604
 4115 0fbc 00000000 		.word	0
 4116 0fc0 6C6CD800 		.word	14183532
 4117 0fc4 006C6C6C 		.word	1819044864
 4118 0fc8 00000000 		.word	0
 4119 0fcc 00000000 		.word	0
 4120 0fd0 30D87000 		.word	7395376
AARCH64 GAS  C:\Users\ldebo\AppData\Local\Temp\cchOloIf.s 			page 74


 4121 0fd4 00F8C860 		.word	1623783424
 4122 0fd8 00000000 		.word	0
 4123 0fdc 00000000 		.word	0
 4124 0fe0 00000000 		.word	0
 4125 0fe4 7C7C7C7C 		.word	2088533116
 4126 0fe8 007C7C7C 		.word	2088532992
 4127 0fec 00000000 		.word	0
 4128 0ff0 00000000 		.word	0
 4129 0ff4 00000000 		.word	0
 4130 0ff8 00000000 		.word	0
 4131 0ffc 00000000 		.word	0
 4132              		.data
 4133              		.align	2
 4134              		.set	.LANCHOR1,. + 0
 4135              		.type	ActivityGPIOPort, %object
 4136              		.size	ActivityGPIOPort, 4
 4137              	ActivityGPIOPort:
 4138 0000 2F000000 		.word	47
 4139              		.bss
 4140              		.align	3
 4141              		.set	.LANCHOR0,. + 0
 4142              		.type	ModelCheckHasRun, %object
 4143              		.size	ModelCheckHasRun, 1
 4144              	ModelCheckHasRun:
 4145 0000 00       		.zero	1
 4146 0001 000000   		.zero	3
 4147              		.type	console, %object
 4148              		.size	console, 104
 4149              	console:
 4150 0004 00000000 		.zero	104
 4150      00000000 
 4150      00000000 
 4150      00000000 
 4150      00000000 
 4151 006c 00000000 		.zero	4
 4152              		.type	heap_end.4853, %object
 4153              		.size	heap_end.4853, 8
 4154              	heap_end.4853:
 4155 0070 00000000 		.zero	8
 4155      00000000 
 4156              		.section	.rodata,"a",%progbits; //,"a",@progbits
 4157              		.align	2
 4158              		.type	BitFontEnd, %object
 4159              		.size	BitFontEnd, 4
 4160              	BitFontEnd:
 4161 1000 00000000 		.zero	4
 4162              		.section	.rodata.str1.8,"aMS",@progbits,1
 4163              		.align	3
 4164              	.LC0:
 4165 0000 43505520 		.string	"CPU frequency set to %u Hz\n"
 4165      66726571 
 4165      75656E63 
 4165      79207365 
 4165      7420746F 
 4166 001c 00000000 		.zero	4
 4167              	.LC1:
 4168 0020 536D6172 		.string	"SmartStart v2.02 compiled for Arm%d, AARCH%d with %u core s/w support\n"
AARCH64 GAS  C:\Users\ldebo\AppData\Local\Temp\cchOloIf.s 			page 75


 4168      74537461 
 4168      72742076 
 4168      322E3032 
 4168      20636F6D 
 4169 0067 00       		.zero	1
 4170              	.LC2:
 4171 0068 44657465 		.string	"Detected %s CPU, part id: 0x%03X, Cores made ready for use: %u\n"
 4171      63746564 
 4171      20257320 
 4171      4350552C 
 4171      20706172 
 4172              	.LC3:
 4173 00a8 53637265 		.string	"Screen resolution %i x %i Colour Depth: %i\n"
 4173      656E2072 
 4173      65736F6C 
 4173      7574696F 
 4173      6E202569 
 4174              		.ident	"GCC: (Linaro GCC 7.1-2017.05) 7.1.1 20170510"
AARCH64 GAS  C:\Users\ldebo\AppData\Local\Temp\cchOloIf.s 			page 76


DEFINED SYMBOLS
                            *ABS*:0000000000000000 rpi-SmartStart.c
C:\Users\ldebo\AppData\Local\Temp\cchOloIf.s:4      .text:0000000000000000 $x
C:\Users\ldebo\AppData\Local\Temp\cchOloIf.s:7      .text:0000000000000000 ClearArea16
C:\Users\ldebo\AppData\Local\Temp\cchOloIf.s:59     .text:00000000000000b0 VertLine16
C:\Users\ldebo\AppData\Local\Temp\cchOloIf.s:123    .text:0000000000000190 HorzLine16
C:\Users\ldebo\AppData\Local\Temp\cchOloIf.s:165    .text:0000000000000220 DiagLine16
C:\Users\ldebo\AppData\Local\Temp\cchOloIf.s:219    .text:00000000000002e0 WriteChar16
C:\Users\ldebo\AppData\Local\Temp\cchOloIf.s:3107   .rodata:0000000000000000 BitFont
C:\Users\ldebo\AppData\Local\Temp\cchOloIf.s:288    .text:00000000000003e0 TransparentWriteChar16
C:\Users\ldebo\AppData\Local\Temp\cchOloIf.s:345    .text:00000000000004a0 PutImage16
C:\Users\ldebo\AppData\Local\Temp\cchOloIf.s:393    .text:0000000000000540 ClearArea24
C:\Users\ldebo\AppData\Local\Temp\cchOloIf.s:438    .text:00000000000005d0 VertLine24
C:\Users\ldebo\AppData\Local\Temp\cchOloIf.s:494    .text:0000000000000690 HorzLine24
C:\Users\ldebo\AppData\Local\Temp\cchOloIf.s:529    .text:0000000000000700 DiagLine24
C:\Users\ldebo\AppData\Local\Temp\cchOloIf.s:576    .text:00000000000007a0 WriteChar24
C:\Users\ldebo\AppData\Local\Temp\cchOloIf.s:629    .text:0000000000000850 TransparentWriteChar24
C:\Users\ldebo\AppData\Local\Temp\cchOloIf.s:679    .text:0000000000000900 PutImage24
C:\Users\ldebo\AppData\Local\Temp\cchOloIf.s:729    .text:00000000000009b0 ClearArea32
C:\Users\ldebo\AppData\Local\Temp\cchOloIf.s:767    .text:0000000000000a20 VertLine32
C:\Users\ldebo\AppData\Local\Temp\cchOloIf.s:818    .text:0000000000000ad0 HorzLine32
C:\Users\ldebo\AppData\Local\Temp\cchOloIf.s:849    .text:0000000000000b30 DiagLine32
C:\Users\ldebo\AppData\Local\Temp\cchOloIf.s:892    .text:0000000000000bc0 WriteChar32
C:\Users\ldebo\AppData\Local\Temp\cchOloIf.s:948    .text:0000000000000c70 TransparentWriteChar32
C:\Users\ldebo\AppData\Local\Temp\cchOloIf.s:993    .text:0000000000000d00 PutImage32
C:\Users\ldebo\AppData\Local\Temp\cchOloIf.s:1036   .text:0000000000000d90 mailbox_tag_message.constprop.7
C:\Users\ldebo\AppData\Local\Temp\cchOloIf.s:1137   .text:0000000000000ee0 mailbox_tag_message.constprop.4
C:\Users\ldebo\AppData\Local\Temp\cchOloIf.s:1218   .text:0000000000001000 mailbox_tag_message.constprop.5
C:\Users\ldebo\AppData\Local\Temp\cchOloIf.s:1314   .text:0000000000001150 mailbox_tag_message.constprop.6
C:\Users\ldebo\AppData\Local\Temp\cchOloIf.s:1380   .text:0000000000001230 gpio_setup
C:\Users\ldebo\AppData\Local\Temp\cchOloIf.s:1415   .text:00000000000012a0 gpio_output
C:\Users\ldebo\AppData\Local\Temp\cchOloIf.s:1451   .text:0000000000001310 gpio_input
C:\Users\ldebo\AppData\Local\Temp\cchOloIf.s:1476   .text:0000000000001360 gpio_checkEvent
C:\Users\ldebo\AppData\Local\Temp\cchOloIf.s:1500   .text:00000000000013a0 gpio_clearEvent
C:\Users\ldebo\AppData\Local\Temp\cchOloIf.s:1523   .text:00000000000013e0 gpio_edgeDetect
C:\Users\ldebo\AppData\Local\Temp\cchOloIf.s:1579   .text:0000000000001490 gpio_fixResistor
C:\Users\ldebo\AppData\Local\Temp\cchOloIf.s:1649   .text:0000000000001580 timer_getTickCount
C:\Users\ldebo\AppData\Local\Temp\cchOloIf.s:1668   .text:00000000000015b0 timer_wait
C:\Users\ldebo\AppData\Local\Temp\cchOloIf.s:1699   .text:0000000000001610 tick_difference
C:\Users\ldebo\AppData\Local\Temp\cchOloIf.s:1707   .text:0000000000001620 mailbox_write
C:\Users\ldebo\AppData\Local\Temp\cchOloIf.s:1732   .text:0000000000001660 mailbox_read
C:\Users\ldebo\AppData\Local\Temp\cchOloIf.s:1759   .text:00000000000016b0 mailbox_tag_message
C:\Users\ldebo\AppData\Local\Temp\cchOloIf.s:1874   .text:0000000000001830 TimerIrqSetup
C:\Users\ldebo\AppData\Local\Temp\cchOloIf.s:1942   .text:0000000000001930 set_Activity_LED
C:\Users\ldebo\AppData\Local\Temp\cchOloIf.s:2060   .text:0000000000001ac0 ARM_setmaxspeed
C:\Users\ldebo\AppData\Local\Temp\cchOloIf.s:2111   .text:0000000000001b70 displaySmartStart
C:\Users\ldebo\AppData\Local\Temp\cchOloIf.s:2147   .text:0000000000001bf0 Embedded_Console_WriteChar
C:\Users\ldebo\AppData\Local\Temp\cchOloIf.s:2203   .text:0000000000001cb0 WriteText
C:\Users\ldebo\AppData\Local\Temp\cchOloIf.s:2282   .text:0000000000001db0 SetDCPenColor
C:\Users\ldebo\AppData\Local\Temp\cchOloIf.s:2295   .text:0000000000001dd0 SetDCBrushColor
C:\Users\ldebo\AppData\Local\Temp\cchOloIf.s:2308   .text:0000000000001df0 MoveToEx
C:\Users\ldebo\AppData\Local\Temp\cchOloIf.s:2328   .text:0000000000001e20 LineTo
C:\Users\ldebo\AppData\Local\Temp\cchOloIf.s:2391   .text:0000000000001ee0 TextOut
C:\Users\ldebo\AppData\Local\Temp\cchOloIf.s:2437   .text:0000000000001f70 TransparentTextOut
C:\Users\ldebo\AppData\Local\Temp\cchOloIf.s:2476   .text:0000000000001fe0 BmpOut
C:\Users\ldebo\AppData\Local\Temp\cchOloIf.s:2502   .text:0000000000002030 CvtBmpLine
C:\Users\ldebo\AppData\Local\Temp\cchOloIf.s:2696   .text:00000000000022d0 Rectangle
AARCH64 GAS  C:\Users\ldebo\AppData\Local\Temp\cchOloIf.s 			page 77


C:\Users\ldebo\AppData\Local\Temp\cchOloIf.s:2714   .text:0000000000002300 PiConsole_Init
C:\Users\ldebo\AppData\Local\Temp\cchOloIf.s:2909   .text:00000000000025c0 GetConsoleDC
C:\Users\ldebo\AppData\Local\Temp\cchOloIf.s:2919   .text:00000000000025d0 GetConsole_FrameBuffer
C:\Users\ldebo\AppData\Local\Temp\cchOloIf.s:2928   .text:00000000000025e0 GetConsole_Width
C:\Users\ldebo\AppData\Local\Temp\cchOloIf.s:2937   .text:00000000000025f0 GetConsole_Height
C:\Users\ldebo\AppData\Local\Temp\cchOloIf.s:2946   .text:0000000000002600 _sbrk
C:\Users\ldebo\AppData\Local\Temp\cchOloIf.s:2963   .text:0000000000002630 _kill
C:\Users\ldebo\AppData\Local\Temp\cchOloIf.s:2974   .text:0000000000002650 _getpid
C:\Users\ldebo\AppData\Local\Temp\cchOloIf.s:2982   .text:0000000000002660 _read
C:\Users\ldebo\AppData\Local\Temp\cchOloIf.s:2990   .text:0000000000002670 _close
C:\Users\ldebo\AppData\Local\Temp\cchOloIf.s:2998   .text:0000000000002680 _lseek
C:\Users\ldebo\AppData\Local\Temp\cchOloIf.s:3006   .text:0000000000002690 _isatty
C:\Users\ldebo\AppData\Local\Temp\cchOloIf.s:3014   .text:00000000000026a0 _fstat
C:\Users\ldebo\AppData\Local\Temp\cchOloIf.s:3024   .text:00000000000026b0 _exit
C:\Users\ldebo\AppData\Local\Temp\cchOloIf.s:3033   .text:00000000000026c0 _write
C:\Users\ldebo\AppData\Local\Temp\cchOloIf.s:4149   .bss:0000000000000004 console
C:\Users\ldebo\AppData\Local\Temp\cchOloIf.s:4160   .rodata:0000000000001000 BitFontEnd
C:\Users\ldebo\AppData\Local\Temp\cchOloIf.s:3104   .rodata:0000000000000000 $d
C:\Users\ldebo\AppData\Local\Temp\cchOloIf.s:4133   .data:0000000000000000 $d
C:\Users\ldebo\AppData\Local\Temp\cchOloIf.s:4137   .data:0000000000000000 ActivityGPIOPort
C:\Users\ldebo\AppData\Local\Temp\cchOloIf.s:4140   .bss:0000000000000000 $d
C:\Users\ldebo\AppData\Local\Temp\cchOloIf.s:4144   .bss:0000000000000000 ModelCheckHasRun
C:\Users\ldebo\AppData\Local\Temp\cchOloIf.s:4154   .bss:0000000000000070 heap_end.4853
C:\Users\ldebo\AppData\Local\Temp\cchOloIf.s:4163   .rodata.str1.8:0000000000000000 $d

UNDEFINED SYMBOLS
ARMaddrToGPUaddr
RPi_IO_Base_Addr
setTimerIrqAddress
RPi_CpuId
RPi_CompileMode
RPi_CpuIdString
RPi_CoresReady
strlen
GPUaddrToARMaddr
_end
errno
AARCH64 GAS  C:\Users\ldebo\AppData\Local\Temp\cchOloIf.s 			page 1


   1              		.arch armv8-a
   2              		.file	"emb-stdio.c"
   3              		.text
   4              		.align	2
   5              		.p2align 4,,15
   6              		.type	number, %function
   7              	number:
   8 0000 FF4301D1 		sub	sp, sp, #80
   9 0004 AE001B12 		and	w14, w5, 32
  10 0008 B0001C12 		and	w16, w5, 16
  11 000c 250F2036 		tbz	x5, 4, .L2
  12 0010 A5781F12 		and	w5, w5, -2
  13 0014 0C048052 		mov	w12, 32
  14              	.L25:
  15 0018 0F008052 		mov	w15, 0
  16 001c E5000836 		tbz	x5, 1, .L3
  17 0020 C111F8B7 		tbnz	x1, #63, .L50
  18 0024 E50F1037 		tbnz	x5, 2, .L51
  19 0028 85001836 		tbz	x5, 3, .L3
  20 002c 63040051 		sub	w3, w3, #1
  21 0030 0F048052 		mov	w15, 32
  22 0034 1F2003D5 		.p2align 3
  23              	.L3:
  24 0038 B1001A12 		and	w17, w5, 64
  25 003c C5003036 		tbz	x5, 6, .L6
  26              	.L58:
  27 0040 5F400071 		cmp	w2, 16
  28 0044 E0110054 		beq	.L52
  29 0048 5F200071 		cmp	w2, 8
  30 004c E6179F1A 		cset	w6, eq
  31 0050 6300064B 		sub	w3, w3, w6
  32              	.L6:
  33 0054 A10D00B4 		cbz	x1, .L53
  34              	.L8:
  35 0058 0D000090 		adrp	x13, .LANCHOR0
  36 005c AD010091 		add	x13, x13, :lo12:.LANCHOR0
  37 0060 4A7C4093 		sxtw	x10, w2
  38 0064 E9230091 		add	x9, sp, 8
  39 0068 260080D2 		mov	x6, 1
  40 006c 1F2003D5 		.p2align 3
  41              	.L10:
  42 0070 E80301AA 		mov	x8, x1
  43 0074 2701068B 		add	x7, x9, x6
  44 0078 2108CA9A 		udiv	x1, x1, x10
  45 007c EB03062A 		mov	w11, w6
  46 0080 C6040091 		add	x6, x6, 1
  47 0084 28A00A9B 		msub	x8, x1, x10, x8
  48 0088 A8C96838 		ldrb	w8, [x13, w8, sxtw]
  49 008c C801082A 		orr	w8, w14, w8
  50 0090 E8F01F38 		strb	w8, [x7, -1]
  51 0094 E1FEFFB5 		cbnz	x1, .L10
  52 0098 66050051 		sub	w6, w11, #1
  53              	.L9:
  54 009c 7F01046B 		cmp	w11, w4
  55 00a0 21028052 		mov	w1, 17
  56 00a4 64A1841A 		csel	w4, w11, w4, ge
  57 00a8 BF00016A 		tst	w5, w1
AARCH64 GAS  C:\Users\ldebo\AppData\Local\Temp\cchOloIf.s 			page 2


  58 00ac 6300044B 		sub	w3, w3, w4
  59 00b0 65040051 		sub	w5, w3, #1
  60 00b4 C1010054 		bne	.L11
  61 00b8 7F000071 		cmp	w3, 0
  62 00bc AD0E0054 		ble	.L54
  63 00c0 A1040091 		add	x1, x5, 1
  64 00c4 E30300AA 		mov	x3, x0
  65 00c8 0100018B 		add	x1, x0, x1
  66 00cc 07048052 		mov	w7, 32
  67              		.p2align 3
  68              	.L13:
  69 00d0 67140038 		strb	w7, [x3], 1
  70 00d4 3F0003EB 		cmp	x1, x3
  71 00d8 C1FFFF54 		bne	.L13
  72 00dc A1040091 		add	x1, x5, 1
  73 00e0 03008012 		mov	w3, -1
  74 00e4 0000018B 		add	x0, x0, x1
  75 00e8 25008012 		mov	w5, -2
  76              	.L11:
  77 00ec 6F000034 		cbz	w15, .L14
  78 00f0 0F000039 		strb	w15, [x0]
  79 00f4 00040091 		add	x0, x0, 1
  80              	.L14:
  81 00f8 B1000034 		cbz	w17, .L15
  82 00fc 5F200071 		cmp	w2, 8
  83 0100 800B0054 		beq	.L55
  84 0104 5F400071 		cmp	w2, 16
  85 0108 80090054 		beq	.L56
  86              	.L15:
  87 010c 50020035 		cbnz	w16, .L17
  88 0110 E203052A 		mov	w2, w5
  89 0114 E70300AA 		mov	x7, x0
  90 0118 7F000071 		cmp	w3, 0
  91 011c 2D0C0054 		ble	.L57
  92              		.p2align 3
  93              	.L18:
  94 0120 42040051 		sub	w2, w2, #1
  95 0124 EC140038 		strb	w12, [x7], 1
  96 0128 43040011 		add	w3, w2, 1
  97 012c 7F000071 		cmp	w3, 0
  98 0130 8CFFFF54 		bgt	.L18
  99 0134 BF000071 		cmp	w5, 0
 100 0138 A3040051 		sub	w3, w5, #1
 101 013c A5A09F1A 		csel	w5, w5, wzr, ge
 102 0140 A17C4093 		sxtw	x1, w5
 103 0144 6300054B 		sub	w3, w3, w5
 104 0148 21040091 		add	x1, x1, 1
 105 014c 65040051 		sub	w5, w3, #1
 106 0150 0000018B 		add	x0, x0, x1
 107              	.L17:
 108 0154 7F01046B 		cmp	w11, w4
 109 0158 2A010054 		bge	.L20
 110 015c 81000B4B 		sub	w1, w4, w11
 111 0160 02068052 		mov	w2, 48
 112 0164 21040051 		sub	w1, w1, #1
 113 0168 21040091 		add	x1, x1, 1
 114 016c 0100018B 		add	x1, x0, x1
AARCH64 GAS  C:\Users\ldebo\AppData\Local\Temp\cchOloIf.s 			page 3


 115              		.p2align 3
 116              	.L21:
 117 0170 02140038 		strb	w2, [x0], 1
 118 0174 3F0000EB 		cmp	x1, x0
 119 0178 C1FFFF54 		bne	.L21
 120              	.L20:
 121 017c C67C4093 		sxtw	x6, w6
 122 0180 E20300AA 		mov	x2, x0
 123 0184 E10306AA 		mov	x1, x6
 124              		.p2align 3
 125              	.L22:
 126 0188 24696138 		ldrb	w4, [x9, x1]
 127 018c 210400D1 		sub	x1, x1, #1
 128 0190 44140038 		strb	w4, [x2], 1
 129 0194 24040011 		add	w4, w1, 1
 130 0198 9F000071 		cmp	w4, 0
 131 019c 6CFFFF54 		bgt	.L22
 132 01a0 C6040091 		add	x6, x6, 1
 133 01a4 7F000071 		cmp	w3, 0
 134 01a8 0000068B 		add	x0, x0, x6
 135 01ac ED010054 		ble	.L1
 136 01b0 E103052A 		mov	w1, w5
 137 01b4 E20300AA 		mov	x2, x0
 138 01b8 04048052 		mov	w4, 32
 139 01bc 1F2003D5 		.p2align 3
 140              	.L24:
 141 01c0 21040051 		sub	w1, w1, #1
 142 01c4 44140038 		strb	w4, [x2], 1
 143 01c8 23040011 		add	w3, w1, 1
 144 01cc 7F000071 		cmp	w3, 0
 145 01d0 8CFFFF54 		bgt	.L24
 146 01d4 BF000071 		cmp	w5, 0
 147 01d8 A1A09F1A 		csel	w1, w5, wzr, ge
 148 01dc 217C4093 		sxtw	x1, w1
 149 01e0 21040091 		add	x1, x1, 1
 150 01e4 0000018B 		add	x0, x0, x1
 151              	.L1:
 152 01e8 FF430191 		add	sp, sp, 80
 153 01ec C0035FD6 		ret
 154              		.p2align 3
 155              	.L2:
 156 01f0 BF0040F2 		tst	x5, 1
 157 01f4 0C048052 		mov	w12, 32
 158 01f8 06068052 		mov	w6, 48
 159 01fc 8C01861A 		csel	w12, w12, w6, eq
 160 0200 86FFFF17 		b	.L25
 161 0204 1F2003D5 		.p2align 3
 162              	.L53:
 163 0208 E9430191 		add	x9, sp, 80
 164 020c 01068052 		mov	w1, 48
 165 0210 06008052 		mov	w6, 0
 166 0214 2B008052 		mov	w11, 1
 167 0218 218D1B38 		strb	w1, [x9, -72]!
 168 021c A0FFFF17 		b	.L9
 169              		.p2align 3
 170              	.L51:
 171 0220 63040051 		sub	w3, w3, #1
AARCH64 GAS  C:\Users\ldebo\AppData\Local\Temp\cchOloIf.s 			page 4


 172 0224 6F058052 		mov	w15, 43
 173 0228 B1001A12 		and	w17, w5, 64
 174 022c 45F13736 		tbz	x5, 6, .L6
 175 0230 84FFFF17 		b	.L58
 176 0234 1F2003D5 		.p2align 3
 177              	.L56:
 178 0238 E10300AA 		mov	x1, x0
 179 023c 07068052 		mov	w7, 48
 180 0240 020B8052 		mov	w2, 88
 181 0244 CE01022A 		orr	w14, w14, w2
 182 0248 27240038 		strb	w7, [x1], 2
 183 024c 0E040039 		strb	w14, [x0, 1]
 184 0250 E00301AA 		mov	x0, x1
 185 0254 AEFFFF17 		b	.L15
 186              		.p2align 3
 187              	.L50:
 188 0258 E10301CB 		neg	x1, x1
 189 025c 63040051 		sub	w3, w3, #1
 190 0260 AF058052 		mov	w15, 45
 191 0264 B1001A12 		and	w17, w5, 64
 192 0268 65EF3736 		tbz	x5, 6, .L6
 193 026c 75FFFF17 		b	.L58
 194              		.p2align 3
 195              	.L55:
 196 0270 00040091 		add	x0, x0, 1
 197 0274 01068052 		mov	w1, 48
 198 0278 01F01F38 		strb	w1, [x0, -1]
 199 027c A4FFFF17 		b	.L15
 200              		.p2align 3
 201              	.L52:
 202 0280 63080051 		sub	w3, w3, #2
 203 0284 A1EEFFB5 		cbnz	x1, .L8
 204 0288 E0FFFF17 		b	.L53
 205 028c 1F2003D5 		.p2align 3
 206              	.L54:
 207 0290 61080051 		sub	w1, w3, #2
 208 0294 E303052A 		mov	w3, w5
 209 0298 E503012A 		mov	w5, w1
 210 029c 94FFFF17 		b	.L11
 211              		.p2align 3
 212              	.L57:
 213 02a0 E303052A 		mov	w3, w5
 214 02a4 A5040051 		sub	w5, w5, #1
 215 02a8 ABFFFF17 		b	.L17
 216              		.size	number, .-number
 217              		.align	2
 218 02ac 1F2003D5 		.p2align 4,,15
 219              		.weak	strnlen
 220              		.type	strnlen, %function
 221              	strnlen:
 222 02b0 E30300AA 		mov	x3, x0
 223 02b4 610100B4 		cbz	x1, .L63
 224 02b8 00004039 		ldrb	w0, [x0]
 225 02bc 20010034 		cbz	w0, .L63
 226 02c0 000080D2 		mov	x0, 0
 227 02c4 03000014 		b	.L61
 228              		.p2align 3
AARCH64 GAS  C:\Users\ldebo\AppData\Local\Temp\cchOloIf.s 			page 5


 229              	.L65:
 230 02c8 62686038 		ldrb	w2, [x3, x0]
 231 02cc 82000034 		cbz	w2, .L59
 232              	.L61:
 233 02d0 00040091 		add	x0, x0, 1
 234 02d4 3F0000EB 		cmp	x1, x0
 235 02d8 81FFFF54 		bne	.L65
 236              	.L59:
 237 02dc C0035FD6 		ret
 238              		.p2align 3
 239              	.L63:
 240 02e0 000080D2 		mov	x0, 0
 241 02e4 C0035FD6 		ret
 242              		.size	strnlen, .-strnlen
 243              		.align	2
 244 02e8 1F2003D5 		.p2align 4,,15
 244      1F2003D5 
 245              		.global	emb_vsprintf
 246              		.type	emb_vsprintf, %function
 247              	emb_vsprintf:
 248 02f0 F353BAA9 		stp	x19, x20, [sp, -96]!
 249 02f4 F30301AA 		mov	x19, x1
 250 02f8 F40300AA 		mov	x20, x0
 251 02fc F6DF01A9 		stp	x22, x23, [sp, 24]
 252 0300 FA1F00F9 		str	x26, [sp, 56]
 253 0304 FE2700F9 		str	x30, [sp, 72]
 254 0308 21004039 		ldrb	w1, [x1]
 255 030c 5A1840B9 		ldr	w26, [x2, 24]
 256 0310 565C40A9 		ldp	x22, x23, [x2]
 257 0314 61270034 		cbz	w1, .L159
 258 0318 F50B00F9 		str	x21, [sp, 16]
 259 031c F50300AA 		mov	x21, x0
 260 0320 F8E702A9 		stp	x24, x25, [sp, 40]
 261 0324 190D8052 		mov	w25, 104
 262 0328 58018052 		mov	w24, 10
 263 032c 06000014 		b	.L155
 264              		.p2align 3
 265              	.L217:
 266 0330 81020039 		strb	w1, [x20]
 267 0334 94060091 		add	x20, x20, 1
 268 0338 61064039 		ldrb	w1, [x19, 1]
 269              	.L69:
 270 033c 73060091 		add	x19, x19, 1
 271 0340 010A0034 		cbz	w1, .L138
 272              	.L155:
 273 0344 3F940071 		cmp	w1, 37
 274 0348 41FFFF54 		bne	.L217
 275 034c 61064039 		ldrb	w1, [x19, 1]
 276 0350 05008052 		mov	w5, 0
 277 0354 62060091 		add	x2, x19, 1
 278 0358 3FAC0071 		cmp	w1, 43
 279 035c 80010054 		beq	.L71
 280              		.p2align 3
 281              	.L218:
 282 0360 C8010054 		bhi	.L72
 283 0364 3F800071 		cmp	w1, 32
 284 0368 C0070054 		beq	.L73
AARCH64 GAS  C:\Users\ldebo\AppData\Local\Temp\cchOloIf.s 			page 6


 285 036c 3F8C0071 		cmp	w1, 35
 286 0370 41020054 		bne	.L70
 287 0374 A5001A32 		orr	w5, w5, 64
 288 0378 F30302AA 		mov	x19, x2
 289              	.L219:
 290 037c 61064039 		ldrb	w1, [x19, 1]
 291 0380 62060091 		add	x2, x19, 1
 292 0384 3FAC0071 		cmp	w1, 43
 293 0388 C1FEFF54 		bne	.L218
 294              	.L71:
 295 038c A5001E32 		orr	w5, w5, 4
 296 0390 F30302AA 		mov	x19, x2
 297 0394 FAFFFF17 		b	.L219
 298              		.p2align 3
 299              	.L72:
 300 0398 3FB40071 		cmp	w1, 45
 301 039c A0060054 		beq	.L75
 302 03a0 3FC00071 		cmp	w1, 48
 303 03a4 A1000054 		bne	.L70
 304 03a8 A5000032 		orr	w5, w5, 1
 305 03ac F30302AA 		mov	x19, x2
 306 03b0 F3FFFF17 		b	.L219
 307 03b4 1F2003D5 		.p2align 3
 308              	.L70:
 309 03b8 20C00051 		sub	w0, w1, #48
 310 03bc 001C0012 		and	w0, w0, 255
 311 03c0 1F240071 		cmp	w0, 9
 312 03c4 A90B0054 		bls	.L161
 313 03c8 03008012 		mov	w3, -1
 314 03cc 3FA80071 		cmp	w1, 42
 315 03d0 80140054 		beq	.L220
 316              	.L80:
 317 03d4 04008012 		mov	w4, -1
 318 03d8 3FB80071 		cmp	w1, 46
 319 03dc 60060054 		beq	.L221
 320              	.L85:
 321 03e0 20781A12 		and	w0, w1, -33
 322 03e4 1F300171 		cmp	w0, 76
 323 03e8 2410597A 		ccmp	w1, w25, 4, ne
 324 03ec A1070054 		bne	.L91
 325              	.L226:
 326 03f0 40044039 		ldrb	w0, [x2, 1]
 327 03f4 E603012A 		mov	w6, w1
 328 03f8 53040091 		add	x19, x2, 1
 329 03fc 1FB80171 		cmp	w0, 110
 330 0400 00210054 		beq	.L93
 331 0404 E90A0054 		bls	.L222
 332 0408 1FCC0171 		cmp	w0, 115
 333 040c A0210054 		beq	.L215
 334 0410 890C0054 		bls	.L223
 335 0414 1FD40171 		cmp	w0, 117
 336 0418 40180054 		beq	.L104
 337 041c A5001B32 		orr	w5, w5, 32
 338 0420 02028052 		mov	w2, 16
 339 0424 1FE00171 		cmp	w0, 120
 340 0428 410F0054 		bne	.L92
 341              	.L102:
AARCH64 GAS  C:\Users\ldebo\AppData\Local\Temp\cchOloIf.s 			page 7


 342 042c DFB00171 		cmp	w6, 108
 343 0430 C00A0054 		beq	.L224
 344              	.L139:
 345 0434 A1001F12 		and	w1, w5, 2
 346 0438 DFA00171 		cmp	w6, 104
 347 043c 00230054 		beq	.L225
 348              	.L135:
 349 0440 E1060034 		cbz	w1, .L148
 350              	.L229:
 351 0444 5A29F837 		tbnz	w26, #31, .L149
 352 0448 E00316AA 		mov	x0, x22
 353 044c C12E0091 		add	x1, x22, 11
 354 0450 36F07D92 		and	x22, x1, -8
 355 0454 010080B9 		ldrsw	x1, [x0]
 356 0458 1A010014 		b	.L143
 357 045c 1F2003D5 		.p2align 3
 358              	.L73:
 359 0460 A5001D32 		orr	w5, w5, 8
 360 0464 F30302AA 		mov	x19, x2
 361 0468 C5FFFF17 		b	.L219
 362 046c 1F2003D5 		.p2align 3
 363              	.L75:
 364 0470 A5001C32 		orr	w5, w5, 16
 365 0474 F30302AA 		mov	x19, x2
 366 0478 C1FFFF17 		b	.L219
 367              	.L137:
 368 047c 94060091 		add	x20, x20, 1
 369              	.L138:
 370 0480 8002154B 		sub	w0, w20, w21
 371 0484 F50B40F9 		ldr	x21, [sp, 16]
 372 0488 F8E742A9 		ldp	x24, x25, [sp, 40]
 373 048c 9F020039 		strb	wzr, [x20]
 374 0490 F6DF41A9 		ldp	x22, x23, [sp, 24]
 375 0494 FA1F40F9 		ldr	x26, [sp, 56]
 376 0498 FE2740F9 		ldr	x30, [sp, 72]
 377 049c F353C6A8 		ldp	x19, x20, [sp], 96
 378 04a0 C0035FD6 		ret
 379 04a4 1F2003D5 		.p2align 3
 380              	.L221:
 381 04a8 41044039 		ldrb	w1, [x2, 1]
 382 04ac 46040091 		add	x6, x2, 1
 383 04b0 20C00051 		sub	w0, w1, #48
 384 04b4 001C0012 		and	w0, w0, 255
 385 04b8 1F240071 		cmp	w0, 9
 386 04bc A90B0054 		bls	.L163
 387 04c0 3FA80071 		cmp	w1, 42
 388 04c4 60180054 		beq	.L87
 389 04c8 20781A12 		and	w0, w1, -33
 390 04cc E20306AA 		mov	x2, x6
 391 04d0 1F300171 		cmp	w0, 76
 392 04d4 04008052 		mov	w4, 0
 393 04d8 2410597A 		ccmp	w1, w25, 4, ne
 394 04dc A0F8FF54 		beq	.L226
 395              		.p2align 3
 396              	.L91:
 397 04e0 3FB80171 		cmp	w1, 110
 398 04e4 A01C0054 		beq	.L170
AARCH64 GAS  C:\Users\ldebo\AppData\Local\Temp\cchOloIf.s 			page 8


 399 04e8 09080054 		bls	.L227
 400 04ec 3FCC0171 		cmp	w1, 115
 401 04f0 001D0054 		beq	.L172
 402 04f4 E90C0054 		bls	.L228
 403 04f8 3FD40171 		cmp	w1, 117
 404 04fc E01A0054 		beq	.L173
 405 0500 3FE00171 		cmp	w1, 120
 406 0504 41080054 		bne	.L165
 407 0508 A1001F12 		and	w1, w5, 2
 408 050c F30302AA 		mov	x19, x2
 409 0510 A5001B32 		orr	w5, w5, 32
 410 0514 02028052 		mov	w2, 16
 411 0518 61F9FF35 		cbnz	w1, .L229
 412              	.L148:
 413 051c 7A27F837 		tbnz	w26, #31, .L152
 414 0520 E00316AA 		mov	x0, x22
 415 0524 C12E0091 		add	x1, x22, 11
 416 0528 36F07D92 		and	x22, x1, -8
 417 052c 010040B9 		ldr	w1, [x0]
 418 0530 E4000014 		b	.L143
 419 0534 1F2003D5 		.p2align 3
 420              	.L161:
 421 0538 03008052 		mov	w3, 0
 422 053c 1F2003D5 		.p2align 3
 423              	.L78:
 424 0540 6304181B 		madd	w3, w3, w24, w1
 425 0544 411C4038 		ldrb	w1, [x2, 1]!
 426 0548 20C00051 		sub	w0, w1, #48
 427 054c 63C00051 		sub	w3, w3, #48
 428 0550 001C0012 		and	w0, w0, 255
 429 0554 1F240071 		cmp	w0, 9
 430 0558 49FFFF54 		bls	.L78
 431 055c 9EFFFF17 		b	.L80
 432              		.p2align 3
 433              	.L222:
 434 0560 1F8C0171 		cmp	w0, 99
 435 0564 600A0054 		beq	.L95
 436 0568 88120054 		bhi	.L96
 437 056c 1F940071 		cmp	w0, 37
 438 0570 C00D0054 		beq	.L97
 439 0574 1F600171 		cmp	w0, 88
 440 0578 C1040054 		bne	.L92
 441              	.L98:
 442 057c 02028052 		mov	w2, 16
 443 0580 DFB00171 		cmp	w6, 108
 444 0584 81F5FF54 		bne	.L139
 445              	.L224:
 446 0588 3A25F837 		tbnz	w26, #31, .L140
 447 058c E00316AA 		mov	x0, x22
 448 0590 C13E0091 		add	x1, x22, 15
 449 0594 36F07D92 		and	x22, x1, -8
 450 0598 010040F9 		ldr	x1, [x0]
 451 059c C9000014 		b	.L143
 452              		.p2align 3
 453              	.L223:
 454 05a0 1FBC0171 		cmp	w0, 111
 455 05a4 A00B0054 		beq	.L164
AARCH64 GAS  C:\Users\ldebo\AppData\Local\Temp\cchOloIf.s 			page 9


 456 05a8 1FC00171 		cmp	w0, 112
 457 05ac 21030054 		bne	.L92
 458              	.L103:
 459 05b0 7F040031 		cmn	w3, #1
 460 05b4 600D0054 		beq	.L230
 461              	.L123:
 462 05b8 9A1BF837 		tbnz	w26, #31, .L124
 463 05bc C13E0091 		add	x1, x22, 15
 464 05c0 E00316AA 		mov	x0, x22
 465 05c4 36F07D92 		and	x22, x1, -8
 466              	.L125:
 467 05c8 010040F9 		ldr	x1, [x0]
 468 05cc 02028052 		mov	w2, 16
 469 05d0 E00314AA 		mov	x0, x20
 470 05d4 8BFEFF97 		bl	number
 471 05d8 F40300AA 		mov	x20, x0
 472 05dc 61064039 		ldrb	w1, [x19, 1]
 473 05e0 57FFFF17 		b	.L69
 474 05e4 1F2003D5 		.p2align 3
 475              	.L227:
 476 05e8 3F8C0171 		cmp	w1, 99
 477 05ec 00060054 		beq	.L168
 478 05f0 680A0054 		bhi	.L157
 479 05f4 F30302AA 		mov	x19, x2
 480 05f8 3F940071 		cmp	w1, 37
 481 05fc 60090054 		beq	.L97
 482 0600 06008012 		mov	w6, -1
 483 0604 3F600171 		cmp	w1, 88
 484 0608 A0FBFF54 		beq	.L98
 485              	.L165:
 486 060c F30302AA 		mov	x19, x2
 487              	.L92:
 488 0610 A0048052 		mov	w0, 37
 489 0614 80020039 		strb	w0, [x20]
 490 0618 60024039 		ldrb	w0, [x19]
 491 061c 00F3FF34 		cbz	w0, .L137
 492 0620 80060039 		strb	w0, [x20, 1]
 493 0624 940A0091 		add	x20, x20, 2
 494 0628 61064039 		ldrb	w1, [x19, 1]
 495 062c 44FFFF17 		b	.L69
 496              		.p2align 3
 497              	.L163:
 498 0630 04008052 		mov	w4, 0
 499 0634 1F2003D5 		.p2align 3
 500              	.L86:
 501 0638 8404181B 		madd	w4, w4, w24, w1
 502 063c C11C4038 		ldrb	w1, [x6, 1]!
 503 0640 20C00051 		sub	w0, w1, #48
 504 0644 84C00051 		sub	w4, w4, #48
 505 0648 001C0012 		and	w0, w0, 255
 506 064c 1F240071 		cmp	w0, 9
 507 0650 49FFFF54 		bls	.L86
 508 0654 E20306AA 		mov	x2, x6
 509 0658 62FFFF17 		b	.L85
 510 065c 1F2003D5 		.p2align 3
 511              	.L220:
 512 0660 620A0091 		add	x2, x19, 2
AARCH64 GAS  C:\Users\ldebo\AppData\Local\Temp\cchOloIf.s 			page 10


 513 0664 7A1FF837 		tbnz	w26, #31, .L81
 514 0668 C12E0091 		add	x1, x22, 11
 515 066c E00316AA 		mov	x0, x22
 516 0670 36F07D92 		and	x22, x1, -8
 517              	.L82:
 518 0674 030040B9 		ldr	w3, [x0]
 519 0678 610A4039 		ldrb	w1, [x19, 2]
 520 067c C3EAFF36 		tbz	w3, #31, .L80
 521 0680 E303034B 		neg	w3, w3
 522 0684 A5001C32 		orr	w5, w5, 16
 523 0688 53FFFF17 		b	.L80
 524 068c 1F2003D5 		.p2align 3
 525              	.L228:
 526 0690 3FBC0171 		cmp	w1, 111
 527 0694 A00E0054 		beq	.L134
 528 0698 F30302AA 		mov	x19, x2
 529 069c 3FC00171 		cmp	w1, 112
 530 06a0 80F8FF54 		beq	.L103
 531 06a4 F30302AA 		mov	x19, x2
 532 06a8 DAFFFF17 		b	.L92
 533              	.L168:
 534 06ac F30302AA 		mov	x19, x2
 535              	.L95:
 536 06b0 60040051 		sub	w0, w3, #1
 537 06b4 C5052036 		tbz	x5, 4, .L231
 538              	.L106:
 539 06b8 9A12F837 		tbnz	w26, #31, .L109
 540 06bc C22E0091 		add	x2, x22, 11
 541 06c0 E10316AA 		mov	x1, x22
 542 06c4 56F07D92 		and	x22, x2, -8
 543              	.L110:
 544 06c8 210040B9 		ldr	w1, [x1]
 545 06cc 84060091 		add	x4, x20, 1
 546 06d0 81020039 		strb	w1, [x20]
 547 06d4 1F000071 		cmp	w0, 0
 548 06d8 ED0F0054 		ble	.L232
 549 06dc 02040051 		sub	w2, w0, #1
 550 06e0 E00304AA 		mov	x0, x4
 551 06e4 E10302AA 		mov	x1, x2
 552 06e8 42080091 		add	x2, x2, 2
 553 06ec 9402028B 		add	x20, x20, x2
 554 06f0 03048052 		mov	w3, 32
 555 06f4 1F2003D5 		.p2align 3
 556              	.L113:
 557 06f8 03140038 		strb	w3, [x0], 1
 558 06fc 1F0014EB 		cmp	x0, x20
 559 0700 C1FFFF54 		bne	.L113
 560 0704 347C4093 		sxtw	x20, w1
 561 0708 61064039 		ldrb	w1, [x19, 1]
 562 070c 94060091 		add	x20, x20, 1
 563 0710 9400148B 		add	x20, x4, x20
 564 0714 0AFFFF17 		b	.L69
 565              		.p2align 3
 566              	.L164:
 567 0718 02018052 		mov	w2, 8
 568 071c 44FFFF17 		b	.L102
 569              		.p2align 3
AARCH64 GAS  C:\Users\ldebo\AppData\Local\Temp\cchOloIf.s 			page 11


 570              	.L104:
 571 0720 42018052 		mov	w2, 10
 572 0724 42FFFF17 		b	.L102
 573              		.p2align 3
 574              	.L97:
 575 0728 A0048052 		mov	w0, 37
 576 072c 80020039 		strb	w0, [x20]
 577 0730 94060091 		add	x20, x20, 1
 578 0734 61064039 		ldrb	w1, [x19, 1]
 579 0738 01FFFF17 		b	.L69
 580              	.L157:
 581 073c 3F900171 		cmp	w1, 100
 582 0740 60000054 		beq	.L169
 583 0744 3FA40171 		cmp	w1, 105
 584 0748 21F6FF54 		bne	.L165
 585              	.L169:
 586 074c F30302AA 		mov	x19, x2
 587 0750 06008012 		mov	w6, -1
 588              	.L99:
 589 0754 A5001F32 		orr	w5, w5, 2
 590 0758 42018052 		mov	w2, 10
 591 075c 34FFFF17 		b	.L102
 592              	.L230:
 593 0760 A5000032 		orr	w5, w5, 1
 594 0764 03028052 		mov	w3, 16
 595 0768 94FFFF17 		b	.L123
 596              	.L231:
 597 076c 1F000071 		cmp	w0, 0
 598 0770 8D0B0054 		ble	.L233
 599 0774 62080051 		sub	w2, w3, #2
 600 0778 E10314AA 		mov	x1, x20
 601 077c E00302AA 		mov	x0, x2
 602 0780 42040091 		add	x2, x2, 1
 603 0784 8202028B 		add	x2, x20, x2
 604 0788 04048052 		mov	w4, 32
 605 078c 1F2003D5 		.p2align 3
 606              	.L108:
 607 0790 24140038 		strb	w4, [x1], 1
 608 0794 3F0002EB 		cmp	x1, x2
 609 0798 C1FFFF54 		bne	.L108
 610 079c E103002A 		uxtw	x1, w0
 611 07a0 0000034B 		sub	w0, w0, w3
 612 07a4 21040091 		add	x1, x1, 1
 613 07a8 00040011 		add	w0, w0, 1
 614 07ac 9402018B 		add	x20, x20, x1
 615 07b0 C2FFFF17 		b	.L106
 616 07b4 1F2003D5 		.p2align 3
 617              	.L96:
 618 07b8 1F900171 		cmp	w0, 100
 619 07bc C0FCFF54 		beq	.L99
 620 07c0 1FA40171 		cmp	w0, 105
 621 07c4 80FCFF54 		beq	.L99
 622 07c8 92FFFF17 		b	.L92
 623 07cc 1F2003D5 		.p2align 3
 624              	.L87:
 625 07d0 40080091 		add	x0, x2, 2
 626 07d4 7A0EF837 		tbnz	w26, #31, .L88
AARCH64 GAS  C:\Users\ldebo\AppData\Local\Temp\cchOloIf.s 			page 12


 627 07d8 C42E0091 		add	x4, x22, 11
 628 07dc E10316AA 		mov	x1, x22
 629 07e0 96F07D92 		and	x22, x4, -8
 630              	.L89:
 631 07e4 240040B9 		ldr	w4, [x1]
 632 07e8 41084039 		ldrb	w1, [x2, 2]
 633 07ec E20300AA 		mov	x2, x0
 634 07f0 9F000071 		cmp	w4, 0
 635 07f4 84A09F1A 		csel	w4, w4, wzr, ge
 636 07f8 FAFEFF17 		b	.L85
 637 07fc 1F2003D5 		.p2align 3
 638              	.L159:
 639 0800 9F020039 		strb	wzr, [x20]
 640 0804 00008052 		mov	w0, 0
 641 0808 F6DF41A9 		ldp	x22, x23, [sp, 24]
 642 080c FA1F40F9 		ldr	x26, [sp, 56]
 643 0810 FE2740F9 		ldr	x30, [sp, 72]
 644 0814 F353C6A8 		ldp	x19, x20, [sp], 96
 645 0818 C0035FD6 		ret
 646 081c 1F2003D5 		.p2align 3
 647              	.L93:
 648 0820 3FB00171 		cmp	w1, 108
 649 0824 C1020054 		bne	.L127
 650 0828 DA0CF837 		tbnz	w26, #31, .L128
 651 082c C13E0091 		add	x1, x22, 15
 652 0830 E00316AA 		mov	x0, x22
 653 0834 36F07D92 		and	x22, x1, -8
 654 0838 69000014 		b	.L129
 655 083c 1F2003D5 		.p2align 3
 656              	.L215:
 657 0840 FB2300F9 		str	x27, [sp, 64]
 658              	.L100:
 659 0844 BA14F837 		tbnz	w26, #31, .L114
 660 0848 C13E0091 		add	x1, x22, 15
 661 084c E00316AA 		mov	x0, x22
 662 0850 36F07D92 		and	x22, x1, -8
 663 0854 A8000014 		b	.L115
 664              		.p2align 3
 665              	.L173:
 666 0858 F30302AA 		mov	x19, x2
 667 085c 06008012 		mov	w6, -1
 668 0860 42018052 		mov	w2, 10
 669 0864 F4FEFF17 		b	.L139
 670              	.L134:
 671 0868 F30302AA 		mov	x19, x2
 672 086c A1001F12 		and	w1, w5, 2
 673 0870 02018052 		mov	w2, 8
 674 0874 F3FEFF17 		b	.L135
 675              	.L170:
 676 0878 F30302AA 		mov	x19, x2
 677              	.L127:
 678 087c 1A11F837 		tbnz	w26, #31, .L131
 679 0880 C13E0091 		add	x1, x22, 15
 680 0884 E00316AA 		mov	x0, x22
 681 0888 36F07D92 		and	x22, x1, -8
 682 088c 8B000014 		b	.L132
 683              		.p2align 3
AARCH64 GAS  C:\Users\ldebo\AppData\Local\Temp\cchOloIf.s 			page 13


 684              	.L172:
 685 0890 F30302AA 		mov	x19, x2
 686 0894 FB2300F9 		str	x27, [sp, 64]
 687 0898 EBFFFF17 		b	.L100
 688              	.L225:
 689 089c 7A02F837 		tbnz	w26, #31, .L144
 690 08a0 C62E0091 		add	x6, x22, 11
 691 08a4 E00316AA 		mov	x0, x22
 692 08a8 D6F07D92 		and	x22, x6, -8
 693              	.L145:
 694 08ac 000040B9 		ldr	w0, [x0]
 695 08b0 3F000071 		cmp	w1, 0
 696 08b4 013C4092 		and	x1, x0, 65535
 697 08b8 003C4093 		sxth	x0, w0
 698 08bc 0110819A 		csel	x1, x0, x1, ne
 699              	.L143:
 700 08c0 E00314AA 		mov	x0, x20
 701 08c4 CFFDFF97 		bl	number
 702 08c8 61064039 		ldrb	w1, [x19, 1]
 703 08cc F40300AA 		mov	x20, x0
 704 08d0 9BFEFF17 		b	.L69
 705              	.L232:
 706 08d4 61064039 		ldrb	w1, [x19, 1]
 707 08d8 F40304AA 		mov	x20, x4
 708 08dc 98FEFF17 		b	.L69
 709              	.L233:
 710 08e0 60080051 		sub	w0, w3, #2
 711 08e4 75FFFF17 		b	.L106
 712              	.L144:
 713 08e8 46230011 		add	w6, w26, 8
 714 08ec DF000071 		cmp	w6, 0
 715 08f0 CD020054 		ble	.L146
 716 08f4 C72E0091 		add	x7, x22, 11
 717 08f8 E00316AA 		mov	x0, x22
 718 08fc FA03062A 		mov	w26, w6
 719 0900 F6F07D92 		and	x22, x7, -8
 720 0904 EAFFFF17 		b	.L145
 721              	.L109:
 722 0908 42230011 		add	w2, w26, 8
 723 090c 5F000071 		cmp	w2, 0
 724 0910 2D020054 		ble	.L111
 725 0914 C32E0091 		add	x3, x22, 11
 726 0918 E10316AA 		mov	x1, x22
 727 091c FA03022A 		mov	w26, w2
 728 0920 76F07D92 		and	x22, x3, -8
 729 0924 69FFFF17 		b	.L110
 730              	.L124:
 731 0928 41230011 		add	w1, w26, 8
 732 092c 3F000071 		cmp	w1, 0
 733 0930 8D010054 		ble	.L126
 734 0934 C23E0091 		add	x2, x22, 15
 735 0938 E00316AA 		mov	x0, x22
 736 093c FA03012A 		mov	w26, w1
 737 0940 56F07D92 		and	x22, x2, -8
 738 0944 21FFFF17 		b	.L125
 739              	.L146:
 740 0948 E0C23A8B 		add	x0, x23, x26, sxtw
AARCH64 GAS  C:\Users\ldebo\AppData\Local\Temp\cchOloIf.s 			page 14


 741 094c FA03062A 		mov	w26, w6
 742 0950 D7FFFF17 		b	.L145
 743              	.L111:
 744 0954 E1C23A8B 		add	x1, x23, x26, sxtw
 745 0958 FA03022A 		mov	w26, w2
 746 095c 5BFFFF17 		b	.L110
 747              	.L126:
 748 0960 E0C23A8B 		add	x0, x23, x26, sxtw
 749 0964 FA03012A 		mov	w26, w1
 750 0968 18FFFF17 		b	.L125
 751              	.L149:
 752 096c 41230011 		add	w1, w26, 8
 753 0970 3F000071 		cmp	w1, 0
 754 0974 ED000054 		ble	.L151
 755 0978 E00316AA 		mov	x0, x22
 756 097c C62E0091 		add	x6, x22, 11
 757 0980 FA03012A 		mov	w26, w1
 758 0984 D6F07D92 		and	x22, x6, -8
 759 0988 010080B9 		ldrsw	x1, [x0]
 760 098c CDFFFF17 		b	.L143
 761              	.L151:
 762 0990 E0C23A8B 		add	x0, x23, x26, sxtw
 763 0994 FA03012A 		mov	w26, w1
 764 0998 010080B9 		ldrsw	x1, [x0]
 765 099c C9FFFF17 		b	.L143
 766              	.L88:
 767 09a0 44230011 		add	w4, w26, 8
 768 09a4 9F000071 		cmp	w4, 0
 769 09a8 4D020054 		ble	.L90
 770 09ac C62E0091 		add	x6, x22, 11
 771 09b0 E10316AA 		mov	x1, x22
 772 09b4 FA03042A 		mov	w26, w4
 773 09b8 D6F07D92 		and	x22, x6, -8
 774 09bc 8AFFFF17 		b	.L89
 775              	.L128:
 776 09c0 41230011 		add	w1, w26, 8
 777 09c4 3F000071 		cmp	w1, 0
 778 09c8 AD010054 		ble	.L130
 779 09cc C33E0091 		add	x3, x22, 15
 780 09d0 E00316AA 		mov	x0, x22
 781 09d4 FA03012A 		mov	w26, w1
 782 09d8 76F07D92 		and	x22, x3, -8
 783              	.L129:
 784 09dc 000040F9 		ldr	x0, [x0]
 785 09e0 810215CB 		sub	x1, x20, x21
 786 09e4 010000F9 		str	x1, [x0]
 787 09e8 41084039 		ldrb	w1, [x2, 2]
 788 09ec 54FEFF17 		b	.L69
 789              	.L90:
 790 09f0 E1C23A8B 		add	x1, x23, x26, sxtw
 791 09f4 FA03042A 		mov	w26, w4
 792 09f8 7BFFFF17 		b	.L89
 793              	.L130:
 794 09fc E0C23A8B 		add	x0, x23, x26, sxtw
 795 0a00 FA03012A 		mov	w26, w1
 796 0a04 F6FFFF17 		b	.L129
 797              	.L152:
AARCH64 GAS  C:\Users\ldebo\AppData\Local\Temp\cchOloIf.s 			page 15


 798 0a08 41230011 		add	w1, w26, 8
 799 0a0c 3F000071 		cmp	w1, 0
 800 0a10 0D030054 		ble	.L154
 801 0a14 E00316AA 		mov	x0, x22
 802 0a18 C62E0091 		add	x6, x22, 11
 803 0a1c FA03012A 		mov	w26, w1
 804 0a20 D6F07D92 		and	x22, x6, -8
 805 0a24 010040B9 		ldr	w1, [x0]
 806 0a28 A6FFFF17 		b	.L143
 807              	.L140:
 808 0a2c 41230011 		add	w1, w26, 8
 809 0a30 3F000071 		cmp	w1, 0
 810 0a34 6D020054 		ble	.L142
 811 0a38 E00316AA 		mov	x0, x22
 812 0a3c C63E0091 		add	x6, x22, 15
 813 0a40 FA03012A 		mov	w26, w1
 814 0a44 D6F07D92 		and	x22, x6, -8
 815 0a48 010040F9 		ldr	x1, [x0]
 816 0a4c 9DFFFF17 		b	.L143
 817              	.L81:
 818 0a50 41230011 		add	w1, w26, 8
 819 0a54 3F000071 		cmp	w1, 0
 820 0a58 CD010054 		ble	.L83
 821 0a5c C32E0091 		add	x3, x22, 11
 822 0a60 E00316AA 		mov	x0, x22
 823 0a64 FA03012A 		mov	w26, w1
 824 0a68 76F07D92 		and	x22, x3, -8
 825 0a6c 02FFFF17 		b	.L82
 826              	.L154:
 827 0a70 E0C23A8B 		add	x0, x23, x26, sxtw
 828 0a74 FA03012A 		mov	w26, w1
 829 0a78 010040B9 		ldr	w1, [x0]
 830 0a7c 91FFFF17 		b	.L143
 831              	.L142:
 832 0a80 E0C23A8B 		add	x0, x23, x26, sxtw
 833 0a84 FA03012A 		mov	w26, w1
 834 0a88 010040F9 		ldr	x1, [x0]
 835 0a8c 8DFFFF17 		b	.L143
 836              	.L83:
 837 0a90 E0C23A8B 		add	x0, x23, x26, sxtw
 838 0a94 FA03012A 		mov	w26, w1
 839 0a98 F7FEFF17 		b	.L82
 840              	.L131:
 841 0a9c 41230011 		add	w1, w26, 8
 842 0aa0 3F000071 		cmp	w1, 0
 843 0aa4 4D010054 		ble	.L133
 844 0aa8 C23E0091 		add	x2, x22, 15
 845 0aac E00316AA 		mov	x0, x22
 846 0ab0 FA03012A 		mov	w26, w1
 847 0ab4 56F07D92 		and	x22, x2, -8
 848              	.L132:
 849 0ab8 000040F9 		ldr	x0, [x0]
 850 0abc 810215CB 		sub	x1, x20, x21
 851 0ac0 010000B9 		str	w1, [x0]
 852 0ac4 61064039 		ldrb	w1, [x19, 1]
 853 0ac8 1DFEFF17 		b	.L69
 854              	.L133:
AARCH64 GAS  C:\Users\ldebo\AppData\Local\Temp\cchOloIf.s 			page 16


 855 0acc E0C23A8B 		add	x0, x23, x26, sxtw
 856 0ad0 FA03012A 		mov	w26, w1
 857 0ad4 F9FFFF17 		b	.L132
 858              	.L114:
 859 0ad8 41230011 		add	w1, w26, 8
 860 0adc 3F000071 		cmp	w1, 0
 861 0ae0 CD060054 		ble	.L116
 862 0ae4 C23E0091 		add	x2, x22, 15
 863 0ae8 E00316AA 		mov	x0, x22
 864 0aec FA03012A 		mov	w26, w1
 865 0af0 56F07D92 		and	x22, x2, -8
 866              	.L115:
 867 0af4 1B0040F9 		ldr	x27, [x0]
 868 0af8 817C4093 		sxtw	x1, w4
 869 0afc E50F0B29 		stp	w5, w3, [sp, 88]
 870 0b00 E0031BAA 		mov	x0, x27
 871 0b04 00000094 		bl	strnlen
 872 0b08 E50F4B29 		ldp	w5, w3, [sp, 88]
 873 0b0c E603002A 		mov	w6, w0
 874 0b10 62040051 		sub	w2, w3, #1
 875 0b14 25032036 		tbz	x5, 4, .L234
 876              	.L117:
 877 0b18 1F000071 		cmp	w0, 0
 878 0b1c 6D010054 		ble	.L120
 879 0b20 05040051 		sub	w5, w0, #1
 880 0b24 010080D2 		mov	x1, 0
 881 0b28 A5040091 		add	x5, x5, 1
 882 0b2c 1F2003D5 		.p2align 3
 883              	.L121:
 884 0b30 646B6138 		ldrb	w4, [x27, x1]
 885 0b34 846A2138 		strb	w4, [x20, x1]
 886 0b38 21040091 		add	x1, x1, 1
 887 0b3c BF0001EB 		cmp	x5, x1
 888 0b40 81FFFF54 		bne	.L121
 889 0b44 9402058B 		add	x20, x20, x5
 890              	.L120:
 891 0b48 01048052 		mov	w1, 32
 892 0b4c 7F00006B 		cmp	w3, w0
 893 0b50 ED000054 		ble	.L216
 894 0b54 1F2003D5 		.p2align 3
 895              	.L122:
 896 0b58 42040051 		sub	w2, w2, #1
 897 0b5c 81160038 		strb	w1, [x20], 1
 898 0b60 40040011 		add	w0, w2, 1
 899 0b64 DF00006B 		cmp	w6, w0
 900 0b68 8BFFFF54 		blt	.L122
 901              	.L216:
 902 0b6c 61064039 		ldrb	w1, [x19, 1]
 903 0b70 FB2340F9 		ldr	x27, [sp, 64]
 904 0b74 F2FDFF17 		b	.L69
 905              	.L234:
 906 0b78 7F00006B 		cmp	w3, w0
 907 0b7c 6D010054 		ble	.L235
 908 0b80 4100004B 		sub	w1, w2, w0
 909 0b84 02048052 		mov	w2, 32
 910 0b88 21040091 		add	x1, x1, 1
 911 0b8c 8102018B 		add	x1, x20, x1
AARCH64 GAS  C:\Users\ldebo\AppData\Local\Temp\cchOloIf.s 			page 17


 912              		.p2align 3
 913              	.L119:
 914 0b90 82160038 		strb	w2, [x20], 1
 915 0b94 9F0201EB 		cmp	x20, x1
 916 0b98 C1FFFF54 		bne	.L119
 917 0b9c 03040051 		sub	w3, w0, #1
 918 0ba0 62040051 		sub	w2, w3, #1
 919 0ba4 DDFFFF17 		b	.L117
 920              	.L235:
 921 0ba8 61080051 		sub	w1, w3, #2
 922 0bac E303022A 		mov	w3, w2
 923 0bb0 E203012A 		mov	w2, w1
 924 0bb4 D9FFFF17 		b	.L117
 925              	.L116:
 926 0bb8 E0C23A8B 		add	x0, x23, x26, sxtw
 927 0bbc FA03012A 		mov	w26, w1
 928 0bc0 CDFFFF17 		b	.L115
 929              		.size	emb_vsprintf, .-emb_vsprintf
 930              		.align	2
 931 0bc4 1F2003D5 		.p2align 4,,15
 931      1F2003D5 
 931      1F2003D5 
 932              		.global	vsscanf
 933              		.type	vsscanf, %function
 934              	vsscanf:
 935 0bd0 FF4316D1 		sub	sp, sp, #1424
 936 0bd4 3F0000F1 		cmp	x1, 0
 937 0bd8 F35300A9 		stp	x19, x20, [sp]
 938 0bdc F30300AA 		mov	x19, x0
 939 0be0 FE2B00F9 		str	x30, [sp, 80]
 940 0be4 E0179F1A 		cset	w0, eq
 941 0be8 7F0200F1 		cmp	x19, 0
 942 0bec 00149F1A 		csinc	w0, w0, wzr, ne
 943 0bf0 00290035 		cbnz	w0, .L409
 944 0bf4 F96B03A9 		stp	x25, x26, [sp, 48]
 945 0bf8 F9430291 		add	x25, sp, 144
 946 0bfc FB7304A9 		stp	x27, x28, [sp, 64]
 947 0c00 FC0301AA 		mov	x28, x1
 948 0c04 5A0040A9 		ldp	x26, x0, [x2]
 949 0c08 F55B01A9 		stp	x21, x22, [sp, 16]
 950 0c0c 5B1840B9 		ldr	w27, [x2, 24]
 951 0c10 F76302A9 		stp	x23, x24, [sp, 32]
 952 0c14 FF7F0C29 		stp	wzr, wzr, [sp, 96]
 953 0c18 E03B00F9 		str	x0, [sp, 112]
 954 0c1c 40018052 		mov	w0, 10
 955 0c20 E06B00B9 		str	w0, [sp, 104]
 956 0c24 FF7F0F29 		stp	wzr, wzr, [sp, 120]
 957              	.L238:
 958 0c28 60024039 		ldrb	w0, [x19]
 959 0c2c 80020034 		cbz	w0, .L513
 960              	.L548:
 961 0c30 80034039 		ldrb	w0, [x28]
 962 0c34 80000035 		cbnz	w0, .L407
 963 0c38 11000014 		b	.L513
 964 0c3c 1F2003D5 		.p2align 3
 965              	.L239:
 966 0c40 9C070091 		add	x28, x28, 1
AARCH64 GAS  C:\Users\ldebo\AppData\Local\Temp\cchOloIf.s 			page 18


 967              	.L407:
 968 0c44 00000094 		bl	__locale_ctype_ptr
 969 0c48 81034039 		ldrb	w1, [x28]
 970 0c4c 0000218B 		add	x0, x0, x1, uxtb
 971 0c50 00044039 		ldrb	w0, [x0, 1]
 972 0c54 60FF1F37 		tbnz	x0, 3, .L239
 973 0c58 3F940071 		cmp	w1, 37
 974 0c5c 20020054 		beq	.L547
 975 0c60 60024039 		ldrb	w0, [x19]
 976 0c64 1F00016B 		cmp	w0, w1
 977 0c68 A1000054 		bne	.L513
 978 0c6c 73060091 		add	x19, x19, 1
 979 0c70 60024039 		ldrb	w0, [x19]
 980 0c74 9C070091 		add	x28, x28, 1
 981 0c78 C0FDFF35 		cbnz	w0, .L548
 982              	.L513:
 983 0c7c E06340B9 		ldr	w0, [sp, 96]
 984 0c80 F35340A9 		ldp	x19, x20, [sp]
 985 0c84 F55B41A9 		ldp	x21, x22, [sp, 16]
 986 0c88 F76342A9 		ldp	x23, x24, [sp, 32]
 987 0c8c F96B43A9 		ldp	x25, x26, [sp, 48]
 988 0c90 FB7344A9 		ldp	x27, x28, [sp, 64]
 989 0c94 FE2B40F9 		ldr	x30, [sp, 80]
 990 0c98 FF431691 		add	sp, sp, 1424
 991 0c9c C0035FD6 		ret
 992              		.p2align 3
 993              	.L547:
 994 0ca0 80074039 		ldrb	w0, [x28, 1]
 995 0ca4 96070091 		add	x22, x28, 1
 996 0ca8 1FA80071 		cmp	w0, 42
 997 0cac 81000054 		bne	.L241
 998 0cb0 73060091 		add	x19, x19, 1
 999 0cb4 20008052 		mov	w0, 1
 1000 0cb8 E06700B9 		str	w0, [sp, 100]
 1001              	.L241:
 1002 0cbc 00000094 		bl	__locale_ctype_ptr
 1003 0cc0 97074039 		ldrb	w23, [x28, 1]
 1004 0cc4 0000378B 		add	x0, x0, x23, uxtb
 1005 0cc8 00044039 		ldrb	w0, [x0, 1]
 1006 0ccc A0101037 		tbnz	x0, 2, .L410
 1007 0cd0 950B0091 		add	x21, x28, 2
 1008 0cd4 18208052 		mov	w24, 256
 1009              	.L243:
 1010 0cd8 E07A1D12 		and	w0, w23, -5
 1011 0cdc 1FA00171 		cmp	w0, 104
 1012 0ce0 810E0054 		bne	.L549
 1013 0ce4 D4064039 		ldrb	w20, [x22, 1]
 1014 0ce8 BC060091 		add	x28, x21, 1
 1015 0cec 9F02176B 		cmp	w20, w23
 1016 0cf0 20180054 		beq	.L550
 1017              	.L245:
 1018 0cf4 9FE20171 		cmp	w20, 120
 1019 0cf8 C8020054 		bhi	.L414
 1020 0cfc 00000090 		adrp	x0, .L248
 1021 0d00 00000091 		add	x0, x0, :lo12:.L248
 1022 0d04 00587478 		ldrh	w0, [x0,w20,uxtw #1]
 1023 0d08 61000010 		adr	x1, .Lrtx248
AARCH64 GAS  C:\Users\ldebo\AppData\Local\Temp\cchOloIf.s 			page 19


 1024 0d0c 20A8208B 		add	x0, x1, w0, sxth #2
 1025 0d10 00001FD6 		br	x0
 1026              	.Lrtx248:
 1027              		.section	.rodata
 1028              		.align	0
 1029              		.align	2
 1030              	.L248:
 1031 0000 DAFF     		.2byte	(.L513 - .Lrtx248) / 4
 1032 0002 0F00     		.2byte	(.L414 - .Lrtx248) / 4
 1033 0004 0F00     		.2byte	(.L414 - .Lrtx248) / 4
 1034 0006 0F00     		.2byte	(.L414 - .Lrtx248) / 4
 1035 0008 0F00     		.2byte	(.L414 - .Lrtx248) / 4
 1036 000a 0F00     		.2byte	(.L414 - .Lrtx248) / 4
 1037 000c 0F00     		.2byte	(.L414 - .Lrtx248) / 4
 1038 000e 0F00     		.2byte	(.L414 - .Lrtx248) / 4
 1039 0010 0F00     		.2byte	(.L414 - .Lrtx248) / 4
 1040 0012 0F00     		.2byte	(.L414 - .Lrtx248) / 4
 1041 0014 0F00     		.2byte	(.L414 - .Lrtx248) / 4
 1042 0016 0F00     		.2byte	(.L414 - .Lrtx248) / 4
 1043 0018 0F00     		.2byte	(.L414 - .Lrtx248) / 4
 1044 001a 0F00     		.2byte	(.L414 - .Lrtx248) / 4
 1045 001c 0F00     		.2byte	(.L414 - .Lrtx248) / 4
 1046 001e 0F00     		.2byte	(.L414 - .Lrtx248) / 4
 1047 0020 0F00     		.2byte	(.L414 - .Lrtx248) / 4
 1048 0022 0F00     		.2byte	(.L414 - .Lrtx248) / 4
 1049 0024 0F00     		.2byte	(.L414 - .Lrtx248) / 4
 1050 0026 0F00     		.2byte	(.L414 - .Lrtx248) / 4
 1051 0028 0F00     		.2byte	(.L414 - .Lrtx248) / 4
 1052 002a 0F00     		.2byte	(.L414 - .Lrtx248) / 4
 1053 002c 0F00     		.2byte	(.L414 - .Lrtx248) / 4
 1054 002e 0F00     		.2byte	(.L414 - .Lrtx248) / 4
 1055 0030 0F00     		.2byte	(.L414 - .Lrtx248) / 4
 1056 0032 0F00     		.2byte	(.L414 - .Lrtx248) / 4
 1057 0034 0F00     		.2byte	(.L414 - .Lrtx248) / 4
 1058 0036 0F00     		.2byte	(.L414 - .Lrtx248) / 4
 1059 0038 0F00     		.2byte	(.L414 - .Lrtx248) / 4
 1060 003a 0F00     		.2byte	(.L414 - .Lrtx248) / 4
 1061 003c 0F00     		.2byte	(.L414 - .Lrtx248) / 4
 1062 003e 0F00     		.2byte	(.L414 - .Lrtx248) / 4
 1063 0040 0F00     		.2byte	(.L414 - .Lrtx248) / 4
 1064 0042 0F00     		.2byte	(.L414 - .Lrtx248) / 4
 1065 0044 0F00     		.2byte	(.L414 - .Lrtx248) / 4
 1066 0046 0F00     		.2byte	(.L414 - .Lrtx248) / 4
 1067 0048 0F00     		.2byte	(.L414 - .Lrtx248) / 4
 1068 004a 0F00     		.2byte	(.L414 - .Lrtx248) / 4
 1069 004c 0F00     		.2byte	(.L414 - .Lrtx248) / 4
 1070 004e 0F00     		.2byte	(.L414 - .Lrtx248) / 4
 1071 0050 0F00     		.2byte	(.L414 - .Lrtx248) / 4
 1072 0052 0F00     		.2byte	(.L414 - .Lrtx248) / 4
 1073 0054 0F00     		.2byte	(.L414 - .Lrtx248) / 4
 1074 0056 0F00     		.2byte	(.L414 - .Lrtx248) / 4
 1075 0058 0F00     		.2byte	(.L414 - .Lrtx248) / 4
 1076 005a 0F00     		.2byte	(.L414 - .Lrtx248) / 4
 1077 005c 0F00     		.2byte	(.L414 - .Lrtx248) / 4
 1078 005e 0F00     		.2byte	(.L414 - .Lrtx248) / 4
 1079 0060 0F00     		.2byte	(.L414 - .Lrtx248) / 4
 1080 0062 0F00     		.2byte	(.L414 - .Lrtx248) / 4
AARCH64 GAS  C:\Users\ldebo\AppData\Local\Temp\cchOloIf.s 			page 20


 1081 0064 0F00     		.2byte	(.L414 - .Lrtx248) / 4
 1082 0066 0F00     		.2byte	(.L414 - .Lrtx248) / 4
 1083 0068 0F00     		.2byte	(.L414 - .Lrtx248) / 4
 1084 006a 0F00     		.2byte	(.L414 - .Lrtx248) / 4
 1085 006c 0F00     		.2byte	(.L414 - .Lrtx248) / 4
 1086 006e 0F00     		.2byte	(.L414 - .Lrtx248) / 4
 1087 0070 0F00     		.2byte	(.L414 - .Lrtx248) / 4
 1088 0072 0F00     		.2byte	(.L414 - .Lrtx248) / 4
 1089 0074 0F00     		.2byte	(.L414 - .Lrtx248) / 4
 1090 0076 0F00     		.2byte	(.L414 - .Lrtx248) / 4
 1091 0078 0F00     		.2byte	(.L414 - .Lrtx248) / 4
 1092 007a 0F00     		.2byte	(.L414 - .Lrtx248) / 4
 1093 007c 0F00     		.2byte	(.L414 - .Lrtx248) / 4
 1094 007e 0F00     		.2byte	(.L414 - .Lrtx248) / 4
 1095 0080 0F00     		.2byte	(.L414 - .Lrtx248) / 4
 1096 0082 BF00     		.2byte	(.L415 - .Lrtx248) / 4
 1097 0084 0F00     		.2byte	(.L414 - .Lrtx248) / 4
 1098 0086 0F00     		.2byte	(.L414 - .Lrtx248) / 4
 1099 0088 0F00     		.2byte	(.L414 - .Lrtx248) / 4
 1100 008a BF00     		.2byte	(.L415 - .Lrtx248) / 4
 1101 008c BF00     		.2byte	(.L415 - .Lrtx248) / 4
 1102 008e BF00     		.2byte	(.L415 - .Lrtx248) / 4
 1103 0090 0F00     		.2byte	(.L414 - .Lrtx248) / 4
 1104 0092 0F00     		.2byte	(.L414 - .Lrtx248) / 4
 1105 0094 0F00     		.2byte	(.L414 - .Lrtx248) / 4
 1106 0096 0F00     		.2byte	(.L414 - .Lrtx248) / 4
 1107 0098 0F00     		.2byte	(.L414 - .Lrtx248) / 4
 1108 009a 0F00     		.2byte	(.L414 - .Lrtx248) / 4
 1109 009c 0F00     		.2byte	(.L414 - .Lrtx248) / 4
 1110 009e 0F00     		.2byte	(.L414 - .Lrtx248) / 4
 1111 00a0 0F00     		.2byte	(.L414 - .Lrtx248) / 4
 1112 00a2 0F00     		.2byte	(.L414 - .Lrtx248) / 4
 1113 00a4 0F00     		.2byte	(.L414 - .Lrtx248) / 4
 1114 00a6 0F00     		.2byte	(.L414 - .Lrtx248) / 4
 1115 00a8 0F00     		.2byte	(.L414 - .Lrtx248) / 4
 1116 00aa 0F00     		.2byte	(.L414 - .Lrtx248) / 4
 1117 00ac 0F00     		.2byte	(.L414 - .Lrtx248) / 4
 1118 00ae 0F00     		.2byte	(.L414 - .Lrtx248) / 4
 1119 00b0 5600     		.2byte	(.L250 - .Lrtx248) / 4
 1120 00b2 0F00     		.2byte	(.L414 - .Lrtx248) / 4
 1121 00b4 0F00     		.2byte	(.L414 - .Lrtx248) / 4
 1122 00b6 DA00     		.2byte	(.L251 - .Lrtx248) / 4
 1123 00b8 0F00     		.2byte	(.L414 - .Lrtx248) / 4
 1124 00ba 0F00     		.2byte	(.L414 - .Lrtx248) / 4
 1125 00bc 0F00     		.2byte	(.L414 - .Lrtx248) / 4
 1126 00be 0F00     		.2byte	(.L414 - .Lrtx248) / 4
 1127 00c0 0F00     		.2byte	(.L414 - .Lrtx248) / 4
 1128 00c2 BF00     		.2byte	(.L415 - .Lrtx248) / 4
 1129 00c4 0F00     		.2byte	(.L414 - .Lrtx248) / 4
 1130 00c6 6000     		.2byte	(.L252 - .Lrtx248) / 4
 1131 00c8 0200     		.2byte	(.L253 - .Lrtx248) / 4
 1132 00ca BF00     		.2byte	(.L415 - .Lrtx248) / 4
 1133 00cc BF00     		.2byte	(.L415 - .Lrtx248) / 4
 1134 00ce BF00     		.2byte	(.L415 - .Lrtx248) / 4
 1135 00d0 0F00     		.2byte	(.L414 - .Lrtx248) / 4
 1136 00d2 0200     		.2byte	(.L253 - .Lrtx248) / 4
 1137 00d4 0F00     		.2byte	(.L414 - .Lrtx248) / 4
AARCH64 GAS  C:\Users\ldebo\AppData\Local\Temp\cchOloIf.s 			page 21


 1138 00d6 0F00     		.2byte	(.L414 - .Lrtx248) / 4
 1139 00d8 0F00     		.2byte	(.L414 - .Lrtx248) / 4
 1140 00da 0F00     		.2byte	(.L414 - .Lrtx248) / 4
 1141 00dc 0F00     		.2byte	(.L414 - .Lrtx248) / 4
 1142 00de 5600     		.2byte	(.L250 - .Lrtx248) / 4
 1143 00e0 5600     		.2byte	(.L250 - .Lrtx248) / 4
 1144 00e2 0F00     		.2byte	(.L414 - .Lrtx248) / 4
 1145 00e4 0F00     		.2byte	(.L414 - .Lrtx248) / 4
 1146 00e6 6000     		.2byte	(.L252 - .Lrtx248) / 4
 1147 00e8 0F00     		.2byte	(.L414 - .Lrtx248) / 4
 1148 00ea 5600     		.2byte	(.L250 - .Lrtx248) / 4
 1149 00ec 0F00     		.2byte	(.L414 - .Lrtx248) / 4
 1150 00ee 0F00     		.2byte	(.L414 - .Lrtx248) / 4
 1151 00f0 5600     		.2byte	(.L250 - .Lrtx248) / 4
 1152              		.text
 1153 0d14 1F2003D5 		.p2align 3
 1154              	.L256:
 1155 0d18 73060091 		add	x19, x19, 1
 1156              	.L253:
 1157 0d1c 00000094 		bl	__locale_ctype_ptr
 1158 0d20 62024039 		ldrb	w2, [x19]
 1159 0d24 41AC0051 		sub	w1, w2, #43
 1160 0d28 0000228B 		add	x0, x0, x2, uxtb
 1161 0d2c 21781E12 		and	w1, w1, -3
 1162 0d30 211C0012 		and	w1, w1, 255
 1163 0d34 3F000071 		cmp	w1, 0
 1164 0d38 00044039 		ldrb	w0, [x0, 1]
 1165 0d3c 4418407A 		ccmp	w2, 0, 4, ne
 1166 0d40 00001E12 		and	w0, w0, 4
 1167 0d44 0018407A 		ccmp	w0, 0, 0, ne
 1168 0d48 80FEFF54 		beq	.L256
 1169 0d4c 1F2003D5 		.p2align 3
 1170              	.L414:
 1171 0d50 F60313AA 		mov	x22, x19
 1172              	.L247:
 1173 0d54 9F6E0171 		cmp	w20, 91
 1174 0d58 E01F0054 		beq	.L551
 1175 0d5c C1024039 		ldrb	w1, [x22]
 1176 0d60 E1F8FF34 		cbz	w1, .L513
 1177 0d64 C0064039 		ldrb	w0, [x22, 1]
 1178 0d68 D3060091 		add	x19, x22, 1
 1179 0d6c 80F8FF34 		cbz	w0, .L513
 1180 0d70 9F9E0171 		cmp	w20, 103
 1181 0d74 A91D0054 		bls	.L552
 1182 0d78 9FC20171 		cmp	w20, 112
 1183 0d7c 802A0054 		beq	.L269
 1184 0d80 C9220054 		bls	.L553
 1185 0d84 9FD60171 		cmp	w20, 117
 1186 0d88 E0110054 		beq	.L477
 1187 0d8c 9FE20171 		cmp	w20, 120
 1188 0d90 A00D0054 		beq	.L478
 1189 0d94 9FCE0171 		cmp	w20, 115
 1190 0d98 A0000054 		beq	.L272
 1191 0d9c 76000014 		b	.L263
 1192              		.p2align 3
 1193              	.L554:
 1194 0da0 58010034 		cbz	w24, .L408
AARCH64 GAS  C:\Users\ldebo\AppData\Local\Temp\cchOloIf.s 			page 22


 1195 0da4 73060091 		add	x19, x19, 1
 1196 0da8 18070051 		sub	w24, w24, #1
 1197              	.L272:
 1198 0dac 00000094 		bl	__locale_ctype_ptr
 1199 0db0 61024039 		ldrb	w1, [x19]
 1200 0db4 0000218B 		add	x0, x0, x1, uxtb
 1201 0db8 00044039 		ldrb	w0, [x0, 1]
 1202 0dbc 1F007DF2 		tst	x0, 8
 1203 0dc0 2408407A 		ccmp	w1, 0, 4, eq
 1204 0dc4 E1FEFF54 		bne	.L554
 1205              		.p2align 3
 1206              	.L408:
 1207 0dc8 750216CB 		sub	x21, x19, x22
 1208 0dcc E10316AA 		mov	x1, x22
 1209 0dd0 B57E4093 		sxtw	x21, w21
 1210 0dd4 E00319AA 		mov	x0, x25
 1211 0dd8 E20315AA 		mov	x2, x21
 1212 0ddc 00000094 		bl	strncpy
 1213 0de0 9F9E0171 		cmp	w20, 103
 1214 0de4 3F6B3538 		strb	wzr, [x25, x21]
 1215 0de8 C91B0054 		bls	.L555
 1216 0dec 9FC20171 		cmp	w20, 112
 1217 0df0 40320054 		beq	.L301
 1218 0df4 69220054 		bls	.L556
 1219 0df8 9FD60171 		cmp	w20, 117
 1220 0dfc A0220054 		beq	.L297
 1221 0e00 9FE20171 		cmp	w20, 120
 1222 0e04 60220054 		beq	.L297
 1223 0e08 9FCE0171 		cmp	w20, 115
 1224 0e0c 61020054 		bne	.L294
 1225 0e10 E06740B9 		ldr	w0, [sp, 100]
 1226 0e14 20020035 		cbnz	w0, .L294
 1227 0e18 D7490034 		cbz	w23, .L386
 1228 0e1c FFB20171 		cmp	w23, 108
 1229 0e20 C1010054 		bne	.L294
 1230 0e24 E00319AA 		mov	x0, x25
 1231 0e28 00000094 		bl	strlen
 1232 0e2c E10319AA 		mov	x1, x25
 1233 0e30 02040091 		add	x2, x0, 1
 1234 0e34 E0430691 		add	x0, sp, 400
 1235 0e38 00000094 		bl	mbstowcs
 1236 0e3c FB4FF837 		tbnz	w27, #31, .L391
 1237 0e40 413F0091 		add	x1, x26, 15
 1238 0e44 E0031AAA 		mov	x0, x26
 1239 0e48 3AF07D92 		and	x26, x1, -8
 1240              	.L392:
 1241 0e4c 000040F9 		ldr	x0, [x0]
 1242 0e50 E1430691 		add	x1, sp, 400
 1243 0e54 00000094 		bl	wcscpy
 1244              		.p2align 3
 1245              	.L294:
 1246 0e58 E06340B9 		ldr	w0, [sp, 96]
 1247 0e5c 00040011 		add	w0, w0, 1
 1248 0e60 E06300B9 		str	w0, [sp, 96]
 1249 0e64 71FFFF17 		b	.L238
 1250              		.p2align 3
 1251              	.L257:
AARCH64 GAS  C:\Users\ldebo\AppData\Local\Temp\cchOloIf.s 			page 23


 1252 0e68 73060091 		add	x19, x19, 1
 1253              	.L250:
 1254 0e6c 00000094 		bl	__locale_ctype_ptr
 1255 0e70 61024039 		ldrb	w1, [x19]
 1256 0e74 0000218B 		add	x0, x0, x1, uxtb
 1257 0e78 00044039 		ldrb	w0, [x0, 1]
 1258 0e7c 1F007EF2 		tst	x0, 4
 1259 0e80 2408407A 		ccmp	w1, 0, 4, eq
 1260 0e84 21FFFF54 		bne	.L257
 1261 0e88 B2FFFF17 		b	.L414
 1262 0e8c 1F2003D5 		.p2align 3
 1263              	.L255:
 1264 0e90 73060091 		add	x19, x19, 1
 1265              	.L252:
 1266 0e94 00000094 		bl	__locale_ctype_ptr
 1267 0e98 61024039 		ldrb	w1, [x19]
 1268 0e9c 0000018B 		add	x0, x0, x1
 1269 0ea0 00044039 		ldrb	w0, [x0, 1]
 1270 0ea4 60FF1F37 		tbnz	x0, 3, .L255
 1271 0ea8 AAFFFF17 		b	.L414
 1272 0eac 1F2003D5 		.p2align 3
 1273              	.L549:
 1274 0eb0 E0320151 		sub	w0, w23, #76
 1275 0eb4 001C0012 		and	w0, w0, 255
 1276 0eb8 1FB80071 		cmp	w0, 46
 1277 0ebc 28090054 		bhi	.L412
 1278 0ec0 210080D2 		mov	x1, 1
 1279 0ec4 0100A8F2 		movk	x1, 0x4000, lsl 16
 1280 0ec8 0120C8F2 		movk	x1, 0x4100, lsl 32
 1281 0ecc 2024C09A 		lsr	x0, x1, x0
 1282 0ed0 80360036 		tbz	x0, 0, .L413
 1283 0ed4 D4064039 		ldrb	w20, [x22, 1]
 1284 0ed8 BC060091 		add	x28, x21, 1
 1285 0edc 86FFFF17 		b	.L245
 1286              		.p2align 3
 1287              	.L410:
 1288 0ee0 F40316AA 		mov	x20, x22
 1289 0ee4 02000014 		b	.L242
 1290              		.p2align 3
 1291              	.L411:
 1292 0ee8 F40315AA 		mov	x20, x21
 1293              	.L242:
 1294 0eec 00000094 		bl	__locale_ctype_ptr
 1295 0ef0 95060091 		add	x21, x20, 1
 1296 0ef4 81024039 		ldrb	w1, [x20]
 1297 0ef8 0000018B 		add	x0, x0, x1
 1298 0efc 00044039 		ldrb	w0, [x0, 1]
 1299 0f00 40FF1737 		tbnz	x0, 2, .L411
 1300 0f04 970216CB 		sub	x23, x20, x22
 1301 0f08 E10316AA 		mov	x1, x22
 1302 0f0c F77E4093 		sxtw	x23, w23
 1303 0f10 E00319AA 		mov	x0, x25
 1304 0f14 E20317AA 		mov	x2, x23
 1305 0f18 00000094 		bl	strncpy
 1306 0f1c E00316AA 		mov	x0, x22
 1307 0f20 42018052 		mov	w2, 10
 1308 0f24 3F6B3738 		strb	wzr, [x25, x23]
AARCH64 GAS  C:\Users\ldebo\AppData\Local\Temp\cchOloIf.s 			page 24


 1309 0f28 E1230291 		add	x1, sp, 136
 1310 0f2c F60314AA 		mov	x22, x20
 1311 0f30 00000094 		bl	strtol
 1312 0f34 97024039 		ldrb	w23, [x20]
 1313 0f38 F803002A 		mov	w24, w0
 1314 0f3c 67FFFF17 		b	.L243
 1315              		.p2align 3
 1316              	.L279:
 1317 0f40 73060091 		add	x19, x19, 1
 1318              	.L478:
 1319 0f44 00000094 		bl	__locale_ctype_ptr
 1320 0f48 61024039 		ldrb	w1, [x19]
 1321 0f4c 0000218B 		add	x0, x0, x1, uxtb
 1322 0f50 00044039 		ldrb	w0, [x0, 1]
 1323 0f54 60FF1737 		tbnz	x0, 2, .L279
 1324 0f58 20781A12 		and	w0, w1, -33
 1325 0f5c 00040151 		sub	w0, w0, #65
 1326 0f60 001C0012 		and	w0, w0, 255
 1327 0f64 1F140071 		cmp	w0, 5
 1328 0f68 C9FEFF54 		bls	.L279
 1329              	.L514:
 1330 0f6c 00028052 		mov	w0, 16
 1331 0f70 E06B00B9 		str	w0, [sp, 104]
 1332              	.L263:
 1333 0f74 9F8E0171 		cmp	w20, 99
 1334 0f78 81F2FF54 		bne	.L408
 1335              	.L292:
 1336 0f7c E06740B9 		ldr	w0, [sp, 100]
 1337 0f80 C0F6FF35 		cbnz	w0, .L294
 1338 0f84 97310034 		cbz	w23, .L394
 1339 0f88 FFB20171 		cmp	w23, 108
 1340 0f8c 61F6FF54 		bne	.L294
 1341 0f90 220080D2 		mov	x2, 1
 1342 0f94 E10316AA 		mov	x1, x22
 1343 0f98 E0430691 		add	x0, sp, 400
 1344 0f9c 00000094 		bl	mbstowcs
 1345 0fa0 DB42F837 		tbnz	w27, #31, .L399
 1346 0fa4 413F0091 		add	x1, x26, 15
 1347 0fa8 E0031AAA 		mov	x0, x26
 1348 0fac 3AF07D92 		and	x26, x1, -8
 1349              	.L400:
 1350 0fb0 000040F9 		ldr	x0, [x0]
 1351 0fb4 E19341B9 		ldr	w1, [sp, 400]
 1352 0fb8 010000B9 		str	w1, [x0]
 1353 0fbc A7FFFF17 		b	.L294
 1354              		.p2align 3
 1355              	.L278:
 1356 0fc0 73060091 		add	x19, x19, 1
 1357              	.L477:
 1358 0fc4 00000094 		bl	__locale_ctype_ptr
 1359 0fc8 61024039 		ldrb	w1, [x19]
 1360 0fcc 0000018B 		add	x0, x0, x1
 1361 0fd0 00044039 		ldrb	w0, [x0, 1]
 1362 0fd4 60FF1737 		tbnz	x0, 2, .L278
 1363 0fd8 E7FFFF17 		b	.L263
 1364 0fdc 1F2003D5 		.p2align 3
 1365              	.L412:
AARCH64 GAS  C:\Users\ldebo\AppData\Local\Temp\cchOloIf.s 			page 25


 1366 0fe0 FC0315AA 		mov	x28, x21
 1367 0fe4 F403172A 		mov	w20, w23
 1368 0fe8 F50316AA 		mov	x21, x22
 1369 0fec 17008052 		mov	w23, 0
 1370 0ff0 41FFFF17 		b	.L245
 1371              	.L550:
 1372 0ff4 A00A0091 		add	x0, x21, 2
 1373 0ff8 21008052 		mov	w1, 1
 1374 0ffc F5031CAA 		mov	x21, x28
 1375 1000 D40A4039 		ldrb	w20, [x22, 2]
 1376 1004 FC0300AA 		mov	x28, x0
 1377 1008 E17F00B9 		str	w1, [sp, 124]
 1378 100c 3AFFFF17 		b	.L245
 1379              	.L415:
 1380 1010 F60313AA 		mov	x22, x19
 1381 1014 00000094 		bl	__locale_ctype_ptr
 1382 1018 C1024039 		ldrb	w1, [x22]
 1383 101c 0000218B 		add	x0, x0, x1, uxtb
 1384 1020 00044039 		ldrb	w0, [x0, 1]
 1385 1024 00001E72 		ands	w0, w0, 4
 1386 1028 E2179F1A 		cset	w2, eq
 1387 102c 3FB80071 		cmp	w1, 46
 1388 1030 89010054 		bls	.L557
 1389              	.L258:
 1390 1034 00E9FF35 		cbnz	w0, .L247
 1391 1038 D6060091 		add	x22, x22, 1
 1392 103c 1F2003D5 		.p2align 3
 1393              	.L558:
 1394 1040 00000094 		bl	__locale_ctype_ptr
 1395 1044 C1024039 		ldrb	w1, [x22]
 1396 1048 0000218B 		add	x0, x0, x1, uxtb
 1397 104c 00044039 		ldrb	w0, [x0, 1]
 1398 1050 00001E72 		ands	w0, w0, 4
 1399 1054 E2179F1A 		cset	w2, eq
 1400 1058 3FB80071 		cmp	w1, 46
 1401 105c C8FEFF54 		bhi	.L258
 1402              	.L557:
 1403 1060 200080D2 		mov	x0, 1
 1404 1064 0000CDF2 		movk	x0, 0x6800, lsl 32
 1405 1068 0124C19A 		lsr	x1, x0, x1
 1406 106c 5F00216A 		bics	wzr, w2, w1
 1407 1070 20E7FF54 		beq	.L247
 1408 1074 D6060091 		add	x22, x22, 1
 1409 1078 F2FFFF17 		b	.L558
 1410              	.L251:
 1411 107c A0064039 		ldrb	w0, [x21, 1]
 1412 1080 1F780171 		cmp	w0, 94
 1413 1084 A0110054 		beq	.L559
 1414              	.L254:
 1415 1088 A0DFFF34 		cbz	w0, .L513
 1416 108c 80074039 		ldrb	w0, [x28, 1]
 1417 1090 84070091 		add	x4, x28, 1
 1418 1094 40DFFF34 		cbz	w0, .L513
 1419 1098 1F740171 		cmp	w0, 93
 1420 109c 0418407A 		ccmp	w0, 0, 4, ne
 1421 10a0 A0000054 		beq	.L276
 1422              	.L275:
AARCH64 GAS  C:\Users\ldebo\AppData\Local\Temp\cchOloIf.s 			page 26


 1423 10a4 801C4038 		ldrb	w0, [x4, 1]!
 1424 10a8 1F740171 		cmp	w0, 93
 1425 10ac 0418407A 		ccmp	w0, 0, 4, ne
 1426 10b0 A1FFFF54 		bne	.L275
 1427              	.L276:
 1428 10b4 9F6E0171 		cmp	w20, 91
 1429 10b8 813E0054 		bne	.L560
 1430 10bc 94001CCB 		sub	x20, x4, x28
 1431 10c0 E1031CAA 		mov	x1, x28
 1432 10c4 947E4093 		sxtw	x20, w20
 1433 10c8 E00319AA 		mov	x0, x25
 1434 10cc E20314AA 		mov	x2, x20
 1435 10d0 FC0304AA 		mov	x28, x4
 1436 10d4 00000094 		bl	strncpy
 1437 10d8 3F6B3438 		strb	wzr, [x25, x20]
 1438              	.L300:
 1439 10dc E07B40B9 		ldr	w0, [sp, 120]
 1440 10e0 80000035 		cbnz	w0, .L402
 1441 10e4 4D000014 		b	.L403
 1442              		.p2align 3
 1443              	.L404:
 1444 10e8 73060091 		add	x19, x19, 1
 1445 10ec 18070051 		sub	w24, w24, #1
 1446              	.L402:
 1447 10f0 61024039 		ldrb	w1, [x19]
 1448 10f4 E00319AA 		mov	x0, x25
 1449 10f8 00000094 		bl	strchr
 1450 10fc 1F030071 		cmp	w24, 0
 1451 1100 001840FA 		ccmp	x0, 0, 0, ne
 1452 1104 20FFFF54 		beq	.L404
 1453 1108 C8FEFF17 		b	.L238
 1454 110c 1F2003D5 		.p2align 3
 1455              	.L409:
 1456 1110 FF6300B9 		str	wzr, [sp, 96]
 1457 1114 F35340A9 		ldp	x19, x20, [sp]
 1458 1118 E06340B9 		ldr	w0, [sp, 96]
 1459 111c FE2B40F9 		ldr	x30, [sp, 80]
 1460 1120 FF431691 		add	sp, sp, 1424
 1461 1124 C0035FD6 		ret
 1462              	.L552:
 1463 1128 9F960171 		cmp	w20, 101
 1464 112c C2100054 		bcs	.L265
 1465 1130 9F1E0171 		cmp	w20, 71
 1466 1134 09100054 		bls	.L561
 1467 1138 9F860171 		cmp	w20, 97
 1468 113c 40100054 		beq	.L265
 1469 1140 9F920171 		cmp	w20, 100
 1470 1144 00F4FF54 		beq	.L477
 1471 1148 9F620171 		cmp	w20, 88
 1472 114c 41F1FF54 		bne	.L263
 1473 1150 7DFFFF17 		b	.L478
 1474              	.L551:
 1475 1154 A0064039 		ldrb	w0, [x21, 1]
 1476 1158 F30316AA 		mov	x19, x22
 1477 115c CBFFFF17 		b	.L254
 1478              	.L555:
 1479 1160 9F960171 		cmp	w20, 101
AARCH64 GAS  C:\Users\ldebo\AppData\Local\Temp\cchOloIf.s 			page 27


 1480 1164 E2000054 		bcs	.L296
 1481 1168 9F620171 		cmp	w20, 88
 1482 116c 20070054 		beq	.L297
 1483 1170 A8120054 		bhi	.L298
 1484 1174 80160151 		sub	w0, w20, #69
 1485 1178 1F080071 		cmp	w0, 2
 1486 117c E8E6FF54 		bhi	.L294
 1487              	.L296:
 1488 1180 E06740B9 		ldr	w0, [sp, 100]
 1489 1184 E0010035 		cbnz	w0, .L304
 1490 1188 FF320171 		cmp	w23, 76
 1491 118c E0230054 		beq	.L371
 1492 1190 FFB20171 		cmp	w23, 108
 1493 1194 A01D0054 		beq	.L372
 1494 1198 57010035 		cbnz	w23, .L304
 1495 119c E1230291 		add	x1, sp, 136
 1496 11a0 E00319AA 		mov	x0, x25
 1497 11a4 00000094 		bl	strtof
 1498 11a8 9B35F837 		tbnz	w27, #31, .L374
 1499 11ac 413F0091 		add	x1, x26, 15
 1500 11b0 E0031AAA 		mov	x0, x26
 1501 11b4 3AF07D92 		and	x26, x1, -8
 1502              	.L375:
 1503 11b8 000040F9 		ldr	x0, [x0]
 1504 11bc 000000BD 		str	s0, [x0]
 1505              		.p2align 3
 1506              	.L304:
 1507 11c0 9F6E0171 		cmp	w20, 91
 1508 11c4 20D3FF54 		beq	.L238
 1509              	.L567:
 1510 11c8 E06340B9 		ldr	w0, [sp, 96]
 1511 11cc 00040011 		add	w0, w0, 1
 1512 11d0 E06300B9 		str	w0, [sp, 96]
 1513 11d4 95FEFF17 		b	.L238
 1514              	.L553:
 1515 11d8 9FA60171 		cmp	w20, 105
 1516 11dc 80070054 		beq	.L269
 1517 11e0 9FBE0171 		cmp	w20, 111
 1518 11e4 80000054 		beq	.L517
 1519 11e8 63FFFF17 		b	.L263
 1520 11ec 1F2003D5 		.p2align 3
 1521              	.L273:
 1522 11f0 601E4038 		ldrb	w0, [x19, 1]!
 1523              	.L517:
 1524 11f4 00C00051 		sub	w0, w0, #48
 1525 11f8 001C0012 		and	w0, w0, 255
 1526 11fc 1F1C0071 		cmp	w0, 7
 1527 1200 89FFFF54 		bls	.L273
 1528 1204 00018052 		mov	w0, 8
 1529 1208 E06B00B9 		str	w0, [sp, 104]
 1530 120c EFFEFF17 		b	.L408
 1531              		.p2align 3
 1532              	.L406:
 1533 1210 73060091 		add	x19, x19, 1
 1534 1214 18070051 		sub	w24, w24, #1
 1535              	.L403:
 1536 1218 61024039 		ldrb	w1, [x19]
AARCH64 GAS  C:\Users\ldebo\AppData\Local\Temp\cchOloIf.s 			page 28


 1537 121c E00319AA 		mov	x0, x25
 1538 1220 00000094 		bl	strchr
 1539 1224 1F030071 		cmp	w24, 0
 1540 1228 E1079F1A 		cset	w1, ne
 1541 122c 1F0000F1 		cmp	x0, 0
 1542 1230 20109F1A 		csel	w0, w1, wzr, ne
 1543 1234 E07B00B9 		str	w0, [sp, 120]
 1544 1238 C0FEFF35 		cbnz	w0, .L406
 1545 123c 7BFEFF17 		b	.L238
 1546              	.L556:
 1547 1240 9FA60171 		cmp	w20, 105
 1548 1244 600C0054 		beq	.L299
 1549 1248 9FBE0171 		cmp	w20, 111
 1550 124c 61E0FF54 		bne	.L294
 1551              	.L297:
 1552 1250 E06740B9 		ldr	w0, [sp, 100]
 1553 1254 60FBFF35 		cbnz	w0, .L304
 1554 1258 FFAA0171 		cmp	w23, 106
 1555 125c A0180054 		beq	.L309
 1556 1260 A9100054 		bls	.L562
 1557 1264 FFD20171 		cmp	w23, 116
 1558 1268 40180054 		beq	.L309
 1559 126c FFEA0171 		cmp	w23, 122
 1560 1270 00180054 		beq	.L309
 1561 1274 FFB20171 		cmp	w23, 108
 1562 1278 41FAFF54 		bne	.L304
 1563 127c E07F40B9 		ldr	w0, [sp, 124]
 1564 1280 E1230291 		add	x1, sp, 136
 1565 1284 E26B40B9 		ldr	w2, [sp, 104]
 1566 1288 80170034 		cbz	w0, .L545
 1567 128c E00319AA 		mov	x0, x25
 1568 1290 00000094 		bl	strtoull
 1569 1294 3B0CF836 		tbz	w27, #31, .L525
 1570              	.L368:
 1571 1298 62230011 		add	w2, w27, 8
 1572 129c 5F000071 		cmp	w2, 0
 1573 12a0 8D240054 		ble	.L370
 1574 12a4 443F0091 		add	x4, x26, 15
 1575 12a8 E1031AAA 		mov	x1, x26
 1576 12ac FB03022A 		mov	w27, w2
 1577 12b0 9AF07D92 		and	x26, x4, -8
 1578 12b4 5C000014 		b	.L369
 1579              		.p2align 3
 1580              	.L559:
 1581 12b8 21008052 		mov	w1, 1
 1582 12bc BC0A0091 		add	x28, x21, 2
 1583 12c0 A00A4039 		ldrb	w0, [x21, 2]
 1584 12c4 E17B00B9 		str	w1, [sp, 120]
 1585 12c8 70FFFF17 		b	.L254
 1586              	.L269:
 1587 12cc 3FC00071 		cmp	w1, 48
 1588 12d0 61020054 		bne	.L280
 1589 12d4 D30A0091 		add	x19, x22, 2
 1590 12d8 1F880171 		cmp	w0, 98
 1591 12dc C0170054 		beq	.L282
 1592 12e0 1FE00171 		cmp	w0, 120
 1593 12e4 A10E0054 		bne	.L563
AARCH64 GAS  C:\Users\ldebo\AppData\Local\Temp\cchOloIf.s 			page 29


 1594              		.p2align 3
 1595              	.L283:
 1596 12e8 00000094 		bl	__locale_ctype_ptr
 1597 12ec 61024039 		ldrb	w1, [x19]
 1598 12f0 0000218B 		add	x0, x0, x1, uxtb
 1599 12f4 00044039 		ldrb	w0, [x0, 1]
 1600 12f8 C0001037 		tbnz	x0, 2, .L284
 1601 12fc 20781A12 		and	w0, w1, -33
 1602 1300 00040151 		sub	w0, w0, #65
 1603 1304 001C0012 		and	w0, w0, 255
 1604 1308 1F140071 		cmp	w0, 5
 1605 130c 08E3FF54 		bhi	.L514
 1606              	.L284:
 1607 1310 73060091 		add	x19, x19, 1
 1608 1314 F5FFFF17 		b	.L283
 1609              		.p2align 3
 1610              	.L287:
 1611 1318 73060091 		add	x19, x19, 1
 1612              	.L280:
 1613 131c 00000094 		bl	__locale_ctype_ptr
 1614 1320 61024039 		ldrb	w1, [x19]
 1615 1324 0000018B 		add	x0, x0, x1
 1616 1328 00044039 		ldrb	w0, [x0, 1]
 1617 132c 60FF1737 		tbnz	x0, 2, .L287
 1618 1330 11FFFF17 		b	.L263
 1619              	.L561:
 1620 1334 9F160171 		cmp	w20, 69
 1621 1338 62000054 		bcs	.L265
 1622 133c 9F060171 		cmp	w20, 65
 1623 1340 A1E1FF54 		bne	.L263
 1624              	.L265:
 1625 1344 3FB80071 		cmp	w1, 46
 1626 1348 15008052 		mov	w21, 0
 1627 134c E0179F1A 		cset	w0, eq
 1628 1350 E06F00B9 		str	w0, [sp, 108]
 1629 1354 1F2003D5 		.p2align 3
 1630              	.L291:
 1631 1358 E06F40B9 		ldr	w0, [sp, 108]
 1632 135c 80000035 		cbnz	w0, .L288
 1633 1360 60024039 		ldrb	w0, [x19]
 1634 1364 1FB80071 		cmp	w0, 46
 1635 1368 60020054 		beq	.L564
 1636              	.L288:
 1637 136c 75010035 		cbnz	w21, .L289
 1638 1370 60024039 		ldrb	w0, [x19]
 1639 1374 00781A12 		and	w0, w0, -33
 1640 1378 001C0012 		and	w0, w0, 255
 1641 137c 1F140171 		cmp	w0, 69
 1642 1380 C1000054 		bne	.L289
 1643 1384 60064039 		ldrb	w0, [x19, 1]
 1644 1388 1FB40071 		cmp	w0, 45
 1645 138c E0060054 		beq	.L290
 1646 1390 73060091 		add	x19, x19, 1
 1647 1394 35008052 		mov	w21, 1
 1648              		.p2align 3
 1649              	.L289:
 1650 1398 00000094 		bl	__locale_ctype_ptr
AARCH64 GAS  C:\Users\ldebo\AppData\Local\Temp\cchOloIf.s 			page 30


 1651 139c 61024039 		ldrb	w1, [x19]
 1652 13a0 0000018B 		add	x0, x0, x1
 1653 13a4 00044039 		ldrb	w0, [x0, 1]
 1654 13a8 60DE1736 		tbz	x0, 2, .L263
 1655 13ac 73060091 		add	x19, x19, 1
 1656 13b0 EAFFFF17 		b	.L291
 1657              	.L564:
 1658 13b4 20008052 		mov	w0, 1
 1659 13b8 73060091 		add	x19, x19, 1
 1660 13bc E06F00B9 		str	w0, [sp, 108]
 1661 13c0 EBFFFF17 		b	.L288
 1662              	.L298:
 1663 13c4 9F8E0171 		cmp	w20, 99
 1664 13c8 A0DDFF54 		beq	.L292
 1665 13cc 09090054 		bls	.L565
 1666              	.L299:
 1667 13d0 E06740B9 		ldr	w0, [sp, 100]
 1668 13d4 60EFFF35 		cbnz	w0, .L304
 1669 13d8 FFAA0171 		cmp	w23, 106
 1670 13dc 600D0054 		beq	.L342
 1671 13e0 C9080054 		bls	.L566
 1672 13e4 FFD20171 		cmp	w23, 116
 1673 13e8 000D0054 		beq	.L342
 1674 13ec FFEA0171 		cmp	w23, 122
 1675 13f0 C00C0054 		beq	.L342
 1676 13f4 FFB20171 		cmp	w23, 108
 1677 13f8 41EEFF54 		bne	.L304
 1678 13fc E07F40B9 		ldr	w0, [sp, 124]
 1679 1400 E1230291 		add	x1, sp, 136
 1680 1404 E26B40B9 		ldr	w2, [sp, 104]
 1681 1408 400C0034 		cbz	w0, .L541
 1682 140c E00319AA 		mov	x0, x25
 1683 1410 00000094 		bl	strtoll
 1684 1414 3BF4FF37 		tbnz	w27, #31, .L368
 1685              	.L525:
 1686 1418 423F0091 		add	x2, x26, 15
 1687 141c E1031AAA 		mov	x1, x26
 1688 1420 5AF07D92 		and	x26, x2, -8
 1689              	.L369:
 1690 1424 210040F9 		ldr	x1, [x1]
 1691 1428 9F6E0171 		cmp	w20, 91
 1692 142c 200000F9 		str	x0, [x1]
 1693 1430 C1ECFF54 		bne	.L567
 1694 1434 FDFDFF17 		b	.L238
 1695              	.L301:
 1696 1438 E1230291 		add	x1, sp, 136
 1697 143c 02028052 		mov	w2, 16
 1698 1440 E00319AA 		mov	x0, x25
 1699 1444 00000094 		bl	strtol
 1700 1448 E16740B9 		ldr	w1, [sp, 100]
 1701 144c 61D0FF35 		cbnz	w1, .L294
 1702 1450 1B1CF837 		tbnz	w27, #31, .L383
 1703 1454 423F0091 		add	x2, x26, 15
 1704 1458 E1031AAA 		mov	x1, x26
 1705 145c 5AF07D92 		and	x26, x2, -8
 1706 1460 E3000014 		b	.L384
 1707 1464 1F2003D5 		.p2align 3
AARCH64 GAS  C:\Users\ldebo\AppData\Local\Temp\cchOloIf.s 			page 31


 1708              	.L290:
 1709 1468 730A0091 		add	x19, x19, 2
 1710 146c 35008052 		mov	w21, 1
 1711 1470 CAFFFF17 		b	.L289
 1712              	.L562:
 1713 1474 770F0034 		cbz	w23, .L307
 1714 1478 FFA20171 		cmp	w23, 104
 1715 147c 21EAFF54 		bne	.L304
 1716 1480 E07F40B9 		ldr	w0, [sp, 124]
 1717 1484 E1230291 		add	x1, sp, 136
 1718 1488 E26B40B9 		ldr	w2, [sp, 104]
 1719 148c A0110034 		cbz	w0, .L315
 1720 1490 E00319AA 		mov	x0, x25
 1721 1494 00000094 		bl	strtoul
 1722 1498 001C0012 		and	w0, w0, 255
 1723 149c 5B04F837 		tbnz	w27, #31, .L349
 1724              	.L521:
 1725 14a0 423F0091 		add	x2, x26, 15
 1726 14a4 E1031AAA 		mov	x1, x26
 1727 14a8 5AF07D92 		and	x26, x2, -8
 1728              	.L350:
 1729 14ac 210040F9 		ldr	x1, [x1]
 1730 14b0 20000039 		strb	w0, [x1]
 1731 14b4 43FFFF17 		b	.L304
 1732              	.L563:
 1733 14b8 C00A4039 		ldrb	w0, [x22, 2]
 1734 14bc 00C00051 		sub	w0, w0, #48
 1735 14c0 001C0012 		and	w0, w0, 255
 1736 14c4 1F1C0071 		cmp	w0, 7
 1737 14c8 C8000054 		bhi	.L417
 1738              	.L286:
 1739 14cc 601E4038 		ldrb	w0, [x19, 1]!
 1740 14d0 00C00051 		sub	w0, w0, #48
 1741 14d4 001C0012 		and	w0, w0, 255
 1742 14d8 1F1C0071 		cmp	w0, 7
 1743 14dc 89FFFF54 		bls	.L286
 1744              	.L417:
 1745 14e0 00018052 		mov	w0, 8
 1746 14e4 E06B00B9 		str	w0, [sp, 104]
 1747 14e8 A3FEFF17 		b	.L263
 1748              	.L565:
 1749 14ec 9F6E0171 		cmp	w20, 91
 1750 14f0 41CBFF54 		bne	.L294
 1751 14f4 FAFEFF17 		b	.L300
 1752              		.p2align 3
 1753              	.L566:
 1754 14f8 F7090034 		cbz	w23, .L340
 1755 14fc FFA20171 		cmp	w23, 104
 1756 1500 01E6FF54 		bne	.L304
 1757 1504 E07F40B9 		ldr	w0, [sp, 124]
 1758 1508 E1230291 		add	x1, sp, 136
 1759 150c E26B40B9 		ldr	w2, [sp, 104]
 1760 1510 400C0034 		cbz	w0, .L348
 1761 1514 E00319AA 		mov	x0, x25
 1762 1518 00000094 		bl	strtol
 1763 151c 001C0013 		sxtb	w0, w0
 1764 1520 1BFCFF36 		tbz	w27, #31, .L521
AARCH64 GAS  C:\Users\ldebo\AppData\Local\Temp\cchOloIf.s 			page 32


 1765              	.L349:
 1766 1524 62230011 		add	w2, w27, 8
 1767 1528 5F000071 		cmp	w2, 0
 1768 152c 6D1A0054 		ble	.L351
 1769 1530 443F0091 		add	x4, x26, 15
 1770 1534 E1031AAA 		mov	x1, x26
 1771 1538 FB03022A 		mov	w27, w2
 1772 153c 9AF07D92 		and	x26, x4, -8
 1773 1540 DBFFFF17 		b	.L350
 1774 1544 1F2003D5 		.p2align 3
 1775              	.L372:
 1776 1548 E1230291 		add	x1, sp, 136
 1777 154c E00319AA 		mov	x0, x25
 1778 1550 00000094 		bl	strtod
 1779 1554 FB0CF837 		tbnz	w27, #31, .L377
 1780 1558 413F0091 		add	x1, x26, 15
 1781 155c E0031AAA 		mov	x0, x26
 1782 1560 3AF07D92 		and	x26, x1, -8
 1783              	.L378:
 1784 1564 000040F9 		ldr	x0, [x0]
 1785 1568 000000FD 		str	d0, [x0]
 1786 156c 15FFFF17 		b	.L304
 1787              	.L309:
 1788 1570 E26B40B9 		ldr	w2, [sp, 104]
 1789 1574 E1230291 		add	x1, sp, 136
 1790              	.L545:
 1791 1578 E00319AA 		mov	x0, x25
 1792 157c 00000094 		bl	strtoul
 1793 1580 DBF4FF36 		tbz	w27, #31, .L525
 1794 1584 45FFFF17 		b	.L368
 1795              		.p2align 3
 1796              	.L342:
 1797 1588 E26B40B9 		ldr	w2, [sp, 104]
 1798 158c E1230291 		add	x1, sp, 136
 1799              	.L541:
 1800 1590 E00319AA 		mov	x0, x25
 1801 1594 00000094 		bl	strtol
 1802 1598 1BF4FF36 		tbz	w27, #31, .L525
 1803 159c 3FFFFF17 		b	.L368
 1804              		.p2align 3
 1805              	.L413:
 1806 15a0 FC0315AA 		mov	x28, x21
 1807 15a4 F403172A 		mov	w20, w23
 1808 15a8 F50316AA 		mov	x21, x22
 1809 15ac 17008052 		mov	w23, 0
 1810 15b0 D1FDFF17 		b	.L245
 1811              	.L394:
 1812 15b4 C2024039 		ldrb	w2, [x22]
 1813 15b8 7B17F837 		tbnz	w27, #31, .L396
 1814 15bc 413F0091 		add	x1, x26, 15
 1815 15c0 E0031AAA 		mov	x0, x26
 1816 15c4 3AF07D92 		and	x26, x1, -8
 1817              	.L397:
 1818 15c8 000040F9 		ldr	x0, [x0]
 1819 15cc 02000039 		strb	w2, [x0]
 1820 15d0 22FEFF17 		b	.L294
 1821              	.L282:
AARCH64 GAS  C:\Users\ldebo\AppData\Local\Temp\cchOloIf.s 			page 33


 1822 15d4 C00A4039 		ldrb	w0, [x22, 2]
 1823 15d8 00C00051 		sub	w0, w0, #48
 1824 15dc 001C0012 		and	w0, w0, 255
 1825 15e0 1F040071 		cmp	w0, 1
 1826 15e4 C8000054 		bhi	.L416
 1827              	.L285:
 1828 15e8 601E4038 		ldrb	w0, [x19, 1]!
 1829 15ec 00C00051 		sub	w0, w0, #48
 1830 15f0 001C0012 		and	w0, w0, 255
 1831 15f4 1F040071 		cmp	w0, 1
 1832 15f8 89FFFF54 		bls	.L285
 1833              	.L416:
 1834 15fc 40008052 		mov	w0, 2
 1835 1600 E06B00B9 		str	w0, [sp, 104]
 1836 1604 5CFEFF17 		b	.L263
 1837              	.L371:
 1838 1608 E1230291 		add	x1, sp, 136
 1839 160c E00319AA 		mov	x0, x25
 1840 1610 00000094 		bl	strtold
 1841 1614 011CA04E 		orr	v1.16b, v0.16b, v0.16b
 1842 1618 DB0AF837 		tbnz	w27, #31, .L380
 1843 161c 413F0091 		add	x1, x26, 15
 1844 1620 E0031AAA 		mov	x0, x26
 1845 1624 3AF07D92 		and	x26, x1, -8
 1846              	.L381:
 1847 1628 000040F9 		ldr	x0, [x0]
 1848 162c 0100803D 		str	q1, [x0]
 1849 1630 E4FEFF17 		b	.L304
 1850              	.L340:
 1851 1634 E26B40B9 		ldr	w2, [sp, 104]
 1852 1638 E1230291 		add	x1, sp, 136
 1853 163c E00319AA 		mov	x0, x25
 1854 1640 00000094 		bl	strtol
 1855 1644 9B01F837 		tbnz	w27, #31, .L345
 1856              	.L519:
 1857 1648 423F0091 		add	x2, x26, 15
 1858 164c E1031AAA 		mov	x1, x26
 1859 1650 5AF07D92 		and	x26, x2, -8
 1860              	.L346:
 1861 1654 210040F9 		ldr	x1, [x1]
 1862 1658 200000B9 		str	w0, [x1]
 1863 165c D9FEFF17 		b	.L304
 1864              	.L307:
 1865 1660 E26B40B9 		ldr	w2, [sp, 104]
 1866 1664 E1230291 		add	x1, sp, 136
 1867 1668 E00319AA 		mov	x0, x25
 1868 166c 00000094 		bl	strtoul
 1869 1670 DBFEFF36 		tbz	w27, #31, .L519
 1870              	.L345:
 1871 1674 62230011 		add	w2, w27, 8
 1872 1678 5F000071 		cmp	w2, 0
 1873 167c 2D060054 		ble	.L347
 1874 1680 443F0091 		add	x4, x26, 15
 1875 1684 E1031AAA 		mov	x1, x26
 1876 1688 FB03022A 		mov	w27, w2
 1877 168c 9AF07D92 		and	x26, x4, -8
 1878 1690 F1FFFF17 		b	.L346
AARCH64 GAS  C:\Users\ldebo\AppData\Local\Temp\cchOloIf.s 			page 34


 1879 1694 1F2003D5 		.p2align 3
 1880              	.L348:
 1881 1698 E00319AA 		mov	x0, x25
 1882 169c 00000094 		bl	strtol
 1883 16a0 003C0013 		sxth	w0, w0
 1884 16a4 7B01F837 		tbnz	w27, #31, .L352
 1885              	.L523:
 1886 16a8 423F0091 		add	x2, x26, 15
 1887 16ac E1031AAA 		mov	x1, x26
 1888 16b0 5AF07D92 		and	x26, x2, -8
 1889              	.L353:
 1890 16b4 210040F9 		ldr	x1, [x1]
 1891 16b8 20000079 		strh	w0, [x1]
 1892 16bc C1FEFF17 		b	.L304
 1893              	.L315:
 1894 16c0 E00319AA 		mov	x0, x25
 1895 16c4 00000094 		bl	strtoul
 1896 16c8 003C0012 		and	w0, w0, 65535
 1897 16cc FBFEFF36 		tbz	w27, #31, .L523
 1898              	.L352:
 1899 16d0 62230011 		add	w2, w27, 8
 1900 16d4 5F000071 		cmp	w2, 0
 1901 16d8 CD010054 		ble	.L354
 1902 16dc 443F0091 		add	x4, x26, 15
 1903 16e0 E1031AAA 		mov	x1, x26
 1904 16e4 FB03022A 		mov	w27, w2
 1905 16e8 9AF07D92 		and	x26, x4, -8
 1906 16ec F2FFFF17 		b	.L353
 1907              	.L377:
 1908 16f0 61230011 		add	w1, w27, 8
 1909 16f4 3F000071 		cmp	w1, 0
 1910 16f8 4D010054 		ble	.L379
 1911 16fc 423F0091 		add	x2, x26, 15
 1912 1700 E0031AAA 		mov	x0, x26
 1913 1704 FB03012A 		mov	w27, w1
 1914 1708 5AF07D92 		and	x26, x2, -8
 1915 170c 96FFFF17 		b	.L378
 1916              	.L354:
 1917 1710 E13B40F9 		ldr	x1, [sp, 112]
 1918 1714 21C03B8B 		add	x1, x1, x27, sxtw
 1919 1718 FB03022A 		mov	w27, w2
 1920 171c E6FFFF17 		b	.L353
 1921              	.L379:
 1922 1720 E03B40F9 		ldr	x0, [sp, 112]
 1923 1724 00C03B8B 		add	x0, x0, x27, sxtw
 1924 1728 FB03012A 		mov	w27, w1
 1925 172c 8EFFFF17 		b	.L378
 1926              	.L370:
 1927 1730 E13B40F9 		ldr	x1, [sp, 112]
 1928 1734 21C03B8B 		add	x1, x1, x27, sxtw
 1929 1738 FB03022A 		mov	w27, w2
 1930 173c 3AFFFF17 		b	.L369
 1931              	.L347:
 1932 1740 E13B40F9 		ldr	x1, [sp, 112]
 1933 1744 21C03B8B 		add	x1, x1, x27, sxtw
 1934 1748 FB03022A 		mov	w27, w2
 1935 174c C2FFFF17 		b	.L346
AARCH64 GAS  C:\Users\ldebo\AppData\Local\Temp\cchOloIf.s 			page 35


 1936              	.L386:
 1937 1750 1B02F837 		tbnz	w27, #31, .L388
 1938 1754 413F0091 		add	x1, x26, 15
 1939 1758 E0031AAA 		mov	x0, x26
 1940 175c 3AF07D92 		and	x26, x1, -8
 1941              	.L389:
 1942 1760 000040F9 		ldr	x0, [x0]
 1943 1764 E10319AA 		mov	x1, x25
 1944 1768 00000094 		bl	strcpy
 1945 176c BBFDFF17 		b	.L294
 1946              	.L380:
 1947 1770 61230011 		add	w1, w27, 8
 1948 1774 3F000071 		cmp	w1, 0
 1949 1778 CD010054 		ble	.L382
 1950 177c 423F0091 		add	x2, x26, 15
 1951 1780 E0031AAA 		mov	x0, x26
 1952 1784 FB03012A 		mov	w27, w1
 1953 1788 5AF07D92 		and	x26, x2, -8
 1954 178c A7FFFF17 		b	.L381
 1955              	.L388:
 1956 1790 61230011 		add	w1, w27, 8
 1957 1794 3F000071 		cmp	w1, 0
 1958 1798 4D010054 		ble	.L390
 1959 179c 423F0091 		add	x2, x26, 15
 1960 17a0 E0031AAA 		mov	x0, x26
 1961 17a4 FB03012A 		mov	w27, w1
 1962 17a8 5AF07D92 		and	x26, x2, -8
 1963 17ac EDFFFF17 		b	.L389
 1964              	.L382:
 1965 17b0 E03B40F9 		ldr	x0, [sp, 112]
 1966 17b4 00C03B8B 		add	x0, x0, x27, sxtw
 1967 17b8 FB03012A 		mov	w27, w1
 1968 17bc 9BFFFF17 		b	.L381
 1969              	.L390:
 1970 17c0 E03B40F9 		ldr	x0, [sp, 112]
 1971 17c4 00C03B8B 		add	x0, x0, x27, sxtw
 1972 17c8 FB03012A 		mov	w27, w1
 1973 17cc E5FFFF17 		b	.L389
 1974              	.L383:
 1975 17d0 62230011 		add	w2, w27, 8
 1976 17d4 5F000071 		cmp	w2, 0
 1977 17d8 0D020054 		ble	.L385
 1978 17dc 443F0091 		add	x4, x26, 15
 1979 17e0 E1031AAA 		mov	x1, x26
 1980 17e4 FB03022A 		mov	w27, w2
 1981 17e8 9AF07D92 		and	x26, x4, -8
 1982              	.L384:
 1983 17ec 210040F9 		ldr	x1, [x1]
 1984 17f0 200000F9 		str	x0, [x1]
 1985 17f4 99FDFF17 		b	.L294
 1986              	.L399:
 1987 17f8 61230011 		add	w1, w27, 8
 1988 17fc 3F000071 		cmp	w1, 0
 1989 1800 4D010054 		ble	.L401
 1990 1804 423F0091 		add	x2, x26, 15
 1991 1808 E0031AAA 		mov	x0, x26
 1992 180c FB03012A 		mov	w27, w1
AARCH64 GAS  C:\Users\ldebo\AppData\Local\Temp\cchOloIf.s 			page 36


 1993 1810 5AF07D92 		and	x26, x2, -8
 1994 1814 E7FDFF17 		b	.L400
 1995              	.L385:
 1996 1818 E13B40F9 		ldr	x1, [sp, 112]
 1997 181c 21C03B8B 		add	x1, x1, x27, sxtw
 1998 1820 FB03022A 		mov	w27, w2
 1999 1824 F2FFFF17 		b	.L384
 2000              	.L401:
 2001 1828 E03B40F9 		ldr	x0, [sp, 112]
 2002 182c 00C03B8B 		add	x0, x0, x27, sxtw
 2003 1830 FB03012A 		mov	w27, w1
 2004 1834 DFFDFF17 		b	.L400
 2005              	.L391:
 2006 1838 61230011 		add	w1, w27, 8
 2007 183c 3F000071 		cmp	w1, 0
 2008 1840 AD020054 		ble	.L393
 2009 1844 423F0091 		add	x2, x26, 15
 2010 1848 E0031AAA 		mov	x0, x26
 2011 184c FB03012A 		mov	w27, w1
 2012 1850 5AF07D92 		and	x26, x2, -8
 2013 1854 7EFDFF17 		b	.L392
 2014              	.L374:
 2015 1858 61230011 		add	w1, w27, 8
 2016 185c 3F000071 		cmp	w1, 0
 2017 1860 2D030054 		ble	.L376
 2018 1864 423F0091 		add	x2, x26, 15
 2019 1868 E0031AAA 		mov	x0, x26
 2020 186c FB03012A 		mov	w27, w1
 2021 1870 5AF07D92 		and	x26, x2, -8
 2022 1874 51FEFF17 		b	.L375
 2023              	.L351:
 2024 1878 E13B40F9 		ldr	x1, [sp, 112]
 2025 187c 21C03B8B 		add	x1, x1, x27, sxtw
 2026 1880 FB03022A 		mov	w27, w2
 2027 1884 0AFFFF17 		b	.L350
 2028              	.L560:
 2029 1888 F6031CAA 		mov	x22, x28
 2030 188c FC0304AA 		mov	x28, x4
 2031 1890 4EFDFF17 		b	.L408
 2032              	.L393:
 2033 1894 E03B40F9 		ldr	x0, [sp, 112]
 2034 1898 00C03B8B 		add	x0, x0, x27, sxtw
 2035 189c FB03012A 		mov	w27, w1
 2036 18a0 6BFDFF17 		b	.L392
 2037              	.L396:
 2038 18a4 61230011 		add	w1, w27, 8
 2039 18a8 3F000071 		cmp	w1, 0
 2040 18ac 4D010054 		ble	.L398
 2041 18b0 443F0091 		add	x4, x26, 15
 2042 18b4 E0031AAA 		mov	x0, x26
 2043 18b8 FB03012A 		mov	w27, w1
 2044 18bc 9AF07D92 		and	x26, x4, -8
 2045 18c0 42FFFF17 		b	.L397
 2046              	.L376:
 2047 18c4 E03B40F9 		ldr	x0, [sp, 112]
 2048 18c8 00C03B8B 		add	x0, x0, x27, sxtw
 2049 18cc FB03012A 		mov	w27, w1
AARCH64 GAS  C:\Users\ldebo\AppData\Local\Temp\cchOloIf.s 			page 37


 2050 18d0 3AFEFF17 		b	.L375
 2051              	.L398:
 2052 18d4 E03B40F9 		ldr	x0, [sp, 112]
 2053 18d8 00C03B8B 		add	x0, x0, x27, sxtw
 2054 18dc FB03012A 		mov	w27, w1
 2055 18e0 3AFFFF17 		b	.L397
 2056              		.size	vsscanf, .-vsscanf
 2057              		.align	2
 2058 18e4 1F2003D5 		.p2align 4,,15
 2058      1F2003D5 
 2058      1F2003D5 
 2059              		.global	sscanf
 2060              		.type	sscanf, %function
 2061              	sscanf:
 2062 18f0 FF0304D1 		sub	sp, sp, #256
 2063 18f4 FE0300F9 		str	x30, [sp]
 2064 18f8 E20F0DA9 		stp	x2, x3, [sp, 208]
 2065 18fc E4170EA9 		stp	x4, x5, [sp, 224]
 2066 1900 E61F0FA9 		stp	x6, x7, [sp, 240]
 2067 1904 E017803D 		str	q0, [sp, 80]
 2068 1908 E11B803D 		str	q1, [sp, 96]
 2069 190c E21F803D 		str	q2, [sp, 112]
 2070 1910 E323803D 		str	q3, [sp, 128]
 2071 1914 E427803D 		str	q4, [sp, 144]
 2072 1918 E52B803D 		str	q5, [sp, 160]
 2073 191c E62F803D 		str	q6, [sp, 176]
 2074 1920 E733803D 		str	q7, [sp, 192]
 2075 1924 600200B4 		cbz	x0, .L570
 2076 1928 E2030491 		add	x2, sp, 256
 2077 192c E20B03A9 		stp	x2, x2, [sp, 48]
 2078 1930 E2058012 		mov	w2, -48
 2079 1934 E3430391 		add	x3, sp, 208
 2080 1938 E32300F9 		str	x3, [sp, 64]
 2081 193c E24B00B9 		str	w2, [sp, 72]
 2082 1940 E20F8012 		mov	w2, -128
 2083 1944 E24F00B9 		str	w2, [sp, 76]
 2084 1948 E2430091 		add	x2, sp, 16
 2085 194c E61F43A9 		ldp	x6, x7, [sp, 48]
 2086 1950 E61F01A9 		stp	x6, x7, [sp, 16]
 2087 1954 E41744A9 		ldp	x4, x5, [sp, 64]
 2088 1958 E41702A9 		stp	x4, x5, [sp, 32]
 2089 195c 00000094 		bl	vsscanf
 2090 1960 FE0340F9 		ldr	x30, [sp]
 2091 1964 FF030491 		add	sp, sp, 256
 2092 1968 C0035FD6 		ret
 2093 196c 1F2003D5 		.p2align 3
 2094              	.L570:
 2095 1970 FE0340F9 		ldr	x30, [sp]
 2096 1974 00008052 		mov	w0, 0
 2097 1978 FF030491 		add	sp, sp, 256
 2098 197c C0035FD6 		ret
 2099              		.size	sscanf, .-sscanf
 2100              		.align	2
 2101              		.p2align 4,,15
 2102              		.global	emb_sprintf
 2103              		.type	emb_sprintf, %function
 2104              	emb_sprintf:
AARCH64 GAS  C:\Users\ldebo\AppData\Local\Temp\cchOloIf.s 			page 38


 2105 1980 FF0304D1 		sub	sp, sp, #256
 2106 1984 E8030491 		add	x8, sp, 256
 2107 1988 E9430391 		add	x9, sp, 208
 2108 198c E82303A9 		stp	x8, x8, [sp, 48]
 2109 1990 E8058012 		mov	w8, -48
 2110 1994 E92300F9 		str	x9, [sp, 64]
 2111 1998 E84B00B9 		str	w8, [sp, 72]
 2112 199c E80F8012 		mov	w8, -128
 2113 19a0 E84F00B9 		str	w8, [sp, 76]
 2114 19a4 EA2F43A9 		ldp	x10, x11, [sp, 48]
 2115 19a8 FE0300F9 		str	x30, [sp]
 2116 19ac E82744A9 		ldp	x8, x9, [sp, 64]
 2117 19b0 EA2F01A9 		stp	x10, x11, [sp, 16]
 2118 19b4 E82702A9 		stp	x8, x9, [sp, 32]
 2119 19b8 E017803D 		str	q0, [sp, 80]
 2120 19bc E11B803D 		str	q1, [sp, 96]
 2121 19c0 E21F803D 		str	q2, [sp, 112]
 2122 19c4 E323803D 		str	q3, [sp, 128]
 2123 19c8 E427803D 		str	q4, [sp, 144]
 2124 19cc E52B803D 		str	q5, [sp, 160]
 2125 19d0 E62F803D 		str	q6, [sp, 176]
 2126 19d4 E733803D 		str	q7, [sp, 192]
 2127 19d8 E20F0DA9 		stp	x2, x3, [sp, 208]
 2128 19dc E2430091 		add	x2, sp, 16
 2129 19e0 E4170EA9 		stp	x4, x5, [sp, 224]
 2130 19e4 E61F0FA9 		stp	x6, x7, [sp, 240]
 2131 19e8 00000094 		bl	emb_vsprintf
 2132 19ec FE0340F9 		ldr	x30, [sp]
 2133 19f0 FF030491 		add	sp, sp, 256
 2134 19f4 C0035FD6 		ret
 2135              		.size	emb_sprintf, .-emb_sprintf
 2136              		.align	2
 2137 19f8 1F2003D5 		.p2align 4,,15
 2137      1F2003D5 
 2138              		.global	printf
 2139              		.type	printf, %function
 2140              	printf:
 2141 1a00 FF830CD1 		sub	sp, sp, #800
 2142 1a04 E8830C91 		add	x8, sp, 800
 2143 1a08 EC030891 		add	x12, sp, 512
 2144 1a0c E9830B91 		add	x9, sp, 736
 2145 1a10 E82304A9 		stp	x8, x8, [sp, 64]
 2146 1a14 E8068012 		mov	w8, -56
 2147 1a18 F35300A9 		stp	x19, x20, [sp]
 2148 1a1c F57B01A9 		stp	x21, x30, [sp, 16]
 2149 1a20 E92B00F9 		str	x9, [sp, 80]
 2150 1a24 E85B00B9 		str	w8, [sp, 88]
 2151 1a28 E80F8012 		mov	w8, -128
 2152 1a2c E85F00B9 		str	w8, [sp, 92]
 2153 1a30 EA2F44A9 		ldp	x10, x11, [sp, 64]
 2154 1a34 E82745A9 		ldp	x8, x9, [sp, 80]
 2155 1a38 8019803D 		str	q0, [x12, 96]
 2156 1a3c 811D803D 		str	q1, [x12, 112]
 2157 1a40 8221803D 		str	q2, [x12, 128]
 2158 1a44 8325803D 		str	q3, [x12, 144]
 2159 1a48 8429803D 		str	q4, [x12, 160]
 2160 1a4c 852D803D 		str	q5, [x12, 176]
AARCH64 GAS  C:\Users\ldebo\AppData\Local\Temp\cchOloIf.s 			page 39


 2161 1a50 8631803D 		str	q6, [x12, 192]
 2162 1a54 8735803D 		str	q7, [x12, 208]
 2163 1a58 E82703A9 		stp	x8, x9, [sp, 48]
 2164 1a5c E8030891 		add	x8, sp, 512
 2165 1a60 EA2F02A9 		stp	x10, x11, [sp, 32]
 2166 1a64 01890EA9 		stp	x1, x2, [x8, 232]
 2167 1a68 E10300AA 		mov	x1, x0
 2168 1a6c 03910FA9 		stp	x3, x4, [x8, 248]
 2169 1a70 E2830091 		add	x2, sp, 32
 2170 1a74 E58701F9 		str	x5, [sp, 776]
 2171 1a78 E0830191 		add	x0, sp, 96
 2172 1a7c E68B01F9 		str	x6, [sp, 784]
 2173 1a80 E78F01F9 		str	x7, [sp, 792]
 2174 1a84 00000094 		bl	emb_vsprintf
 2175 1a88 F503002A 		mov	w21, w0
 2176 1a8c 1F000071 		cmp	w0, 0
 2177 1a90 4D010054 		ble	.L574
 2178 1a94 F3830191 		add	x19, sp, 96
 2179 1a98 14040051 		sub	w20, w0, #1
 2180 1a9c 60060091 		add	x0, x19, 1
 2181 1aa0 1400148B 		add	x20, x0, x20
 2182 1aa4 1F2003D5 		.p2align 3
 2183              	.L576:
 2184 1aa8 60164038 		ldrb	w0, [x19], 1
 2185 1aac 00000094 		bl	Embedded_Console_WriteChar
 2186 1ab0 7F0214EB 		cmp	x19, x20
 2187 1ab4 A1FFFF54 		bne	.L576
 2188              	.L574:
 2189 1ab8 E003152A 		mov	w0, w21
 2190 1abc F35340A9 		ldp	x19, x20, [sp]
 2191 1ac0 F57B41A9 		ldp	x21, x30, [sp, 16]
 2192 1ac4 FF830C91 		add	sp, sp, 800
 2193 1ac8 C0035FD6 		ret
 2194              		.size	printf, .-printf
 2195              		.comm	__errno,4,4
 2196              		.section	.rodata
 2197 00f2 00000000 		.align	3
 2197      0000
 2198              		.set	.LANCHOR0,. + 0
 2199              		.type	digits.4626, %object
 2200              		.size	digits.4626, 16
 2201              	digits.4626:
 2202 00f8 30313233 		.ascii	"0123456789ABCDEF"
 2202      34353637 
 2202      38394142 
 2202      43444546 
 2203              		.ident	"GCC: (Linaro GCC 7.1-2017.05) 7.1.1 20170510"
AARCH64 GAS  C:\Users\ldebo\AppData\Local\Temp\cchOloIf.s 			page 40


DEFINED SYMBOLS
                            *ABS*:0000000000000000 emb-stdio.c
C:\Users\ldebo\AppData\Local\Temp\cchOloIf.s:4      .text:0000000000000000 $x
C:\Users\ldebo\AppData\Local\Temp\cchOloIf.s:7      .text:0000000000000000 number
C:\Users\ldebo\AppData\Local\Temp\cchOloIf.s:221    .text:00000000000002b0 strnlen
C:\Users\ldebo\AppData\Local\Temp\cchOloIf.s:247    .text:00000000000002f0 emb_vsprintf
C:\Users\ldebo\AppData\Local\Temp\cchOloIf.s:934    .text:0000000000000bd0 vsscanf
C:\Users\ldebo\AppData\Local\Temp\cchOloIf.s:1029   .rodata:0000000000000000 $d
C:\Users\ldebo\AppData\Local\Temp\cchOloIf.s:2061   .text:00000000000018f0 sscanf
C:\Users\ldebo\AppData\Local\Temp\cchOloIf.s:2104   .text:0000000000001980 emb_sprintf
C:\Users\ldebo\AppData\Local\Temp\cchOloIf.s:2140   .text:0000000000001a00 printf
                            *COM*:0000000000000004 __errno
C:\Users\ldebo\AppData\Local\Temp\cchOloIf.s:2201   .rodata:00000000000000f8 digits.4626

UNDEFINED SYMBOLS
__locale_ctype_ptr
strncpy
strlen
mbstowcs
wcscpy
strtol
strchr
strtof
strtoull
strtoll
strtoul
strtod
strtold
strcpy
Embedded_Console_WriteChar
AARCH64 GAS  C:\Users\ldebo\AppData\Local\Temp\cchOloIf.s 			page 1


   1              		.arch armv8-a
   2              		.file	"SDCard.c"
   3              		.text
   4              		.align	2
   5              		.p2align 4,,15
   6              		.type	sdWaitForData, %function
   7              	sdWaitForData:
   8 0000 F353BCA9 		stp	x19, x20, [sp, -64]!
   9 0004 13000090 		adrp	x19, RPi_IO_Base_Addr
  10 0008 73020091 		add	x19, x19, :lo12:RPi_IO_Base_Addr
  11 000c F55B01A9 		stp	x21, x22, [sp, 16]
  12 0010 F4870C32 		mov	w20, 3145776
  13 0014 F76302A9 		stp	x23, x24, [sp, 32]
  14 0018 95048052 		mov	w21, 36
  15 001c 1506A072 		movk	w21, 0x30, lsl 16
  16 0020 F97B03A9 		stp	x25, x30, [sp, 48]
  17 0024 16009052 		mov	w22, 32768
  18 0028 D62FA072 		movk	w22, 0x17e, lsl 16
  19 002c F72394D2 		mov	x23, 41247
  20 0030 F700A0F2 		movk	x23, 0x7, lsl 16
  21 0034 180080D2 		mov	x24, 0
  22 0038 190080D2 		mov	x25, 0
  23              	.L2:
  24 003c 600240B9 		ldr	w0, [x19]
  25 0040 0100150B 		add	w1, w0, w21
  26 0044 0300140B 		add	w3, w0, w20
  27 0048 220040B9 		ldr	w2, [x1]
  28 004c C2010836 		tbz	x2, 1, .L5
  29              	.L16:
  30 0050 620040B9 		ldr	w2, [x3]
  31 0054 5F00166A 		tst	w2, w22
  32 0058 61010054 		bne	.L5
  33 005c 3F0317EB 		cmp	x25, x23
  34 0060 88020054 		bhi	.L9
  35 0064 F80400B5 		cbnz	x24, .L3
  36 0068 00000094 		bl	timer_getTickCount
  37 006c F80300AA 		mov	x24, x0
  38 0070 600240B9 		ldr	w0, [x19]
  39 0074 0100150B 		add	w1, w0, w21
  40 0078 0300140B 		add	w3, w0, w20
  41 007c 220040B9 		ldr	w2, [x1]
  42 0080 82FE0F37 		tbnz	x2, 1, .L16
  43              	.L5:
  44 0084 E22394D2 		mov	x2, 41247
  45 0088 E200A0F2 		movk	x2, 0x7, lsl 16
  46 008c 3F0302EB 		cmp	x25, x2
  47 0090 08010054 		bhi	.L9
  48 0094 E3870C32 		mov	w3, 3145776
  49 0098 0200030B 		add	w2, w0, w3
  50 009c 03009052 		mov	w3, 32768
  51 00a0 C32FA072 		movk	w3, 0x17e, lsl 16
  52 00a4 420040B9 		ldr	w2, [x2]
  53 00a8 5F00036A 		tst	w2, w3
  54 00ac 60030054 		beq	.L17
  55              	.L9:
  56 00b0 02000090 		adrp	x2, .LANCHOR0
  57 00b4 440040F9 		ldr	x4, [x2, #:lo12:.LANCHOR0]
AARCH64 GAS  C:\Users\ldebo\AppData\Local\Temp\cchOloIf.s 			page 2


  58 00b8 640100B4 		cbz	x4, .L14
  59 00bc 03004C11 		add	w3, w0, 3145728
  60 00c0 E2870C32 		mov	w2, 3145776
  61 00c4 63400011 		add	w3, w3, 16
  62 00c8 0200020B 		add	w2, w0, w2
  63 00cc 210040B9 		ldr	w1, [x1]
  64 00d0 00000090 		adrp	x0, .LC0
  65 00d4 00000091 		add	x0, x0, :lo12:.LC0
  66 00d8 420040B9 		ldr	w2, [x2]
  67 00dc 630040B9 		ldr	w3, [x3]
  68 00e0 80003FD6 		blr	x4
  69              	.L14:
  70 00e4 60008052 		mov	w0, 3
  71 00e8 F55B41A9 		ldp	x21, x22, [sp, 16]
  72 00ec F76342A9 		ldp	x23, x24, [sp, 32]
  73 00f0 F97B43A9 		ldp	x25, x30, [sp, 48]
  74 00f4 F353C4A8 		ldp	x19, x20, [sp], 64
  75 00f8 C0035FD6 		ret
  76 00fc 1F2003D5 		.p2align 3
  77              	.L3:
  78 0100 00000094 		bl	timer_getTickCount
  79 0104 E10300AA 		mov	x1, x0
  80 0108 E00318AA 		mov	x0, x24
  81 010c 00000094 		bl	tick_difference
  82 0110 F90300AA 		mov	x25, x0
  83 0114 CAFFFF17 		b	.L2
  84              		.p2align 3
  85              	.L17:
  86 0118 00008052 		mov	w0, 0
  87 011c F55B41A9 		ldp	x21, x22, [sp, 16]
  88 0120 F76342A9 		ldp	x23, x24, [sp, 32]
  89 0124 F97B43A9 		ldp	x25, x30, [sp, 48]
  90 0128 F353C4A8 		ldp	x19, x20, [sp], 64
  91 012c C0035FD6 		ret
  92              		.size	sdWaitForData, .-sdWaitForData
  93              		.align	2
  94              		.p2align 4,,15
  95              		.type	sdWaitForInterrupt, %function
  96              	sdWaitForInterrupt:
  97 0130 F353BBA9 		stp	x19, x20, [sp, -80]!
  98 0134 14009052 		mov	w20, 32768
  99 0138 D42FA072 		movk	w20, 0x17e, lsl 16
 100 013c 1400142A 		orr	w20, w0, w20
 101 0140 F55B01A9 		stp	x21, x22, [sp, 16]
 102 0144 130080D2 		mov	x19, 0
 103 0148 F76302A9 		stp	x23, x24, [sp, 32]
 104 014c 18000090 		adrp	x24, RPi_IO_Base_Addr
 105 0150 16030091 		add	x22, x24, :lo12:RPi_IO_Base_Addr
 106 0154 F703002A 		mov	w23, w0
 107 0158 F96B03A9 		stp	x25, x26, [sp, 48]
 108 015c F5870C32 		mov	w21, 3145776
 109 0160 F94788D2 		mov	x25, 16959
 110 0164 F901A0F2 		movk	x25, 0xf, lsl 16
 111 0168 1A0080D2 		mov	x26, 0
 112 016c FE2300F9 		str	x30, [sp, 64]
 113              	.L19:
 114 0170 C10240B9 		ldr	w1, [x22]
AARCH64 GAS  C:\Users\ldebo\AppData\Local\Temp\cchOloIf.s 			page 3


 115 0174 2000150B 		add	w0, w1, w21
 116 0178 020040B9 		ldr	w2, [x0]
 117 017c 5F00146A 		tst	w2, w20
 118 0180 61010054 		bne	.L22
 119              	.L40:
 120 0184 5F0319EB 		cmp	x26, x25
 121 0188 88050054 		bhi	.L39
 122 018c B30800B5 		cbnz	x19, .L20
 123 0190 00000094 		bl	timer_getTickCount
 124 0194 F30300AA 		mov	x19, x0
 125 0198 C10240B9 		ldr	w1, [x22]
 126 019c 2000150B 		add	w0, w1, w21
 127 01a0 020040B9 		ldr	w2, [x0]
 128 01a4 5F00146A 		tst	w2, w20
 129 01a8 E0FEFF54 		beq	.L40
 130              	.L22:
 131 01ac 130040B9 		ldr	w19, [x0]
 132 01b0 E24788D2 		mov	x2, 16959
 133 01b4 E201A0F2 		movk	x2, 0xf, lsl 16
 134 01b8 5F0302EB 		cmp	x26, x2
 135 01bc 08040054 		bhi	.L25
 136 01c0 2202A052 		mov	w2, 1114112
 137 01c4 7F02026A 		tst	w19, w2
 138 01c8 A1030054 		bne	.L25
 139 01cc 02009052 		mov	w2, 32768
 140 01d0 C22FA072 		movk	w2, 0x17e, lsl 16
 141 01d4 7F02026A 		tst	w19, w2
 142 01d8 00070054 		beq	.L29
 143 01dc 02000090 		adrp	x2, .LANCHOR0
 144 01e0 440040F9 		ldr	x4, [x2, #:lo12:.LANCHOR0]
 145 01e4 A40100B4 		cbz	x4, .L30
 146 01e8 25004C11 		add	w5, w1, 3145728
 147 01ec 23004C11 		add	w3, w1, 3145728
 148 01f0 A5900011 		add	w5, w5, 36
 149 01f4 63400011 		add	w3, w3, 16
 150 01f8 00000090 		adrp	x0, .LC2
 151 01fc E203132A 		mov	w2, w19
 152 0200 00000091 		add	x0, x0, :lo12:.LC2
 153 0204 A10040B9 		ldr	w1, [x5]
 154 0208 630040B9 		ldr	w3, [x3]
 155 020c 80003FD6 		blr	x4
 156 0210 C00240B9 		ldr	w0, [x22]
 157 0214 0000150B 		add	w0, w0, w21
 158              	.L30:
 159 0218 130000B9 		str	w19, [x0]
 160 021c 20008052 		mov	w0, 1
 161 0220 F55B41A9 		ldp	x21, x22, [sp, 16]
 162 0224 F76342A9 		ldp	x23, x24, [sp, 32]
 163 0228 F96B43A9 		ldp	x25, x26, [sp, 48]
 164 022c FE2340F9 		ldr	x30, [sp, 64]
 165 0230 F353C5A8 		ldp	x19, x20, [sp], 80
 166 0234 C0035FD6 		ret
 167              		.p2align 3
 168              	.L39:
 169 0238 130040B9 		ldr	w19, [x0]
 170              	.L25:
 171 023c 02000090 		adrp	x2, .LANCHOR0
AARCH64 GAS  C:\Users\ldebo\AppData\Local\Temp\cchOloIf.s 			page 4


 172 0240 450040F9 		ldr	x5, [x2, #:lo12:.LANCHOR0]
 173 0244 E50100B4 		cbz	x5, .L27
 174 0248 22004C11 		add	w2, w1, 3145728
 175 024c 24004C11 		add	w4, w1, 3145728
 176 0250 42900011 		add	w2, w2, 36
 177 0254 84400011 		add	w4, w4, 16
 178 0258 E103172A 		mov	w1, w23
 179 025c 00000090 		adrp	x0, .LC1
 180 0260 E303132A 		mov	w3, w19
 181 0264 00000091 		add	x0, x0, :lo12:.LC1
 182 0268 420040B9 		ldr	w2, [x2]
 183 026c 840040B9 		ldr	w4, [x4]
 184 0270 A0003FD6 		blr	x5
 185 0274 000340B9 		ldr	w0, [x24, #:lo12:RPi_IO_Base_Addr]
 186 0278 E1870C32 		mov	w1, 3145776
 187 027c 0000010B 		add	w0, w0, w1
 188              	.L27:
 189 0280 130000B9 		str	w19, [x0]
 190 0284 40008052 		mov	w0, 2
 191 0288 F55B41A9 		ldp	x21, x22, [sp, 16]
 192 028c F76342A9 		ldp	x23, x24, [sp, 32]
 193 0290 F96B43A9 		ldp	x25, x26, [sp, 48]
 194 0294 FE2340F9 		ldr	x30, [sp, 64]
 195 0298 F353C5A8 		ldp	x19, x20, [sp], 80
 196 029c C0035FD6 		ret
 197              		.p2align 3
 198              	.L20:
 199 02a0 00000094 		bl	timer_getTickCount
 200 02a4 E10300AA 		mov	x1, x0
 201 02a8 E00313AA 		mov	x0, x19
 202 02ac 00000094 		bl	tick_difference
 203 02b0 FA0300AA 		mov	x26, x0
 204 02b4 AFFFFF17 		b	.L19
 205              		.p2align 3
 206              	.L29:
 207 02b8 170000B9 		str	w23, [x0]
 208 02bc 00008052 		mov	w0, 0
 209 02c0 F55B41A9 		ldp	x21, x22, [sp, 16]
 210 02c4 F76342A9 		ldp	x23, x24, [sp, 32]
 211 02c8 F96B43A9 		ldp	x25, x26, [sp, 48]
 212 02cc FE2340F9 		ldr	x30, [sp, 64]
 213 02d0 F353C5A8 		ldp	x19, x20, [sp], 80
 214 02d4 C0035FD6 		ret
 215              		.size	sdWaitForInterrupt, .-sdWaitForInterrupt
 216              		.align	2
 217 02d8 1F2003D5 		.p2align 4,,15
 217      1F2003D5 
 218              		.type	sdSetClock, %function
 219              	sdSetClock:
 220 02e0 F353BCA9 		stp	x19, x20, [sp, -64]!
 221 02e4 130080D2 		mov	x19, 0
 222 02e8 140080D2 		mov	x20, 0
 223 02ec F55B01A9 		stp	x21, x22, [sp, 16]
 224 02f0 96048052 		mov	w22, 36
 225 02f4 1606A072 		movk	w22, 0x30, lsl 16
 226 02f8 F76302A9 		stp	x23, x24, [sp, 32]
 227 02fc 17000090 		adrp	x23, RPi_IO_Base_Addr
AARCH64 GAS  C:\Users\ldebo\AppData\Local\Temp\cchOloIf.s 			page 5


 228 0300 F5020091 		add	x21, x23, :lo12:RPi_IO_Base_Addr
 229 0304 F803002A 		mov	w24, w0
 230 0308 F97B03A9 		stp	x25, x30, [sp, 48]
 231 030c F9D390D2 		mov	x25, 34463
 232 0310 3900A0F2 		movk	x25, 0x1, lsl 16
 233 0314 1F2003D5 		.p2align 3
 234              	.L42:
 235 0318 A10240B9 		ldr	w1, [x21]
 236 031c 2000160B 		add	w0, w1, w22
 237 0320 020040B9 		ldr	w2, [x0]
 238 0324 62000037 		tbnz	x2, 0, .L45
 239              	.L76:
 240 0328 020040B9 		ldr	w2, [x0]
 241 032c 22040836 		tbz	x2, 1, .L46
 242              	.L45:
 243 0330 9F0219EB 		cmp	x20, x25
 244 0334 68010054 		bhi	.L62
 245              	.L47:
 246 0338 130300B5 		cbnz	x19, .L43
 247 033c 00000094 		bl	timer_getTickCount
 248 0340 F30300AA 		mov	x19, x0
 249 0344 A10240B9 		ldr	w1, [x21]
 250 0348 2000160B 		add	w0, w1, w22
 251 034c 020040B9 		ldr	w2, [x0]
 252 0350 C2FE0736 		tbz	x2, 0, .L76
 253 0354 9F0219EB 		cmp	x20, x25
 254 0358 09FFFF54 		bls	.L47
 255 035c 1F2003D5 		.p2align 3
 256              	.L62:
 257 0360 01000090 		adrp	x1, .LANCHOR0
 258 0364 220040F9 		ldr	x2, [x1, #:lo12:.LANCHOR0]
 259 0368 A20000B4 		cbz	x2, .L74
 260 036c 010040B9 		ldr	w1, [x0]
 261 0370 00000090 		adrp	x0, .LC3
 262 0374 00000091 		add	x0, x0, :lo12:.LC3
 263 0378 40003FD6 		blr	x2
 264              	.L74:
 265 037c E0008052 		mov	w0, 7
 266              	.L41:
 267 0380 F55B41A9 		ldp	x21, x22, [sp, 16]
 268 0384 F76342A9 		ldp	x23, x24, [sp, 32]
 269 0388 F97B43A9 		ldp	x25, x30, [sp, 48]
 270 038c F353C4A8 		ldp	x19, x20, [sp], 64
 271 0390 C0035FD6 		ret
 272 0394 1F2003D5 		.p2align 3
 273              	.L43:
 274 0398 00000094 		bl	timer_getTickCount
 275 039c E10300AA 		mov	x1, x0
 276 03a0 E00313AA 		mov	x0, x19
 277 03a4 00000094 		bl	tick_difference
 278 03a8 F40300AA 		mov	x20, x0
 279 03ac DBFFFF17 		b	.L42
 280              		.p2align 3
 281              	.L46:
 282 03b0 E2D390D2 		mov	x2, 34463
 283 03b4 2200A0F2 		movk	x2, 0x1, lsl 16
 284 03b8 9F0202EB 		cmp	x20, x2
AARCH64 GAS  C:\Users\ldebo\AppData\Local\Temp\cchOloIf.s 			page 6


 285 03bc 28FDFF54 		bhi	.L62
 286 03c0 21004C11 		add	w1, w1, 3145728
 287 03c4 400180D2 		mov	x0, 10
 288 03c8 21B00011 		add	w1, w1, 44
 289 03cc 220040B9 		ldr	w2, [x1]
 290 03d0 42781D12 		and	w2, w2, -5
 291 03d4 220000B9 		str	w2, [x1]
 292 03d8 00000094 		bl	timer_wait
 293 03dc A20240B9 		ldr	w2, [x21]
 294 03e0 400D9952 		mov	w0, 51306
 295 03e4 604FA072 		movk	w0, 0x27b, lsl 16
 296 03e8 0003000B 		add	w0, w24, w0
 297 03ec 41004C11 		add	w1, w2, 3145728
 298 03f0 21F00311 		add	w1, w1, 252
 299 03f4 1808D81A 		udiv	w24, w0, w24
 300 03f8 200040B9 		ldr	w0, [x1]
 301 03fc 005C50D3 		ubfx	x0, x0, 16, 8
 302 0400 1F040071 		cmp	w0, 1
 303 0404 A9070054 		bls	.L77
 304 0408 015F1853 		lsl	w1, w24, 8
 305 040c 1F0B0071 		cmp	w24, 2
 306 0410 03808052 		mov	w3, 1024
 307 0414 2380831A 		csel	w3, w1, w3, hi
 308              	.L52:
 309 0418 99058052 		mov	w25, 44
 310 041c 1906A072 		movk	w25, 0x30, lsl 16
 311 0420 4200190B 		add	w2, w2, w25
 312 0424 400180D2 		mov	x0, 10
 313 0428 F6020091 		add	x22, x23, :lo12:RPi_IO_Base_Addr
 314 042c F503192A 		mov	w21, w25
 315 0430 F8D390D2 		mov	x24, 34463
 316 0434 3800A0F2 		movk	x24, 0x1, lsl 16
 317 0438 410040B9 		ldr	w1, [x2]
 318 043c 130080D2 		mov	x19, 0
 319 0440 140080D2 		mov	x20, 0
 320 0444 21501012 		and	w1, w1, -65505
 321 0448 2100032A 		orr	w1, w1, w3
 322 044c 410000B9 		str	w1, [x2]
 323 0450 00000094 		bl	timer_wait
 324 0454 E00240B9 		ldr	w0, [x23, #:lo12:RPi_IO_Base_Addr]
 325 0458 0000190B 		add	w0, w0, w25
 326 045c 010040B9 		ldr	w1, [x0]
 327 0460 21001E32 		orr	w1, w1, 4
 328 0464 010000B9 		str	w1, [x0]
 329              	.L53:
 330 0468 C00240B9 		ldr	w0, [x22]
 331 046c 0000150B 		add	w0, w0, w21
 332 0470 000040B9 		ldr	w0, [x0]
 333 0474 40010837 		tbnz	x0, 1, .L56
 334              	.L78:
 335 0478 9F0218EB 		cmp	x20, x24
 336 047c A8010054 		bhi	.L58
 337 0480 130300B5 		cbnz	x19, .L54
 338 0484 00000094 		bl	timer_getTickCount
 339 0488 F30300AA 		mov	x19, x0
 340 048c C00240B9 		ldr	w0, [x22]
 341 0490 0000150B 		add	w0, w0, w21
AARCH64 GAS  C:\Users\ldebo\AppData\Local\Temp\cchOloIf.s 			page 7


 342 0494 000040B9 		ldr	w0, [x0]
 343 0498 00FF0F36 		tbz	x0, 1, .L78
 344              	.L56:
 345 049c E1D390D2 		mov	x1, 34463
 346 04a0 2100A0F2 		movk	x1, 0x1, lsl 16
 347 04a4 00008052 		mov	w0, 0
 348 04a8 9F0201EB 		cmp	x20, x1
 349 04ac A9F6FF54 		bls	.L41
 350              		.p2align 3
 351              	.L58:
 352 04b0 00000090 		adrp	x0, .LANCHOR0
 353 04b4 010040F9 		ldr	x1, [x0, #:lo12:.LANCHOR0]
 354 04b8 21F6FFB4 		cbz	x1, .L74
 355 04bc 00000090 		adrp	x0, .LC4
 356 04c0 00000091 		add	x0, x0, :lo12:.LC4
 357 04c4 20003FD6 		blr	x1
 358 04c8 E0008052 		mov	w0, 7
 359 04cc F55B41A9 		ldp	x21, x22, [sp, 16]
 360 04d0 F76342A9 		ldp	x23, x24, [sp, 32]
 361 04d4 F97B43A9 		ldp	x25, x30, [sp, 48]
 362 04d8 F353C4A8 		ldp	x19, x20, [sp], 64
 363 04dc C0035FD6 		ret
 364              		.p2align 3
 365              	.L54:
 366 04e0 00000094 		bl	timer_getTickCount
 367 04e4 E10300AA 		mov	x1, x0
 368 04e8 E00313AA 		mov	x0, x19
 369 04ec 00000094 		bl	tick_difference
 370 04f0 F40300AA 		mov	x20, x0
 371 04f4 DDFFFF17 		b	.L53
 372              	.L77:
 373 04f8 001F0853 		lsl	w0, w24, 24
 374 04fc 1F0C0472 		tst	w0, -268435456
 375 0500 80010054 		beq	.L64
 376 0504 E3008052 		mov	w3, 7
 377 0508 A1008052 		mov	w1, 5
 378              	.L65:
 379 050c 1F040272 		tst	w0, -1073741824
 380 0510 61000054 		bne	.L50
 381 0514 00741E53 		lsl	w0, w0, 2
 382 0518 E303012A 		mov	w3, w1
 383              	.L50:
 384 051c E003202A 		mvn	w0, w0
 385 0520 01208052 		mov	w1, 256
 386 0524 637C404B 		sub	w3, w3, w0, lsr 31
 387 0528 2320C31A 		lsl	w3, w1, w3
 388 052c BBFFFF17 		b	.L52
 389              	.L64:
 390 0530 000F0453 		lsl	w0, w24, 28
 391 0534 63008052 		mov	w3, 3
 392 0538 21008052 		mov	w1, 1
 393 053c F4FFFF17 		b	.L65
 394              		.size	sdSetClock, .-sdSetClock
 395              		.align	2
 396              		.p2align 4,,15
 397              		.type	ReadLFNEntry, %function
 398              	ReadLFNEntry:
AARCH64 GAS  C:\Users\ldebo\AppData\Local\Temp\cchOloIf.s 			page 8


 399 0540 F353BDA9 		stp	x19, x20, [sp, -48]!
 400 0544 14040091 		add	x20, x0, 1
 401 0548 13008052 		mov	w19, 0
 402 054c F55B01A9 		stp	x21, x22, [sp, 16]
 403 0550 F60301AA 		mov	x22, x1
 404 0554 F77B02A9 		stp	x23, x30, [sp, 32]
 405 0558 F50301AA 		mov	x21, x1
 406 055c F70300AA 		mov	x23, x0
 407              	.L81:
 408 0560 80064039 		ldrb	w0, [x20, 1]
 409 0564 E30315AA 		mov	x3, x21
 410 0568 82024039 		ldrb	w2, [x20]
 411 056c 4020002A 		orr	w0, w2, w0, lsl 8
 412 0570 00010035 		cbnz	w0, .L95
 413              	.L80:
 414 0574 7F000039 		strb	wzr, [x3]
 415 0578 E003132A 		mov	w0, w19
 416 057c F55B41A9 		ldp	x21, x22, [sp, 16]
 417 0580 F77B42A9 		ldp	x23, x30, [sp, 32]
 418 0584 F353C3A8 		ldp	x19, x20, [sp], 48
 419 0588 C0035FD6 		ret
 420 058c 1F2003D5 		.p2align 3
 421              	.L95:
 422 0590 00000094 		bl	wctob
 423 0594 73060011 		add	w19, w19, 1
 424 0598 A0160038 		strb	w0, [x21], 1
 425 059c 731E0012 		and	w19, w19, 255
 426 05a0 940A0091 		add	x20, x20, 2
 427 05a4 7F160071 		cmp	w19, 5
 428 05a8 C1FDFF54 		bne	.L81
 429 05ac 15008052 		mov	w21, 0
 430 05b0 741E4092 		and	x20, x19, 255
 431 05b4 E2C6358B 		add	x2, x23, x21, sxtw 1
 432 05b8 C302148B 		add	x3, x22, x20
 433 05bc 44384039 		ldrb	w4, [x2, 14]
 434 05c0 403C4039 		ldrb	w0, [x2, 15]
 435 05c4 8020002A 		orr	w0, w4, w0, lsl 8
 436 05c8 60FDFF34 		cbz	w0, .L80
 437 05cc 1F2003D5 		.p2align 3
 438              	.L97:
 439 05d0 00000094 		bl	wctob
 440 05d4 C06A3438 		strb	w0, [x22, x20]
 441 05d8 62060011 		add	w2, w19, 1
 442 05dc B5060011 		add	w21, w21, 1
 443 05e0 421C0012 		and	w2, w2, 255
 444 05e4 BF1A0071 		cmp	w21, 6
 445 05e8 E0010054 		beq	.L96
 446 05ec F303022A 		mov	w19, w2
 447 05f0 E2C6358B 		add	x2, x23, x21, sxtw 1
 448 05f4 741E4092 		and	x20, x19, 255
 449 05f8 C302148B 		add	x3, x22, x20
 450 05fc 44384039 		ldrb	w4, [x2, 14]
 451 0600 403C4039 		ldrb	w0, [x2, 15]
 452 0604 8020002A 		orr	w0, w4, w0, lsl 8
 453 0608 40FEFF35 		cbnz	w0, .L97
 454 060c 7F000039 		strb	wzr, [x3]
 455 0610 E003132A 		mov	w0, w19
AARCH64 GAS  C:\Users\ldebo\AppData\Local\Temp\cchOloIf.s 			page 9


 456 0614 F55B41A9 		ldp	x21, x22, [sp, 16]
 457 0618 F77B42A9 		ldp	x23, x30, [sp, 32]
 458 061c F353C3A8 		ldp	x19, x20, [sp], 48
 459 0620 C0035FD6 		ret
 460              	.L96:
 461 0624 E1724039 		ldrb	w1, [x23, 28]
 462 0628 541C4092 		and	x20, x2, 255
 463 062c E0764039 		ldrb	w0, [x23, 29]
 464 0630 C302148B 		add	x3, x22, x20
 465 0634 2020002A 		orr	w0, w1, w0, lsl 8
 466 0638 00010035 		cbnz	w0, .L98
 467 063c 7F000039 		strb	wzr, [x3]
 468 0640 F303022A 		mov	w19, w2
 469 0644 E003132A 		mov	w0, w19
 470 0648 F55B41A9 		ldp	x21, x22, [sp, 16]
 471 064c F77B42A9 		ldp	x23, x30, [sp, 32]
 472 0650 F353C3A8 		ldp	x19, x20, [sp], 48
 473 0654 C0035FD6 		ret
 474              		.p2align 3
 475              	.L98:
 476 0658 00000094 		bl	wctob
 477 065c C06A3438 		strb	w0, [x22, x20]
 478 0660 610A0011 		add	w1, w19, 2
 479 0664 E27A4039 		ldrb	w2, [x23, 30]
 480 0668 211C0012 		and	w1, w1, 255
 481 066c E07E4039 		ldrb	w0, [x23, 31]
 482 0670 341C4092 		and	x20, x1, 255
 483 0674 C302148B 		add	x3, x22, x20
 484 0678 4020002A 		orr	w0, w2, w0, lsl 8
 485 067c 60000035 		cbnz	w0, .L99
 486 0680 F303012A 		mov	w19, w1
 487 0684 BCFFFF17 		b	.L80
 488              	.L99:
 489 0688 730E0011 		add	w19, w19, 3
 490 068c 00000094 		bl	wctob
 491 0690 731E0012 		and	w19, w19, 255
 492 0694 C06A3438 		strb	w0, [x22, x20]
 493 0698 C302338B 		add	x3, x22, x19, uxtb
 494 069c B6FFFF17 		b	.L80
 495              		.size	ReadLFNEntry, .-ReadLFNEntry
 496              		.align	2
 497              		.p2align 4,,15
 498              		.type	SetFindDataFromFATEntry.part.0, %function
 499              	SetFindDataFromFATEntry.part.0:
 500 06a0 022C4039 		ldrb	w2, [x0, 11]
 501 06a4 226C00B9 		str	w2, [x1, 108]
 502 06a8 03604039 		ldrb	w3, [x0, 24]
 503 06ac 02644039 		ldrb	w2, [x0, 25]
 504 06b0 6220022A 		orr	w2, w3, w2, lsl 8
 505 06b4 44100012 		and	w4, w2, 31
 506 06b8 437C0953 		lsr	w3, w2, 9
 507 06bc 422045D3 		ubfx	x2, x2, 5, 4
 508 06c0 63400111 		add	w3, w3, 80
 509 06c4 42040051 		sub	w2, w2, #1
 510 06c8 24880129 		stp	w4, w2, [x1, 12]
 511 06cc 231400B9 		str	w3, [x1, 20]
 512 06d0 03584039 		ldrb	w3, [x0, 22]
AARCH64 GAS  C:\Users\ldebo\AppData\Local\Temp\cchOloIf.s 			page 10


 513 06d4 025C4039 		ldrb	w2, [x0, 23]
 514 06d8 6220022A 		orr	w2, w3, w2, lsl 8
 515 06dc 437C0B53 		lsr	w3, w2, 11
 516 06e0 44101F53 		ubfiz	w4, w2, 1, 5
 517 06e4 230800B9 		str	w3, [x1, 8]
 518 06e8 422845D3 		ubfx	x2, x2, 5, 6
 519 06ec 24080029 		stp	w4, w2, [x1]
 520 06f0 03484039 		ldrb	w3, [x0, 18]
 521 06f4 024C4039 		ldrb	w2, [x0, 19]
 522 06f8 6220022A 		orr	w2, w3, w2, lsl 8
 523 06fc 44100012 		and	w4, w2, 31
 524 0700 437C0953 		lsr	w3, w2, 9
 525 0704 422045D3 		ubfx	x2, x2, 5, 4
 526 0708 63400111 		add	w3, w3, 80
 527 070c 42040051 		sub	w2, w2, #1
 528 0710 24080629 		stp	w4, w2, [x1, 48]
 529 0714 233800B9 		str	w3, [x1, 56]
 530 0718 03404039 		ldrb	w3, [x0, 16]
 531 071c 02444039 		ldrb	w2, [x0, 17]
 532 0720 6220022A 		orr	w2, w3, w2, lsl 8
 533 0724 44100012 		and	w4, w2, 31
 534 0728 437C0953 		lsr	w3, w2, 9
 535 072c 422045D3 		ubfx	x2, x2, 5, 4
 536 0730 63400111 		add	w3, w3, 80
 537 0734 42040051 		sub	w2, w2, #1
 538 0738 24880A29 		stp	w4, w2, [x1, 84]
 539 073c 235C00B9 		str	w3, [x1, 92]
 540 0740 03384039 		ldrb	w3, [x0, 14]
 541 0744 023C4039 		ldrb	w2, [x0, 15]
 542 0748 6220022A 		orr	w2, w3, w2, lsl 8
 543 074c 437C0B53 		lsr	w3, w2, 11
 544 0750 44101F53 		ubfiz	w4, w2, 1, 5
 545 0754 235000B9 		str	w3, [x1, 80]
 546 0758 422845D3 		ubfx	x2, x2, 5, 6
 547 075c 24080929 		stp	w4, w2, [x1, 72]
 548 0760 05704039 		ldrb	w5, [x0, 28]
 549 0764 04744039 		ldrb	w4, [x0, 29]
 550 0768 03784039 		ldrb	w3, [x0, 30]
 551 076c 027C4039 		ldrb	w2, [x0, 31]
 552 0770 A42004AA 		orr	x4, x5, x4, lsl 8
 553 0774 834003AA 		orr	x3, x4, x3, lsl 16
 554 0778 626002AA 		orr	x2, x3, x2, lsl 24
 555 077c 3F080E29 		stp	wzr, w2, [x1, 112]
 556 0780 02004039 		ldrb	w2, [x0]
 557 0784 22E00539 		strb	w2, [x1, 376]
 558 0788 02044039 		ldrb	w2, [x0, 1]
 559 078c 22E40539 		strb	w2, [x1, 377]
 560 0790 02084039 		ldrb	w2, [x0, 2]
 561 0794 22E80539 		strb	w2, [x1, 378]
 562 0798 020C4039 		ldrb	w2, [x0, 3]
 563 079c 22EC0539 		strb	w2, [x1, 379]
 564 07a0 02104039 		ldrb	w2, [x0, 4]
 565 07a4 22F00539 		strb	w2, [x1, 380]
 566 07a8 02144039 		ldrb	w2, [x0, 5]
 567 07ac 22F40539 		strb	w2, [x1, 381]
 568 07b0 02184039 		ldrb	w2, [x0, 6]
 569 07b4 22F80539 		strb	w2, [x1, 382]
AARCH64 GAS  C:\Users\ldebo\AppData\Local\Temp\cchOloIf.s 			page 11


 570 07b8 021C4039 		ldrb	w2, [x0, 7]
 571 07bc 22FC0539 		strb	w2, [x1, 383]
 572 07c0 02204039 		ldrb	w2, [x0, 8]
 573 07c4 22000639 		strb	w2, [x1, 384]
 574 07c8 02244039 		ldrb	w2, [x0, 9]
 575 07cc 22040639 		strb	w2, [x1, 385]
 576 07d0 00284039 		ldrb	w0, [x0, 10]
 577 07d4 20080639 		strb	w0, [x1, 386]
 578 07d8 C0035FD6 		ret
 579              		.size	SetFindDataFromFATEntry.part.0, .-SetFindDataFromFATEntry.part.0
 580              		.align	2
 581 07dc 1F2003D5 		.p2align 4,,15
 582              		.type	sdSendCommandP, %function
 583              	sdSendCommandP:
 584 07e0 F353B9A9 		stp	x19, x20, [sp, -112]!
 585 07e4 94048052 		mov	w20, 36
 586 07e8 1406A072 		movk	w20, 0x30, lsl 16
 587 07ec F55B01A9 		stp	x21, x22, [sp, 16]
 588 07f0 F3870C32 		mov	w19, 3145776
 589 07f4 F76302A9 		stp	x23, x24, [sp, 32]
 590 07f8 18000090 		adrp	x24, RPi_IO_Base_Addr
 591 07fc 15030091 		add	x21, x24, :lo12:RPi_IO_Base_Addr
 592 0800 F96B03A9 		stp	x25, x26, [sp, 48]
 593 0804 F90300AA 		mov	x25, x0
 594 0808 FA03012A 		mov	w26, w1
 595 080c FB7304A9 		stp	x27, x28, [sp, 64]
 596 0810 16009052 		mov	w22, 32768
 597 0814 D62FA072 		movk	w22, 0x17e, lsl 16
 598 0818 F74788D2 		mov	x23, 16959
 599 081c F701A0F2 		movk	x23, 0xf, lsl 16
 600 0820 1B0080D2 		mov	x27, 0
 601 0824 1C0080D2 		mov	x28, 0
 602 0828 FE2B00F9 		str	x30, [sp, 80]
 603              	.L102:
 604 082c A00240B9 		ldr	w0, [x21]
 605 0830 0100140B 		add	w1, w0, w20
 606 0834 0300130B 		add	w3, w0, w19
 607 0838 220040B9 		ldr	w2, [x1]
 608 083c C2010036 		tbz	x2, 0, .L105
 609              	.L130:
 610 0840 620040B9 		ldr	w2, [x3]
 611 0844 5F00166A 		tst	w2, w22
 612 0848 61010054 		bne	.L105
 613 084c 9F0317EB 		cmp	x28, x23
 614 0850 88020054 		bhi	.L107
 615 0854 BB0B00B5 		cbnz	x27, .L103
 616 0858 00000094 		bl	timer_getTickCount
 617 085c FB0300AA 		mov	x27, x0
 618 0860 A00240B9 		ldr	w0, [x21]
 619 0864 0100140B 		add	w1, w0, w20
 620 0868 0300130B 		add	w3, w0, w19
 621 086c 220040B9 		ldr	w2, [x1]
 622 0870 82FE0737 		tbnz	x2, 0, .L130
 623              	.L105:
 624 0874 E24788D2 		mov	x2, 16959
 625 0878 E201A0F2 		movk	x2, 0xf, lsl 16
 626 087c 9F0302EB 		cmp	x28, x2
AARCH64 GAS  C:\Users\ldebo\AppData\Local\Temp\cchOloIf.s 			page 12


 627 0880 08010054 		bhi	.L107
 628 0884 E3870C32 		mov	w3, 3145776
 629 0888 0200030B 		add	w2, w0, w3
 630 088c 03009052 		mov	w3, 32768
 631 0890 C32FA072 		movk	w3, 0x17e, lsl 16
 632 0894 440040B9 		ldr	w4, [x2]
 633 0898 9F00036A 		tst	w4, w3
 634 089c E0020054 		beq	.L131
 635              	.L107:
 636 08a0 02000090 		adrp	x2, .LANCHOR0
 637 08a4 440040F9 		ldr	x4, [x2, #:lo12:.LANCHOR0]
 638 08a8 640F00B4 		cbz	x4, .L122
 639 08ac 03004C11 		add	w3, w0, 3145728
 640 08b0 E2870C32 		mov	w2, 3145776
 641 08b4 63400011 		add	w3, w3, 16
 642 08b8 0200020B 		add	w2, w0, w2
 643 08bc 210040B9 		ldr	w1, [x1]
 644 08c0 00000090 		adrp	x0, .LC5
 645 08c4 00000091 		add	x0, x0, :lo12:.LC5
 646 08c8 420040B9 		ldr	w2, [x2]
 647 08cc 630040B9 		ldr	w3, [x3]
 648 08d0 80003FD6 		blr	x4
 649 08d4 60008052 		mov	w0, 3
 650              	.L101:
 651 08d8 F55B41A9 		ldp	x21, x22, [sp, 16]
 652 08dc F76342A9 		ldp	x23, x24, [sp, 32]
 653 08e0 F96B43A9 		ldp	x25, x26, [sp, 48]
 654 08e4 FB7344A9 		ldp	x27, x28, [sp, 64]
 655 08e8 FE2B40F9 		ldr	x30, [sp, 80]
 656 08ec F353C7A8 		ldp	x19, x20, [sp], 112
 657 08f0 C0035FD6 		ret
 658 08f4 1F2003D5 		.p2align 3
 659              	.L131:
 660 08f8 13000090 		adrp	x19, .LANCHOR0
 661 08fc 63020091 		add	x3, x19, :lo12:.LANCHOR0
 662 0900 410040B9 		ldr	w1, [x2]
 663 0904 202F4079 		ldrh	w0, [x25, 22]
 664 0908 792800F9 		str	x25, [x3, 80]
 665 090c 410000B9 		str	w1, [x2]
 666 0910 010340B9 		ldr	w1, [x24, #:lo12:RPi_IO_Base_Addr]
 667 0914 21004C11 		add	w1, w1, 3145728
 668 0918 21200011 		add	w1, w1, 8
 669 091c 3A0000B9 		str	w26, [x1]
 670 0920 010340B9 		ldr	w1, [x24, #:lo12:RPi_IO_Base_Addr]
 671 0924 221340B9 		ldr	w2, [x25, 16]
 672 0928 21004C11 		add	w1, w1, 3145728
 673 092c 21300011 		add	w1, w1, 12
 674 0930 220000B9 		str	w2, [x1]
 675 0934 60050035 		cbnz	w0, .L132
 676 0938 20008052 		mov	w0, 1
 677 093c FDFDFF97 		bl	sdWaitForInterrupt
 678 0940 C0FCFF35 		cbnz	w0, .L101
 679              	.L135:
 680 0944 010340B9 		ldr	w1, [x24, #:lo12:RPi_IO_Base_Addr]
 681 0948 23004C11 		add	w3, w1, 3145728
 682 094c 63400011 		add	w3, w3, 16
 683 0950 620040B9 		ldr	w2, [x3]
AARCH64 GAS  C:\Users\ldebo\AppData\Local\Temp\cchOloIf.s 			page 13


 684 0954 201340B9 		ldr	w0, [x25, 16]
 685 0958 004450D3 		ubfx	x0, x0, 16, 2
 686 095c 1F080071 		cmp	w0, 2
 687 0960 80060054 		beq	.L112
 688 0964 A8040054 		bhi	.L128
 689 0968 1F040071 		cmp	w0, 1
 690 096c E1050054 		bne	.L133
 691 0970 65020091 		add	x5, x19, :lo12:.LANCHOR0
 692 0974 27004C11 		add	w7, w1, 3145728
 693 0978 A4200091 		add	x4, x5, 8
 694 097c 26004C11 		add	w6, w1, 3145728
 695 0980 21004C11 		add	w1, w1, 3145728
 696 0984 E7500011 		add	w7, w7, 20
 697 0988 9F4400B9 		str	wzr, [x4, 68]
 698 098c C6600011 		add	w6, w6, 24
 699 0990 21700011 		add	w1, w1, 28
 700 0994 201340B9 		ldr	w0, [x25, 16]
 701 0998 007458D3 		ubfx	x0, x0, 24, 6
 702 099c 1F240071 		cmp	w0, 9
 703 09a0 20090054 		beq	.L134
 704 09a4 820C00B9 		str	w2, [x4, 12]
 705 09a8 00008052 		mov	w0, 0
 706 09ac E20040B9 		ldr	w2, [x7]
 707 09b0 820800B9 		str	w2, [x4, 8]
 708 09b4 C20040B9 		ldr	w2, [x6]
 709 09b8 820400B9 		str	w2, [x4, 4]
 710 09bc 210040B9 		ldr	w1, [x1]
 711 09c0 A10800B9 		str	w1, [x5, 8]
 712 09c4 C5FFFF17 		b	.L101
 713              		.p2align 3
 714              	.L103:
 715 09c8 00000094 		bl	timer_getTickCount
 716 09cc E10300AA 		mov	x1, x0
 717 09d0 E0031BAA 		mov	x0, x27
 718 09d4 00000094 		bl	tick_difference
 719 09d8 FC0300AA 		mov	x28, x0
 720 09dc 94FFFF17 		b	.L102
 721              		.p2align 3
 722              	.L132:
 723 09e0 003C4092 		and	x0, x0, 65535
 724 09e4 00000094 		bl	timer_wait
 725 09e8 20008052 		mov	w0, 1
 726 09ec D1FDFF97 		bl	sdWaitForInterrupt
 727 09f0 A0FAFF34 		cbz	w0, .L135
 728 09f4 B9FFFF17 		b	.L101
 729              		.p2align 3
 730              	.L128:
 731 09f8 73020091 		add	x19, x19, :lo12:.LANCHOR0
 732 09fc 80009852 		mov	w0, 49156
 733 0a00 20FFBF72 		movk	w0, 0xfff9, lsl 16
 734 0a04 4000000A 		and	w0, w2, w0
 735 0a08 624E00B9 		str	w2, [x19, 76]
 736 0a0c F55B41A9 		ldp	x21, x22, [sp, 16]
 737 0a10 F76342A9 		ldp	x23, x24, [sp, 32]
 738 0a14 F96B43A9 		ldp	x25, x26, [sp, 48]
 739 0a18 FB7344A9 		ldp	x27, x28, [sp, 64]
 740 0a1c FE2B40F9 		ldr	x30, [sp, 80]
AARCH64 GAS  C:\Users\ldebo\AppData\Local\Temp\cchOloIf.s 			page 14


 741 0a20 F353C7A8 		ldp	x19, x20, [sp], 112
 742 0a24 C0035FD6 		ret
 743              		.p2align 3
 744              	.L133:
 745 0a28 00008052 		mov	w0, 0
 746 0a2c ABFFFF17 		b	.L101
 747              		.p2align 3
 748              	.L112:
 749 0a30 201340B9 		ldr	w0, [x25, 16]
 750 0a34 007458D3 		ubfx	x0, x0, 24, 6
 751 0a38 1F200071 		cmp	w0, 8
 752 0a3c A0030054 		beq	.L116
 753 0a40 1FA40071 		cmp	w0, 41
 754 0a44 C0020054 		beq	.L117
 755 0a48 1F0C0071 		cmp	w0, 3
 756 0a4c 61FDFF54 		bne	.L128
 757 0a50 435C1853 		lsl	w3, w2, 8
 758 0a54 40641A53 		lsl	w0, w2, 6
 759 0a58 61020091 		add	x1, x19, :lo12:.LANCHOR0
 760 0a5c 65000A12 		and	w5, w3, 4194304
 761 0a60 44300012 		and	w4, w2, 8191
 762 0a64 00000D12 		and	w0, w0, 524288
 763 0a68 63000912 		and	w3, w3, 8388608
 764 0a6c 0000052A 		orr	w0, w0, w5
 765 0a70 8300032A 		orr	w3, w4, w3
 766 0a74 423C1012 		and	w2, w2, -65536
 767 0a78 0000032A 		orr	w0, w0, w3
 768 0a7c 224400B9 		str	w2, [x1, 68]
 769 0a80 83009852 		mov	w3, 49156
 770 0a84 23FFBF72 		movk	w3, 0xfff9, lsl 16
 771 0a88 204C00B9 		str	w0, [x1, 76]
 772 0a8c 0000030A 		and	w0, w0, w3
 773 0a90 92FFFF17 		b	.L101
 774              	.L122:
 775 0a94 60008052 		mov	w0, 3
 776 0a98 90FFFF17 		b	.L101
 777              	.L117:
 778 0a9c 61020091 		add	x1, x19, :lo12:.LANCHOR0
 779 0aa0 00008052 		mov	w0, 0
 780 0aa4 224800B9 		str	w2, [x1, 72]
 781 0aa8 3F4C00B9 		str	wzr, [x1, 76]
 782 0aac 8BFFFF17 		b	.L101
 783              	.L116:
 784 0ab0 73020091 		add	x19, x19, :lo12:.LANCHOR0
 785 0ab4 5F03026B 		cmp	w26, w2
 786 0ab8 E0079F1A 		cset	w0, ne
 787 0abc 7F4E00B9 		str	wzr, [x19, 76]
 788 0ac0 86FFFF17 		b	.L101
 789              	.L134:
 790 0ac4 6B0040B9 		ldr	w11, [x3]
 791 0ac8 E50040B9 		ldr	w5, [x7]
 792 0acc C20040B9 		ldr	w2, [x6]
 793 0ad0 80584039 		ldrb	w0, [x4, 22]
 794 0ad4 431C0012 		and	w3, w2, 255
 795 0ad8 270040B9 		ldr	w7, [x1]
 796 0adc 8A284079 		ldrh	w10, [x4, 20]
 797 0ae0 413C4CD3 		ubfx	x1, x2, 12, 4
AARCH64 GAS  C:\Users\ldebo\AppData\Local\Temp\cchOloIf.s 			page 15


 798 0ae4 697C0753 		lsr	w9, w3, 7
 799 0ae8 485C50D3 		ubfx	x8, x2, 16, 8
 800 0aec 461C0012 		and	w6, w2, 255
 801 0af0 2810082A 		orr	w8, w1, w8, lsl 4
 802 0af4 CC7C0613 		asr	w12, w6, 6
 803 0af8 20010033 		bfi	w0, w9, 0, 1
 804 0afc 0A2D0033 		bfi	w10, w8, 0, 12
 805 0b00 E95C50D3 		ubfx	x9, x7, 16, 8
 806 0b04 8A280079 		strh	w10, [x4, 20]
 807 0b08 80011F33 		bfi	w0, w12, 1, 1
 808 0b0c 81404039 		ldrb	w1, [x4, 16]
 809 0b10 CC7C0513 		asr	w12, w6, 5
 810 0b14 2D7D0653 		lsr	w13, w9, 6
 811 0b18 88544039 		ldrb	w8, [x4, 21]
 812 0b1c 4A2C48D3 		ubfx	x10, x2, 8, 4
 813 0b20 80011E33 		bfi	w0, w12, 2, 1
 814 0b24 C67C0413 		asr	w6, w6, 4
 815 0b28 A1050033 		bfi	w1, w13, 0, 2
 816 0b2c E52F0D29 		stp	w5, w11, [sp, 104]
 817 0b30 427C1853 		lsr	w2, w2, 24
 818 0b34 21151E33 		bfi	w1, w9, 2, 6
 819 0b38 C0001D33 		bfi	w0, w6, 3, 1
 820 0b3c E93C48D3 		ubfx	x9, x7, 8, 8
 821 0b40 480D1C33 		bfi	w8, w10, 4, 4
 822 0b44 81400039 		strb	w1, [x4, 16]
 823 0b48 21040012 		and	w1, w1, 3
 824 0b4c 89440039 		strb	w9, [x4, 17]
 825 0b50 3F040071 		cmp	w1, 1
 826 0b54 87480039 		strb	w7, [x4, 18]
 827 0b58 824C0039 		strb	w2, [x4, 19]
 828 0b5c 88540039 		strb	w8, [x4, 21]
 829 0b60 80580039 		strb	w0, [x4, 22]
 830 0b64 A00A0054 		beq	.L136
 831 0b68 A75C50D3 		ubfx	x7, x5, 16, 8
 832 0b6c 82604039 		ldrb	w2, [x4, 24]
 833 0b70 E67C0313 		asr	w6, w7, 3
 834 0b74 A13C48D3 		ubfx	x1, x5, 8, 8
 835 0b78 297C0553 		lsr	w9, w1, 5
 836 0b7c 60041853 		ubfiz	w0, w3, 8, 2
 837 0b80 C2080033 		bfi	w2, w6, 0, 3
 838 0b84 E37C0653 		lsr	w3, w7, 6
 839 0b88 0060450B 		add	w0, w0, w5, lsr 24
 840 0b8c A61C0012 		and	w6, w5, 255
 841 0b90 E2081D33 		bfi	w2, w7, 3, 3
 842 0b94 82600039 		strb	w2, [x4, 24]
 843 0b98 25041F53 		ubfiz	w5, w1, 1, 2
 844 0b9c 6008000B 		add	w0, w3, w0, lsl 2
 845 0ba0 82304079 		ldrh	w2, [x4, 24]
 846 0ba4 A51C462A 		orr	w5, w5, w6, lsr 7
 847 0ba8 237C0213 		asr	w3, w1, 2
 848 0bac A8080011 		add	w8, w5, 2
 849 0bb0 01040011 		add	w1, w0, 1
 850 0bb4 872C4079 		ldrh	w7, [x4, 22]
 851 0bb8 22091A33 		bfi	w2, w9, 6, 3
 852 0bbc 82300079 		strh	w2, [x4, 24]
 853 0bc0 2120C81A 		lsl	w1, w1, w8
 854 0bc4 82644039 		ldrb	w2, [x4, 25]
AARCH64 GAS  C:\Users\ldebo\AppData\Local\Temp\cchOloIf.s 			page 16


 855 0bc8 2120CA1A 		lsl	w1, w1, w10
 856 0bcc 072C1C33 		bfi	w7, w0, 4, 12
 857 0bd0 207C4093 		sxtw	x0, w1
 858 0bd4 801800F9 		str	x0, [x4, 48]
 859 0bd8 62081F33 		bfi	w2, w3, 1, 3
 860 0bdc 872C0079 		strh	w7, [x4, 22]
 861 0be0 E003022A 		mov	w0, w2
 862 0be4 A0081C33 		bfi	w0, w5, 4, 3
 863 0be8 80640039 		strb	w0, [x4, 25]
 864              	.L121:
 865 0bec 61020091 		add	x1, x19, :lo12:.LANCHOR0
 866 0bf0 E2BB4139 		ldrb	w2, [sp, 110]
 867 0bf4 E0BF4139 		ldrb	w0, [sp, 111]
 868 0bf8 CC7C0613 		asr	w12, w6, 6
 869 0bfc E3B34139 		ldrb	w3, [sp, 108]
 870 0c00 C6140012 		and	w6, w6, 63
 871 0c04 24A04039 		ldrb	w4, [x1, 40]
 872 0c08 497C0753 		lsr	w9, w2, 7
 873 0c0c 25A84039 		ldrb	w5, [x1, 42]
 874 0c10 4B1845D3 		ubfx	x11, x2, 5, 2
 875 0c14 28A44039 		ldrb	w8, [x1, 41]
 876 0c18 4A7C0213 		asr	w10, w2, 2
 877 0c1c 04180033 		bfi	w4, w0, 0, 7
 878 0c20 E7B74139 		ldrb	w7, [sp, 109]
 879 0c24 65111E33 		bfi	w5, w11, 2, 5
 880 0c28 25A80039 		strb	w5, [x1, 42]
 881 0c2c 48091E33 		bfi	w8, w10, 2, 3
 882 0c30 24011933 		bfi	w4, w9, 7, 1
 883 0c34 24A00039 		strb	w4, [x1, 40]
 884 0c38 42041E53 		ubfiz	w2, w2, 2, 2
 885 0c3c 28A40039 		strb	w8, [x1, 41]
 886 0c40 4218472A 		orr	w2, w2, w7, lsr 6
 887 0c44 6B7C0613 		asr	w11, w3, 6
 888 0c48 6A7C0513 		asr	w10, w3, 5
 889 0c4c 242840B9 		ldr	w4, [x1, 40]
 890 0c50 697C0413 		asr	w9, w3, 4
 891 0c54 25904039 		ldrb	w5, [x1, 36]
 892 0c58 E77C0513 		asr	w7, w7, 5
 893 0c5c 687C0213 		asr	w8, w3, 2
 894 0c60 007C0113 		asr	w0, w0, 1
 895 0c64 440C1333 		bfi	w4, w2, 13, 4
 896 0c68 242800B9 		str	w4, [x1, 40]
 897 0c6c 00001A12 		and	w0, w0, 64
 898 0c70 85010033 		bfi	w5, w12, 0, 1
 899 0c74 22AC4039 		ldrb	w2, [x1, 43]
 900 0c78 0000062A 		orr	w0, w0, w6
 901 0c7c 24A84039 		ldrb	w4, [x1, 42]
 902 0c80 667C0753 		lsr	w6, w3, 7
 903 0c84 05181F33 		bfi	w5, w0, 1, 7
 904 0c88 00008052 		mov	w0, 0
 905 0c8c 62010033 		bfi	w2, w11, 0, 1
 906 0c90 25900039 		strb	w5, [x1, 36]
 907 0c94 E4001F33 		bfi	w4, w7, 1, 1
 908 0c98 42011F33 		bfi	w2, w10, 1, 1
 909 0c9c C4001933 		bfi	w4, w6, 7, 1
 910 0ca0 24A80039 		strb	w4, [x1, 42]
 911 0ca4 22011E33 		bfi	w2, w9, 2, 1
AARCH64 GAS  C:\Users\ldebo\AppData\Local\Temp\cchOloIf.s 			page 17


 912 0ca8 02051D33 		bfi	w2, w8, 3, 2
 913 0cac 62041B33 		bfi	w2, w3, 5, 2
 914 0cb0 22AC0039 		strb	w2, [x1, 43]
 915 0cb4 09FFFF17 		b	.L101
 916              	.L136:
 917 0cb8 801840B9 		ldr	w0, [x4, 24]
 918 0cbc A57448D3 		ubfx	x5, x5, 8, 22
 919 0cc0 A1546DD3 		ubfiz	x1, x5, 19, 22
 920 0cc4 E6A34139 		ldrb	w6, [sp, 104]
 921 0cc8 811800F9 		str	x1, [x4, 48]
 922 0ccc A0540033 		bfi	w0, w5, 0, 22
 923 0cd0 801800B9 		str	w0, [x4, 24]
 924 0cd4 C6FFFF17 		b	.L121
 925              		.size	sdSendCommandP, .-sdSendCommandP
 926              		.align	2
 927 0cd8 1F2003D5 		.p2align 4,,15
 927      1F2003D5 
 928              		.type	sdAppSendOpCond, %function
 929              	sdAppSendOpCond:
 930 0ce0 F353BBA9 		stp	x19, x20, [sp, -80]!
 931 0ce4 F6DF01A9 		stp	x22, x23, [sp, 24]
 932 0ce8 17000090 		adrp	x23, .LANCHOR0
 933 0cec F3020091 		add	x19, x23, :lo12:.LANCHOR0
 934 0cf0 73220091 		add	x19, x19, 8
 935 0cf4 F91B00F9 		str	x25, [sp, 48]
 936 0cf8 FE2700F9 		str	x30, [sp, 72]
 937 0cfc F903002A 		mov	w25, w0
 938 0d00 16000090 		adrp	x22, .LANCHOR1
 939 0d04 C0020091 		add	x0, x22, :lo12:.LANCHOR1
 940 0d08 613E40B9 		ldr	w1, [x19, 60]
 941 0d0c 210C0034 		cbz	w1, .L171
 942 0d10 00400B91 		add	x0, x0, 720
 943 0d14 B3FEFF97 		bl	sdSendCommandP
 944 0d18 80030035 		cbnz	w0, .L140
 945 0d1c 604640B9 		ldr	w0, [x19, 68]
 946 0d20 C00E2836 		tbz	x0, 5, .L155
 947              	.L139:
 948 0d24 C0020091 		add	x0, x22, :lo12:.LANCHOR1
 949 0d28 E103192A 		mov	w1, w25
 950 0d2c 00800D91 		add	x0, x0, 864
 951 0d30 ACFEFF97 		bl	sdSendCommandP
 952 0d34 F303002A 		mov	w19, w0
 953 0d38 A0020035 		cbnz	w0, .L142
 954 0d3c E0020091 		add	x0, x23, :lo12:.LANCHOR0
 955 0d40 00200091 		add	x0, x0, 8
 956 0d44 013C40B9 		ldr	w1, [x0, 60]
 957 0d48 61020034 		cbz	w1, .L145
 958 0d4c 004440B9 		ldr	w0, [x0, 68]
 959 0d50 20022837 		tbnz	x0, 5, .L145
 960 0d54 33018052 		mov	w19, 9
 961              		.p2align 3
 962              	.L141:
 963 0d58 E20240F9 		ldr	x2, [x23, #:lo12:.LANCHOR0]
 964 0d5c A20A00B4 		cbz	x2, .L137
 965 0d60 E103132A 		mov	w1, w19
 966 0d64 00000090 		adrp	x0, .LC6
 967 0d68 00000091 		add	x0, x0, :lo12:.LC6
AARCH64 GAS  C:\Users\ldebo\AppData\Local\Temp\cchOloIf.s 			page 18


 968 0d6c 40003FD6 		blr	x2
 969 0d70 E003132A 		mov	w0, w19
 970 0d74 F91B40F9 		ldr	x25, [sp, 48]
 971 0d78 F6DF41A9 		ldp	x22, x23, [sp, 24]
 972 0d7c FE2740F9 		ldr	x30, [sp, 72]
 973 0d80 F353C5A8 		ldp	x19, x20, [sp], 80
 974 0d84 C0035FD6 		ret
 975              		.p2align 3
 976              	.L140:
 977 0d88 F303002A 		mov	w19, w0
 978              	.L142:
 979 0d8c 7F0A0071 		cmp	w19, 2
 980 0d90 41FEFF54 		bne	.L141
 981              	.L145:
 982 0d94 D6020091 		add	x22, x22, :lo12:.LANCHOR1
 983 0d98 F4020091 		add	x20, x23, :lo12:.LANCHOR0
 984 0d9c FAEF03A9 		stp	x26, x27, [sp, 56]
 985 0da0 94220091 		add	x20, x20, 8
 986 0da4 DB820D91 		add	x27, x22, 864
 987 0da8 DA420B91 		add	x26, x22, 720
 988 0dac F50B00F9 		str	x21, [sp, 16]
 989 0db0 F5008052 		mov	w21, 7
 990 0db4 F81700F9 		str	x24, [sp, 40]
 991 0db8 185083D2 		mov	x24, 6784
 992 0dbc D800A0F2 		movk	x24, 0x6, lsl 16
 993              	.L144:
 994 0dc0 800EC139 		ldrsb	w0, [x20, 67]
 995 0dc4 4004F837 		tbnz	w0, #31, .L153
 996              	.L175:
 997 0dc8 B5060071 		subs	w21, w21, #1
 998 0dcc A0060054 		beq	.L172
 999 0dd0 E00318AA 		mov	x0, x24
 1000 0dd4 00000094 		bl	timer_wait
 1001 0dd8 813E40B9 		ldr	w1, [x20, 60]
 1002 0ddc 21020034 		cbz	w1, .L173
 1003 0de0 E0031AAA 		mov	x0, x26
 1004 0de4 7FFEFF97 		bl	sdSendCommandP
 1005 0de8 C0040035 		cbnz	w0, .L148
 1006 0dec 804640B9 		ldr	w0, [x20, 68]
 1007 0df0 C0062836 		tbz	x0, 5, .L157
 1008 0df4 E103192A 		mov	w1, w25
 1009 0df8 E0031BAA 		mov	x0, x27
 1010 0dfc 79FEFF97 		bl	sdSendCommandP
 1011 0e00 F303002A 		mov	w19, w0
 1012 0e04 C0010035 		cbnz	w0, .L150
 1013              		.p2align 3
 1014              	.L174:
 1015 0e08 803E40B9 		ldr	w0, [x20, 60]
 1016 0e0c A0FDFF34 		cbz	w0, .L144
 1017 0e10 804640B9 		ldr	w0, [x20, 68]
 1018 0e14 60FD2F37 		tbnz	x0, 5, .L144
 1019 0e18 33018052 		mov	w19, 9
 1020 0e1c 2C000014 		b	.L149
 1021              		.p2align 3
 1022              	.L173:
 1023 0e20 C0E20A91 		add	x0, x22, 696
 1024 0e24 6FFEFF97 		bl	sdSendCommandP
AARCH64 GAS  C:\Users\ldebo\AppData\Local\Temp\cchOloIf.s 			page 19


 1025 0e28 E103192A 		mov	w1, w25
 1026 0e2c E0031BAA 		mov	x0, x27
 1027 0e30 6CFEFF97 		bl	sdSendCommandP
 1028 0e34 F303002A 		mov	w19, w0
 1029 0e38 80FEFF34 		cbz	w0, .L174
 1030              	.L150:
 1031 0e3c 7F0A0071 		cmp	w19, 2
 1032 0e40 61040054 		bne	.L149
 1033              	.L170:
 1034 0e44 800EC139 		ldrsb	w0, [x20, 67]
 1035 0e48 00FCFF36 		tbz	w0, #31, .L175
 1036              	.L153:
 1037 0e4c 800A4139 		ldrb	w0, [x20, 66]
 1038 0e50 F50B40F9 		ldr	x21, [sp, 16]
 1039 0e54 1F041C72 		tst	w0, 48
 1040 0e58 F81740F9 		ldr	x24, [sp, 40]
 1041 0e5c F3179F1A 		cset	w19, eq
 1042 0e60 F91B40F9 		ldr	x25, [sp, 48]
 1043 0e64 73721D53 		lsl	w19, w19, 3
 1044 0e68 FE2740F9 		ldr	x30, [sp, 72]
 1045 0e6c E003132A 		mov	w0, w19
 1046 0e70 F6DF41A9 		ldp	x22, x23, [sp, 24]
 1047 0e74 FAEF43A9 		ldp	x26, x27, [sp, 56]
 1048 0e78 F353C5A8 		ldp	x19, x20, [sp], 80
 1049 0e7c C0035FD6 		ret
 1050              		.p2align 3
 1051              	.L148:
 1052 0e80 F303002A 		mov	w19, w0
 1053 0e84 7F0A0071 		cmp	w19, 2
 1054 0e88 E0FDFF54 		beq	.L170
 1055 0e8c 10000014 		b	.L149
 1056              		.p2align 3
 1057              	.L171:
 1058 0e90 00E00A91 		add	x0, x0, 696
 1059 0e94 53FEFF97 		bl	sdSendCommandP
 1060 0e98 A3FFFF17 		b	.L139
 1061 0e9c 1F2003D5 		.p2align 3
 1062              	.L172:
 1063 0ea0 F50B40F9 		ldr	x21, [sp, 16]
 1064 0ea4 53008052 		mov	w19, 2
 1065 0ea8 F81740F9 		ldr	x24, [sp, 40]
 1066 0eac FAEF43A9 		ldp	x26, x27, [sp, 56]
 1067              	.L137:
 1068 0eb0 E003132A 		mov	w0, w19
 1069 0eb4 F6DF41A9 		ldp	x22, x23, [sp, 24]
 1070 0eb8 F91B40F9 		ldr	x25, [sp, 48]
 1071 0ebc FE2740F9 		ldr	x30, [sp, 72]
 1072 0ec0 F353C5A8 		ldp	x19, x20, [sp], 80
 1073 0ec4 C0035FD6 		ret
 1074              		.p2align 3
 1075              	.L157:
 1076 0ec8 33008052 		mov	w19, 1
 1077              	.L149:
 1078 0ecc E20240F9 		ldr	x2, [x23, #:lo12:.LANCHOR0]
 1079 0ed0 820100B4 		cbz	x2, .L169
 1080 0ed4 00000090 		adrp	x0, .LC6
 1081 0ed8 E103132A 		mov	w1, w19
AARCH64 GAS  C:\Users\ldebo\AppData\Local\Temp\cchOloIf.s 			page 20


 1082 0edc 00000091 		add	x0, x0, :lo12:.LC6
 1083 0ee0 40003FD6 		blr	x2
 1084 0ee4 F50B40F9 		ldr	x21, [sp, 16]
 1085 0ee8 F81740F9 		ldr	x24, [sp, 40]
 1086 0eec FAEF43A9 		ldp	x26, x27, [sp, 56]
 1087 0ef0 F0FFFF17 		b	.L137
 1088 0ef4 1F2003D5 		.p2align 3
 1089              	.L155:
 1090 0ef8 33008052 		mov	w19, 1
 1091 0efc 97FFFF17 		b	.L141
 1092              	.L169:
 1093 0f00 F50B40F9 		ldr	x21, [sp, 16]
 1094 0f04 F81740F9 		ldr	x24, [sp, 40]
 1095 0f08 FAEF43A9 		ldp	x26, x27, [sp, 56]
 1096 0f0c E9FFFF17 		b	.L137
 1097              		.size	sdAppSendOpCond, .-sdAppSendOpCond
 1098              		.align	2
 1099              		.p2align 4,,15
 1100              		.type	sdResetCard, %function
 1101              	sdResetCard:
 1102 0f10 02000090 		adrp	x2, RPi_IO_Base_Addr
 1103 0f14 410040B9 		ldr	w1, [x2, #:lo12:RPi_IO_Base_Addr]
 1104 0f18 F353BDA9 		stp	x19, x20, [sp, -48]!
 1105 0f1c 83058052 		mov	w3, 44
 1106 0f20 0306A072 		movk	w3, 0x30, lsl 16
 1107 0f24 21004C11 		add	w1, w1, 3145728
 1108 0f28 F55B01A9 		stp	x21, x22, [sp, 16]
 1109 0f2c 21A00011 		add	w1, w1, 40
 1110 0f30 F77B02A9 		stp	x23, x30, [sp, 32]
 1111 0f34 55000091 		add	x21, x2, :lo12:RPi_IO_Base_Addr
 1112 0f38 F7D390D2 		mov	x23, 34463
 1113 0f3c 3700A0F2 		movk	x23, 0x1, lsl 16
 1114 0f40 3F0000B9 		str	wzr, [x1]
 1115 0f44 400180D2 		mov	x0, 10
 1116 0f48 130080D2 		mov	x19, 0
 1117 0f4c 140080D2 		mov	x20, 0
 1118 0f50 410040B9 		ldr	w1, [x2, #:lo12:RPi_IO_Base_Addr]
 1119 0f54 F603032A 		mov	w22, w3
 1120 0f58 2100030B 		add	w1, w1, w3
 1121 0f5c 3F0000B9 		str	wzr, [x1]
 1122 0f60 410040B9 		ldr	w1, [x2, #:lo12:RPi_IO_Base_Addr]
 1123 0f64 2100030B 		add	w1, w1, w3
 1124 0f68 220040B9 		ldr	w2, [x1]
 1125 0f6c 42000832 		orr	w2, w2, 16777216
 1126 0f70 220000B9 		str	w2, [x1]
 1127 0f74 00000094 		bl	timer_wait
 1128              	.L177:
 1129 0f78 A10240B9 		ldr	w1, [x21]
 1130 0f7c 2100160B 		add	w1, w1, w22
 1131 0f80 200040B9 		ldr	w0, [x1]
 1132 0f84 4001C036 		tbz	x0, 24, .L180
 1133              	.L187:
 1134 0f88 9F0217EB 		cmp	x20, x23
 1135 0f8c E8050054 		bhi	.L182
 1136 0f90 530700B5 		cbnz	x19, .L178
 1137 0f94 00000094 		bl	timer_getTickCount
 1138 0f98 F30300AA 		mov	x19, x0
AARCH64 GAS  C:\Users\ldebo\AppData\Local\Temp\cchOloIf.s 			page 21


 1139 0f9c A10240B9 		ldr	w1, [x21]
 1140 0fa0 2100160B 		add	w1, w1, w22
 1141 0fa4 200040B9 		ldr	w0, [x1]
 1142 0fa8 00FFC737 		tbnz	x0, 24, .L187
 1143              	.L180:
 1144 0fac E0D390D2 		mov	x0, 34463
 1145 0fb0 2000A0F2 		movk	x0, 0x1, lsl 16
 1146 0fb4 9F0200EB 		cmp	x20, x0
 1147 0fb8 88040054 		bhi	.L182
 1148 0fbc 220040B9 		ldr	w2, [x1]
 1149 0fc0 C3018052 		mov	w3, 14
 1150 0fc4 400180D2 		mov	x0, 10
 1151 0fc8 620C1033 		bfi	w2, w3, 16, 4
 1152 0fcc 220000B9 		str	w2, [x1]
 1153 0fd0 220040B9 		ldr	w2, [x1]
 1154 0fd4 42000032 		orr	w2, w2, 1
 1155 0fd8 220000B9 		str	w2, [x1]
 1156 0fdc 00000094 		bl	timer_wait
 1157 0fe0 00508352 		mov	w0, 6784
 1158 0fe4 C000A072 		movk	w0, 0x6, lsl 16
 1159 0fe8 BEFCFF97 		bl	sdSetClock
 1160 0fec C0030035 		cbnz	w0, .L176
 1161 0ff0 A30240B9 		ldr	w3, [x21]
 1162 0ff4 04008012 		mov	w4, -1
 1163 0ff8 02000090 		adrp	x2, .LANCHOR0
 1164 0ffc 42000091 		add	x2, x2, :lo12:.LANCHOR0
 1165 1000 63004C11 		add	w3, w3, 3145728
 1166 1004 00000090 		adrp	x0, .LANCHOR1
 1167 1008 63E00011 		add	w3, w3, 56
 1168 100c 01008052 		mov	w1, 0
 1169 1010 00000091 		add	x0, x0, :lo12:.LANCHOR1
 1170 1014 640000B9 		str	w4, [x3]
 1171 1018 A30240B9 		ldr	w3, [x21]
 1172 101c 63004C11 		add	w3, w3, 3145728
 1173 1020 63D00011 		add	w3, w3, 52
 1174 1024 640000B9 		str	w4, [x3]
 1175 1028 5F7C0829 		stp	wzr, wzr, [x2, 64]
 1176 102c 5F4800B9 		str	wzr, [x2, 72]
 1177 1030 5F4C00B9 		str	wzr, [x2, 76]
 1178 1034 5F2800F9 		str	xzr, [x2, 80]
 1179 1038 F55B41A9 		ldp	x21, x22, [sp, 16]
 1180 103c F77B42A9 		ldp	x23, x30, [sp, 32]
 1181 1040 F353C3A8 		ldp	x19, x20, [sp], 48
 1182 1044 E7FDFF17 		b	sdSendCommandP
 1183              		.p2align 3
 1184              	.L182:
 1185 1048 00000090 		adrp	x0, .LANCHOR0
 1186 104c 010040F9 		ldr	x1, [x0, #:lo12:.LANCHOR0]
 1187 1050 010200B4 		cbz	x1, .L185
 1188 1054 00000090 		adrp	x0, .LC7
 1189 1058 00000091 		add	x0, x0, :lo12:.LC7
 1190 105c 20003FD6 		blr	x1
 1191 1060 C0008052 		mov	w0, 6
 1192              	.L176:
 1193 1064 F55B41A9 		ldp	x21, x22, [sp, 16]
 1194 1068 F77B42A9 		ldp	x23, x30, [sp, 32]
 1195 106c F353C3A8 		ldp	x19, x20, [sp], 48
AARCH64 GAS  C:\Users\ldebo\AppData\Local\Temp\cchOloIf.s 			page 22


 1196 1070 C0035FD6 		ret
 1197 1074 1F2003D5 		.p2align 3
 1198              	.L178:
 1199 1078 00000094 		bl	timer_getTickCount
 1200 107c E10300AA 		mov	x1, x0
 1201 1080 E00313AA 		mov	x0, x19
 1202 1084 00000094 		bl	tick_difference
 1203 1088 F40300AA 		mov	x20, x0
 1204 108c BBFFFF17 		b	.L177
 1205              	.L185:
 1206 1090 C0008052 		mov	w0, 6
 1207 1094 F4FFFF17 		b	.L176
 1208              		.size	sdResetCard, .-sdResetCard
 1209              		.align	2
 1210 1098 1F2003D5 		.p2align 4,,15
 1210      1F2003D5 
 1211              		.type	getSetNextCluster.constprop.9, %function
 1212              	getSetNextCluster.constprop.9:
 1213 10a0 FF0309D1 		sub	sp, sp, #576
 1214 10a4 00741E53 		lsl	w0, w0, 2
 1215 10a8 F35300A9 		stp	x19, x20, [sp]
 1216 10ac F6DF01A9 		stp	x22, x23, [sp, 24]
 1217 10b0 16000090 		adrp	x22, .LANCHOR0
 1218 10b4 D3020091 		add	x19, x22, :lo12:.LANCHOR0
 1219 10b8 73220091 		add	x19, x19, 8
 1220 10bc FE1F00F9 		str	x30, [sp, 56]
 1221 10c0 615A40B9 		ldr	w1, [x19, 88]
 1222 10c4 623A40B9 		ldr	w2, [x19, 56]
 1223 10c8 1708C11A 		udiv	w23, w0, w1
 1224 10cc F482011B 		msub	w20, w23, w1, w0
 1225 10d0 C2060034 		cbz	w2, .L191
 1226 10d4 F50B00F9 		str	x21, [sp, 16]
 1227 10d8 F91B00F9 		str	x25, [sp, 48]
 1228 10dc 75E64C29 		ldp	w21, w25, [x19, 100]
 1229 10e0 C8FBFF97 		bl	sdWaitForData
 1230 10e4 E0050035 		cbnz	w0, .L204
 1231 10e8 603A40B9 		ldr	w0, [x19, 56]
 1232 10ec A102190B 		add	w1, w21, w25
 1233 10f0 F81700F9 		str	x24, [sp, 40]
 1234 10f4 18000090 		adrp	x24, RPi_IO_Base_Addr
 1235 10f8 020340B9 		ldr	w2, [x24, #:lo12:RPi_IO_Base_Addr]
 1236 10fc 2100170B 		add	w1, w1, w23
 1237 1100 04408052 		mov	w4, 512
 1238 1104 42004C11 		add	w2, w2, 3145728
 1239 1108 1F0C0071 		cmp	w0, 3
 1240 110c 42100011 		add	w2, w2, 4
 1241 1110 25581753 		lsl	w5, w1, 9
 1242 1114 00000090 		adrp	x0, .LANCHOR1
 1243 1118 00000091 		add	x0, x0, :lo12:.LANCHOR1
 1244 111c A100811A 		csel	w1, w5, w1, eq
 1245 1120 00400591 		add	x0, x0, 336
 1246 1124 430040B9 		ldr	w3, [x2]
 1247 1128 633C0012 		and	w3, w3, 65535
 1248 112c 63001032 		orr	w3, w3, 65536
 1249 1130 430000B9 		str	w3, [x2]
 1250 1134 430040B9 		ldr	w3, [x2]
 1251 1138 83240033 		bfi	w3, w4, 0, 10
AARCH64 GAS  C:\Users\ldebo\AppData\Local\Temp\cchOloIf.s 			page 23


 1252 113c 430000B9 		str	w3, [x2]
 1253 1140 A8FDFF97 		bl	sdSendCommandP
 1254 1144 E0030035 		cbnz	w0, .L205
 1255 1148 00048052 		mov	w0, 32
 1256 114c F9FBFF97 		bl	sdWaitForInterrupt
 1257 1150 E0030035 		cbnz	w0, .L206
 1258 1154 020340B9 		ldr	w2, [x24, #:lo12:RPi_IO_Base_Addr]
 1259 1158 E4030191 		add	x4, sp, 64
 1260 115c E00304AA 		mov	x0, x4
 1261 1160 E3030991 		add	x3, sp, 576
 1262 1164 42004C11 		add	w2, w2, 3145728
 1263 1168 42800011 		add	w2, w2, 32
 1264 116c 1F2003D5 		.p2align 3
 1265              	.L194:
 1266 1170 410040B9 		ldr	w1, [x2]
 1267 1174 014400B8 		str	w1, [x0], 4
 1268 1178 1F0003EB 		cmp	x0, x3
 1269 117c A1FFFF54 		bne	.L194
 1270 1180 804874B8 		ldr	w0, [x4, w20, uxtw]
 1271 1184 F35340A9 		ldp	x19, x20, [sp]
 1272 1188 F50B40F9 		ldr	x21, [sp, 16]
 1273 118c F6DF41A9 		ldp	x22, x23, [sp, 24]
 1274 1190 F8E742A9 		ldp	x24, x25, [sp, 40]
 1275 1194 FE1F40F9 		ldr	x30, [sp, 56]
 1276 1198 FF030991 		add	sp, sp, 576
 1277 119c C0035FD6 		ret
 1278              	.L204:
 1279 11a0 F50B40F9 		ldr	x21, [sp, 16]
 1280 11a4 F91B40F9 		ldr	x25, [sp, 48]
 1281              		.p2align 3
 1282              	.L191:
 1283 11a8 00008012 		mov	w0, -1
 1284              	.L188:
 1285 11ac F35340A9 		ldp	x19, x20, [sp]
 1286 11b0 F6DF41A9 		ldp	x22, x23, [sp, 24]
 1287 11b4 FE1F40F9 		ldr	x30, [sp, 56]
 1288 11b8 FF030991 		add	sp, sp, 576
 1289 11bc C0035FD6 		ret
 1290              		.p2align 3
 1291              	.L205:
 1292 11c0 F50B40F9 		ldr	x21, [sp, 16]
 1293 11c4 F8E742A9 		ldp	x24, x25, [sp, 40]
 1294 11c8 F8FFFF17 		b	.L191
 1295              	.L206:
 1296 11cc C10240F9 		ldr	x1, [x22, #:lo12:.LANCHOR0]
 1297 11d0 81FFFFB4 		cbz	x1, .L205
 1298 11d4 00000090 		adrp	x0, .LC8
 1299 11d8 00000091 		add	x0, x0, :lo12:.LC8
 1300 11dc 20003FD6 		blr	x1
 1301 11e0 F50B40F9 		ldr	x21, [sp, 16]
 1302 11e4 00008012 		mov	w0, -1
 1303 11e8 F8E742A9 		ldp	x24, x25, [sp, 40]
 1304 11ec F0FFFF17 		b	.L188
 1305              		.size	getSetNextCluster.constprop.9, .-getSetNextCluster.constprop.9
 1306              		.align	2
 1307              		.p2align 4,,15
 1308              		.type	sdTransferBlocks.constprop.10, %function
AARCH64 GAS  C:\Users\ldebo\AppData\Local\Temp\cchOloIf.s 			page 24


 1309              	sdTransferBlocks.constprop.10:
 1310 11f0 F353BCA9 		stp	x19, x20, [sp, -64]!
 1311 11f4 B4008052 		mov	w20, 5
 1312 11f8 F60F00F9 		str	x22, [sp, 24]
 1313 11fc 13000090 		adrp	x19, .LANCHOR0
 1314 1200 76020091 		add	x22, x19, :lo12:.LANCHOR0
 1315 1204 F81700F9 		str	x24, [sp, 40]
 1316 1208 581C0012 		and	w24, w2, 255
 1317 120c FE1F00F9 		str	x30, [sp, 56]
 1318 1210 C24240B9 		ldr	w2, [x22, 64]
 1319 1214 42050034 		cbz	w2, .L207
 1320 1218 F71300F9 		str	x23, [sp, 32]
 1321 121c 54008052 		mov	w20, 2
 1322 1220 F91B00F9 		str	x25, [sp, 48]
 1323 1224 F70301AA 		mov	x23, x1
 1324 1228 F903002A 		mov	w25, w0
 1325 122c 75FBFF97 		bl	sdWaitForData
 1326 1230 20040035 		cbnz	w0, .L241
 1327 1234 D6220091 		add	x22, x22, 8
 1328 1238 C33A40B9 		ldr	w3, [x22, 56]
 1329 123c F50B00F9 		str	x21, [sp, 16]
 1330 1240 15000090 		adrp	x21, RPi_IO_Base_Addr
 1331 1244 A20240B9 		ldr	w2, [x21, #:lo12:RPi_IO_Base_Addr]
 1332 1248 1F030071 		cmp	w24, 0
 1333 124c 00028052 		mov	w0, 16
 1334 1250 42004C11 		add	w2, w2, 3145728
 1335 1254 043980D2 		mov	x4, 456
 1336 1258 42100011 		add	w2, w2, 4
 1337 125c 16048052 		mov	w22, 32
 1338 1260 D602801A 		csel	w22, w22, w0, eq
 1339 1264 002A80D2 		mov	x0, 336
 1340 1268 0000849A 		csel	x0, x0, x4, eq
 1341 126c 05408052 		mov	w5, 512
 1342 1270 410040B9 		ldr	w1, [x2]
 1343 1274 7F0C0071 		cmp	w3, 3
 1344 1278 03000090 		adrp	x3, .LANCHOR1
 1345 127c 63000091 		add	x3, x3, :lo12:.LANCHOR1
 1346 1280 213C0012 		and	w1, w1, 65535
 1347 1284 6000008B 		add	x0, x3, x0
 1348 1288 21001032 		orr	w1, w1, 65536
 1349 128c 410000B9 		str	w1, [x2]
 1350 1290 215B1753 		lsl	w1, w25, 9
 1351 1294 440040B9 		ldr	w4, [x2]
 1352 1298 2100991A 		csel	w1, w1, w25, eq
 1353 129c A4240033 		bfi	w4, w5, 0, 10
 1354 12a0 440000B9 		str	w4, [x2]
 1355 12a4 4FFDFF97 		bl	sdSendCommandP
 1356 12a8 F403002A 		mov	w20, w0
 1357 12ac 40010034 		cbz	w0, .L242
 1358              	.L240:
 1359 12b0 F50B40F9 		ldr	x21, [sp, 16]
 1360              	.L241:
 1361 12b4 F71340F9 		ldr	x23, [sp, 32]
 1362 12b8 F91B40F9 		ldr	x25, [sp, 48]
 1363              	.L207:
 1364 12bc E003142A 		mov	w0, w20
 1365 12c0 F60F40F9 		ldr	x22, [sp, 24]
AARCH64 GAS  C:\Users\ldebo\AppData\Local\Temp\cchOloIf.s 			page 25


 1366 12c4 F81740F9 		ldr	x24, [sp, 40]
 1367 12c8 FE1F40F9 		ldr	x30, [sp, 56]
 1368 12cc F353C4A8 		ldp	x19, x20, [sp], 64
 1369 12d0 C0035FD6 		ret
 1370              	.L242:
 1371 12d4 E003162A 		mov	w0, w22
 1372 12d8 96FBFF97 		bl	sdWaitForInterrupt
 1373 12dc F403002A 		mov	w20, w0
 1374 12e0 600A0035 		cbnz	w0, .L243
 1375 12e4 E10317AA 		mov	x1, x23
 1376 12e8 FF0640F2 		tst	x23, 3
 1377 12ec E0020054 		beq	.L211
 1378 12f0 98040035 		cbnz	w24, .L212
 1379 12f4 E6020891 		add	x6, x23, 512
 1380 12f8 A5020091 		add	x5, x21, :lo12:RPi_IO_Base_Addr
 1381 12fc 04048052 		mov	w4, 32
 1382 1300 0406A072 		movk	w4, 0x30, lsl 16
 1383 1304 1F2003D5 		.p2align 3
 1384              	.L213:
 1385 1308 A00040B9 		ldr	w0, [x5]
 1386 130c 21040091 		add	x1, x1, 1
 1387 1310 DF0001EB 		cmp	x6, x1
 1388 1314 0000040B 		add	w0, w0, w4
 1389 1318 000040B9 		ldr	w0, [x0]
 1390 131c 20F01F38 		strb	w0, [x1, -1]
 1391 1320 037C0853 		lsr	w3, w0, 8
 1392 1324 027C1053 		lsr	w2, w0, 16
 1393 1328 23000039 		strb	w3, [x1]
 1394 132c 007C1853 		lsr	w0, w0, 24
 1395 1330 22040039 		strb	w2, [x1, 1]
 1396 1334 20080039 		strb	w0, [x1, 2]
 1397 1338 81FEFF54 		bne	.L213
 1398 133c F50B40F9 		ldr	x21, [sp, 16]
 1399 1340 DDFFFF17 		b	.L241
 1400 1344 1F2003D5 		.p2align 3
 1401              	.L211:
 1402 1348 E5020891 		add	x5, x23, 512
 1403 134c B8050035 		cbnz	w24, .L217
 1404 1350 A3020091 		add	x3, x21, :lo12:RPi_IO_Base_Addr
 1405 1354 02048052 		mov	w2, 32
 1406 1358 0206A072 		movk	w2, 0x30, lsl 16
 1407 135c 1F2003D5 		.p2align 3
 1408              	.L218:
 1409 1360 600040B9 		ldr	w0, [x3]
 1410 1364 0000020B 		add	w0, w0, w2
 1411 1368 000040B9 		ldr	w0, [x0]
 1412 136c 204400B8 		str	w0, [x1], 4
 1413 1370 3F0005EB 		cmp	x1, x5
 1414 1374 61FFFF54 		bne	.L218
 1415 1378 F50B40F9 		ldr	x21, [sp, 16]
 1416 137c CEFFFF17 		b	.L241
 1417              		.p2align 3
 1418              	.L212:
 1419 1380 E8020891 		add	x8, x23, 512
 1420 1384 A7020091 		add	x7, x21, :lo12:RPi_IO_Base_Addr
 1421 1388 06048052 		mov	w6, 32
 1422 138c 0606A072 		movk	w6, 0x30, lsl 16
AARCH64 GAS  C:\Users\ldebo\AppData\Local\Temp\cchOloIf.s 			page 26


 1423              		.p2align 3
 1424              	.L215:
 1425 1390 24084039 		ldrb	w4, [x1, 2]
 1426 1394 21040091 		add	x1, x1, 1
 1427 1398 E20040B9 		ldr	w2, [x7]
 1428 139c 23084039 		ldrb	w3, [x1, 2]
 1429 13a0 25F05F38 		ldrb	w5, [x1, -1]
 1430 13a4 4200060B 		add	w2, w2, w6
 1431 13a8 20004039 		ldrb	w0, [x1]
 1432 13ac 843C1053 		lsl	w4, w4, 16
 1433 13b0 3F0008EB 		cmp	x1, x8
 1434 13b4 A360032A 		orr	w3, w5, w3, lsl 24
 1435 13b8 8020002A 		orr	w0, w4, w0, lsl 8
 1436 13bc 0000032A 		orr	w0, w0, w3
 1437 13c0 400000B9 		str	w0, [x2]
 1438 13c4 61FEFF54 		bne	.L215
 1439              	.L216:
 1440 13c8 40008052 		mov	w0, 2
 1441 13cc 59FBFF97 		bl	sdWaitForInterrupt
 1442 13d0 E103002A 		mov	w1, w0
 1443 13d4 E0F6FF34 		cbz	w0, .L240
 1444 13d8 620240F9 		ldr	x2, [x19, #:lo12:.LANCHOR0]
 1445 13dc A20300B4 		cbz	x2, .L227
 1446 13e0 00000090 		adrp	x0, .LC9
 1447 13e4 00000091 		add	x0, x0, :lo12:.LC9
 1448 13e8 F403012A 		mov	w20, w1
 1449 13ec 40003FD6 		blr	x2
 1450 13f0 F50B40F9 		ldr	x21, [sp, 16]
 1451 13f4 F71340F9 		ldr	x23, [sp, 32]
 1452 13f8 F91B40F9 		ldr	x25, [sp, 48]
 1453 13fc B0FFFF17 		b	.L207
 1454              		.p2align 3
 1455              	.L217:
 1456 1400 A4020091 		add	x4, x21, :lo12:RPi_IO_Base_Addr
 1457 1404 03048052 		mov	w3, 32
 1458 1408 0306A072 		movk	w3, 0x30, lsl 16
 1459 140c 1F2003D5 		.p2align 3
 1460              	.L219:
 1461 1410 800040B9 		ldr	w0, [x4]
 1462 1414 224440B8 		ldr	w2, [x1], 4
 1463 1418 0000030B 		add	w0, w0, w3
 1464 141c 3F0005EB 		cmp	x1, x5
 1465 1420 020000B9 		str	w2, [x0]
 1466 1424 61FFFF54 		bne	.L219
 1467 1428 E8FFFF17 		b	.L216
 1468              	.L243:
 1469 142c 610240F9 		ldr	x1, [x19, #:lo12:.LANCHOR0]
 1470 1430 01F4FFB4 		cbz	x1, .L240
 1471 1434 00000090 		adrp	x0, .LC8
 1472 1438 00000091 		add	x0, x0, :lo12:.LC8
 1473 143c 20003FD6 		blr	x1
 1474 1440 F50B40F9 		ldr	x21, [sp, 16]
 1475 1444 F71340F9 		ldr	x23, [sp, 32]
 1476 1448 F91B40F9 		ldr	x25, [sp, 48]
 1477 144c 9CFFFF17 		b	.L207
 1478              	.L227:
 1479 1450 F403012A 		mov	w20, w1
AARCH64 GAS  C:\Users\ldebo\AppData\Local\Temp\cchOloIf.s 			page 27


 1480 1454 F50B40F9 		ldr	x21, [sp, 16]
 1481 1458 F71340F9 		ldr	x23, [sp, 32]
 1482 145c F91B40F9 		ldr	x25, [sp, 48]
 1483 1460 97FFFF17 		b	.L207
 1484              		.size	sdTransferBlocks.constprop.10, .-sdTransferBlocks.constprop.10
 1485              		.section	.text.unlikely,"ax",@progbits
 1486              		.align	2
 1487              		.type	LoadDrivePartition, %function
 1488              	LoadDrivePartition:
 1489 0000 FF8308D1 		sub	sp, sp, #544
 1490 0004 02008052 		mov	w2, 0
 1491 0008 E1830091 		add	x1, sp, 32
 1492 000c F35300A9 		stp	x19, x20, [sp]
 1493 0010 F40300AA 		mov	x20, x0
 1494 0014 FE0B00F9 		str	x30, [sp, 16]
 1495 0018 00008052 		mov	w0, 0
 1496 001c 00000094 		bl	sdTransferBlocks.constprop.10
 1497 0020 60000034 		cbz	w0, .L245
 1498              	.L250:
 1499 0024 00008052 		mov	w0, 0
 1500 0028 60000014 		b	.L261
 1501              	.L245:
 1502 002c E0834039 		ldrb	w0, [sp, 32]
 1503 0030 00781E12 		and	w0, w0, -3
 1504 0034 001C0012 		and	w0, w0, 255
 1505 0038 1FA40371 		cmp	w0, 233
 1506 003c E1010054 		bne	.L247
 1507              	.L251:
 1508 0040 13000090 		adrp	x19, .LANCHOR0
 1509 0044 61020091 		add	x1, x19, :lo12:.LANCHOR0
 1510 0048 E41740F9 		ldr	x4, [sp, 40]
 1511 004c 21200091 		add	x1, x1, 8
 1512 0050 E56F4079 		ldrh	w5, [sp, 54]
 1513 0054 E0B74039 		ldrb	w0, [sp, 45]
 1514 0058 E35F4079 		ldrh	w3, [sp, 46]
 1515 005c 849C58D3 		ubfx	x4, x4, 24, 16
 1516 0060 20900A29 		stp	w0, w4, [x1, 84]
 1517 0064 236800B9 		str	w3, [x1, 104]
 1518 0068 E2C34039 		ldrb	w2, [sp, 48]
 1519 006c E04340B9 		ldr	w0, [sp, 64]
 1520 0070 85020034 		cbz	w5, .L248
 1521 0074 28000014 		b	.L249
 1522              	.L247:
 1523 0078 E13F4479 		ldrh	w1, [sp, 542]
 1524 007c A04A9552 		mov	w0, 43605
 1525 0080 3F00006B 		cmp	w1, w0
 1526 0084 01FDFF54 		bne	.L250
 1527 0088 E4CF4379 		ldrh	w4, [sp, 486]
 1528 008c 03000090 		adrp	x3, .LANCHOR0+108
 1529 0090 E0D34379 		ldrh	w0, [sp, 488]
 1530 0094 02008052 		mov	w2, 0
 1531 0098 E1830091 		add	x1, sp, 32
 1532 009c 804000AA 		orr	x0, x4, x0, lsl 16
 1533 00a0 600000B9 		str	w0, [x3, #:lo12:.LANCHOR0+108]
 1534 00a4 00000094 		bl	sdTransferBlocks.constprop.10
 1535 00a8 E0834039 		ldrb	w0, [sp, 32]
 1536 00ac 00781E12 		and	w0, w0, -3
AARCH64 GAS  C:\Users\ldebo\AppData\Local\Temp\cchOloIf.s 			page 28


 1537 00b0 001C0012 		and	w0, w0, 255
 1538 00b4 1FA40371 		cmp	w0, 233
 1539 00b8 40FCFF54 		beq	.L251
 1540 00bc DAFFFF17 		b	.L250
 1541              	.L248:
 1542 00c0 E43340B9 		ldr	w4, [sp, 48]
 1543 00c4 9F3C78F2 		tst	x4, 16776960
 1544 00c8 61020054 		bne	.L249
 1545 00cc E44740B9 		ldr	w4, [sp, 68]
 1546 00d0 0000034B 		sub	w0, w0, w3
 1547 00d4 E63F40B9 		ldr	w6, [sp, 60]
 1548 00d8 E54F40B9 		ldr	w5, [sp, 76]
 1549 00dc 6300060B 		add	w3, w3, w6
 1550 00e0 255000B9 		str	w5, [x1, 80]
 1551 00e4 427C041B 		mul	w2, w2, w4
 1552 00e8 6300020B 		add	w3, w3, w2
 1553 00ec 0000024B 		sub	w0, w0, w2
 1554 00f0 23800B29 		stp	w3, w0, [x1, 92]
 1555 00f4 940500B4 		cbz	x20, .L252
 1556 00f8 E23340F9 		ldr	x2, [sp, 96]
 1557 00fc 00000090 		adrp	x0, .LC10
 1558 0100 E19F0191 		add	x1, sp, 103
 1559 0104 00000091 		add	x0, x0, :lo12:.LC10
 1560 0108 42DC58D3 		ubfx	x2, x2, 24, 32
 1561 010c 80023FD6 		blr	x20
 1562 0110 17000014 		b	.L253
 1563              	.L249:
 1564 0114 61020091 		add	x1, x19, :lo12:.LANCHOR0
 1565 0118 427C051B 		mul	w2, w2, w5
 1566 011c 00840051 		sub	w0, w0, #33
 1567 0120 45008052 		mov	w5, 2
 1568 0124 0000024B 		sub	w0, w0, w2
 1569 0128 E41B4139 		ldrb	w4, [sp, 70]
 1570 012c 236C40B9 		ldr	w3, [x1, 108]
 1571 0130 206800B9 		str	w0, [x1, 104]
 1572 0134 9FA40071 		cmp	w4, 41
 1573 0138 60040011 		add	w0, w3, 1
 1574 013c 255800B9 		str	w5, [x1, 88]
 1575 0140 0200020B 		add	w2, w0, w2
 1576 0144 226400B9 		str	w2, [x1, 100]
 1577 0148 21010054 		bne	.L253
 1578 014c D40200B4 		cbz	x20, .L252
 1579 0150 E34B40B9 		ldr	w3, [sp, 72]
 1580 0154 00000090 		adrp	x0, .LC11
 1581 0158 E21F4139 		ldrb	w2, [sp, 71]
 1582 015c E12F0191 		add	x1, sp, 75
 1583 0160 00000091 		add	x0, x0, :lo12:.LC11
 1584 0164 4220032A 		orr	w2, w2, w3, lsl 8
 1585 0168 80023FD6 		blr	x20
 1586              	.L253:
 1587 016c 60020091 		add	x0, x19, :lo12:.LANCHOR0
 1588 0170 00200091 		add	x0, x0, 8
 1589 0174 035440B9 		ldr	w3, [x0, 84]
 1590 0178 026040B9 		ldr	w2, [x0, 96]
 1591 017c 4308C31A 		udiv	w3, w2, w3
 1592 0180 340100B4 		cbz	x20, .L252
 1593 0184 045040B9 		ldr	w4, [x0, 80]
AARCH64 GAS  C:\Users\ldebo\AppData\Local\Temp\cchOloIf.s 			page 29


 1594 0188 E203022A 		uxtw	x2, w2
 1595 018c 015C40B9 		ldr	w1, [x0, 92]
 1596 0190 00000090 		adrp	x0, .LC12
 1597 0194 00000091 		add	x0, x0, :lo12:.LC12
 1598 0198 80023FD6 		blr	x20
 1599 019c 20008052 		mov	w0, 1
 1600 01a0 02000014 		b	.L261
 1601              	.L252:
 1602 01a4 20008052 		mov	w0, 1
 1603              	.L261:
 1604 01a8 F35340A9 		ldp	x19, x20, [sp]
 1605 01ac FE0B40F9 		ldr	x30, [sp, 16]
 1606 01b0 FF830891 		add	sp, sp, 544
 1607 01b4 C0035FD6 		ret
 1608              		.size	LoadDrivePartition, .-LoadDrivePartition
 1609              		.text
 1610              		.align	2
 1611 1464 1F2003D5 		.p2align 4,,15
 1611      1F2003D5 
 1611      1F2003D5 
 1612              		.global	sdTransferBlocks
 1613              		.type	sdTransferBlocks, %function
 1614              	sdTransferBlocks:
 1615 1470 F353BAA9 		stp	x19, x20, [sp, -96]!
 1616 1474 14000090 		adrp	x20, .LANCHOR0
 1617 1478 84020091 		add	x4, x20, :lo12:.LANCHOR0
 1618 147c F96B03A9 		stp	x25, x26, [sp, 48]
 1619 1480 F903002A 		mov	w25, w0
 1620 1484 FE2B00F9 		str	x30, [sp, 80]
 1621 1488 804040B9 		ldr	w0, [x4, 64]
 1622 148c E0060034 		cbz	w0, .L283
 1623 1490 F50B00F9 		str	x21, [sp, 16]
 1624 1494 F303012A 		mov	w19, w1
 1625 1498 FC2700F9 		str	x28, [sp, 72]
 1626 149c 751C0012 		and	w21, w3, 255
 1627 14a0 FC0302AA 		mov	x28, x2
 1628 14a4 D7FAFF97 		bl	sdWaitForData
 1629 14a8 60070035 		cbnz	w0, .L284
 1630 14ac F6DF01A9 		stp	x22, x23, [sp, 24]
 1631 14b0 FB2300F9 		str	x27, [sp, 64]
 1632 14b4 75060035 		cbnz	w21, .L265
 1633 14b8 7F060071 		cmp	w19, 1
 1634 14bc 60160054 		beq	.L287
 1635 14c0 16048052 		mov	w22, 32
 1636 14c4 1B2D80D2 		mov	x27, 360
 1637              	.L281:
 1638 14c8 7F060071 		cmp	w19, 1
 1639 14cc 29170054 		bls	.L332
 1640 14d0 80020091 		add	x0, x20, :lo12:.LANCHOR0
 1641 14d4 17000090 		adrp	x23, .LANCHOR1
 1642 14d8 00200091 		add	x0, x0, 8
 1643 14dc 002440B9 		ldr	w0, [x0, 36]
 1644 14e0 006458D3 		ubfx	x0, x0, 24, 2
 1645 14e4 1F080071 		cmp	w0, 2
 1646 14e8 60060054 		beq	.L333
 1647              	.L324:
 1648 14ec F81700F9 		str	x24, [sp, 40]
AARCH64 GAS  C:\Users\ldebo\AppData\Local\Temp\cchOloIf.s 			page 30


 1649              	.L267:
 1650 14f0 18000090 		adrp	x24, RPi_IO_Base_Addr
 1651 14f4 020340B9 		ldr	w2, [x24, #:lo12:RPi_IO_Base_Addr]
 1652 14f8 83020091 		add	x3, x20, :lo12:.LANCHOR0
 1653 14fc 04408052 		mov	w4, 512
 1654 1500 42004C11 		add	w2, w2, 3145728
 1655 1504 215B1753 		lsl	w1, w25, 9
 1656 1508 42100011 		add	w2, w2, 4
 1657 150c E0020091 		add	x0, x23, :lo12:.LANCHOR1
 1658 1510 654040B9 		ldr	w5, [x3, 64]
 1659 1514 00001B8B 		add	x0, x0, x27
 1660 1518 430040B9 		ldr	w3, [x2]
 1661 151c BF0C0071 		cmp	w5, 3
 1662 1520 2100991A 		csel	w1, w1, w25, eq
 1663 1524 633E1033 		bfi	w3, w19, 16, 16
 1664 1528 430000B9 		str	w3, [x2]
 1665 152c 430040B9 		ldr	w3, [x2]
 1666 1530 83240033 		bfi	w3, w4, 0, 10
 1667 1534 430000B9 		str	w3, [x2]
 1668 1538 AAFCFF97 		bl	sdSendCommandP
 1669 153c FA03002A 		mov	w26, w0
 1670 1540 E0040034 		cbz	w0, .L334
 1671              	.L330:
 1672 1544 E0031A2A 		mov	w0, w26
 1673 1548 FE2B40F9 		ldr	x30, [sp, 80]
 1674 154c F55B41A9 		ldp	x21, x22, [sp, 16]
 1675 1550 F76342A9 		ldp	x23, x24, [sp, 32]
 1676 1554 F96B43A9 		ldp	x25, x26, [sp, 48]
 1677 1558 FB7344A9 		ldp	x27, x28, [sp, 64]
 1678 155c F353C6A8 		ldp	x19, x20, [sp], 96
 1679 1560 C0035FD6 		ret
 1680 1564 1F2003D5 		.p2align 3
 1681              	.L283:
 1682 1568 BA008052 		mov	w26, 5
 1683              	.L263:
 1684 156c E0031A2A 		mov	w0, w26
 1685 1570 FE2B40F9 		ldr	x30, [sp, 80]
 1686 1574 F96B43A9 		ldp	x25, x26, [sp, 48]
 1687 1578 F353C6A8 		ldp	x19, x20, [sp], 96
 1688 157c C0035FD6 		ret
 1689              	.L265:
 1690 1580 7F060071 		cmp	w19, 1
 1691 1584 C0100054 		beq	.L286
 1692 1588 16028052 		mov	w22, 16
 1693 158c 1B3C80D2 		mov	x27, 480
 1694 1590 CEFFFF17 		b	.L281
 1695              	.L284:
 1696 1594 5A008052 		mov	w26, 2
 1697 1598 F50B40F9 		ldr	x21, [sp, 16]
 1698 159c E0031A2A 		mov	w0, w26
 1699 15a0 FC2740F9 		ldr	x28, [sp, 72]
 1700 15a4 F96B43A9 		ldp	x25, x26, [sp, 48]
 1701 15a8 FE2B40F9 		ldr	x30, [sp, 80]
 1702 15ac F353C6A8 		ldp	x19, x20, [sp], 96
 1703 15b0 C0035FD6 		ret
 1704              	.L333:
 1705 15b4 E0020091 		add	x0, x23, :lo12:.LANCHOR1
AARCH64 GAS  C:\Users\ldebo\AppData\Local\Temp\cchOloIf.s 			page 31


 1706 15b8 E103132A 		mov	w1, w19
 1707 15bc 00C00691 		add	x0, x0, 432
 1708 15c0 88FCFF97 		bl	sdSendCommandP
 1709 15c4 FA03002A 		mov	w26, w0
 1710 15c8 20F9FF34 		cbz	w0, .L324
 1711 15cc F55B41A9 		ldp	x21, x22, [sp, 16]
 1712 15d0 F71340F9 		ldr	x23, [sp, 32]
 1713 15d4 FB7344A9 		ldp	x27, x28, [sp, 64]
 1714 15d8 E5FFFF17 		b	.L263
 1715              	.L334:
 1716 15dc 19048052 		mov	w25, 32
 1717 15e0 1906A072 		movk	w25, 0x30, lsl 16
 1718 15e4 1B008052 		mov	w27, 0
 1719 15e8 18030091 		add	x24, x24, :lo12:RPi_IO_Base_Addr
 1720 15ec 33100034 		cbz	w19, .L335
 1721              		.p2align 3
 1722              	.L278:
 1723 15f0 E003162A 		mov	w0, w22
 1724 15f4 CFFAFF97 		bl	sdWaitForInterrupt
 1725 15f8 FA03002A 		mov	w26, w0
 1726 15fc 400B0035 		cbnz	w0, .L336
 1727 1600 E0031CAA 		mov	x0, x28
 1728 1604 82030891 		add	x2, x28, 512
 1729 1608 9F0740F2 		tst	x28, 3
 1730 160c 60070054 		beq	.L270
 1731 1610 55050035 		cbnz	w21, .L274
 1732 1614 1F2003D5 		.p2align 3
 1733              	.L272:
 1734 1618 010340B9 		ldr	w1, [x24]
 1735 161c 00040091 		add	x0, x0, 1
 1736 1620 5F0000EB 		cmp	x2, x0
 1737 1624 2100190B 		add	w1, w1, w25
 1738 1628 210040B9 		ldr	w1, [x1]
 1739 162c 01F01F38 		strb	w1, [x0, -1]
 1740 1630 247C0853 		lsr	w4, w1, 8
 1741 1634 237C1053 		lsr	w3, w1, 16
 1742 1638 04000039 		strb	w4, [x0]
 1743 163c 217C1853 		lsr	w1, w1, 24
 1744 1640 03040039 		strb	w3, [x0, 1]
 1745 1644 01080039 		strb	w1, [x0, 2]
 1746 1648 81FEFF54 		bne	.L272
 1747              	.L273:
 1748 164c 7B070011 		add	w27, w27, 1
 1749 1650 FC0302AA 		mov	x28, x2
 1750 1654 7F021B6B 		cmp	w19, w27
 1751 1658 C1FCFF54 		bne	.L278
 1752              	.L338:
 1753 165c 150B0035 		cbnz	w21, .L337
 1754              	.L279:
 1755 1660 7F070071 		cmp	w27, 1
 1756 1664 00F7FF54 		beq	.L330
 1757 1668 80020091 		add	x0, x20, :lo12:.LANCHOR0
 1758 166c 00200091 		add	x0, x0, 8
 1759 1670 012440B9 		ldr	w1, [x0, 36]
 1760 1674 216458D3 		ubfx	x1, x1, 24, 2
 1761 1678 3F080071 		cmp	w1, 2
 1762 167c 40F6FF54 		beq	.L330
AARCH64 GAS  C:\Users\ldebo\AppData\Local\Temp\cchOloIf.s 			page 32


 1763 1680 E2020091 		add	x2, x23, :lo12:.LANCHOR1
 1764 1684 01008052 		mov	w1, 0
 1765 1688 42104439 		ldrb	w2, [x2, 260]
 1766 168c 42000036 		tbz	x2, 0, .L280
 1767 1690 013C40B9 		ldr	w1, [x0, 60]
 1768              	.L280:
 1769 1694 E0020091 		add	x0, x23, :lo12:.LANCHOR1
 1770 1698 FE2B40F9 		ldr	x30, [sp, 80]
 1771 169c F55B41A9 		ldp	x21, x22, [sp, 16]
 1772 16a0 00C00391 		add	x0, x0, 240
 1773 16a4 F76342A9 		ldp	x23, x24, [sp, 32]
 1774 16a8 F96B43A9 		ldp	x25, x26, [sp, 48]
 1775 16ac FB7344A9 		ldp	x27, x28, [sp, 64]
 1776 16b0 F353C6A8 		ldp	x19, x20, [sp], 96
 1777 16b4 4BFCFF17 		b	sdSendCommandP
 1778              		.p2align 3
 1779              	.L274:
 1780 16b8 05084039 		ldrb	w5, [x0, 2]
 1781 16bc 00040091 		add	x0, x0, 1
 1782 16c0 030340B9 		ldr	w3, [x24]
 1783 16c4 04084039 		ldrb	w4, [x0, 2]
 1784 16c8 06F05F38 		ldrb	w6, [x0, -1]
 1785 16cc 6300190B 		add	w3, w3, w25
 1786 16d0 01004039 		ldrb	w1, [x0]
 1787 16d4 A53C1053 		lsl	w5, w5, 16
 1788 16d8 5F0000EB 		cmp	x2, x0
 1789 16dc C460042A 		orr	w4, w6, w4, lsl 24
 1790 16e0 A120012A 		orr	w1, w5, w1, lsl 8
 1791 16e4 2100042A 		orr	w1, w1, w4
 1792 16e8 610000B9 		str	w1, [x3]
 1793 16ec 61FEFF54 		bne	.L274
 1794 16f0 D7FFFF17 		b	.L273
 1795 16f4 1F2003D5 		.p2align 3
 1796              	.L270:
 1797 16f8 D5010035 		cbnz	w21, .L277
 1798 16fc 1F2003D5 		.p2align 3
 1799              	.L276:
 1800 1700 010340B9 		ldr	w1, [x24]
 1801 1704 2100190B 		add	w1, w1, w25
 1802 1708 210040B9 		ldr	w1, [x1]
 1803 170c 014400B8 		str	w1, [x0], 4
 1804 1710 5F0000EB 		cmp	x2, x0
 1805 1714 61FFFF54 		bne	.L276
 1806 1718 7B070011 		add	w27, w27, 1
 1807 171c FC0302AA 		mov	x28, x2
 1808 1720 7F021B6B 		cmp	w19, w27
 1809 1724 61F6FF54 		bne	.L278
 1810 1728 CDFFFF17 		b	.L338
 1811 172c 1F2003D5 		.p2align 3
 1812              	.L277:
 1813 1730 010340B9 		ldr	w1, [x24]
 1814 1734 034440B8 		ldr	w3, [x0], 4
 1815 1738 2100190B 		add	w1, w1, w25
 1816 173c 5F0000EB 		cmp	x2, x0
 1817 1740 230000B9 		str	w3, [x1]
 1818 1744 40F8FF54 		beq	.L273
 1819 1748 010340B9 		ldr	w1, [x24]
AARCH64 GAS  C:\Users\ldebo\AppData\Local\Temp\cchOloIf.s 			page 33


 1820 174c 034440B8 		ldr	w3, [x0], 4
 1821 1750 2100190B 		add	w1, w1, w25
 1822 1754 5F0000EB 		cmp	x2, x0
 1823 1758 230000B9 		str	w3, [x1]
 1824 175c A1FEFF54 		bne	.L277
 1825 1760 BBFFFF17 		b	.L273
 1826              	.L336:
 1827 1764 810240F9 		ldr	x1, [x20, #:lo12:.LANCHOR0]
 1828 1768 E1EEFFB4 		cbz	x1, .L330
 1829 176c 00000090 		adrp	x0, .LC8
 1830 1770 00000091 		add	x0, x0, :lo12:.LC8
 1831 1774 20003FD6 		blr	x1
 1832 1778 F55B41A9 		ldp	x21, x22, [sp, 16]
 1833 177c F76342A9 		ldp	x23, x24, [sp, 32]
 1834 1780 FB7344A9 		ldp	x27, x28, [sp, 64]
 1835 1784 7AFFFF17 		b	.L263
 1836              	.L287:
 1837 1788 16048052 		mov	w22, 32
 1838 178c 1B2A80D2 		mov	x27, 336
 1839 1790 17000090 		adrp	x23, .LANCHOR1
 1840 1794 F81700F9 		str	x24, [sp, 40]
 1841 1798 56FFFF17 		b	.L267
 1842              	.L286:
 1843 179c 16028052 		mov	w22, 16
 1844 17a0 1B3980D2 		mov	x27, 456
 1845 17a4 17000090 		adrp	x23, .LANCHOR1
 1846 17a8 F81700F9 		str	x24, [sp, 40]
 1847 17ac 51FFFF17 		b	.L267
 1848              	.L332:
 1849 17b0 17000090 		adrp	x23, .LANCHOR1
 1850 17b4 F81700F9 		str	x24, [sp, 40]
 1851 17b8 4EFFFF17 		b	.L267
 1852              	.L337:
 1853 17bc 40008052 		mov	w0, 2
 1854 17c0 5CFAFF97 		bl	sdWaitForInterrupt
 1855 17c4 E0F4FF34 		cbz	w0, .L279
 1856 17c8 FA03002A 		mov	w26, w0
 1857              	.L282:
 1858 17cc 810240F9 		ldr	x1, [x20, #:lo12:.LANCHOR0]
 1859 17d0 A1EBFFB4 		cbz	x1, .L330
 1860 17d4 00000090 		adrp	x0, .LC9
 1861 17d8 00000091 		add	x0, x0, :lo12:.LC9
 1862 17dc 20003FD6 		blr	x1
 1863 17e0 F55B41A9 		ldp	x21, x22, [sp, 16]
 1864 17e4 F76342A9 		ldp	x23, x24, [sp, 32]
 1865 17e8 FB7344A9 		ldp	x27, x28, [sp, 64]
 1866 17ec 60FFFF17 		b	.L263
 1867              	.L335:
 1868 17f0 B5EAFF34 		cbz	w21, .L330
 1869 17f4 40008052 		mov	w0, 2
 1870 17f8 4EFAFF97 		bl	sdWaitForInterrupt
 1871 17fc FA03002A 		mov	w26, w0
 1872 1800 60FEFF35 		cbnz	w0, .L282
 1873 1804 50FFFF17 		b	.L330
 1874              		.size	sdTransferBlocks, .-sdTransferBlocks
 1875              		.align	2
 1876 1808 1F2003D5 		.p2align 4,,15
AARCH64 GAS  C:\Users\ldebo\AppData\Local\Temp\cchOloIf.s 			page 34


 1876      1F2003D5 
 1877              		.global	sdClearBlocks
 1878              		.type	sdClearBlocks, %function
 1879              	sdClearBlocks:
 1880 1810 F353BCA9 		stp	x19, x20, [sp, -64]!
 1881 1814 F55B01A9 		stp	x21, x22, [sp, 16]
 1882 1818 15000090 		adrp	x21, .LANCHOR0
 1883 181c B3020091 		add	x19, x21, :lo12:.LANCHOR0
 1884 1820 73220091 		add	x19, x19, 8
 1885 1824 FE1B00F9 		str	x30, [sp, 48]
 1886 1828 F603002A 		mov	w22, w0
 1887 182c 603A40B9 		ldr	w0, [x19, 56]
 1888 1830 00070034 		cbz	w0, .L348
 1889 1834 F403012A 		mov	w20, w1
 1890 1838 F2F9FF97 		bl	sdWaitForData
 1891 183c 80070035 		cbnz	w0, .L345
 1892 1840 603A40B9 		ldr	w0, [x19, 56]
 1893 1844 D402140B 		add	w20, w22, w20
 1894 1848 F76302A9 		stp	x23, x24, [sp, 32]
 1895 184c 1F0C0071 		cmp	w0, 3
 1896 1850 61000054 		bne	.L342
 1897 1854 D65A1753 		lsl	w22, w22, 9
 1898 1858 945A1753 		lsl	w20, w20, 9
 1899              	.L342:
 1900 185c 18000090 		adrp	x24, .LANCHOR1
 1901 1860 17030091 		add	x23, x24, :lo12:.LANCHOR1
 1902 1864 E103162A 		mov	w1, w22
 1903 1868 E0620991 		add	x0, x23, 600
 1904 186c DDFBFF97 		bl	sdSendCommandP
 1905 1870 F303002A 		mov	w19, w0
 1906 1874 20040035 		cbnz	w0, .L360
 1907 1878 E103142A 		mov	w1, w20
 1908 187c E0C20991 		add	x0, x23, 624
 1909 1880 D8FBFF97 		bl	sdSendCommandP
 1910 1884 F303002A 		mov	w19, w0
 1911 1888 80030035 		cbnz	w0, .L360
 1912 188c E0724A39 		ldrb	w0, [x23, 668]
 1913 1890 01008052 		mov	w1, 0
 1914 1894 A0050037 		tbnz	x0, 0, .L362
 1915              	.L343:
 1916 1898 00030091 		add	x0, x24, :lo12:.LANCHOR1
 1917 189c 00200A91 		add	x0, x0, 648
 1918 18a0 D0FBFF97 		bl	sdSendCommandP
 1919 18a4 F303002A 		mov	w19, w0
 1920 18a8 80020035 		cbnz	w0, .L360
 1921 18ac 17000090 		adrp	x23, RPi_IO_Base_Addr
 1922 18b0 E00240B9 		ldr	w0, [x23, #:lo12:RPi_IO_Base_Addr]
 1923 18b4 96048052 		mov	w22, 36
 1924 18b8 1606A072 		movk	w22, 0x30, lsl 16
 1925 18bc 0000160B 		add	w0, w0, w22
 1926 18c0 F4478852 		mov	w20, 16959
 1927 18c4 F401A072 		movk	w20, 0xf, lsl 16
 1928 18c8 F7020091 		add	x23, x23, :lo12:RPi_IO_Base_Addr
 1929 18cc 000040B9 		ldr	w0, [x0]
 1930 18d0 80000837 		tbnz	x0, 1, .L344
 1931 18d4 09000014 		b	.L360
 1932              		.p2align 3
AARCH64 GAS  C:\Users\ldebo\AppData\Local\Temp\cchOloIf.s 			page 35


 1933              	.L346:
 1934 18d8 94060071 		subs	w20, w20, #1
 1935 18dc C0030054 		beq	.L363
 1936              	.L344:
 1937 18e0 400180D2 		mov	x0, 10
 1938 18e4 00000094 		bl	timer_wait
 1939 18e8 E00240B9 		ldr	w0, [x23]
 1940 18ec 0100160B 		add	w1, w0, w22
 1941 18f0 220040B9 		ldr	w2, [x1]
 1942 18f4 22FF0F37 		tbnz	x2, 1, .L346
 1943              		.p2align 3
 1944              	.L360:
 1945 18f8 F76342A9 		ldp	x23, x24, [sp, 32]
 1946              	.L339:
 1947 18fc E003132A 		mov	w0, w19
 1948 1900 F55B41A9 		ldp	x21, x22, [sp, 16]
 1949 1904 FE1B40F9 		ldr	x30, [sp, 48]
 1950 1908 F353C4A8 		ldp	x19, x20, [sp], 64
 1951 190c C0035FD6 		ret
 1952              		.p2align 3
 1953              	.L348:
 1954 1910 B3008052 		mov	w19, 5
 1955 1914 FE1B40F9 		ldr	x30, [sp, 48]
 1956 1918 E003132A 		mov	w0, w19
 1957 191c F55B41A9 		ldp	x21, x22, [sp, 16]
 1958 1920 F353C4A8 		ldp	x19, x20, [sp], 64
 1959 1924 C0035FD6 		ret
 1960              	.L361:
 1961 1928 F76342A9 		ldp	x23, x24, [sp, 32]
 1962              	.L345:
 1963 192c 53008052 		mov	w19, 2
 1964 1930 F55B41A9 		ldp	x21, x22, [sp, 16]
 1965 1934 E003132A 		mov	w0, w19
 1966 1938 FE1B40F9 		ldr	x30, [sp, 48]
 1967 193c F353C4A8 		ldp	x19, x20, [sp], 64
 1968 1940 C0035FD6 		ret
 1969 1944 1F2003D5 		.p2align 3
 1970              	.L362:
 1971 1948 A0020091 		add	x0, x21, :lo12:.LANCHOR0
 1972 194c 014440B9 		ldr	w1, [x0, 68]
 1973 1950 D2FFFF17 		b	.L343
 1974              	.L363:
 1975 1954 A30240F9 		ldr	x3, [x21, #:lo12:.LANCHOR0]
 1976 1958 83FEFFB4 		cbz	x3, .L361
 1977 195c E2870C32 		mov	w2, 3145776
 1978 1960 0200020B 		add	w2, w0, w2
 1979 1964 210040B9 		ldr	w1, [x1]
 1980 1968 00000090 		adrp	x0, .LC13
 1981 196c 53008052 		mov	w19, 2
 1982 1970 00000091 		add	x0, x0, :lo12:.LC13
 1983 1974 420040B9 		ldr	w2, [x2]
 1984 1978 60003FD6 		blr	x3
 1985 197c F76342A9 		ldp	x23, x24, [sp, 32]
 1986 1980 DFFFFF17 		b	.L339
 1987              		.size	sdClearBlocks, .-sdClearBlocks
 1988              		.align	2
 1989 1984 1F2003D5 		.p2align 4,,15
AARCH64 GAS  C:\Users\ldebo\AppData\Local\Temp\cchOloIf.s 			page 36


 1989      1F2003D5 
 1989      1F2003D5 
 1990              		.global	getSetNextCluster
 1991              		.type	getSetNextCluster, %function
 1992              	getSetNextCluster:
 1993 1990 FF4309D1 		sub	sp, sp, #592
 1994 1994 00741E53 		lsl	w0, w0, 2
 1995 1998 F35300A9 		stp	x19, x20, [sp]
 1996 199c F71300F9 		str	x23, [sp, 32]
 1997 19a0 17000090 		adrp	x23, .LANCHOR0
 1998 19a4 F3020091 		add	x19, x23, :lo12:.LANCHOR0
 1999 19a8 73220091 		add	x19, x19, 8
 2000 19ac F55B01A9 		stp	x21, x22, [sp, 16]
 2001 19b0 F91B00F9 		str	x25, [sp, 48]
 2002 19b4 391C0012 		and	w25, w1, 255
 2003 19b8 FE2700F9 		str	x30, [sp, 72]
 2004 19bc 755A40B9 		ldr	w21, [x19, 88]
 2005 19c0 613A40B9 		ldr	w1, [x19, 56]
 2006 19c4 1608D51A 		udiv	w22, w0, w21
 2007 19c8 D582151B 		msub	w21, w22, w21, w0
 2008 19cc 21080034 		cbz	w1, .L367
 2009 19d0 FAEF03A9 		stp	x26, x27, [sp, 56]
 2010 19d4 7AEE4C29 		ldp	w26, w27, [x19, 100]
 2011 19d8 F81700F9 		str	x24, [sp, 40]
 2012 19dc F803022A 		mov	w24, w2
 2013 19e0 88F9FF97 		bl	sdWaitForData
 2014 19e4 20070035 		cbnz	w0, .L405
 2015 19e8 14000090 		adrp	x20, RPi_IO_Base_Addr
 2016 19ec 820240B9 		ldr	w2, [x20, #:lo12:RPi_IO_Base_Addr]
 2017 19f0 603A40B9 		ldr	w0, [x19, 56]
 2018 19f4 04408052 		mov	w4, 512
 2019 19f8 42004C11 		add	w2, w2, 3145728
 2020 19fc 5A031B0B 		add	w26, w26, w27
 2021 1a00 42100011 		add	w2, w2, 4
 2022 1a04 1F0C0071 		cmp	w0, 3
 2023 1a08 5603160B 		add	w22, w26, w22
 2024 1a0c 1A000090 		adrp	x26, .LANCHOR1
 2025 1a10 40030091 		add	x0, x26, :lo12:.LANCHOR1
 2026 1a14 430040B9 		ldr	w3, [x2]
 2027 1a18 C15A1753 		lsl	w1, w22, 9
 2028 1a1c 2100961A 		csel	w1, w1, w22, eq
 2029 1a20 00400591 		add	x0, x0, 336
 2030 1a24 633C0012 		and	w3, w3, 65535
 2031 1a28 63001032 		orr	w3, w3, 65536
 2032 1a2c 430000B9 		str	w3, [x2]
 2033 1a30 430040B9 		ldr	w3, [x2]
 2034 1a34 83240033 		bfi	w3, w4, 0, 10
 2035 1a38 430000B9 		str	w3, [x2]
 2036 1a3c 69FBFF97 		bl	sdSendCommandP
 2037 1a40 40040035 		cbnz	w0, .L405
 2038 1a44 00048052 		mov	w0, 32
 2039 1a48 BAF9FF97 		bl	sdWaitForInterrupt
 2040 1a4c 600C0035 		cbnz	w0, .L375
 2041 1a50 810240B9 		ldr	w1, [x20, #:lo12:RPi_IO_Base_Addr]
 2042 1a54 E3430191 		add	x3, sp, 80
 2043 1a58 FB0303AA 		mov	x27, x3
 2044 1a5c E2430991 		add	x2, sp, 592
AARCH64 GAS  C:\Users\ldebo\AppData\Local\Temp\cchOloIf.s 			page 37


 2045 1a60 21004C11 		add	w1, w1, 3145728
 2046 1a64 F30303AA 		mov	x19, x3
 2047 1a68 21800011 		add	w1, w1, 32
 2048 1a6c 1F2003D5 		.p2align 3
 2049              	.L370:
 2050 1a70 200040B9 		ldr	w0, [x1]
 2051 1a74 604600B8 		str	w0, [x19], 4
 2052 1a78 5F0013EB 		cmp	x2, x19
 2053 1a7c A1FFFF54 		bne	.L370
 2054 1a80 99010035 		cbnz	w25, .L371
 2055 1a84 614875B8 		ldr	w1, [x3, w21, uxtw]
 2056 1a88 F35340A9 		ldp	x19, x20, [sp]
 2057 1a8c E003012A 		mov	w0, w1
 2058 1a90 F55B41A9 		ldp	x21, x22, [sp, 16]
 2059 1a94 F71340F9 		ldr	x23, [sp, 32]
 2060 1a98 F81740F9 		ldr	x24, [sp, 40]
 2061 1a9c F91B40F9 		ldr	x25, [sp, 48]
 2062 1aa0 FAEF43A9 		ldp	x26, x27, [sp, 56]
 2063 1aa4 FE2740F9 		ldr	x30, [sp, 72]
 2064 1aa8 FF430991 		add	sp, sp, 592
 2065 1aac C0035FD6 		ret
 2066              	.L371:
 2067 1ab0 E0020091 		add	x0, x23, :lo12:.LANCHOR0
 2068 1ab4 784835B8 		str	w24, [x3, w21, uxtw]
 2069 1ab8 F50300AA 		mov	x21, x0
 2070 1abc B5220091 		add	x21, x21, 8
 2071 1ac0 004040B9 		ldr	w0, [x0, 64]
 2072 1ac4 80010035 		cbnz	w0, .L408
 2073              	.L405:
 2074 1ac8 F81740F9 		ldr	x24, [sp, 40]
 2075 1acc FAEF43A9 		ldp	x26, x27, [sp, 56]
 2076              	.L367:
 2077 1ad0 01008012 		mov	w1, -1
 2078              	.L364:
 2079 1ad4 F35340A9 		ldp	x19, x20, [sp]
 2080 1ad8 E003012A 		mov	w0, w1
 2081 1adc F55B41A9 		ldp	x21, x22, [sp, 16]
 2082 1ae0 F71340F9 		ldr	x23, [sp, 32]
 2083 1ae4 F91B40F9 		ldr	x25, [sp, 48]
 2084 1ae8 FE2740F9 		ldr	x30, [sp, 72]
 2085 1aec FF430991 		add	sp, sp, 592
 2086 1af0 C0035FD6 		ret
 2087              	.L408:
 2088 1af4 43F9FF97 		bl	sdWaitForData
 2089 1af8 80FEFF35 		cbnz	w0, .L405
 2090 1afc 820240B9 		ldr	w2, [x20, #:lo12:RPi_IO_Base_Addr]
 2091 1b00 04408052 		mov	w4, 512
 2092 1b04 A03A40B9 		ldr	w0, [x21, 56]
 2093 1b08 C15A1753 		lsl	w1, w22, 9
 2094 1b0c 42004C11 		add	w2, w2, 3145728
 2095 1b10 42100011 		add	w2, w2, 4
 2096 1b14 1F0C0071 		cmp	w0, 3
 2097 1b18 40030091 		add	x0, x26, :lo12:.LANCHOR1
 2098 1b1c 2100961A 		csel	w1, w1, w22, eq
 2099 1b20 00200791 		add	x0, x0, 456
 2100 1b24 430040B9 		ldr	w3, [x2]
 2101 1b28 633C0012 		and	w3, w3, 65535
AARCH64 GAS  C:\Users\ldebo\AppData\Local\Temp\cchOloIf.s 			page 38


 2102 1b2c 63001032 		orr	w3, w3, 65536
 2103 1b30 430000B9 		str	w3, [x2]
 2104 1b34 430040B9 		ldr	w3, [x2]
 2105 1b38 83240033 		bfi	w3, w4, 0, 10
 2106 1b3c 430000B9 		str	w3, [x2]
 2107 1b40 28FBFF97 		bl	sdSendCommandP
 2108 1b44 20FCFF35 		cbnz	w0, .L405
 2109 1b48 00028052 		mov	w0, 16
 2110 1b4c 79F9FF97 		bl	sdWaitForInterrupt
 2111 1b50 40040035 		cbnz	w0, .L375
 2112 1b54 94020091 		add	x20, x20, :lo12:RPi_IO_Base_Addr
 2113 1b58 02048052 		mov	w2, 32
 2114 1b5c 0206A072 		movk	w2, 0x30, lsl 16
 2115              		.p2align 3
 2116              	.L374:
 2117 1b60 800240B9 		ldr	w0, [x20]
 2118 1b64 614740B8 		ldr	w1, [x27], 4
 2119 1b68 0000020B 		add	w0, w0, w2
 2120 1b6c 7F021BEB 		cmp	x19, x27
 2121 1b70 010000B9 		str	w1, [x0]
 2122 1b74 61FFFF54 		bne	.L374
 2123 1b78 40008052 		mov	w0, 2
 2124 1b7c 6DF9FF97 		bl	sdWaitForInterrupt
 2125 1b80 01008052 		mov	w1, 0
 2126 1b84 60010034 		cbz	w0, .L404
 2127 1b88 E10240F9 		ldr	x1, [x23, #:lo12:.LANCHOR0]
 2128 1b8c E1F9FFB4 		cbz	x1, .L405
 2129 1b90 00000090 		adrp	x0, .LC9
 2130 1b94 00000091 		add	x0, x0, :lo12:.LC9
 2131 1b98 20003FD6 		blr	x1
 2132 1b9c F81740F9 		ldr	x24, [sp, 40]
 2133 1ba0 01008012 		mov	w1, -1
 2134 1ba4 FAEF43A9 		ldp	x26, x27, [sp, 56]
 2135 1ba8 CBFFFF17 		b	.L364
 2136 1bac 1F2003D5 		.p2align 3
 2137              	.L404:
 2138 1bb0 F35340A9 		ldp	x19, x20, [sp]
 2139 1bb4 E003012A 		mov	w0, w1
 2140 1bb8 F55B41A9 		ldp	x21, x22, [sp, 16]
 2141 1bbc F71340F9 		ldr	x23, [sp, 32]
 2142 1bc0 F81740F9 		ldr	x24, [sp, 40]
 2143 1bc4 F91B40F9 		ldr	x25, [sp, 48]
 2144 1bc8 FAEF43A9 		ldp	x26, x27, [sp, 56]
 2145 1bcc FE2740F9 		ldr	x30, [sp, 72]
 2146 1bd0 FF430991 		add	sp, sp, 592
 2147 1bd4 C0035FD6 		ret
 2148              	.L375:
 2149 1bd8 E10240F9 		ldr	x1, [x23, #:lo12:.LANCHOR0]
 2150 1bdc 61F7FFB4 		cbz	x1, .L405
 2151 1be0 00000090 		adrp	x0, .LC8
 2152 1be4 00000091 		add	x0, x0, :lo12:.LC8
 2153 1be8 20003FD6 		blr	x1
 2154 1bec F71340F9 		ldr	x23, [sp, 32]
 2155 1bf0 F35340A9 		ldp	x19, x20, [sp]
 2156 1bf4 01008012 		mov	w1, -1
 2157 1bf8 F55B41A9 		ldp	x21, x22, [sp, 16]
 2158 1bfc E003012A 		mov	w0, w1
AARCH64 GAS  C:\Users\ldebo\AppData\Local\Temp\cchOloIf.s 			page 39


 2159 1c00 F81740F9 		ldr	x24, [sp, 40]
 2160 1c04 F91B40F9 		ldr	x25, [sp, 48]
 2161 1c08 FAEF43A9 		ldp	x26, x27, [sp, 56]
 2162 1c0c FE2740F9 		ldr	x30, [sp, 72]
 2163 1c10 FF430991 		add	sp, sp, 592
 2164 1c14 C0035FD6 		ret
 2165              		.size	getSetNextCluster, .-getSetNextCluster
 2166              		.align	2
 2167 1c18 1F2003D5 		.p2align 4,,15
 2167      1F2003D5 
 2168              		.global	WildcardMatch
 2169              		.type	WildcardMatch, %function
 2170              	WildcardMatch:
 2171 1c20 F353BCA9 		stp	x19, x20, [sp, -64]!
 2172 1c24 F55B01A9 		stp	x21, x22, [sp, 16]
 2173 1c28 F50300AA 		mov	x21, x0
 2174 1c2c F60301AA 		mov	x22, x1
 2175 1c30 F76302A9 		stp	x23, x24, [sp, 32]
 2176 1c34 F97B03A9 		stp	x25, x30, [sp, 48]
 2177 1c38 170080D2 		mov	x23, 0
 2178 1c3c 180080D2 		mov	x24, 0
 2179              		.p2align 3
 2180              	.L410:
 2181 1c40 D4024039 		ldrb	w20, [x22]
 2182 1c44 00000094 		bl	__locale_ctype_ptr
 2183 1c48 B3024039 		ldrb	w19, [x21]
 2184 1c4c 81820051 		sub	w1, w20, #32
 2185 1c50 0000348B 		add	x0, x0, x20, uxtb
 2186 1c54 00044039 		ldrb	w0, [x0, 1]
 2187 1c58 00040012 		and	w0, w0, 3
 2188 1c5c 1F080071 		cmp	w0, 2
 2189 1c60 2100941A 		csel	w1, w1, w20, eq
 2190 1c64 61070034 		cbz	w1, .L454
 2191 1c68 B4060091 		add	x20, x21, 1
 2192 1c6c 7FFE0071 		cmp	w19, 63
 2193 1c70 80080054 		beq	.L429
 2194              	.L458:
 2195 1c74 29090054 		bls	.L455
 2196 1c78 7F6E0171 		cmp	w19, 91
 2197 1c7c C0040054 		beq	.L415
 2198 1c80 7F720171 		cmp	w19, 92
 2199 1c84 81000054 		bne	.L411
 2200 1c88 B3064039 		ldrb	w19, [x21, 1]
 2201 1c8c B40A0091 		add	x20, x21, 2
 2202 1c90 13030034 		cbz	w19, .L418
 2203              	.L411:
 2204 1c94 D9024039 		ldrb	w25, [x22]
 2205 1c98 00000094 		bl	__locale_ctype_ptr
 2206 1c9c 35830051 		sub	w21, w25, #32
 2207 1ca0 0000398B 		add	x0, x0, x25, uxtb
 2208 1ca4 00044039 		ldrb	w0, [x0, 1]
 2209 1ca8 00040012 		and	w0, w0, 3
 2210 1cac 1F080071 		cmp	w0, 2
 2211 1cb0 B502991A 		csel	w21, w21, w25, eq
 2212 1cb4 00000094 		bl	__locale_ctype_ptr
 2213 1cb8 00C0338B 		add	x0, x0, x19, sxtw
 2214 1cbc 61820051 		sub	w1, w19, #32
AARCH64 GAS  C:\Users\ldebo\AppData\Local\Temp\cchOloIf.s 			page 40


 2215 1cc0 C2024039 		ldrb	w2, [x22]
 2216 1cc4 00044039 		ldrb	w0, [x0, 1]
 2217 1cc8 00040012 		and	w0, w0, 3
 2218 1ccc 1F080071 		cmp	w0, 2
 2219 1cd0 3300931A 		csel	w19, w1, w19, eq
 2220 1cd4 BF02136B 		cmp	w21, w19
 2221 1cd8 00070054 		beq	.L456
 2222 1cdc A2000034 		cbz	w2, .L418
 2223 1ce0 F7060091 		add	x23, x23, 1
 2224 1ce4 F50318AA 		mov	x21, x24
 2225 1ce8 F60317AA 		mov	x22, x23
 2226 1cec B5FAFFB5 		cbnz	x21, .L410
 2227              		.p2align 3
 2228              	.L418:
 2229 1cf0 00008052 		mov	w0, 0
 2230              	.L420:
 2231 1cf4 F55B41A9 		ldp	x21, x22, [sp, 16]
 2232 1cf8 F76342A9 		ldp	x23, x24, [sp, 32]
 2233 1cfc F97B43A9 		ldp	x25, x30, [sp, 48]
 2234 1d00 F353C4A8 		ldp	x19, x20, [sp], 64
 2235 1d04 C0035FD6 		ret
 2236              		.p2align 3
 2237              	.L417:
 2238 1d08 80064039 		ldrb	w0, [x20, 1]
 2239 1d0c 940A0091 		add	x20, x20, 2
 2240 1d10 00FFFF34 		cbz	w0, .L418
 2241              	.L415:
 2242 1d14 80024039 		ldrb	w0, [x20]
 2243 1d18 1F740171 		cmp	w0, 93
 2244 1d1c 00010054 		beq	.L457
 2245              	.L421:
 2246 1d20 1F700171 		cmp	w0, 92
 2247 1d24 20FFFF54 		beq	.L417
 2248 1d28 94060091 		add	x20, x20, 1
 2249 1d2c 20FEFF34 		cbz	w0, .L418
 2250 1d30 80024039 		ldrb	w0, [x20]
 2251 1d34 1F740171 		cmp	w0, 93
 2252 1d38 41FFFF54 		bne	.L421
 2253              	.L457:
 2254 1d3c F7060091 		add	x23, x23, 1
 2255 1d40 F50318AA 		mov	x21, x24
 2256 1d44 F60317AA 		mov	x22, x23
 2257 1d48 0F000014 		b	.L412
 2258 1d4c 1F2003D5 		.p2align 3
 2259              	.L454:
 2260 1d50 00000094 		bl	__locale_ctype_ptr
 2261 1d54 0000338B 		add	x0, x0, x19, uxtb
 2262 1d58 61820051 		sub	w1, w19, #32
 2263 1d5c 00044039 		ldrb	w0, [x0, 1]
 2264 1d60 00040012 		and	w0, w0, 3
 2265 1d64 1F080071 		cmp	w0, 2
 2266 1d68 3300931A 		csel	w19, w1, w19, eq
 2267 1d6c 33030034 		cbz	w19, .L432
 2268 1d70 B3024039 		ldrb	w19, [x21]
 2269 1d74 B4060091 		add	x20, x21, 1
 2270 1d78 7FFE0071 		cmp	w19, 63
 2271 1d7c C1F7FF54 		bne	.L458
AARCH64 GAS  C:\Users\ldebo\AppData\Local\Temp\cchOloIf.s 			page 41


 2272              	.L429:
 2273 1d80 F50314AA 		mov	x21, x20
 2274              	.L412:
 2275 1d84 C0024039 		ldrb	w0, [x22]
 2276 1d88 D6060091 		add	x22, x22, 1
 2277 1d8c 20FBFF34 		cbz	w0, .L418
 2278 1d90 95F5FFB5 		cbnz	x21, .L410
 2279 1d94 D7FFFF17 		b	.L418
 2280              		.p2align 3
 2281              	.L455:
 2282 1d98 7FAA0071 		cmp	w19, 42
 2283 1d9c C1F7FF54 		bne	.L411
 2284 1da0 F80314AA 		mov	x24, x20
 2285 1da4 F70316AA 		mov	x23, x22
 2286 1da8 F50314AA 		mov	x21, x20
 2287 1dac B5F4FFB5 		cbnz	x21, .L410
 2288 1db0 D0FFFF17 		b	.L418
 2289 1db4 1F2003D5 		.p2align 3
 2290              	.L456:
 2291 1db8 5F000071 		cmp	w2, 0
 2292 1dbc F50314AA 		mov	x21, x20
 2293 1dc0 E0079F1A 		cset	w0, ne
 2294 1dc4 D602008B 		add	x22, x22, x0
 2295 1dc8 D5F3FFB5 		cbnz	x21, .L410
 2296 1dcc C9FFFF17 		b	.L418
 2297              	.L432:
 2298 1dd0 20008052 		mov	w0, 1
 2299 1dd4 C8FFFF17 		b	.L420
 2300              		.size	WildcardMatch, .-WildcardMatch
 2301              		.align	2
 2302 1dd8 1F2003D5 		.p2align 4,,15
 2302      1F2003D5 
 2303              		.type	LocateFATEntry, %function
 2304              	LocateFATEntry:
 2305 1de0 F353B7A9 		stp	x19, x20, [sp, -144]!
 2306 1de4 531C0012 		and	w19, w2, 255
 2307 1de8 F76302A9 		stp	x23, x24, [sp, 32]
 2308 1dec F70300AA 		mov	x23, x0
 2309 1df0 F96B03A9 		stp	x25, x26, [sp, 48]
 2310 1df4 FA0303AA 		mov	x26, x3
 2311 1df8 FB7304A9 		stp	x27, x28, [sp, 64]
 2312 1dfc FB0301AA 		mov	x27, x1
 2313 1e00 F55B01A9 		stp	x21, x22, [sp, 16]
 2314 1e04 19008052 		mov	w25, 0
 2315 1e08 FE2B00F9 		str	x30, [sp, 80]
 2316 1e0c E43700F9 		str	x4, [sp, 104]
 2317              	.L460:
 2318 1e10 600340B9 		ldr	w0, [x27]
 2319 1e14 81FE9F52 		mov	w1, 65524
 2320 1e18 E1FFA172 		movk	w1, 0xfff, lsl 16
 2321 1e1c 00040051 		sub	w0, w0, #1
 2322 1e20 1F00016B 		cmp	w0, w1
 2323 1e24 48310054 		bhi	.L495
 2324 1e28 18000090 		adrp	x24, .LANCHOR0
 2325 1e2c 00030091 		add	x0, x24, :lo12:.LANCHOR0
 2326 1e30 7C0B40B9 		ldr	w28, [x27, 8]
 2327 1e34 14000090 		adrp	x20, .LANCHOR1
AARCH64 GAS  C:\Users\ldebo\AppData\Local\Temp\cchOloIf.s 			page 42


 2328 1e38 94020091 		add	x20, x20, :lo12:.LANCHOR1
 2329 1e3c 025C40B9 		ldr	w2, [x0, 92]
 2330 1e40 81420591 		add	x1, x20, 336
 2331 1e44 E13B00F9 		str	x1, [sp, 112]
 2332              	.L496:
 2333 1e48 9F03026B 		cmp	w28, w2
 2334 1e4c E22C0054 		bcs	.L492
 2335 1e50 600F40B9 		ldr	w0, [x27, 12]
 2336 1e54 1FFC0771 		cmp	w0, 511
 2337 1e58 28110054 		bhi	.L493
 2338 1e5c E103002A 		uxtw	x1, w0
 2339 1e60 21400091 		add	x1, x1, 16
 2340 1e64 7C03018B 		add	x28, x27, x1
 2341 1e68 616B6138 		ldrb	w1, [x27, x1]
 2342 1e6c A10B0034 		cbz	w1, .L494
 2343 1e70 F51F8052 		mov	w21, 255
 2344 1e74 34008052 		mov	w20, 1
 2345 1e78 D6058052 		mov	w22, 46
 2346 1e7c 1F2003D5 		.p2align 3
 2347              	.L461:
 2348 1e80 3F940371 		cmp	w1, 229
 2349 1e84 C0090054 		beq	.L463
 2350 1e88 822F4039 		ldrb	w2, [x28, 11]
 2351 1e8c 5F200071 		cmp	w2, 8
 2352 1e90 60090054 		beq	.L463
 2353 1e94 5F3C0071 		cmp	w2, 15
 2354 1e98 C0150054 		beq	.L566
 2355 1e9c F90B0035 		cbnz	w25, .L468
 2356 1ea0 3F800071 		cmp	w1, 32
 2357 1ea4 80270054 		beq	.L497
 2358 1ea8 41030039 		strb	w1, [x26]
 2359 1eac 80074039 		ldrb	w0, [x28, 1]
 2360 1eb0 01781A12 		and	w1, w0, -33
 2361 1eb4 61200034 		cbz	w1, .L567
 2362 1eb8 40070039 		strb	w0, [x26, 1]
 2363 1ebc 800B4039 		ldrb	w0, [x28, 2]
 2364 1ec0 01781A12 		and	w1, w0, -33
 2365 1ec4 E1200034 		cbz	w1, .L568
 2366 1ec8 400B0039 		strb	w0, [x26, 2]
 2367 1ecc 800F4039 		ldrb	w0, [x28, 3]
 2368 1ed0 01781A12 		and	w1, w0, -33
 2369 1ed4 61210034 		cbz	w1, .L569
 2370 1ed8 400F0039 		strb	w0, [x26, 3]
 2371 1edc 80134039 		ldrb	w0, [x28, 4]
 2372 1ee0 01781A12 		and	w1, w0, -33
 2373 1ee4 E1210034 		cbz	w1, .L570
 2374 1ee8 40130039 		strb	w0, [x26, 4]
 2375 1eec 80174039 		ldrb	w0, [x28, 5]
 2376 1ef0 01781A12 		and	w1, w0, -33
 2377 1ef4 61220034 		cbz	w1, .L571
 2378 1ef8 40170039 		strb	w0, [x26, 5]
 2379 1efc 801B4039 		ldrb	w0, [x28, 6]
 2380 1f00 01781A12 		and	w1, w0, -33
 2381 1f04 C1220034 		cbz	w1, .L572
 2382 1f08 401B0039 		strb	w0, [x26, 6]
 2383 1f0c 801F4039 		ldrb	w0, [x28, 7]
 2384 1f10 01781A12 		and	w1, w0, -33
AARCH64 GAS  C:\Users\ldebo\AppData\Local\Temp\cchOloIf.s 			page 43


 2385 1f14 21230034 		cbz	w1, .L573
 2386 1f18 401F0039 		strb	w0, [x26, 7]
 2387 1f1c 40230091 		add	x0, x26, 8
 2388 1f20 880180D2 		mov	x8, 12
 2389 1f24 660180D2 		mov	x6, 11
 2390 1f28 420180D2 		mov	x2, 10
 2391 1f2c 210180D2 		mov	x1, 9
 2392 1f30 19018052 		mov	w25, 8
 2393              	.L469:
 2394 1f34 F3060035 		cbnz	w19, .L503
 2395 1f38 16000039 		strb	w22, [x0]
 2396 1f3c 4003018B 		add	x0, x26, x1
 2397 1f40 812F4039 		ldrb	w1, [x28, 11]
 2398 1f44 3F400071 		cmp	w1, 16
 2399 1f48 40020054 		beq	.L481
 2400 1f4c 81234039 		ldrb	w1, [x28, 8]
 2401 1f50 24781A12 		and	w4, w1, -33
 2402 1f54 E4050034 		cbz	w4, .L503
 2403 1f58 01000039 		strb	w1, [x0]
 2404 1f5c 4003028B 		add	x0, x26, x2
 2405 1f60 81274039 		ldrb	w1, [x28, 9]
 2406 1f64 24781A12 		and	w4, w1, -33
 2407 1f68 44050034 		cbz	w4, .L503
 2408 1f6c 416B2238 		strb	w1, [x26, x2]
 2409 1f70 4003068B 		add	x0, x26, x6
 2410 1f74 812B4039 		ldrb	w1, [x28, 10]
 2411 1f78 22781A12 		and	w2, w1, -33
 2412 1f7c A2040034 		cbz	w2, .L503
 2413 1f80 4003088B 		add	x0, x26, x8
 2414 1f84 416B2638 		strb	w1, [x26, x6]
 2415 1f88 19008052 		mov	w25, 0
 2416 1f8c 1F2003D5 		.p2align 3
 2417              	.L481:
 2418 1f90 1F000039 		strb	wzr, [x0]
 2419 1f94 802F4039 		ldrb	w0, [x28, 11]
 2420 1f98 1F200071 		cmp	w0, 8
 2421 1f9c C0000054 		beq	.L565
 2422 1fa0 E1031AAA 		mov	x1, x26
 2423 1fa4 E00317AA 		mov	x0, x23
 2424 1fa8 00000094 		bl	WildcardMatch
 2425 1fac 1F1C0072 		tst	w0, 255
 2426 1fb0 E11F0054 		bne	.L483
 2427              	.L565:
 2428 1fb4 600F40B9 		ldr	w0, [x27, 12]
 2429 1fb8 19008052 		mov	w25, 0
 2430              	.L463:
 2431 1fbc 00800011 		add	w0, w0, 32
 2432 1fc0 600F00B9 		str	w0, [x27, 12]
 2433 1fc4 1FFC0771 		cmp	w0, 511
 2434 1fc8 48050054 		bhi	.L574
 2435 1fcc E103002A 		uxtw	x1, w0
 2436 1fd0 21400091 		add	x1, x1, 16
 2437 1fd4 7C03018B 		add	x28, x27, x1
 2438 1fd8 616B6138 		ldrb	w1, [x27, x1]
 2439 1fdc 21F5FF35 		cbnz	w1, .L461
 2440              	.L494:
 2441 1fe0 E13740F9 		ldr	x1, [sp, 104]
AARCH64 GAS  C:\Users\ldebo\AppData\Local\Temp\cchOloIf.s 			page 44


 2442 1fe4 20008052 		mov	w0, 1
 2443 1fe8 1C0080D2 		mov	x28, 0
 2444 1fec 200000B9 		str	w0, [x1]
 2445              	.L459:
 2446 1ff0 E0031CAA 		mov	x0, x28
 2447 1ff4 FE2B40F9 		ldr	x30, [sp, 80]
 2448 1ff8 F55B41A9 		ldp	x21, x22, [sp, 16]
 2449 1ffc F76342A9 		ldp	x23, x24, [sp, 32]
 2450 2000 F96B43A9 		ldp	x25, x26, [sp, 48]
 2451 2004 FB7344A9 		ldp	x27, x28, [sp, 64]
 2452 2008 F353C9A8 		ldp	x19, x20, [sp], 144
 2453 200c C0035FD6 		ret
 2454              		.p2align 3
 2455              	.L503:
 2456 2010 19008052 		mov	w25, 0
 2457 2014 DFFFFF17 		b	.L481
 2458              		.p2align 3
 2459              	.L468:
 2460 2018 26070051 		sub	w6, w25, #1
 2461 201c A802194B 		sub	w8, w21, w25
 2462 2020 C6040091 		add	x6, x6, 1
 2463 2024 000080D2 		mov	x0, 0
 2464 2028 01008052 		mov	w1, 0
 2465 202c 1F2003D5 		.p2align 3
 2466              	.L478:
 2467 2030 0201000B 		add	w2, w8, w0
 2468 2034 424B6238 		ldrb	w2, [x26, w2, uxtw]
 2469 2038 426B2038 		strb	w2, [x26, x0]
 2470 203c 00040091 		add	x0, x0, 1
 2471 2040 5FB80071 		cmp	w2, 46
 2472 2044 2110941A 		csel	w1, w1, w20, ne
 2473 2048 DF0000EB 		cmp	x6, x0
 2474 204c 21FFFF54 		bne	.L478
 2475 2050 2100132A 		orr	w1, w1, w19
 2476 2054 4043398B 		add	x0, x26, x25, uxtw
 2477 2058 211C0012 		and	w1, w1, 255
 2478 205c A1FDFF35 		cbnz	w1, .L503
 2479 2060 20070011 		add	w0, w25, 1
 2480 2064 564B3938 		strb	w22, [x26, w25, uxtw]
 2481 2068 4003008B 		add	x0, x26, x0
 2482 206c C9FFFF17 		b	.L481
 2483              		.p2align 3
 2484              	.L574:
 2485 2070 00030091 		add	x0, x24, :lo12:.LANCHOR0
 2486 2074 7C0B40B9 		ldr	w28, [x27, 8]
 2487 2078 025C40B9 		ldr	w2, [x0, 92]
 2488              	.L493:
 2489 207c 9C070011 		add	w28, w28, 1
 2490 2080 7C0B00B9 		str	w28, [x27, 8]
 2491 2084 9F03026B 		cmp	w28, w2
 2492 2088 02EEFF54 		bcs	.L496
 2493 208c 02030091 		add	x2, x24, :lo12:.LANCHOR0
 2494 2090 75430091 		add	x21, x27, 16
 2495 2094 54200091 		add	x20, x2, 8
 2496 2098 404040B9 		ldr	w0, [x2, 64]
 2497 209c 7F0F00B9 		str	wzr, [x27, 12]
 2498 20a0 001C0034 		cbz	w0, .L490
AARCH64 GAS  C:\Users\ldebo\AppData\Local\Temp\cchOloIf.s 			page 45


 2499 20a4 600740B9 		ldr	w0, [x27, 4]
 2500 20a8 E07F00B9 		str	w0, [sp, 124]
 2501 20ac D5F7FF97 		bl	sdWaitForData
 2502 20b0 801B0035 		cbnz	w0, .L490
 2503 20b4 00000090 		adrp	x0, RPi_IO_Base_Addr
 2504 20b8 16000091 		add	x22, x0, :lo12:RPi_IO_Base_Addr
 2505 20bc 863A40B9 		ldr	w6, [x20, 56]
 2506 20c0 07408052 		mov	w7, 512
 2507 20c4 020040B9 		ldr	w2, [x0, #:lo12:RPi_IO_Base_Addr]
 2508 20c8 DF0C0071 		cmp	w6, 3
 2509 20cc E07F40B9 		ldr	w0, [sp, 124]
 2510 20d0 42004C11 		add	w2, w2, 3145728
 2511 20d4 42100011 		add	w2, w2, 4
 2512 20d8 8103000B 		add	w1, w28, w0
 2513 20dc 20581753 		lsl	w0, w1, 9
 2514 20e0 0100811A 		csel	w1, w0, w1, eq
 2515 20e4 E03B40F9 		ldr	x0, [sp, 112]
 2516 20e8 460040B9 		ldr	w6, [x2]
 2517 20ec C63C0012 		and	w6, w6, 65535
 2518 20f0 C6001032 		orr	w6, w6, 65536
 2519 20f4 460000B9 		str	w6, [x2]
 2520 20f8 460040B9 		ldr	w6, [x2]
 2521 20fc E6240033 		bfi	w6, w7, 0, 10
 2522 2100 460000B9 		str	w6, [x2]
 2523 2104 B7F9FF97 		bl	sdSendCommandP
 2524 2108 C0180035 		cbnz	w0, .L490
 2525 210c 00048052 		mov	w0, 32
 2526 2110 08F8FF97 		bl	sdWaitForInterrupt
 2527 2114 00190035 		cbnz	w0, .L575
 2528 2118 62430891 		add	x2, x27, 528
 2529 211c 01048052 		mov	w1, 32
 2530 2120 0106A072 		movk	w1, 0x30, lsl 16
 2531 2124 1F2003D5 		.p2align 3
 2532              	.L491:
 2533 2128 C00240B9 		ldr	w0, [x22]
 2534 212c 0000010B 		add	w0, w0, w1
 2535 2130 000040B9 		ldr	w0, [x0]
 2536 2134 A04600B8 		str	w0, [x21], 4
 2537 2138 5F0015EB 		cmp	x2, x21
 2538 213c 61FFFF54 		bne	.L491
 2539 2140 00030091 		add	x0, x24, :lo12:.LANCHOR0
 2540 2144 7C0B40B9 		ldr	w28, [x27, 8]
 2541 2148 025C40B9 		ldr	w2, [x0, 92]
 2542 214c 3FFFFF17 		b	.L496
 2543              		.p2align 3
 2544              	.L566:
 2545 2150 FF1B0179 		strh	wzr, [sp, 140]
 2546 2154 E1030291 		add	x1, sp, 128
 2547 2158 E0031CAA 		mov	x0, x28
 2548 215c FF4300F9 		str	xzr, [sp, 128]
 2549 2160 FF8B00B9 		str	wzr, [sp, 136]
 2550 2164 F7F8FF97 		bl	ReadLFNEntry
 2551 2168 001C0012 		and	w0, w0, 255
 2552 216c 3903000B 		add	w25, w25, w0
 2553 2170 400A0034 		cbz	w0, .L466
 2554 2174 A102194B 		sub	w1, w21, w25
 2555 2178 E2034239 		ldrb	w2, [sp, 128]
AARCH64 GAS  C:\Users\ldebo\AppData\Local\Temp\cchOloIf.s 			page 46


 2556 217c 1F040071 		cmp	w0, 1
 2557 2180 424B2138 		strb	w2, [x26, w1, uxtw]
 2558 2184 A9090054 		bls	.L466
 2559 2188 01208052 		mov	w1, 256
 2560 218c 2100194B 		sub	w1, w1, w25
 2561 2190 E2074239 		ldrb	w2, [sp, 129]
 2562 2194 1F080071 		cmp	w0, 2
 2563 2198 424B2138 		strb	w2, [x26, w1, uxtw]
 2564 219c E0080054 		beq	.L466
 2565 21a0 21208052 		mov	w1, 257
 2566 21a4 2100194B 		sub	w1, w1, w25
 2567 21a8 E20B4239 		ldrb	w2, [sp, 130]
 2568 21ac 1F0C0071 		cmp	w0, 3
 2569 21b0 424B2138 		strb	w2, [x26, w1, uxtw]
 2570 21b4 20080054 		beq	.L466
 2571 21b8 41208052 		mov	w1, 258
 2572 21bc 2100194B 		sub	w1, w1, w25
 2573 21c0 E20F4239 		ldrb	w2, [sp, 131]
 2574 21c4 1F100071 		cmp	w0, 4
 2575 21c8 424B2138 		strb	w2, [x26, w1, uxtw]
 2576 21cc 60070054 		beq	.L466
 2577 21d0 61208052 		mov	w1, 259
 2578 21d4 2100194B 		sub	w1, w1, w25
 2579 21d8 E2134239 		ldrb	w2, [sp, 132]
 2580 21dc 1F140071 		cmp	w0, 5
 2581 21e0 424B2138 		strb	w2, [x26, w1, uxtw]
 2582 21e4 A0060054 		beq	.L466
 2583 21e8 81208052 		mov	w1, 260
 2584 21ec 2100194B 		sub	w1, w1, w25
 2585 21f0 E2174239 		ldrb	w2, [sp, 133]
 2586 21f4 1F180071 		cmp	w0, 6
 2587 21f8 424B2138 		strb	w2, [x26, w1, uxtw]
 2588 21fc E0050054 		beq	.L466
 2589 2200 A1208052 		mov	w1, 261
 2590 2204 2100194B 		sub	w1, w1, w25
 2591 2208 E21B4239 		ldrb	w2, [sp, 134]
 2592 220c 1F1C0071 		cmp	w0, 7
 2593 2210 424B2138 		strb	w2, [x26, w1, uxtw]
 2594 2214 20050054 		beq	.L466
 2595 2218 C1208052 		mov	w1, 262
 2596 221c 2100194B 		sub	w1, w1, w25
 2597 2220 E21F4239 		ldrb	w2, [sp, 135]
 2598 2224 1F200071 		cmp	w0, 8
 2599 2228 424B2138 		strb	w2, [x26, w1, uxtw]
 2600 222c 60040054 		beq	.L466
 2601 2230 E1208052 		mov	w1, 263
 2602 2234 2100194B 		sub	w1, w1, w25
 2603 2238 E2234239 		ldrb	w2, [sp, 136]
 2604 223c 1F240071 		cmp	w0, 9
 2605 2240 424B2138 		strb	w2, [x26, w1, uxtw]
 2606 2244 A0030054 		beq	.L466
 2607 2248 01218052 		mov	w1, 264
 2608 224c 2100194B 		sub	w1, w1, w25
 2609 2250 E2274239 		ldrb	w2, [sp, 137]
 2610 2254 1F280071 		cmp	w0, 10
 2611 2258 424B2138 		strb	w2, [x26, w1, uxtw]
 2612 225c E0020054 		beq	.L466
AARCH64 GAS  C:\Users\ldebo\AppData\Local\Temp\cchOloIf.s 			page 47


 2613 2260 21218052 		mov	w1, 265
 2614 2264 2100194B 		sub	w1, w1, w25
 2615 2268 E22B4239 		ldrb	w2, [sp, 138]
 2616 226c 1F2C0071 		cmp	w0, 11
 2617 2270 424B2138 		strb	w2, [x26, w1, uxtw]
 2618 2274 20020054 		beq	.L466
 2619 2278 41218052 		mov	w1, 266
 2620 227c 2100194B 		sub	w1, w1, w25
 2621 2280 E22F4239 		ldrb	w2, [sp, 139]
 2622 2284 1F300071 		cmp	w0, 12
 2623 2288 424B2138 		strb	w2, [x26, w1, uxtw]
 2624 228c 60010054 		beq	.L466
 2625 2290 61218052 		mov	w1, 267
 2626 2294 2100194B 		sub	w1, w1, w25
 2627 2298 E2334239 		ldrb	w2, [sp, 140]
 2628 229c 1F340071 		cmp	w0, 13
 2629 22a0 424B2138 		strb	w2, [x26, w1, uxtw]
 2630 22a4 A0000054 		beq	.L466
 2631 22a8 80218052 		mov	w0, 268
 2632 22ac 0000194B 		sub	w0, w0, w25
 2633 22b0 E1374239 		ldrb	w1, [sp, 141]
 2634 22b4 414B2038 		strb	w1, [x26, w0, uxtw]
 2635              		.p2align 3
 2636              	.L466:
 2637 22b8 600F40B9 		ldr	w0, [x27, 12]
 2638 22bc 40FFFF17 		b	.L463
 2639              		.p2align 3
 2640              	.L567:
 2641 22c0 40070091 		add	x0, x26, 1
 2642 22c4 A80080D2 		mov	x8, 5
 2643 22c8 860080D2 		mov	x6, 4
 2644 22cc 620080D2 		mov	x2, 3
 2645 22d0 410080D2 		mov	x1, 2
 2646 22d4 39008052 		mov	w25, 1
 2647 22d8 17FFFF17 		b	.L469
 2648 22dc 1F2003D5 		.p2align 3
 2649              	.L568:
 2650 22e0 400B0091 		add	x0, x26, 2
 2651 22e4 C80080D2 		mov	x8, 6
 2652 22e8 A60080D2 		mov	x6, 5
 2653 22ec 820080D2 		mov	x2, 4
 2654 22f0 610080D2 		mov	x1, 3
 2655 22f4 59008052 		mov	w25, 2
 2656 22f8 0FFFFF17 		b	.L469
 2657 22fc 1F2003D5 		.p2align 3
 2658              	.L569:
 2659 2300 400F0091 		add	x0, x26, 3
 2660 2304 E80080D2 		mov	x8, 7
 2661 2308 C60080D2 		mov	x6, 6
 2662 230c A20080D2 		mov	x2, 5
 2663 2310 810080D2 		mov	x1, 4
 2664 2314 79008052 		mov	w25, 3
 2665 2318 07FFFF17 		b	.L469
 2666 231c 1F2003D5 		.p2align 3
 2667              	.L570:
 2668 2320 40130091 		add	x0, x26, 4
 2669 2324 080180D2 		mov	x8, 8
AARCH64 GAS  C:\Users\ldebo\AppData\Local\Temp\cchOloIf.s 			page 48


 2670 2328 E60080D2 		mov	x6, 7
 2671 232c C20080D2 		mov	x2, 6
 2672 2330 A10080D2 		mov	x1, 5
 2673 2334 99008052 		mov	w25, 4
 2674 2338 FFFEFF17 		b	.L469
 2675 233c 1F2003D5 		.p2align 3
 2676              	.L571:
 2677 2340 40170091 		add	x0, x26, 5
 2678 2344 280180D2 		mov	x8, 9
 2679 2348 060180D2 		mov	x6, 8
 2680 234c E20080D2 		mov	x2, 7
 2681 2350 C10080D2 		mov	x1, 6
 2682 2354 B9008052 		mov	w25, 5
 2683 2358 F7FEFF17 		b	.L469
 2684              	.L572:
 2685 235c 401B0091 		add	x0, x26, 6
 2686 2360 480180D2 		mov	x8, 10
 2687 2364 260180D2 		mov	x6, 9
 2688 2368 020180D2 		mov	x2, 8
 2689 236c E10080D2 		mov	x1, 7
 2690 2370 D9008052 		mov	w25, 6
 2691 2374 F0FEFF17 		b	.L469
 2692              	.L573:
 2693 2378 401F0091 		add	x0, x26, 7
 2694 237c 680180D2 		mov	x8, 11
 2695 2380 460180D2 		mov	x6, 10
 2696 2384 220180D2 		mov	x2, 9
 2697 2388 010180D2 		mov	x1, 8
 2698 238c F9008052 		mov	w25, 7
 2699 2390 E9FEFF17 		b	.L469
 2700              	.L497:
 2701 2394 E0031AAA 		mov	x0, x26
 2702 2398 880080D2 		mov	x8, 4
 2703 239c 660080D2 		mov	x6, 3
 2704 23a0 420080D2 		mov	x2, 2
 2705 23a4 210080D2 		mov	x1, 1
 2706 23a8 E3FEFF17 		b	.L469
 2707              	.L483:
 2708 23ac 59000034 		cbz	w25, .L484
 2709 23b0 5F4B3938 		strb	wzr, [x26, w25, uxtw]
 2710              	.L484:
 2711 23b4 600F40B9 		ldr	w0, [x27, 12]
 2712 23b8 00800011 		add	w0, w0, 32
 2713 23bc 600F00B9 		str	w0, [x27, 12]
 2714 23c0 E03740F9 		ldr	x0, [sp, 104]
 2715 23c4 1F0000B9 		str	wzr, [x0]
 2716 23c8 E0031CAA 		mov	x0, x28
 2717 23cc F55B41A9 		ldp	x21, x22, [sp, 16]
 2718 23d0 F76342A9 		ldp	x23, x24, [sp, 32]
 2719 23d4 F96B43A9 		ldp	x25, x26, [sp, 48]
 2720 23d8 FB7344A9 		ldp	x27, x28, [sp, 64]
 2721 23dc FE2B40F9 		ldr	x30, [sp, 80]
 2722 23e0 F353C9A8 		ldp	x19, x20, [sp], 144
 2723 23e4 C0035FD6 		ret
 2724              	.L492:
 2725 23e8 600340B9 		ldr	w0, [x27]
 2726 23ec 2DFBFF97 		bl	getSetNextCluster.constprop.9
AARCH64 GAS  C:\Users\ldebo\AppData\Local\Temp\cchOloIf.s 			page 49


 2727 23f0 06080051 		sub	w6, w0, #2
 2728 23f4 07030091 		add	x7, x24, :lo12:.LANCHOR0
 2729 23f8 02008052 		mov	w2, 0
 2730 23fc 61430091 		add	x1, x27, 16
 2731 2400 E85C40B9 		ldr	w8, [x7, 92]
 2732 2404 600300B9 		str	w0, [x27]
 2733 2408 E06440B9 		ldr	w0, [x7, 100]
 2734 240c 7F0F00B9 		str	wzr, [x27, 12]
 2735 2410 C000081B 		madd	w0, w6, w8, w0
 2736 2414 60FF0029 		stp	w0, wzr, [x27, 4]
 2737 2418 76FBFF97 		bl	sdTransferBlocks.constprop.10
 2738 241c A0CFFF34 		cbz	w0, .L460
 2739              		.p2align 3
 2740              	.L490:
 2741 2420 E13740F9 		ldr	x1, [sp, 104]
 2742 2424 60008052 		mov	w0, 3
 2743 2428 1C0080D2 		mov	x28, 0
 2744 242c 200000B9 		str	w0, [x1]
 2745 2430 F0FEFF17 		b	.L459
 2746              	.L575:
 2747 2434 010340F9 		ldr	x1, [x24, #:lo12:.LANCHOR0]
 2748 2438 41FFFFB4 		cbz	x1, .L490
 2749 243c 00000090 		adrp	x0, .LC8
 2750 2440 00000091 		add	x0, x0, :lo12:.LC8
 2751 2444 20003FD6 		blr	x1
 2752 2448 F6FFFF17 		b	.L490
 2753              	.L495:
 2754 244c E13740F9 		ldr	x1, [sp, 104]
 2755 2450 40008052 		mov	w0, 2
 2756 2454 1C0080D2 		mov	x28, 0
 2757 2458 200000B9 		str	w0, [x1]
 2758 245c E5FEFF17 		b	.L459
 2759              		.size	LocateFATEntry, .-LocateFATEntry
 2760              		.align	2
 2761              		.p2align 4,,15
 2762              		.type	LocateFATEntry.constprop.8, %function
 2763              	LocateFATEntry.constprop.8:
 2764 2460 F353B8A9 		stp	x19, x20, [sp, -128]!
 2765 2464 F55B01A9 		stp	x21, x22, [sp, 16]
 2766 2468 F50300AA 		mov	x21, x0
 2767 246c F96B03A9 		stp	x25, x26, [sp, 48]
 2768 2470 F90301AA 		mov	x25, x1
 2769 2474 FA0302AA 		mov	x26, x2
 2770 2478 F76302A9 		stp	x23, x24, [sp, 32]
 2771 247c FB7304A9 		stp	x27, x28, [sp, 64]
 2772 2480 18008052 		mov	w24, 0
 2773 2484 FE2B00F9 		str	x30, [sp, 80]
 2774 2488 E33300F9 		str	x3, [sp, 96]
 2775              	.L577:
 2776 248c 200340B9 		ldr	w0, [x25]
 2777 2490 81FE9F52 		mov	w1, 65524
 2778 2494 E1FFA172 		movk	w1, 0xfff, lsl 16
 2779 2498 00040051 		sub	w0, w0, #1
 2780 249c 1F00016B 		cmp	w0, w1
 2781 24a0 A8270054 		bhi	.L608
 2782 24a4 16000090 		adrp	x22, .LANCHOR0
 2783 24a8 C0020091 		add	x0, x22, :lo12:.LANCHOR0
AARCH64 GAS  C:\Users\ldebo\AppData\Local\Temp\cchOloIf.s 			page 50


 2784 24ac 13000090 		adrp	x19, .LANCHOR1
 2785 24b0 73020091 		add	x19, x19, :lo12:.LANCHOR1
 2786 24b4 61420591 		add	x1, x19, 336
 2787 24b8 3B0B40B9 		ldr	w27, [x25, 8]
 2788 24bc E13700F9 		str	x1, [sp, 104]
 2789 24c0 015C40B9 		ldr	w1, [x0, 92]
 2790              	.L609:
 2791 24c4 3F001B6B 		cmp	w1, w27
 2792 24c8 49230054 		bls	.L605
 2793 24cc 200F40B9 		ldr	w0, [x25, 12]
 2794 24d0 1FFC0771 		cmp	w0, 511
 2795 24d4 880D0054 		bhi	.L606
 2796 24d8 E103002A 		uxtw	x1, w0
 2797 24dc 21400091 		add	x1, x1, 16
 2798 24e0 3C03018B 		add	x28, x25, x1
 2799 24e4 216B6138 		ldrb	w1, [x25, x1]
 2800 24e8 A1070034 		cbz	w1, .L607
 2801 24ec 57230091 		add	x23, x26, 8
 2802 24f0 5B1F0091 		add	x27, x26, 7
 2803 24f4 531B0091 		add	x19, x26, 6
 2804 24f8 F41F8052 		mov	w20, 255
 2805 24fc 1F2003D5 		.p2align 3
 2806              	.L578:
 2807 2500 3F940371 		cmp	w1, 229
 2808 2504 A0050054 		beq	.L580
 2809 2508 862F4039 		ldrb	w6, [x28, 11]
 2810 250c DF200071 		cmp	w6, 8
 2811 2510 40050054 		beq	.L580
 2812 2514 DF3C0071 		cmp	w6, 15
 2813 2518 C0110054 		beq	.L666
 2814 251c B8070035 		cbnz	w24, .L585
 2815 2520 3F800071 		cmp	w1, 32
 2816 2524 A01E0054 		beq	.L610
 2817 2528 41030039 		strb	w1, [x26]
 2818 252c 80074039 		ldrb	w0, [x28, 1]
 2819 2530 01781A12 		and	w1, w0, -33
 2820 2534 611C0034 		cbz	w1, .L667
 2821 2538 40070039 		strb	w0, [x26, 1]
 2822 253c 800B4039 		ldrb	w0, [x28, 2]
 2823 2540 01781A12 		and	w1, w0, -33
 2824 2544 211C0034 		cbz	w1, .L668
 2825 2548 400B0039 		strb	w0, [x26, 2]
 2826 254c 800F4039 		ldrb	w0, [x28, 3]
 2827 2550 01781A12 		and	w1, w0, -33
 2828 2554 E11B0034 		cbz	w1, .L669
 2829 2558 400F0039 		strb	w0, [x26, 3]
 2830 255c 80134039 		ldrb	w0, [x28, 4]
 2831 2560 01781A12 		and	w1, w0, -33
 2832 2564 A11B0034 		cbz	w1, .L670
 2833 2568 40130039 		strb	w0, [x26, 4]
 2834 256c 80174039 		ldrb	w0, [x28, 5]
 2835 2570 01781A12 		and	w1, w0, -33
 2836 2574 611B0034 		cbz	w1, .L671
 2837 2578 40170039 		strb	w0, [x26, 5]
 2838 257c 801B4039 		ldrb	w0, [x28, 6]
 2839 2580 01781A12 		and	w1, w0, -33
 2840 2584 211B0034 		cbz	w1, .L672
AARCH64 GAS  C:\Users\ldebo\AppData\Local\Temp\cchOloIf.s 			page 51


 2841 2588 401B0039 		strb	w0, [x26, 6]
 2842 258c 801F4039 		ldrb	w0, [x28, 7]
 2843 2590 01781A12 		and	w1, w0, -33
 2844 2594 E11A0034 		cbz	w1, .L673
 2845 2598 401F0039 		strb	w0, [x26, 7]
 2846 259c E00317AA 		mov	x0, x23
 2847              	.L586:
 2848 25a0 1F000039 		strb	wzr, [x0]
 2849 25a4 802F4039 		ldrb	w0, [x28, 11]
 2850 25a8 1F200071 		cmp	w0, 8
 2851 25ac E1040054 		bne	.L596
 2852              	.L675:
 2853 25b0 200F40B9 		ldr	w0, [x25, 12]
 2854 25b4 18008052 		mov	w24, 0
 2855              	.L580:
 2856 25b8 00800011 		add	w0, w0, 32
 2857 25bc 200F00B9 		str	w0, [x25, 12]
 2858 25c0 1FFC0771 		cmp	w0, 511
 2859 25c4 A8050054 		bhi	.L674
 2860              	.L598:
 2861 25c8 E103002A 		uxtw	x1, w0
 2862 25cc 21400091 		add	x1, x1, 16
 2863 25d0 3C03018B 		add	x28, x25, x1
 2864 25d4 216B6138 		ldrb	w1, [x25, x1]
 2865 25d8 41F9FF35 		cbnz	w1, .L578
 2866              	.L607:
 2867 25dc E13340F9 		ldr	x1, [sp, 96]
 2868 25e0 20008052 		mov	w0, 1
 2869 25e4 1C0080D2 		mov	x28, 0
 2870 25e8 200000B9 		str	w0, [x1]
 2871              	.L576:
 2872 25ec E0031CAA 		mov	x0, x28
 2873 25f0 FE2B40F9 		ldr	x30, [sp, 80]
 2874 25f4 F55B41A9 		ldp	x21, x22, [sp, 16]
 2875 25f8 F76342A9 		ldp	x23, x24, [sp, 32]
 2876 25fc F96B43A9 		ldp	x25, x26, [sp, 48]
 2877 2600 FB7344A9 		ldp	x27, x28, [sp, 64]
 2878 2604 F353C8A8 		ldp	x19, x20, [sp], 128
 2879 2608 C0035FD6 		ret
 2880 260c 1F2003D5 		.p2align 3
 2881              	.L585:
 2882 2610 06070051 		sub	w6, w24, #1
 2883 2614 8702184B 		sub	w7, w20, w24
 2884 2618 C6040091 		add	x6, x6, 1
 2885 261c 000080D2 		mov	x0, 0
 2886              		.p2align 3
 2887              	.L594:
 2888 2620 E100000B 		add	w1, w7, w0
 2889 2624 414B6138 		ldrb	w1, [x26, w1, uxtw]
 2890 2628 416B2038 		strb	w1, [x26, x0]
 2891 262c 00040091 		add	x0, x0, 1
 2892 2630 DF0000EB 		cmp	x6, x0
 2893 2634 61FFFF54 		bne	.L594
 2894 2638 5F4B3838 		strb	wzr, [x26, w24, uxtw]
 2895 263c 802F4039 		ldrb	w0, [x28, 11]
 2896 2640 1F200071 		cmp	w0, 8
 2897 2644 60FBFF54 		beq	.L675
AARCH64 GAS  C:\Users\ldebo\AppData\Local\Temp\cchOloIf.s 			page 52


 2898              	.L596:
 2899 2648 E1031AAA 		mov	x1, x26
 2900 264c E00315AA 		mov	x0, x21
 2901 2650 00000094 		bl	WildcardMatch
 2902 2654 1F1C0072 		tst	w0, 255
 2903 2658 200F40B9 		ldr	w0, [x25, 12]
 2904 265c 21150054 		bne	.L597
 2905 2660 00800011 		add	w0, w0, 32
 2906 2664 200F00B9 		str	w0, [x25, 12]
 2907 2668 18008052 		mov	w24, 0
 2908 266c 1FFC0771 		cmp	w0, 511
 2909 2670 C9FAFF54 		bls	.L598
 2910 2674 1F2003D5 		.p2align 3
 2911              	.L674:
 2912 2678 C0020091 		add	x0, x22, :lo12:.LANCHOR0
 2913 267c 3B0B40B9 		ldr	w27, [x25, 8]
 2914 2680 015C40B9 		ldr	w1, [x0, 92]
 2915              	.L606:
 2916 2684 7B070011 		add	w27, w27, 1
 2917 2688 3B0B00B9 		str	w27, [x25, 8]
 2918 268c 7F03016B 		cmp	w27, w1
 2919 2690 A2F1FF54 		bcs	.L609
 2920 2694 C1020091 		add	x1, x22, :lo12:.LANCHOR0
 2921 2698 34430091 		add	x20, x25, 16
 2922 269c 3C200091 		add	x28, x1, 8
 2923 26a0 204040B9 		ldr	w0, [x1, 64]
 2924 26a4 3F0F00B9 		str	wzr, [x25, 12]
 2925 26a8 00160034 		cbz	w0, .L603
 2926 26ac 330740B9 		ldr	w19, [x25, 4]
 2927 26b0 54F6FF97 		bl	sdWaitForData
 2928 26b4 A0150035 		cbnz	w0, .L603
 2929 26b8 00000090 		adrp	x0, RPi_IO_Base_Addr
 2930 26bc 17000091 		add	x23, x0, :lo12:RPi_IO_Base_Addr
 2931 26c0 813B40B9 		ldr	w1, [x28, 56]
 2932 26c4 07408052 		mov	w7, 512
 2933 26c8 020040B9 		ldr	w2, [x0, #:lo12:RPi_IO_Base_Addr]
 2934 26cc 6003130B 		add	w0, w27, w19
 2935 26d0 3F0C0071 		cmp	w1, 3
 2936 26d4 01581753 		lsl	w1, w0, 9
 2937 26d8 42004C11 		add	w2, w2, 3145728
 2938 26dc 2100801A 		csel	w1, w1, w0, eq
 2939 26e0 42100011 		add	w2, w2, 4
 2940 26e4 E03740F9 		ldr	x0, [sp, 104]
 2941 26e8 460040B9 		ldr	w6, [x2]
 2942 26ec C63C0012 		and	w6, w6, 65535
 2943 26f0 C6001032 		orr	w6, w6, 65536
 2944 26f4 460000B9 		str	w6, [x2]
 2945 26f8 460040B9 		ldr	w6, [x2]
 2946 26fc E6240033 		bfi	w6, w7, 0, 10
 2947 2700 460000B9 		str	w6, [x2]
 2948 2704 37F8FF97 		bl	sdSendCommandP
 2949 2708 00130035 		cbnz	w0, .L603
 2950 270c 00048052 		mov	w0, 32
 2951 2710 88F6FF97 		bl	sdWaitForInterrupt
 2952 2714 40130035 		cbnz	w0, .L676
 2953 2718 22430891 		add	x2, x25, 528
 2954 271c 01048052 		mov	w1, 32
AARCH64 GAS  C:\Users\ldebo\AppData\Local\Temp\cchOloIf.s 			page 53


 2955 2720 0106A072 		movk	w1, 0x30, lsl 16
 2956 2724 1F2003D5 		.p2align 3
 2957              	.L604:
 2958 2728 E00240B9 		ldr	w0, [x23]
 2959 272c 0000010B 		add	w0, w0, w1
 2960 2730 000040B9 		ldr	w0, [x0]
 2961 2734 804600B8 		str	w0, [x20], 4
 2962 2738 9F0202EB 		cmp	x20, x2
 2963 273c 61FFFF54 		bne	.L604
 2964 2740 C0020091 		add	x0, x22, :lo12:.LANCHOR0
 2965 2744 3B0B40B9 		ldr	w27, [x25, 8]
 2966 2748 015C40B9 		ldr	w1, [x0, 92]
 2967 274c 5EFFFF17 		b	.L609
 2968              		.p2align 3
 2969              	.L666:
 2970 2750 FFFB0079 		strh	wzr, [sp, 124]
 2971 2754 E1C30191 		add	x1, sp, 112
 2972 2758 E0031CAA 		mov	x0, x28
 2973 275c FF3B00F9 		str	xzr, [sp, 112]
 2974 2760 FF7B00B9 		str	wzr, [sp, 120]
 2975 2764 77F7FF97 		bl	ReadLFNEntry
 2976 2768 001C0012 		and	w0, w0, 255
 2977 276c 1803000B 		add	w24, w24, w0
 2978 2770 400A0034 		cbz	w0, .L583
 2979 2774 8102184B 		sub	w1, w20, w24
 2980 2778 E2C34139 		ldrb	w2, [sp, 112]
 2981 277c 1F040071 		cmp	w0, 1
 2982 2780 424B2138 		strb	w2, [x26, w1, uxtw]
 2983 2784 A9090054 		bls	.L583
 2984 2788 01208052 		mov	w1, 256
 2985 278c 2100184B 		sub	w1, w1, w24
 2986 2790 E2C74139 		ldrb	w2, [sp, 113]
 2987 2794 1F080071 		cmp	w0, 2
 2988 2798 424B2138 		strb	w2, [x26, w1, uxtw]
 2989 279c E0080054 		beq	.L583
 2990 27a0 21208052 		mov	w1, 257
 2991 27a4 2100184B 		sub	w1, w1, w24
 2992 27a8 E2CB4139 		ldrb	w2, [sp, 114]
 2993 27ac 1F0C0071 		cmp	w0, 3
 2994 27b0 424B2138 		strb	w2, [x26, w1, uxtw]
 2995 27b4 20080054 		beq	.L583
 2996 27b8 41208052 		mov	w1, 258
 2997 27bc 2100184B 		sub	w1, w1, w24
 2998 27c0 E2CF4139 		ldrb	w2, [sp, 115]
 2999 27c4 1F100071 		cmp	w0, 4
 3000 27c8 424B2138 		strb	w2, [x26, w1, uxtw]
 3001 27cc 60070054 		beq	.L583
 3002 27d0 61208052 		mov	w1, 259
 3003 27d4 2100184B 		sub	w1, w1, w24
 3004 27d8 E2D34139 		ldrb	w2, [sp, 116]
 3005 27dc 1F140071 		cmp	w0, 5
 3006 27e0 424B2138 		strb	w2, [x26, w1, uxtw]
 3007 27e4 A0060054 		beq	.L583
 3008 27e8 81208052 		mov	w1, 260
 3009 27ec 2100184B 		sub	w1, w1, w24
 3010 27f0 E2D74139 		ldrb	w2, [sp, 117]
 3011 27f4 1F180071 		cmp	w0, 6
AARCH64 GAS  C:\Users\ldebo\AppData\Local\Temp\cchOloIf.s 			page 54


 3012 27f8 424B2138 		strb	w2, [x26, w1, uxtw]
 3013 27fc E0050054 		beq	.L583
 3014 2800 A1208052 		mov	w1, 261
 3015 2804 2100184B 		sub	w1, w1, w24
 3016 2808 E2DB4139 		ldrb	w2, [sp, 118]
 3017 280c 1F1C0071 		cmp	w0, 7
 3018 2810 424B2138 		strb	w2, [x26, w1, uxtw]
 3019 2814 20050054 		beq	.L583
 3020 2818 C1208052 		mov	w1, 262
 3021 281c 2100184B 		sub	w1, w1, w24
 3022 2820 E2DF4139 		ldrb	w2, [sp, 119]
 3023 2824 1F200071 		cmp	w0, 8
 3024 2828 424B2138 		strb	w2, [x26, w1, uxtw]
 3025 282c 60040054 		beq	.L583
 3026 2830 E1208052 		mov	w1, 263
 3027 2834 2100184B 		sub	w1, w1, w24
 3028 2838 E2E34139 		ldrb	w2, [sp, 120]
 3029 283c 1F240071 		cmp	w0, 9
 3030 2840 424B2138 		strb	w2, [x26, w1, uxtw]
 3031 2844 A0030054 		beq	.L583
 3032 2848 01218052 		mov	w1, 264
 3033 284c 2100184B 		sub	w1, w1, w24
 3034 2850 E2E74139 		ldrb	w2, [sp, 121]
 3035 2854 1F280071 		cmp	w0, 10
 3036 2858 424B2138 		strb	w2, [x26, w1, uxtw]
 3037 285c E0020054 		beq	.L583
 3038 2860 21218052 		mov	w1, 265
 3039 2864 2100184B 		sub	w1, w1, w24
 3040 2868 E2EB4139 		ldrb	w2, [sp, 122]
 3041 286c 1F2C0071 		cmp	w0, 11
 3042 2870 424B2138 		strb	w2, [x26, w1, uxtw]
 3043 2874 20020054 		beq	.L583
 3044 2878 41218052 		mov	w1, 266
 3045 287c 2100184B 		sub	w1, w1, w24
 3046 2880 E2EF4139 		ldrb	w2, [sp, 123]
 3047 2884 1F300071 		cmp	w0, 12
 3048 2888 424B2138 		strb	w2, [x26, w1, uxtw]
 3049 288c 60010054 		beq	.L583
 3050 2890 61218052 		mov	w1, 267
 3051 2894 2100184B 		sub	w1, w1, w24
 3052 2898 E2F34139 		ldrb	w2, [sp, 124]
 3053 289c 1F340071 		cmp	w0, 13
 3054 28a0 424B2138 		strb	w2, [x26, w1, uxtw]
 3055 28a4 A0000054 		beq	.L583
 3056 28a8 80218052 		mov	w0, 268
 3057 28ac 0000184B 		sub	w0, w0, w24
 3058 28b0 E1F74139 		ldrb	w1, [sp, 125]
 3059 28b4 414B2038 		strb	w1, [x26, w0, uxtw]
 3060              		.p2align 3
 3061              	.L583:
 3062 28b8 200F40B9 		ldr	w0, [x25, 12]
 3063 28bc 3FFFFF17 		b	.L580
 3064              		.p2align 3
 3065              	.L667:
 3066 28c0 40070091 		add	x0, x26, 1
 3067 28c4 37FFFF17 		b	.L586
 3068              		.p2align 3
AARCH64 GAS  C:\Users\ldebo\AppData\Local\Temp\cchOloIf.s 			page 55


 3069              	.L668:
 3070 28c8 400B0091 		add	x0, x26, 2
 3071 28cc 35FFFF17 		b	.L586
 3072              		.p2align 3
 3073              	.L669:
 3074 28d0 400F0091 		add	x0, x26, 3
 3075 28d4 33FFFF17 		b	.L586
 3076              		.p2align 3
 3077              	.L670:
 3078 28d8 40130091 		add	x0, x26, 4
 3079 28dc 31FFFF17 		b	.L586
 3080              		.p2align 3
 3081              	.L671:
 3082 28e0 40170091 		add	x0, x26, 5
 3083 28e4 2FFFFF17 		b	.L586
 3084              	.L672:
 3085 28e8 E00313AA 		mov	x0, x19
 3086 28ec 2DFFFF17 		b	.L586
 3087              	.L673:
 3088 28f0 E0031BAA 		mov	x0, x27
 3089 28f4 2BFFFF17 		b	.L586
 3090              	.L610:
 3091 28f8 E0031AAA 		mov	x0, x26
 3092 28fc 29FFFF17 		b	.L586
 3093              	.L597:
 3094 2900 00800011 		add	w0, w0, 32
 3095 2904 200F00B9 		str	w0, [x25, 12]
 3096 2908 E03340F9 		ldr	x0, [sp, 96]
 3097 290c 1F0000B9 		str	wzr, [x0]
 3098 2910 E0031CAA 		mov	x0, x28
 3099 2914 F55B41A9 		ldp	x21, x22, [sp, 16]
 3100 2918 F76342A9 		ldp	x23, x24, [sp, 32]
 3101 291c F96B43A9 		ldp	x25, x26, [sp, 48]
 3102 2920 FB7344A9 		ldp	x27, x28, [sp, 64]
 3103 2924 FE2B40F9 		ldr	x30, [sp, 80]
 3104 2928 F353C8A8 		ldp	x19, x20, [sp], 128
 3105 292c C0035FD6 		ret
 3106              	.L605:
 3107 2930 200340B9 		ldr	w0, [x25]
 3108 2934 DBF9FF97 		bl	getSetNextCluster.constprop.9
 3109 2938 06080051 		sub	w6, w0, #2
 3110 293c C7020091 		add	x7, x22, :lo12:.LANCHOR0
 3111 2940 02008052 		mov	w2, 0
 3112 2944 21430091 		add	x1, x25, 16
 3113 2948 E85C40B9 		ldr	w8, [x7, 92]
 3114 294c 200300B9 		str	w0, [x25]
 3115 2950 E06440B9 		ldr	w0, [x7, 100]
 3116 2954 3F0F00B9 		str	wzr, [x25, 12]
 3117 2958 C000081B 		madd	w0, w6, w8, w0
 3118 295c 20FF0029 		stp	w0, wzr, [x25, 4]
 3119 2960 24FAFF97 		bl	sdTransferBlocks.constprop.10
 3120 2964 40D9FF34 		cbz	w0, .L577
 3121              		.p2align 3
 3122              	.L603:
 3123 2968 E13340F9 		ldr	x1, [sp, 96]
 3124 296c 60008052 		mov	w0, 3
 3125 2970 1C0080D2 		mov	x28, 0
AARCH64 GAS  C:\Users\ldebo\AppData\Local\Temp\cchOloIf.s 			page 56


 3126 2974 200000B9 		str	w0, [x1]
 3127 2978 1DFFFF17 		b	.L576
 3128              	.L676:
 3129 297c C10240F9 		ldr	x1, [x22, #:lo12:.LANCHOR0]
 3130 2980 41FFFFB4 		cbz	x1, .L603
 3131 2984 00000090 		adrp	x0, .LC8
 3132 2988 00000091 		add	x0, x0, :lo12:.LC8
 3133 298c 20003FD6 		blr	x1
 3134 2990 F6FFFF17 		b	.L603
 3135              	.L608:
 3136 2994 E13340F9 		ldr	x1, [sp, 96]
 3137 2998 40008052 		mov	w0, 2
 3138 299c 1C0080D2 		mov	x28, 0
 3139 29a0 200000B9 		str	w0, [x1]
 3140 29a4 12FFFF17 		b	.L576
 3141              		.size	LocateFATEntry.constprop.8, .-LocateFATEntry.constprop.8
 3142              		.align	2
 3143 29a8 1F2003D5 		.p2align 4,,15
 3143      1F2003D5 
 3144              		.global	sdFindFirstFile
 3145              		.type	sdFindFirstFile, %function
 3146              	sdFindFirstFile:
 3147 29b0 F353A7A9 		stp	x19, x20, [sp, -400]!
 3148 29b4 1F0000F1 		cmp	x0, 0
 3149 29b8 241840FA 		ccmp	x1, 0, 4, ne
 3150 29bc FE2B00F9 		str	x30, [sp, 80]
 3151 29c0 FF8F00B9 		str	wzr, [sp, 140]
 3152 29c4 60190054 		beq	.L691
 3153 29c8 F50B00F9 		str	x21, [sp, 16]
 3154 29cc F3430291 		add	x19, sp, 144
 3155 29d0 F76302A9 		stp	x23, x24, [sp, 32]
 3156 29d4 E20313AA 		mov	x2, x19
 3157 29d8 F91B00F9 		str	x25, [sp, 48]
 3158 29dc FC2700F9 		str	x28, [sp, 72]
 3159 29e0 FC0301AA 		mov	x28, x1
 3160 29e4 01004039 		ldrb	w1, [x0]
 3161 29e8 81000034 		cbz	w1, .L680
 3162              	.L681:
 3163 29ec 41140038 		strb	w1, [x2], 1
 3164 29f0 011C4038 		ldrb	w1, [x0, 1]!
 3165 29f4 C1FFFF35 		cbnz	w1, .L681
 3166              	.L680:
 3167 29f8 19000090 		adrp	x25, .LANCHOR0
 3168 29fc 20030091 		add	x0, x25, :lo12:.LANCHOR0
 3169 2a00 5F000039 		strb	wzr, [x2]
 3170 2a04 00000291 		add	x0, x0, 128
 3171 2a08 010440B9 		ldr	w1, [x0, 4]
 3172 2a0c E2434239 		ldrb	w2, [sp, 144]
 3173 2a10 5F700171 		cmp	w2, 92
 3174 2a14 7316939A 		cinc	x19, x19, eq
 3175 2a18 41170034 		cbz	w1, .L701
 3176 2a1c 011443B9 		ldr	w1, [x0, 788]
 3177 2a20 22008052 		mov	w2, 1
 3178 2a24 E26700B9 		str	w2, [sp, 100]
 3179 2a28 01010034 		cbz	w1, .L684
 3180 2a2c 002446B9 		ldr	w0, [x0, 1572]
 3181 2a30 F60F00F9 		str	x22, [sp, 24]
AARCH64 GAS  C:\Users\ldebo\AppData\Local\Temp\cchOloIf.s 			page 57


 3182 2a34 1F000071 		cmp	w0, 0
 3183 2a38 F6079F1A 		cset	w22, ne
 3184 2a3c C00A0011 		add	w0, w22, 2
 3185 2a40 F60F40F9 		ldr	x22, [sp, 24]
 3186 2a44 E06700B9 		str	w0, [sp, 100]
 3187              	.L684:
 3188 2a48 E06740B9 		ldr	w0, [sp, 100]
 3189 2a4c 17628052 		mov	w23, 784
 3190 2a50 177C379B 		smull	x23, w0, w23
 3191 2a54 F8420091 		add	x24, x23, 16
 3192              	.L683:
 3193 2a58 20030091 		add	x0, x25, :lo12:.LANCHOR0
 3194 2a5c E26780B9 		ldrsw	x2, [sp, 100]
 3195 2a60 14200091 		add	x20, x0, 8
 3196 2a64 016280D2 		mov	x1, 784
 3197 2a68 00000291 		add	x0, x0, 128
 3198 2a6c E23F00F9 		str	x2, [sp, 120]
 3199 2a70 855E40B9 		ldr	w5, [x20, 92]
 3200 2a74 1800188B 		add	x24, x0, x24
 3201 2a78 831A4A29 		ldp	w3, w6, [x20, 80]
 3202 2a7c 417C019B 		mul	x1, x2, x1
 3203 2a80 843A40B9 		ldr	w4, [x20, 56]
 3204 2a84 75080051 		sub	w21, w3, #2
 3205 2a88 0200018B 		add	x2, x0, x1
 3206 2a8c 036821B8 		str	w3, [x0, x1]
 3207 2a90 B516061B 		madd	w21, w21, w6, w5
 3208 2a94 5F0C00B9 		str	wzr, [x2, 12]
 3209 2a98 55FC0029 		stp	w21, wzr, [x2, 4]
 3210 2a9c 64100034 		cbz	w4, .L688
 3211 2aa0 58F5FF97 		bl	sdWaitForData
 3212 2aa4 20100035 		cbnz	w0, .L688
 3213 2aa8 FAEF03A9 		stp	x26, x27, [sp, 56]
 3214 2aac 1B000090 		adrp	x27, RPi_IO_Base_Addr
 3215 2ab0 620340B9 		ldr	w2, [x27, #:lo12:RPi_IO_Base_Addr]
 3216 2ab4 803A40B9 		ldr	w0, [x20, 56]
 3217 2ab8 04408052 		mov	w4, 512
 3218 2abc 42004C11 		add	w2, w2, 3145728
 3219 2ac0 A15A1753 		lsl	w1, w21, 9
 3220 2ac4 42100011 		add	w2, w2, 4
 3221 2ac8 1F0C0071 		cmp	w0, 3
 3222 2acc 00000090 		adrp	x0, .LANCHOR1
 3223 2ad0 00000091 		add	x0, x0, :lo12:.LANCHOR1
 3224 2ad4 2100951A 		csel	w1, w1, w21, eq
 3225 2ad8 00400591 		add	x0, x0, 336
 3226 2adc 430040B9 		ldr	w3, [x2]
 3227 2ae0 F60F00F9 		str	x22, [sp, 24]
 3228 2ae4 633C0012 		and	w3, w3, 65535
 3229 2ae8 63001032 		orr	w3, w3, 65536
 3230 2aec 430000B9 		str	w3, [x2]
 3231 2af0 430040B9 		ldr	w3, [x2]
 3232 2af4 83240033 		bfi	w3, w4, 0, 10
 3233 2af8 430000B9 		str	w3, [x2]
 3234 2afc 39F7FF97 		bl	sdSendCommandP
 3235 2b00 000D0035 		cbnz	w0, .L735
 3236 2b04 00048052 		mov	w0, 32
 3237 2b08 8AF5FF97 		bl	sdWaitForInterrupt
 3238 2b0c C0140035 		cbnz	w0, .L736
AARCH64 GAS  C:\Users\ldebo\AppData\Local\Temp\cchOloIf.s 			page 58


 3239 2b10 610340B9 		ldr	w1, [x27, #:lo12:RPi_IO_Base_Addr]
 3240 2b14 02030891 		add	x2, x24, 512
 3241 2b18 F60318AA 		mov	x22, x24
 3242 2b1c 21004C11 		add	w1, w1, 3145728
 3243 2b20 21800011 		add	w1, w1, 32
 3244 2b24 1F2003D5 		.p2align 3
 3245              	.L689:
 3246 2b28 200040B9 		ldr	w0, [x1]
 3247 2b2c C04600B8 		str	w0, [x22], 4
 3248 2b30 5F0016EB 		cmp	x2, x22
 3249 2b34 A1FFFF54 		bne	.L689
 3250 2b38 20030091 		add	x0, x25, :lo12:.LANCHOR0
 3251 2b3c E03B00F9 		str	x0, [sp, 112]
 3252 2b40 01000291 		add	x1, x0, 128
 3253 2b44 E03F40F9 		ldr	x0, [sp, 120]
 3254 2b48 156280D2 		mov	x21, 784
 3255 2b4c 3700178B 		add	x23, x1, x23
 3256 2b50 9AE30191 		add	x26, x28, 120
 3257 2b54 1504159B 		madd	x21, x0, x21, x1
 3258 2b58 810B8052 		mov	w1, 92
 3259 2b5c E00313AA 		mov	x0, x19
 3260 2b60 00000094 		bl	strchr
 3261 2b64 F40300AA 		mov	x20, x0
 3262 2b68 800800B4 		cbz	x0, .L690
 3263 2b6c 1F2003D5 		.p2align 3
 3264              	.L738:
 3265 2b70 1F000039 		strb	wzr, [x0]
 3266 2b74 E3330291 		add	x3, sp, 140
 3267 2b78 E2031AAA 		mov	x2, x26
 3268 2b7c E10317AA 		mov	x1, x23
 3269 2b80 E00313AA 		mov	x0, x19
 3270 2b84 37FEFF97 		bl	LocateFATEntry.constprop.8
 3271 2b88 C00A00B4 		cbz	x0, .L734
 3272 2b8c 01544039 		ldrb	w1, [x0, 21]
 3273 2b90 036C4039 		ldrb	w3, [x0, 27]
 3274 2b94 07504039 		ldrb	w7, [x0, 20]
 3275 2b98 06684039 		ldrb	w6, [x0, 26]
 3276 2b9c E03B40F9 		ldr	x0, [sp, 112]
 3277 2ba0 BF7E0129 		stp	wzr, wzr, [x21, 8]
 3278 2ba4 02200091 		add	x2, x0, 8
 3279 2ba8 E23700F9 		str	x2, [sp, 104]
 3280 2bac 055C40B9 		ldr	w5, [x0, 92]
 3281 2bb0 E020012A 		orr	w0, w7, w1, lsl 8
 3282 2bb4 C120032A 		orr	w1, w6, w3, lsl 8
 3283 2bb8 535C40B9 		ldr	w19, [x2, 92]
 3284 2bbc 2040002A 		orr	w0, w1, w0, lsl 16
 3285 2bc0 A00200B9 		str	w0, [x21]
 3286 2bc4 00080051 		sub	w0, w0, #2
 3287 2bc8 433840B9 		ldr	w3, [x2, 56]
 3288 2bcc 134C051B 		madd	w19, w0, w5, w19
 3289 2bd0 B30600B9 		str	w19, [x21, 4]
 3290 2bd4 63080034 		cbz	w3, .L734
 3291 2bd8 0AF5FF97 		bl	sdWaitForData
 3292 2bdc 20080035 		cbnz	w0, .L734
 3293 2be0 E23740F9 		ldr	x2, [sp, 104]
 3294 2be4 05408052 		mov	w5, 512
 3295 2be8 600340B9 		ldr	w0, [x27, #:lo12:RPi_IO_Base_Addr]
AARCH64 GAS  C:\Users\ldebo\AppData\Local\Temp\cchOloIf.s 			page 59


 3296 2bec 615A1753 		lsl	w1, w19, 9
 3297 2bf0 433840B9 		ldr	w3, [x2, 56]
 3298 2bf4 02004C11 		add	w2, w0, 3145728
 3299 2bf8 42100011 		add	w2, w2, 4
 3300 2bfc 00000090 		adrp	x0, .LANCHOR1
 3301 2c00 00000091 		add	x0, x0, :lo12:.LANCHOR1
 3302 2c04 7F0C0071 		cmp	w3, 3
 3303 2c08 00400591 		add	x0, x0, 336
 3304 2c0c 430040B9 		ldr	w3, [x2]
 3305 2c10 2100931A 		csel	w1, w1, w19, eq
 3306 2c14 633C0012 		and	w3, w3, 65535
 3307 2c18 63001032 		orr	w3, w3, 65536
 3308 2c1c 430000B9 		str	w3, [x2]
 3309 2c20 430040B9 		ldr	w3, [x2]
 3310 2c24 A3240033 		bfi	w3, w5, 0, 10
 3311 2c28 430000B9 		str	w3, [x2]
 3312 2c2c EDF6FF97 		bl	sdSendCommandP
 3313 2c30 80050035 		cbnz	w0, .L734
 3314 2c34 00048052 		mov	w0, 32
 3315 2c38 3EF5FF97 		bl	sdWaitForInterrupt
 3316 2c3c A0090035 		cbnz	w0, .L737
 3317 2c40 620340B9 		ldr	w2, [x27, #:lo12:RPi_IO_Base_Addr]
 3318 2c44 E00318AA 		mov	x0, x24
 3319 2c48 42004C11 		add	w2, w2, 3145728
 3320 2c4c 42800011 		add	w2, w2, 32
 3321              		.p2align 3
 3322              	.L694:
 3323 2c50 410040B9 		ldr	w1, [x2]
 3324 2c54 014400B8 		str	w1, [x0], 4
 3325 2c58 1F0016EB 		cmp	x0, x22
 3326 2c5c A1FFFF54 		bne	.L694
 3327 2c60 93060091 		add	x19, x20, 1
 3328 2c64 810B8052 		mov	w1, 92
 3329 2c68 E00313AA 		mov	x0, x19
 3330 2c6c 00000094 		bl	strchr
 3331 2c70 F40300AA 		mov	x20, x0
 3332 2c74 E0F7FFB5 		cbnz	x0, .L738
 3333              	.L690:
 3334 2c78 E10317AA 		mov	x1, x23
 3335 2c7c E4330291 		add	x4, sp, 140
 3336 2c80 E3031AAA 		mov	x3, x26
 3337 2c84 02008052 		mov	w2, 0
 3338 2c88 E00313AA 		mov	x0, x19
 3339 2c8c 55FCFF97 		bl	LocateFATEntry
 3340 2c90 E18F40B9 		ldr	w1, [sp, 140]
 3341 2c94 3F000071 		cmp	w1, 0
 3342 2c98 040840FA 		ccmp	x0, 0, 4, eq
 3343 2c9c A1030054 		bne	.L739
 3344              	.L735:
 3345 2ca0 F60F40F9 		ldr	x22, [sp, 24]
 3346 2ca4 FAEF43A9 		ldp	x26, x27, [sp, 56]
 3347              	.L688:
 3348 2ca8 39030091 		add	x25, x25, :lo12:.LANCHOR0
 3349 2cac E23F40F9 		ldr	x2, [sp, 120]
 3350 2cb0 016280D2 		mov	x1, 784
 3351 2cb4 F50B40F9 		ldr	x21, [sp, 16]
 3352 2cb8 00008052 		mov	w0, 0
AARCH64 GAS  C:\Users\ldebo\AppData\Local\Temp\cchOloIf.s 			page 60


 3353 2cbc F76342A9 		ldp	x23, x24, [sp, 32]
 3354 2cc0 1F2003D5 		nop // between mem op and mult-accumulate
 3355 2cc4 4164019B 		madd	x1, x2, x1, x25
 3356 2cc8 F91B40F9 		ldr	x25, [sp, 48]
 3357 2ccc FC2740F9 		ldr	x28, [sp, 72]
 3358 2cd0 3F8400B9 		str	wzr, [x1, 132]
 3359 2cd4 FE2B40F9 		ldr	x30, [sp, 80]
 3360 2cd8 F353D9A8 		ldp	x19, x20, [sp], 400
 3361 2cdc C0035FD6 		ret
 3362              		.p2align 3
 3363              	.L734:
 3364 2ce0 F55B41A9 		ldp	x21, x22, [sp, 16]
 3365 2ce4 F76342A9 		ldp	x23, x24, [sp, 32]
 3366 2ce8 F96B43A9 		ldp	x25, x26, [sp, 48]
 3367 2cec FB7344A9 		ldp	x27, x28, [sp, 64]
 3368              	.L691:
 3369 2cf0 00008052 		mov	w0, 0
 3370              	.L677:
 3371 2cf4 FE2B40F9 		ldr	x30, [sp, 80]
 3372 2cf8 F353D9A8 		ldp	x19, x20, [sp], 400
 3373 2cfc C0035FD6 		ret
 3374              	.L701:
 3375 2d00 170080D2 		mov	x23, 0
 3376 2d04 180280D2 		mov	x24, 16
 3377 2d08 FF6700B9 		str	wzr, [sp, 100]
 3378 2d0c 53FFFF17 		b	.L683
 3379              	.L739:
 3380 2d10 61024039 		ldrb	w1, [x19]
 3381 2d14 C1010034 		cbz	w1, .L698
 3382 2d18 E56740B9 		ldr	w5, [sp, 100]
 3383 2d1c 03628052 		mov	w3, 784
 3384 2d20 24030091 		add	x4, x25, :lo12:.LANCHOR0
 3385 2d24 220080D2 		mov	x2, 1
 3386 2d28 84000291 		add	x4, x4, 128
 3387 2d2c A37C239B 		smull	x3, w5, w3
 3388              	.L696:
 3389 2d30 6500028B 		add	x5, x3, x2
 3390 2d34 42040091 		add	x2, x2, 1
 3391 2d38 8500058B 		add	x5, x4, x5
 3392 2d3c 6602028B 		add	x6, x19, x2
 3393 2d40 A13C0839 		strb	w1, [x5, 527]
 3394 2d44 C1F05F38 		ldrb	w1, [x6, -1]
 3395 2d48 41FFFF35 		cbnz	w1, .L696
 3396              	.L698:
 3397 2d4c E1031CAA 		mov	x1, x28
 3398 2d50 54F6FF97 		bl	SetFindDataFromFATEntry.part.0
 3399 2d54 E06740B9 		ldr	w0, [sp, 100]
 3400 2d58 F55B41A9 		ldp	x21, x22, [sp, 16]
 3401 2d5c 00040011 		add	w0, w0, 1
 3402 2d60 F76342A9 		ldp	x23, x24, [sp, 32]
 3403 2d64 F96B43A9 		ldp	x25, x26, [sp, 48]
 3404 2d68 FB7344A9 		ldp	x27, x28, [sp, 64]
 3405 2d6c E2FFFF17 		b	.L677
 3406              	.L737:
 3407 2d70 210340F9 		ldr	x1, [x25, #:lo12:.LANCHOR0]
 3408 2d74 61FBFFB4 		cbz	x1, .L734
 3409 2d78 00000090 		adrp	x0, .LC8
AARCH64 GAS  C:\Users\ldebo\AppData\Local\Temp\cchOloIf.s 			page 61


 3410 2d7c 00000091 		add	x0, x0, :lo12:.LC8
 3411 2d80 20003FD6 		blr	x1
 3412 2d84 F55B41A9 		ldp	x21, x22, [sp, 16]
 3413 2d88 00008052 		mov	w0, 0
 3414 2d8c F76342A9 		ldp	x23, x24, [sp, 32]
 3415 2d90 F96B43A9 		ldp	x25, x26, [sp, 48]
 3416 2d94 FB7344A9 		ldp	x27, x28, [sp, 64]
 3417 2d98 FE2B40F9 		ldr	x30, [sp, 80]
 3418 2d9c F353D9A8 		ldp	x19, x20, [sp], 400
 3419 2da0 C0035FD6 		ret
 3420              	.L736:
 3421 2da4 210340F9 		ldr	x1, [x25, #:lo12:.LANCHOR0]
 3422 2da8 C1F7FFB4 		cbz	x1, .L735
 3423 2dac 00000090 		adrp	x0, .LC8
 3424 2db0 00000091 		add	x0, x0, :lo12:.LC8
 3425 2db4 20003FD6 		blr	x1
 3426 2db8 F60F40F9 		ldr	x22, [sp, 24]
 3427 2dbc FAEF43A9 		ldp	x26, x27, [sp, 56]
 3428 2dc0 BAFFFF17 		b	.L688
 3429              		.size	sdFindFirstFile, .-sdFindFirstFile
 3430              		.align	2
 3431 2dc4 1F2003D5 		.p2align 4,,15
 3431      1F2003D5 
 3431      1F2003D5 
 3432              		.global	sdFindNextFile
 3433              		.type	sdFindNextFile, %function
 3434              	sdFindNextFile:
 3435 2dd0 F353BCA9 		stp	x19, x20, [sp, -64]!
 3436 2dd4 02040051 		sub	w2, w0, #1
 3437 2dd8 5F0C0071 		cmp	w2, 3
 3438 2ddc F50B00F9 		str	x21, [sp, 16]
 3439 2de0 FE1300F9 		str	x30, [sp, 32]
 3440 2de4 FF3F00B9 		str	wzr, [sp, 60]
 3441 2de8 08020054 		bhi	.L743
 3442 2dec 05000090 		adrp	x5, .LANCHOR0
 3443 2df0 A5000091 		add	x5, x5, :lo12:.LANCHOR0
 3444 2df4 A5000291 		add	x5, x5, 128
 3445 2df8 F303022A 		uxtw	x19, w2
 3446 2dfc 066280D2 		mov	x6, 784
 3447 2e00 15008052 		mov	w21, 0
 3448 2e04 7316069B 		madd	x19, x19, x6, x5
 3449 2e08 630640B9 		ldr	w3, [x19, 4]
 3450 2e0c A3010035 		cbnz	w3, .L750
 3451              	.L740:
 3452 2e10 E003152A 		mov	w0, w21
 3453 2e14 F50B40F9 		ldr	x21, [sp, 16]
 3454 2e18 FE1340F9 		ldr	x30, [sp, 32]
 3455 2e1c F353C4A8 		ldp	x19, x20, [sp], 64
 3456 2e20 C0035FD6 		ret
 3457 2e24 1F2003D5 		.p2align 3
 3458              	.L743:
 3459 2e28 15008052 		mov	w21, 0
 3460 2e2c FE1340F9 		ldr	x30, [sp, 32]
 3461 2e30 E003152A 		mov	w0, w21
 3462 2e34 F50B40F9 		ldr	x21, [sp, 16]
 3463 2e38 F353C4A8 		ldp	x19, x20, [sp], 64
 3464 2e3c C0035FD6 		ret
AARCH64 GAS  C:\Users\ldebo\AppData\Local\Temp\cchOloIf.s 			page 62


 3465              		.p2align 3
 3466              	.L750:
 3467 2e40 467CA69B 		umull	x6, w2, w6
 3468 2e44 F403002A 		mov	w20, w0
 3469 2e48 F60F00F9 		str	x22, [sp, 24]
 3470 2e4c 23E00191 		add	x3, x1, 120
 3471 2e50 C0400891 		add	x0, x6, 528
 3472 2e54 E4F30091 		add	x4, sp, 60
 3473 2e58 02008052 		mov	w2, 0
 3474 2e5c A000008B 		add	x0, x5, x0
 3475 2e60 F60301AA 		mov	x22, x1
 3476 2e64 A100068B 		add	x1, x5, x6
 3477 2e68 DEFBFF97 		bl	LocateFATEntry
 3478 2e6c E13F40B9 		ldr	w1, [sp, 60]
 3479 2e70 3F000071 		cmp	w1, 0
 3480 2e74 040840FA 		ccmp	x0, 0, 4, eq
 3481 2e78 01010054 		bne	.L751
 3482 2e7c F60F40F9 		ldr	x22, [sp, 24]
 3483 2e80 E003152A 		mov	w0, w21
 3484 2e84 7F0600B9 		str	wzr, [x19, 4]
 3485 2e88 F50B40F9 		ldr	x21, [sp, 16]
 3486 2e8c FE1340F9 		ldr	x30, [sp, 32]
 3487 2e90 F353C4A8 		ldp	x19, x20, [sp], 64
 3488 2e94 C0035FD6 		ret
 3489              		.p2align 3
 3490              	.L751:
 3491 2e98 F503142A 		mov	w21, w20
 3492 2e9c 760000B5 		cbnz	x22, .L752
 3493 2ea0 F60F40F9 		ldr	x22, [sp, 24]
 3494 2ea4 DBFFFF17 		b	.L740
 3495              		.p2align 3
 3496              	.L752:
 3497 2ea8 E10316AA 		mov	x1, x22
 3498 2eac FDF5FF97 		bl	SetFindDataFromFATEntry.part.0
 3499 2eb0 F60F40F9 		ldr	x22, [sp, 24]
 3500 2eb4 D7FFFF17 		b	.L740
 3501              		.size	sdFindNextFile, .-sdFindNextFile
 3502              		.align	2
 3503 2eb8 1F2003D5 		.p2align 4,,15
 3503      1F2003D5 
 3504              		.global	sdFindClose
 3505              		.type	sdFindClose, %function
 3506              	sdFindClose:
 3507 2ec0 00040051 		sub	w0, w0, #1
 3508 2ec4 1F0C0071 		cmp	w0, 3
 3509 2ec8 C8010054 		bhi	.L755
 3510 2ecc 01000090 		adrp	x1, .LANCHOR0
 3511 2ed0 21000091 		add	x1, x1, :lo12:.LANCHOR0
 3512 2ed4 22000291 		add	x2, x1, 128
 3513 2ed8 E103002A 		uxtw	x1, w0
 3514 2edc 036280D2 		mov	x3, 784
 3515 2ee0 00008052 		mov	w0, 0
 3516 2ee4 2108039B 		madd	x1, x1, x3, x2
 3517 2ee8 220440B9 		ldr	w2, [x1, 4]
 3518 2eec 62000034 		cbz	w2, .L754
 3519 2ef0 20008052 		mov	w0, 1
 3520 2ef4 3F0400B9 		str	wzr, [x1, 4]
AARCH64 GAS  C:\Users\ldebo\AppData\Local\Temp\cchOloIf.s 			page 63


 3521              	.L754:
 3522 2ef8 C0035FD6 		ret
 3523 2efc 1F2003D5 		.p2align 3
 3524              	.L755:
 3525 2f00 00008052 		mov	w0, 0
 3526 2f04 C0035FD6 		ret
 3527              		.size	sdFindClose, .-sdFindClose
 3528              		.align	2
 3529 2f08 1F2003D5 		.p2align 4,,15
 3529      1F2003D5 
 3530              		.global	sdCreateFile
 3531              		.type	sdCreateFile, %function
 3532              	sdCreateFile:
 3533 2f10 FF030AD1 		sub	sp, sp, #640
 3534 2f14 F35300A9 		stp	x19, x20, [sp]
 3535 2f18 FE2B00F9 		str	x30, [sp, 80]
 3536 2f1c FF7F00B9 		str	wzr, [sp, 124]
 3537 2f20 401C00B4 		cbz	x0, .L766
 3538 2f24 F55B01A9 		stp	x21, x22, [sp, 16]
 3539 2f28 E5030691 		add	x5, sp, 384
 3540 2f2c F76302A9 		stp	x23, x24, [sp, 32]
 3541 2f30 E20305AA 		mov	x2, x5
 3542 2f34 FA1F00F9 		str	x26, [sp, 56]
 3543 2f38 FC2700F9 		str	x28, [sp, 72]
 3544 2f3c 01004039 		ldrb	w1, [x0]
 3545 2f40 A1000034 		cbz	w1, .L761
 3546 2f44 1F2003D5 		.p2align 3
 3547              	.L762:
 3548 2f48 41140038 		strb	w1, [x2], 1
 3549 2f4c 011C4038 		ldrb	w1, [x0, 1]!
 3550 2f50 C1FFFF35 		cbnz	w1, .L762
 3551              	.L761:
 3552 2f54 1A000090 		adrp	x26, intFileIORecord
 3553 2f58 40030091 		add	x0, x26, :lo12:intFileIORecord
 3554 2f5c 5F000039 		strb	wzr, [x2]
 3555 2f60 010440B9 		ldr	w1, [x0, 4]
 3556 2f64 E2034639 		ldrb	w2, [sp, 384]
 3557 2f68 5F700171 		cmp	w2, 92
 3558 2f6c BC14859A 		cinc	x28, x5, eq
 3559 2f70 011D0034 		cbz	w1, .L778
 3560 2f74 012043B9 		ldr	w1, [x0, 800]
 3561 2f78 811C0034 		cbz	w1, .L779
 3562 2f7c 013C46B9 		ldr	w1, [x0, 1596]
 3563 2f80 011D0034 		cbz	w1, .L780
 3564 2f84 015849B9 		ldr	w1, [x0, 2392]
 3565 2f88 011D0034 		cbz	w1, .L781
 3566 2f8c 01744CB9 		ldr	w1, [x0, 3188]
 3567 2f90 011D0034 		cbz	w1, .L782
 3568 2f94 01904FB9 		ldr	w1, [x0, 3984]
 3569 2f98 011D0034 		cbz	w1, .L783
 3570 2f9c 00AC52B9 		ldr	w0, [x0, 4780]
 3571 2fa0 1F000071 		cmp	w0, 0
 3572 2fa4 F5079F1A 		cset	w21, ne
 3573 2fa8 B51A0011 		add	w21, w21, 6
 3574              	.L765:
 3575 2fac 96638052 		mov	w22, 796
 3576 2fb0 B67E369B 		smull	x22, w21, w22
AARCH64 GAS  C:\Users\ldebo\AppData\Local\Temp\cchOloIf.s 			page 64


 3577 2fb4 D7420091 		add	x23, x22, 16
 3578              	.L764:
 3579 2fb8 18000090 		adrp	x24, .LANCHOR0
 3580 2fbc 13030091 		add	x19, x24, :lo12:.LANCHOR0
 3581 2fc0 A07E4093 		sxtw	x0, w21
 3582 2fc4 826380D2 		mov	x2, 796
 3583 2fc8 E10300AA 		mov	x1, x0
 3584 2fcc 40030091 		add	x0, x26, :lo12:intFileIORecord
 3585 2fd0 631E4B29 		ldp	w3, w7, [x19, 88]
 3586 2fd4 E13700F9 		str	x1, [sp, 104]
 3587 2fd8 227C029B 		mul	x2, x1, x2
 3588 2fdc 666640B9 		ldr	w6, [x19, 100]
 3589 2fe0 74080051 		sub	w20, w3, #2
 3590 2fe4 644240B9 		ldr	w4, [x19, 64]
 3591 2fe8 0100028B 		add	x1, x0, x2
 3592 2fec F702008B 		add	x23, x23, x0
 3593 2ff0 73220091 		add	x19, x19, 8
 3594 2ff4 941A071B 		madd	w20, w20, w7, w6
 3595 2ff8 036822B8 		str	w3, [x0, x2]
 3596 2ffc 34FC0029 		stp	w20, wzr, [x1, 4]
 3597 3000 3F0C00B9 		str	wzr, [x1, 12]
 3598 3004 C4150034 		cbz	w4, .L805
 3599 3008 FEF3FF97 		bl	sdWaitForData
 3600 300c 80150035 		cbnz	w0, .L805
 3601 3010 603A40B9 		ldr	w0, [x19, 56]
 3602 3014 04408052 		mov	w4, 512
 3603 3018 F91B00F9 		str	x25, [sp, 48]
 3604 301c 19000090 		adrp	x25, RPi_IO_Base_Addr
 3605 3020 220340B9 		ldr	w2, [x25, #:lo12:RPi_IO_Base_Addr]
 3606 3024 FB2300F9 		str	x27, [sp, 64]
 3607 3028 1F0C0071 		cmp	w0, 3
 3608 302c 42004C11 		add	w2, w2, 3145728
 3609 3030 815A1753 		lsl	w1, w20, 9
 3610 3034 42100011 		add	w2, w2, 4
 3611 3038 00000090 		adrp	x0, .LANCHOR1
 3612 303c 00000091 		add	x0, x0, :lo12:.LANCHOR1
 3613 3040 2100941A 		csel	w1, w1, w20, eq
 3614 3044 00400591 		add	x0, x0, 336
 3615 3048 430040B9 		ldr	w3, [x2]
 3616 304c 633C0012 		and	w3, w3, 65535
 3617 3050 63001032 		orr	w3, w3, 65536
 3618 3054 430000B9 		str	w3, [x2]
 3619 3058 430040B9 		ldr	w3, [x2]
 3620 305c 83240033 		bfi	w3, w4, 0, 10
 3621 3060 430000B9 		str	w3, [x2]
 3622 3064 DFF5FF97 		bl	sdSendCommandP
 3623 3068 80110035 		cbnz	w0, .L814
 3624 306c 00048052 		mov	w0, 32
 3625 3070 30F4FF97 		bl	sdWaitForInterrupt
 3626 3074 E0120035 		cbnz	w0, .L817
 3627 3078 210340B9 		ldr	w1, [x25, #:lo12:RPi_IO_Base_Addr]
 3628 307c E2020891 		add	x2, x23, 512
 3629 3080 FB0317AA 		mov	x27, x23
 3630 3084 21004C11 		add	w1, w1, 3145728
 3631 3088 21800011 		add	w1, w1, 32
 3632 308c 1F2003D5 		.p2align 3
 3633              	.L769:
AARCH64 GAS  C:\Users\ldebo\AppData\Local\Temp\cchOloIf.s 			page 65


 3634 3090 200040B9 		ldr	w0, [x1]
 3635 3094 604700B8 		str	w0, [x27], 4
 3636 3098 5F001BEB 		cmp	x2, x27
 3637 309c A1FFFF54 		bne	.L769
 3638 30a0 E13740F9 		ldr	x1, [sp, 104]
 3639 30a4 40030091 		add	x0, x26, :lo12:intFileIORecord
 3640 30a8 946380D2 		mov	x20, 796
 3641 30ac D602008B 		add	x22, x22, x0
 3642 30b0 3400149B 		madd	x20, x1, x20, x0
 3643 30b4 810B8052 		mov	w1, 92
 3644 30b8 E0031CAA 		mov	x0, x28
 3645 30bc 00000094 		bl	strchr
 3646 30c0 F30300AA 		mov	x19, x0
 3647 30c4 600800B4 		cbz	x0, .L770
 3648              		.p2align 3
 3649              	.L818:
 3650 30c8 1F000039 		strb	wzr, [x0]
 3651 30cc E3F30191 		add	x3, sp, 124
 3652 30d0 E2030291 		add	x2, sp, 128
 3653 30d4 E10316AA 		mov	x1, x22
 3654 30d8 E0031CAA 		mov	x0, x28
 3655 30dc E1FCFF97 		bl	LocateFATEntry.constprop.8
 3656 30e0 C00D00B4 		cbz	x0, .L814
 3657 30e4 05684039 		ldrb	w5, [x0, 26]
 3658 30e8 02030091 		add	x2, x24, :lo12:.LANCHOR0
 3659 30ec 036C4039 		ldrb	w3, [x0, 27]
 3660 30f0 42200091 		add	x2, x2, 8
 3661 30f4 06504039 		ldrb	w6, [x0, 20]
 3662 30f8 01544039 		ldrb	w1, [x0, 21]
 3663 30fc 9F7E0129 		stp	wzr, wzr, [x20, 8]
 3664 3100 C020012A 		orr	w0, w6, w1, lsl 8
 3665 3104 A120032A 		orr	w1, w5, w3, lsl 8
 3666 3108 465440B9 		ldr	w6, [x2, 84]
 3667 310c 2040002A 		orr	w0, w1, w0, lsl 16
 3668 3110 455C40B9 		ldr	w5, [x2, 92]
 3669 3114 01080051 		sub	w1, w0, #2
 3670 3118 433840B9 		ldr	w3, [x2, 56]
 3671 311c E23300F9 		str	x2, [sp, 96]
 3672 3120 3C14061B 		madd	w28, w1, w6, w5
 3673 3124 80720029 		stp	w0, w28, [x20]
 3674 3128 830B0034 		cbz	w3, .L814
 3675 312c B5F3FF97 		bl	sdWaitForData
 3676 3130 400B0035 		cbnz	w0, .L814
 3677 3134 E23340F9 		ldr	x2, [sp, 96]
 3678 3138 05408052 		mov	w5, 512
 3679 313c 200340B9 		ldr	w0, [x25, #:lo12:RPi_IO_Base_Addr]
 3680 3140 815B1753 		lsl	w1, w28, 9
 3681 3144 463840B9 		ldr	w6, [x2, 56]
 3682 3148 02004C11 		add	w2, w0, 3145728
 3683 314c 42100011 		add	w2, w2, 4
 3684 3150 00000090 		adrp	x0, .LANCHOR1
 3685 3154 00000091 		add	x0, x0, :lo12:.LANCHOR1
 3686 3158 DF0C0071 		cmp	w6, 3
 3687 315c 00400591 		add	x0, x0, 336
 3688 3160 430040B9 		ldr	w3, [x2]
 3689 3164 21009C1A 		csel	w1, w1, w28, eq
 3690 3168 633C0012 		and	w3, w3, 65535
AARCH64 GAS  C:\Users\ldebo\AppData\Local\Temp\cchOloIf.s 			page 66


 3691 316c 63001032 		orr	w3, w3, 65536
 3692 3170 430000B9 		str	w3, [x2]
 3693 3174 430040B9 		ldr	w3, [x2]
 3694 3178 A3240033 		bfi	w3, w5, 0, 10
 3695 317c 430000B9 		str	w3, [x2]
 3696 3180 98F5FF97 		bl	sdSendCommandP
 3697 3184 A0080035 		cbnz	w0, .L814
 3698 3188 00048052 		mov	w0, 32
 3699 318c E9F3FF97 		bl	sdWaitForInterrupt
 3700 3190 000A0035 		cbnz	w0, .L817
 3701 3194 220340B9 		ldr	w2, [x25, #:lo12:RPi_IO_Base_Addr]
 3702 3198 E00317AA 		mov	x0, x23
 3703 319c 42004C11 		add	w2, w2, 3145728
 3704 31a0 42800011 		add	w2, w2, 32
 3705 31a4 1F2003D5 		.p2align 3
 3706              	.L773:
 3707 31a8 410040B9 		ldr	w1, [x2]
 3708 31ac 014400B8 		str	w1, [x0], 4
 3709 31b0 7F0300EB 		cmp	x27, x0
 3710 31b4 A1FFFF54 		bne	.L773
 3711 31b8 7C060091 		add	x28, x19, 1
 3712 31bc 810B8052 		mov	w1, 92
 3713 31c0 E0031CAA 		mov	x0, x28
 3714 31c4 00000094 		bl	strchr
 3715 31c8 F30300AA 		mov	x19, x0
 3716 31cc E0F7FFB5 		cbnz	x0, .L818
 3717              	.L770:
 3718 31d0 E10316AA 		mov	x1, x22
 3719 31d4 E4F30191 		add	x4, sp, 124
 3720 31d8 E3030291 		add	x3, sp, 128
 3721 31dc 02008052 		mov	w2, 0
 3722 31e0 E0031CAA 		mov	x0, x28
 3723 31e4 FFFAFF97 		bl	LocateFATEntry
 3724 31e8 E17F40B9 		ldr	w1, [sp, 124]
 3725 31ec 3F000071 		cmp	w1, 0
 3726 31f0 040840FA 		ccmp	x0, 0, 4, eq
 3727 31f4 20050054 		beq	.L814
 3728 31f8 E33740F9 		ldr	x3, [sp, 104]
 3729 31fc 826380D2 		mov	x2, 796
 3730 3200 06504039 		ldrb	w6, [x0, 20]
 3731 3204 5A030091 		add	x26, x26, :lo12:intFileIORecord
 3732 3208 05684039 		ldrb	w5, [x0, 26]
 3733 320c 01544039 		ldrb	w1, [x0, 21]
 3734 3210 7B7C029B 		mul	x27, x3, x2
 3735 3214 046C4039 		ldrb	w4, [x0, 27]
 3736 3218 02030091 		add	x2, x24, :lo12:.LANCHOR0
 3737 321c 43031B8B 		add	x3, x26, x27
 3738 3220 C120012A 		orr	w1, w6, w1, lsl 8
 3739 3224 A420042A 		orr	w4, w5, w4, lsl 8
 3740 3228 8140012A 		orr	w1, w4, w1, lsl 16
 3741 322c 4A5C40B9 		ldr	w10, [x2, 92]
 3742 3230 611003B9 		str	w1, [x3, 784]
 3743 3234 24080051 		sub	w4, w1, #2
 3744 3238 7F1403B9 		str	wzr, [x3, 788]
 3745 323c 496440B9 		ldr	w9, [x2, 100]
 3746 3240 02008052 		mov	w2, 0
 3747 3244 08704039 		ldrb	w8, [x0, 28]
AARCH64 GAS  C:\Users\ldebo\AppData\Local\Temp\cchOloIf.s 			page 67


 3748 3248 07744039 		ldrb	w7, [x0, 29]
 3749 324c 06784039 		ldrb	w6, [x0, 30]
 3750 3250 057C4039 		ldrb	w5, [x0, 31]
 3751 3254 80240A1B 		madd	w0, w4, w10, w9
 3752 3258 416B3BB8 		str	w1, [x26, x27]
 3753 325c 012107AA 		orr	x1, x8, x7, lsl 8
 3754 3260 214006AA 		orr	x1, x1, x6, lsl 16
 3755 3264 60FC0029 		stp	w0, wzr, [x3, 4]
 3756 3268 216005AA 		orr	x1, x1, x5, lsl 24
 3757 326c 7F0C00B9 		str	wzr, [x3, 12]
 3758 3270 611803B9 		str	w1, [x3, 792]
 3759 3274 E10317AA 		mov	x1, x23
 3760 3278 DEF7FF97 		bl	sdTransferBlocks.constprop.10
 3761 327c E0000035 		cbnz	w0, .L814
 3762 3280 A0060011 		add	w0, w21, 1
 3763 3284 F55B41A9 		ldp	x21, x22, [sp, 16]
 3764 3288 F76342A9 		ldp	x23, x24, [sp, 32]
 3765 328c F96B43A9 		ldp	x25, x26, [sp, 48]
 3766 3290 FB7344A9 		ldp	x27, x28, [sp, 64]
 3767 3294 06000014 		b	.L758
 3768              		.p2align 3
 3769              	.L814:
 3770 3298 F55B41A9 		ldp	x21, x22, [sp, 16]
 3771 329c F76342A9 		ldp	x23, x24, [sp, 32]
 3772 32a0 F96B43A9 		ldp	x25, x26, [sp, 48]
 3773 32a4 FB7344A9 		ldp	x27, x28, [sp, 64]
 3774              	.L766:
 3775 32a8 00008052 		mov	w0, 0
 3776              	.L758:
 3777 32ac F35340A9 		ldp	x19, x20, [sp]
 3778 32b0 FE2B40F9 		ldr	x30, [sp, 80]
 3779 32b4 FF030A91 		add	sp, sp, 640
 3780 32b8 C0035FD6 		ret
 3781              	.L805:
 3782 32bc F55B41A9 		ldp	x21, x22, [sp, 16]
 3783 32c0 F76342A9 		ldp	x23, x24, [sp, 32]
 3784 32c4 FA1F40F9 		ldr	x26, [sp, 56]
 3785 32c8 FC2740F9 		ldr	x28, [sp, 72]
 3786 32cc F7FFFF17 		b	.L766
 3787              	.L817:
 3788 32d0 010340F9 		ldr	x1, [x24, #:lo12:.LANCHOR0]
 3789 32d4 21FEFFB4 		cbz	x1, .L814
 3790 32d8 00000090 		adrp	x0, .LC8
 3791 32dc 00000091 		add	x0, x0, :lo12:.LC8
 3792 32e0 20003FD6 		blr	x1
 3793 32e4 F35340A9 		ldp	x19, x20, [sp]
 3794 32e8 00008052 		mov	w0, 0
 3795 32ec F55B41A9 		ldp	x21, x22, [sp, 16]
 3796 32f0 F76342A9 		ldp	x23, x24, [sp, 32]
 3797 32f4 F96B43A9 		ldp	x25, x26, [sp, 48]
 3798 32f8 FB7344A9 		ldp	x27, x28, [sp, 64]
 3799 32fc FE2B40F9 		ldr	x30, [sp, 80]
 3800 3300 FF030A91 		add	sp, sp, 640
 3801 3304 C0035FD6 		ret
 3802              	.L779:
 3803 3308 35008052 		mov	w21, 1
 3804 330c 28FFFF17 		b	.L765
AARCH64 GAS  C:\Users\ldebo\AppData\Local\Temp\cchOloIf.s 			page 68


 3805              	.L778:
 3806 3310 170280D2 		mov	x23, 16
 3807 3314 160080D2 		mov	x22, 0
 3808 3318 15008052 		mov	w21, 0
 3809 331c 27FFFF17 		b	.L764
 3810              	.L780:
 3811 3320 55008052 		mov	w21, 2
 3812 3324 22FFFF17 		b	.L765
 3813              	.L781:
 3814 3328 75008052 		mov	w21, 3
 3815 332c 20FFFF17 		b	.L765
 3816              	.L782:
 3817 3330 95008052 		mov	w21, 4
 3818 3334 1EFFFF17 		b	.L765
 3819              	.L783:
 3820 3338 B5008052 		mov	w21, 5
 3821 333c 1CFFFF17 		b	.L765
 3822              		.size	sdCreateFile, .-sdCreateFile
 3823              		.align	2
 3824              		.p2align 4,,15
 3825              		.global	sdReadFile
 3826              		.type	sdReadFile, %function
 3827              	sdReadFile:
 3828 3340 00040051 		sub	w0, w0, #1
 3829 3344 1F1C0071 		cmp	w0, 7
 3830 3348 C80A0054 		bhi	.L867
 3831 334c F353B8A9 		stp	x19, x20, [sp, -128]!
 3832 3350 14000090 		adrp	x20, intFileIORecord
 3833 3354 94020091 		add	x20, x20, :lo12:intFileIORecord
 3834 3358 F303002A 		uxtw	x19, w0
 3835 335c 846380D2 		mov	x4, 796
 3836 3360 FE2B00F9 		str	x30, [sp, 80]
 3837 3364 1F2003D5 		nop // between mem op and mult-accumulate
 3838 3368 7352049B 		madd	x19, x19, x4, x20
 3839 336c 650640B9 		ldr	w5, [x19, 4]
 3840 3370 05090034 		cbz	w5, .L820
 3841 3374 F55B01A9 		stp	x21, x22, [sp, 16]
 3842 3378 F50301AA 		mov	x21, x1
 3843 337c 010280D2 		mov	x1, 16
 3844 3380 F76302A9 		stp	x23, x24, [sp, 32]
 3845 3384 17000090 		adrp	x23, .LANCHOR1
 3846 3388 F7020091 		add	x23, x23, :lo12:.LANCHOR1
 3847 338c 0004A49B 		umaddl	x0, w0, w4, x1
 3848 3390 F803022A 		mov	w24, w2
 3849 3394 F96B03A9 		stp	x25, x26, [sp, 48]
 3850 3398 96FE9F52 		mov	w22, 65524
 3851 339c F6FFA172 		movk	w22, 0xfff, lsl 16
 3852 33a0 1400148B 		add	x20, x0, x20
 3853 33a4 FB7304A9 		stp	x27, x28, [sp, 64]
 3854 33a8 E0420591 		add	x0, x23, 336
 3855 33ac 19008052 		mov	w25, 0
 3856 33b0 E03700F9 		str	x0, [sp, 104]
 3857 33b4 E33F00F9 		str	x3, [sp, 120]
 3858              		.p2align 3
 3859              	.L821:
 3860 33b8 600240B9 		ldr	w0, [x19]
 3861 33bc 00040051 		sub	w0, w0, #1
AARCH64 GAS  C:\Users\ldebo\AppData\Local\Temp\cchOloIf.s 			page 69


 3862 33c0 1F00166B 		cmp	w0, w22
 3863 33c4 E8050054 		bhi	.L881
 3864 33c8 3F03186B 		cmp	w25, w24
 3865 33cc C2040054 		bcs	.L837
 3866 33d0 601643B9 		ldr	w0, [x19, 788]
 3867 33d4 611A43B9 		ldr	w1, [x19, 792]
 3868 33d8 3F00006B 		cmp	w1, w0
 3869 33dc E9040054 		bls	.L840
 3870 33e0 600E40B9 		ldr	w0, [x19, 12]
 3871 33e4 A142398B 		add	x1, x21, x25, uxtw
 3872 33e8 1FFC0771 		cmp	w0, 511
 3873 33ec 29010054 		bls	.L824
 3874 33f0 2E000014 		b	.L828
 3875 33f4 1F2003D5 		.p2align 3
 3876              	.L888:
 3877 33f8 631A43B9 		ldr	w3, [x19, 792]
 3878 33fc 1F00036B 		cmp	w0, w3
 3879 3400 C2030054 		bcs	.L840
 3880 3404 600E40B9 		ldr	w0, [x19, 12]
 3881 3408 1FFC0771 		cmp	w0, 511
 3882 340c E8040054 		bhi	.L828
 3883              	.L824:
 3884 3410 6342208B 		add	x3, x19, x0, uxtw
 3885 3414 21040091 		add	x1, x1, 1
 3886 3418 00040011 		add	w0, w0, 1
 3887 341c 600E00B9 		str	w0, [x19, 12]
 3888 3420 39070011 		add	w25, w25, 1
 3889 3424 60404039 		ldrb	w0, [x3, 16]
 3890 3428 1F03196B 		cmp	w24, w25
 3891 342c 20F01F38 		strb	w0, [x1, -1]
 3892 3430 601643B9 		ldr	w0, [x19, 788]
 3893 3434 00040011 		add	w0, w0, 1
 3894 3438 601603B9 		str	w0, [x19, 788]
 3895 343c E1FDFF54 		bne	.L888
 3896              	.L822:
 3897 3440 E13F40F9 		ldr	x1, [sp, 120]
 3898 3444 20008052 		mov	w0, 1
 3899 3448 411100B4 		cbz	x1, .L870
 3900 344c F55B41A9 		ldp	x21, x22, [sp, 16]
 3901 3450 F96B43A9 		ldp	x25, x26, [sp, 48]
 3902 3454 FB7344A9 		ldp	x27, x28, [sp, 64]
 3903 3458 380000B9 		str	w24, [x1]
 3904 345c F76342A9 		ldp	x23, x24, [sp, 32]
 3905 3460 0D000014 		b	.L854
 3906              	.L837:
 3907 3464 E0FEFF54 		beq	.L822
 3908 3468 611643B9 		ldr	w1, [x19, 788]
 3909 346c 601A43B9 		ldr	w0, [x19, 792]
 3910 3470 3F00006B 		cmp	w1, w0
 3911 3474 A3010054 		bcc	.L828
 3912              		.p2align 3
 3913              	.L840:
 3914 3478 E03F40F9 		ldr	x0, [sp, 120]
 3915 347c 600F00B5 		cbnz	x0, .L889
 3916              		.p2align 3
 3917              	.L881:
 3918 3480 F55B41A9 		ldp	x21, x22, [sp, 16]
AARCH64 GAS  C:\Users\ldebo\AppData\Local\Temp\cchOloIf.s 			page 70


 3919 3484 F76342A9 		ldp	x23, x24, [sp, 32]
 3920 3488 F96B43A9 		ldp	x25, x26, [sp, 48]
 3921 348c FB7344A9 		ldp	x27, x28, [sp, 64]
 3922              	.L820:
 3923 3490 00008052 		mov	w0, 0
 3924              	.L854:
 3925 3494 FE2B40F9 		ldr	x30, [sp, 80]
 3926 3498 F353C8A8 		ldp	x19, x20, [sp], 128
 3927 349c C0035FD6 		ret
 3928              	.L867:
 3929 34a0 00008052 		mov	w0, 0
 3930 34a4 C0035FD6 		ret
 3931              		.p2align 3
 3932              	.L828:
 3933 34a8 1A000090 		adrp	x26, .LANCHOR0
 3934 34ac 43030091 		add	x3, x26, :lo12:.LANCHOR0
 3935 34b0 77200091 		add	x23, x3, 8
 3936 34b4 610A40B9 		ldr	w1, [x19, 8]
 3937 34b8 E05640B9 		ldr	w0, [x23, 84]
 3938 34bc 3C040011 		add	w28, w1, 1
 3939 34c0 7C0A00B9 		str	w28, [x19, 8]
 3940 34c4 9F03006B 		cmp	w28, w0
 3941 34c8 82050054 		bcs	.L829
 3942 34cc E03A40B9 		ldr	w0, [x23, 56]
 3943 34d0 7F0E00B9 		str	wzr, [x19, 12]
 3944 34d4 60FDFF34 		cbz	w0, .L881
 3945 34d8 600640B9 		ldr	w0, [x19, 4]
 3946 34dc E07700B9 		str	w0, [sp, 116]
 3947 34e0 C8F2FF97 		bl	sdWaitForData
 3948 34e4 E0FCFF35 		cbnz	w0, .L881
 3949 34e8 1B000090 		adrp	x27, RPi_IO_Base_Addr
 3950 34ec 600340B9 		ldr	w0, [x27, #:lo12:RPi_IO_Base_Addr]
 3951 34f0 E43A40B9 		ldr	w4, [x23, 56]
 3952 34f4 05408052 		mov	w5, 512
 3953 34f8 03004C11 		add	w3, w0, 3145728
 3954 34fc E07740B9 		ldr	w0, [sp, 116]
 3955 3500 63100011 		add	w3, w3, 4
 3956 3504 9F0C0071 		cmp	w4, 3
 3957 3508 8103000B 		add	w1, w28, w0
 3958 350c 20581753 		lsl	w0, w1, 9
 3959 3510 640040B9 		ldr	w4, [x3]
 3960 3514 0100811A 		csel	w1, w0, w1, eq
 3961 3518 E03740F9 		ldr	x0, [sp, 104]
 3962 351c 843C0012 		and	w4, w4, 65535
 3963 3520 84001032 		orr	w4, w4, 65536
 3964 3524 640000B9 		str	w4, [x3]
 3965 3528 640040B9 		ldr	w4, [x3]
 3966 352c A4240033 		bfi	w4, w5, 0, 10
 3967 3530 640000B9 		str	w4, [x3]
 3968 3534 ABF4FF97 		bl	sdSendCommandP
 3969 3538 40FAFF35 		cbnz	w0, .L881
 3970 353c 00048052 		mov	w0, 32
 3971 3540 FCF2FF97 		bl	sdWaitForInterrupt
 3972 3544 40070035 		cbnz	w0, .L887
 3973 3548 610340B9 		ldr	w1, [x27, #:lo12:RPi_IO_Base_Addr]
 3974 354c E00314AA 		mov	x0, x20
 3975 3550 83020891 		add	x3, x20, 512
AARCH64 GAS  C:\Users\ldebo\AppData\Local\Temp\cchOloIf.s 			page 71


 3976 3554 21004C11 		add	w1, w1, 3145728
 3977 3558 21800011 		add	w1, w1, 32
 3978 355c 1F2003D5 		.p2align 3
 3979              	.L832:
 3980 3560 240040B9 		ldr	w4, [x1]
 3981 3564 044400B8 		str	w4, [x0], 4
 3982 3568 7F0000EB 		cmp	x3, x0
 3983 356c A1FFFF54 		bne	.L832
 3984 3570 92FFFF17 		b	.L821
 3985 3574 1F2003D5 		.p2align 3
 3986              	.L829:
 3987 3578 600240B9 		ldr	w0, [x19]
 3988 357c C9F6FF97 		bl	getSetNextCluster.constprop.9
 3989 3580 1C080051 		sub	w28, w0, #2
 3990 3584 E55640B9 		ldr	w5, [x23, 84]
 3991 3588 E45E40B9 		ldr	w4, [x23, 92]
 3992 358c E13A40B9 		ldr	w1, [x23, 56]
 3993 3590 7F7E0129 		stp	wzr, wzr, [x19, 8]
 3994 3594 9C13051B 		madd	w28, w28, w5, w4
 3995 3598 60720029 		stp	w0, w28, [x19]
 3996 359c 21F7FF34 		cbz	w1, .L881
 3997 35a0 98F2FF97 		bl	sdWaitForData
 3998 35a4 E0F6FF35 		cbnz	w0, .L881
 3999 35a8 1B000090 		adrp	x27, RPi_IO_Base_Addr
 4000 35ac 600340B9 		ldr	w0, [x27, #:lo12:RPi_IO_Base_Addr]
 4001 35b0 E13A40B9 		ldr	w1, [x23, 56]
 4002 35b4 05408052 		mov	w5, 512
 4003 35b8 03004C11 		add	w3, w0, 3145728
 4004 35bc 63100011 		add	w3, w3, 4
 4005 35c0 3F0C0071 		cmp	w1, 3
 4006 35c4 640040B9 		ldr	w4, [x3]
 4007 35c8 C0040054 		beq	.L890
 4008 35cc E1031C2A 		mov	w1, w28
 4009              	.L885:
 4010 35d0 843C0012 		and	w4, w4, 65535
 4011 35d4 E03740F9 		ldr	x0, [sp, 104]
 4012 35d8 84001032 		orr	w4, w4, 65536
 4013 35dc 640000B9 		str	w4, [x3]
 4014 35e0 640040B9 		ldr	w4, [x3]
 4015 35e4 A4240033 		bfi	w4, w5, 0, 10
 4016 35e8 640000B9 		str	w4, [x3]
 4017 35ec 7DF4FF97 		bl	sdSendCommandP
 4018 35f0 80F4FF35 		cbnz	w0, .L881
 4019 35f4 00048052 		mov	w0, 32
 4020 35f8 CEF2FF97 		bl	sdWaitForInterrupt
 4021 35fc 80010035 		cbnz	w0, .L887
 4022 3600 610340B9 		ldr	w1, [x27, #:lo12:RPi_IO_Base_Addr]
 4023 3604 E00314AA 		mov	x0, x20
 4024 3608 83020891 		add	x3, x20, 512
 4025 360c 21004C11 		add	w1, w1, 3145728
 4026 3610 21800011 		add	w1, w1, 32
 4027 3614 1F2003D5 		.p2align 3
 4028              	.L836:
 4029 3618 240040B9 		ldr	w4, [x1]
 4030 361c 044400B8 		str	w4, [x0], 4
 4031 3620 7F0000EB 		cmp	x3, x0
 4032 3624 A1FFFF54 		bne	.L836
AARCH64 GAS  C:\Users\ldebo\AppData\Local\Temp\cchOloIf.s 			page 72


 4033 3628 64FFFF17 		b	.L821
 4034              	.L887:
 4035 362c 410340F9 		ldr	x1, [x26, #:lo12:.LANCHOR0]
 4036 3630 81F2FFB4 		cbz	x1, .L881
 4037 3634 00000090 		adrp	x0, .LC8
 4038 3638 00000091 		add	x0, x0, :lo12:.LC8
 4039 363c 20003FD6 		blr	x1
 4040              	.L882:
 4041 3640 F55B41A9 		ldp	x21, x22, [sp, 16]
 4042 3644 00008052 		mov	w0, 0
 4043 3648 F76342A9 		ldp	x23, x24, [sp, 32]
 4044 364c F96B43A9 		ldp	x25, x26, [sp, 48]
 4045 3650 FB7344A9 		ldp	x27, x28, [sp, 64]
 4046 3654 FE2B40F9 		ldr	x30, [sp, 80]
 4047 3658 F353C8A8 		ldp	x19, x20, [sp], 128
 4048 365c C0035FD6 		ret
 4049              	.L890:
 4050 3660 815B1753 		lsl	w1, w28, 9
 4051 3664 DBFFFF17 		b	.L885
 4052              	.L889:
 4053 3668 190000B9 		str	w25, [x0]
 4054 366c F5FFFF17 		b	.L882
 4055              	.L870:
 4056 3670 F55B41A9 		ldp	x21, x22, [sp, 16]
 4057 3674 F76342A9 		ldp	x23, x24, [sp, 32]
 4058 3678 F96B43A9 		ldp	x25, x26, [sp, 48]
 4059 367c FB7344A9 		ldp	x27, x28, [sp, 64]
 4060 3680 85FFFF17 		b	.L854
 4061              		.size	sdReadFile, .-sdReadFile
 4062              		.align	2
 4063 3684 1F2003D5 		.p2align 4,,15
 4063      1F2003D5 
 4063      1F2003D5 
 4064              		.global	sdCloseHandle
 4065              		.type	sdCloseHandle, %function
 4066              	sdCloseHandle:
 4067 3690 00040051 		sub	w0, w0, #1
 4068 3694 1F1C0071 		cmp	w0, 7
 4069 3698 88010054 		bhi	.L893
 4070 369c 01000090 		adrp	x1, intFileIORecord
 4071 36a0 22000091 		add	x2, x1, :lo12:intFileIORecord
 4072 36a4 E103002A 		uxtw	x1, w0
 4073 36a8 836380D2 		mov	x3, 796
 4074 36ac 00008052 		mov	w0, 0
 4075 36b0 2108039B 		madd	x1, x1, x3, x2
 4076 36b4 220440B9 		ldr	w2, [x1, 4]
 4077 36b8 62000034 		cbz	w2, .L892
 4078 36bc 20008052 		mov	w0, 1
 4079 36c0 3F0400B9 		str	wzr, [x1, 4]
 4080              	.L892:
 4081 36c4 C0035FD6 		ret
 4082              		.p2align 3
 4083              	.L893:
 4084 36c8 00008052 		mov	w0, 0
 4085 36cc C0035FD6 		ret
 4086              		.size	sdCloseHandle, .-sdCloseHandle
 4087              		.align	2
AARCH64 GAS  C:\Users\ldebo\AppData\Local\Temp\cchOloIf.s 			page 73


 4088              		.p2align 4,,15
 4089              		.global	sdSetFilePointer
 4090              		.type	sdSetFilePointer, %function
 4091              	sdSetFilePointer:
 4092 36d0 F353B8A9 		stp	x19, x20, [sp, -128]!
 4093 36d4 05040051 		sub	w5, w0, #1
 4094 36d8 BF1C0071 		cmp	w5, 7
 4095 36dc FE2B00F9 		str	x30, [sp, 80]
 4096 36e0 E23700F9 		str	x2, [sp, 104]
 4097 36e4 68160054 		bhi	.L899
 4098 36e8 F50B00F9 		str	x21, [sp, 16]
 4099 36ec F503052A 		uxtw	x21, w5
 4100 36f0 F71300F9 		str	x23, [sp, 32]
 4101 36f4 17000090 		adrp	x23, intFileIORecord
 4102 36f8 E0020091 		add	x0, x23, :lo12:intFileIORecord
 4103 36fc FA1F00F9 		str	x26, [sp, 56]
 4104 3700 FA03012A 		mov	w26, w1
 4105 3704 816380D2 		mov	x1, 796
 4106 3708 A102019B 		madd	x1, x21, x1, x0
 4107 370c 200440B9 		ldr	w0, [x1, 4]
 4108 3710 80150034 		cbz	w0, .L950
 4109 3714 7F040071 		cmp	w3, 1
 4110 3718 201843B9 		ldr	w0, [x1, 792]
 4111 371c A01C0054 		beq	.L901
 4112 3720 4103000B 		add	w1, w26, w0
 4113 3724 7F080071 		cmp	w3, 2
 4114 3728 3A009A1A 		csel	w26, w1, w26, eq
 4115              	.L900:
 4116 372c 5F03006B 		cmp	w26, w0
 4117 3730 88140054 		bhi	.L950
 4118 3734 816380D2 		mov	x1, 796
 4119 3738 F4020091 		add	x20, x23, :lo12:intFileIORecord
 4120 373c E0031A2A 		mov	w0, w26
 4121 3740 A37E019B 		mul	x3, x21, x1
 4122 3744 8202038B 		add	x2, x20, x3
 4123 3748 461443B9 		ldr	w6, [x2, 788]
 4124 374c DF001A6B 		cmp	w6, w26
 4125 3750 00140054 		beq	.L951
 4126 3754 F8E702A9 		stp	x24, x25, [sp, 40]
 4127 3758 18000090 		adrp	x24, .LANCHOR0
 4128 375c 19030091 		add	x25, x24, :lo12:.LANCHOR0
 4129 3760 401043B9 		ldr	w0, [x2, 784]
 4130 3764 070280D2 		mov	x7, 16
 4131 3768 806A23B8 		str	w0, [x20, x3]
 4132 376c 39230091 		add	x25, x25, 8
 4133 3770 265740B9 		ldr	w6, [x25, 84]
 4134 3774 00080051 		sub	w0, w0, #2
 4135 3778 335F40B9 		ldr	w19, [x25, 92]
 4136 377c 1F2003D5 		nop // between mem op and mult-accumulate
 4137 3780 A51CA19B 		umaddl	x5, w5, w1, x7
 4138 3784 233B40B9 		ldr	w3, [x25, 56]
 4139 3788 5F0C00B9 		str	wzr, [x2, 12]
 4140 378c B400148B 		add	x20, x5, x20
 4141 3790 5F1403B9 		str	wzr, [x2, 788]
 4142 3794 134C061B 		madd	w19, w0, w6, w19
 4143 3798 53FC0029 		stp	w19, wzr, [x2, 4]
 4144 379c A31A0034 		cbz	w3, .L953
AARCH64 GAS  C:\Users\ldebo\AppData\Local\Temp\cchOloIf.s 			page 74


 4145 37a0 18F2FF97 		bl	sdWaitForData
 4146 37a4 601A0035 		cbnz	w0, .L953
 4147 37a8 203B40B9 		ldr	w0, [x25, 56]
 4148 37ac 05408052 		mov	w5, 512
 4149 37b0 F60F00F9 		str	x22, [sp, 24]
 4150 37b4 16000090 		adrp	x22, RPi_IO_Base_Addr
 4151 37b8 C20240B9 		ldr	w2, [x22, #:lo12:RPi_IO_Base_Addr]
 4152 37bc FB7304A9 		stp	x27, x28, [sp, 64]
 4153 37c0 1F0C0071 		cmp	w0, 3
 4154 37c4 42004C11 		add	w2, w2, 3145728
 4155 37c8 615A1753 		lsl	w1, w19, 9
 4156 37cc 42100011 		add	w2, w2, 4
 4157 37d0 19000090 		adrp	x25, .LANCHOR1
 4158 37d4 20030091 		add	x0, x25, :lo12:.LANCHOR1
 4159 37d8 2100931A 		csel	w1, w1, w19, eq
 4160 37dc 00400591 		add	x0, x0, 336
 4161 37e0 430040B9 		ldr	w3, [x2]
 4162 37e4 633C0012 		and	w3, w3, 65535
 4163 37e8 63001032 		orr	w3, w3, 65536
 4164 37ec 430000B9 		str	w3, [x2]
 4165 37f0 430040B9 		ldr	w3, [x2]
 4166 37f4 A3240033 		bfi	w3, w5, 0, 10
 4167 37f8 430000B9 		str	w3, [x2]
 4168 37fc F9F3FF97 		bl	sdSendCommandP
 4169 3800 000D0035 		cbnz	w0, .L965
 4170 3804 00048052 		mov	w0, 32
 4171 3808 4AF2FF97 		bl	sdWaitForInterrupt
 4172 380c 80150035 		cbnz	w0, .L970
 4173 3810 C10240B9 		ldr	w1, [x22, #:lo12:RPi_IO_Base_Addr]
 4174 3814 83020891 		add	x3, x20, 512
 4175 3818 FB0314AA 		mov	x27, x20
 4176 381c 21004C11 		add	w1, w1, 3145728
 4177 3820 21800011 		add	w1, w1, 32
 4178 3824 1F2003D5 		.p2align 3
 4179              	.L905:
 4180 3828 200040B9 		ldr	w0, [x1]
 4181 382c 604700B8 		str	w0, [x27], 4
 4182 3830 7F001BEB 		cmp	x3, x27
 4183 3834 A1FFFF54 		bne	.L905
 4184 3838 5F030871 		cmp	w26, 512
 4185 383c C9160054 		bls	.L919
 4186 3840 E1020091 		add	x1, x23, :lo12:intFileIORecord
 4187 3844 856380D2 		mov	x5, 796
 4188 3848 40070851 		sub	w0, w26, #513
 4189 384c 53030851 		sub	w19, w26, #512
 4190 3850 00581712 		and	w0, w0, -512
 4191 3854 39030091 		add	x25, x25, :lo12:.LANCHOR1
 4192 3858 BC06059B 		madd	x28, x21, x5, x1
 4193 385c 6002004B 		sub	w0, w19, w0
 4194 3860 E07B00B9 		str	w0, [sp, 120]
 4195 3864 20430591 		add	x0, x25, 336
 4196 3868 19048052 		mov	w25, 32
 4197 386c 1906A072 		movk	w25, 0x30, lsl 16
 4198 3870 E03B00F9 		str	x0, [sp, 112]
 4199 3874 1F2003D5 		.p2align 3
 4200              	.L915:
 4201 3878 03030091 		add	x3, x24, :lo12:.LANCHOR0
AARCH64 GAS  C:\Users\ldebo\AppData\Local\Temp\cchOloIf.s 			page 75


 4202 387c 810B40B9 		ldr	w1, [x28, 8]
 4203 3880 73200091 		add	x19, x3, 8
 4204 3884 21040011 		add	w1, w1, 1
 4205 3888 810B00B9 		str	w1, [x28, 8]
 4206 388c 605640B9 		ldr	w0, [x19, 84]
 4207 3890 E16700B9 		str	w1, [sp, 100]
 4208 3894 3F00006B 		cmp	w1, w0
 4209 3898 820A0054 		bcs	.L907
 4210 389c 603A40B9 		ldr	w0, [x19, 56]
 4211 38a0 9F0F00B9 		str	wzr, [x28, 12]
 4212 38a4 E0070034 		cbz	w0, .L965
 4213 38a8 820740B9 		ldr	w2, [x28, 4]
 4214 38ac E27F00B9 		str	w2, [sp, 124]
 4215 38b0 D4F1FF97 		bl	sdWaitForData
 4216 38b4 60070035 		cbnz	w0, .L965
 4217 38b8 C00240B9 		ldr	w0, [x22, #:lo12:RPi_IO_Base_Addr]
 4218 38bc 07408052 		mov	w7, 512
 4219 38c0 E16740B9 		ldr	w1, [sp, 100]
 4220 38c4 03004C11 		add	w3, w0, 3145728
 4221 38c8 E27F40B9 		ldr	w2, [sp, 124]
 4222 38cc 63100011 		add	w3, w3, 4
 4223 38d0 663A40B9 		ldr	w6, [x19, 56]
 4224 38d4 2100020B 		add	w1, w1, w2
 4225 38d8 E03B40F9 		ldr	x0, [sp, 112]
 4226 38dc DF0C0071 		cmp	w6, 3
 4227 38e0 26581753 		lsl	w6, w1, 9
 4228 38e4 C100811A 		csel	w1, w6, w1, eq
 4229 38e8 660040B9 		ldr	w6, [x3]
 4230 38ec C63C0012 		and	w6, w6, 65535
 4231 38f0 C6001032 		orr	w6, w6, 65536
 4232 38f4 660000B9 		str	w6, [x3]
 4233 38f8 660040B9 		ldr	w6, [x3]
 4234 38fc E6240033 		bfi	w6, w7, 0, 10
 4235 3900 660000B9 		str	w6, [x3]
 4236 3904 B7F3FF97 		bl	sdSendCommandP
 4237 3908 C0040035 		cbnz	w0, .L965
 4238 390c 00048052 		mov	w0, 32
 4239 3910 08F2FF97 		bl	sdWaitForInterrupt
 4240 3914 400D0035 		cbnz	w0, .L970
 4241 3918 C30240B9 		ldr	w3, [x22, #:lo12:RPi_IO_Base_Addr]
 4242 391c E00314AA 		mov	x0, x20
 4243 3920 6300190B 		add	w3, w3, w25
 4244 3924 1F2003D5 		.p2align 3
 4245              	.L910:
 4246 3928 610040B9 		ldr	w1, [x3]
 4247 392c 014400B8 		str	w1, [x0], 4
 4248 3930 7F0300EB 		cmp	x27, x0
 4249 3934 A1FFFF54 		bne	.L910
 4250 3938 801743B9 		ldr	w0, [x28, 788]
 4251 393c 5A030851 		sub	w26, w26, #512
 4252 3940 E17B40B9 		ldr	w1, [sp, 120]
 4253 3944 00000811 		add	w0, w0, 512
 4254 3948 801703B9 		str	w0, [x28, 788]
 4255 394c 3F001A6B 		cmp	w1, w26
 4256 3950 41F9FF54 		bne	.L915
 4257              	.L906:
 4258 3954 F7020091 		add	x23, x23, :lo12:intFileIORecord
AARCH64 GAS  C:\Users\ldebo\AppData\Local\Temp\cchOloIf.s 			page 76


 4259 3958 806380D2 		mov	x0, 796
 4260 395c E17B40B9 		ldr	w1, [sp, 120]
 4261 3960 1F2003D5 		nop // between mem op and mult-accumulate
 4262 3964 B55E009B 		madd	x21, x21, x0, x23
 4263 3968 A01643B9 		ldr	w0, [x21, 788]
 4264 396c A10E00B9 		str	w1, [x21, 12]
 4265 3970 2000000B 		add	w0, w1, w0
 4266 3974 E13740F9 		ldr	x1, [sp, 104]
 4267 3978 A01603B9 		str	w0, [x21, 788]
 4268 397c 210C00B4 		cbz	x1, .L964
 4269 3980 F76342A9 		ldp	x23, x24, [sp, 32]
 4270 3984 F96B43A9 		ldp	x25, x26, [sp, 48]
 4271 3988 FB7344A9 		ldp	x27, x28, [sp, 64]
 4272 398c 3F0000B9 		str	wzr, [x1]
 4273 3990 A01643B9 		ldr	w0, [x21, 788]
 4274 3994 F55B41A9 		ldp	x21, x22, [sp, 16]
 4275 3998 07000014 		b	.L896
 4276 399c 1F2003D5 		.p2align 3
 4277              	.L965:
 4278 39a0 F55B41A9 		ldp	x21, x22, [sp, 16]
 4279 39a4 F76342A9 		ldp	x23, x24, [sp, 32]
 4280 39a8 F96B43A9 		ldp	x25, x26, [sp, 48]
 4281 39ac FB7344A9 		ldp	x27, x28, [sp, 64]
 4282              	.L899:
 4283 39b0 00008012 		mov	w0, -1
 4284              	.L896:
 4285 39b4 FE2B40F9 		ldr	x30, [sp, 80]
 4286 39b8 F353C8A8 		ldp	x19, x20, [sp], 128
 4287 39bc C0035FD6 		ret
 4288              		.p2align 3
 4289              	.L950:
 4290 39c0 F50B40F9 		ldr	x21, [sp, 16]
 4291 39c4 F71340F9 		ldr	x23, [sp, 32]
 4292 39c8 FA1F40F9 		ldr	x26, [sp, 56]
 4293 39cc F9FFFF17 		b	.L899
 4294              	.L951:
 4295 39d0 F50B40F9 		ldr	x21, [sp, 16]
 4296 39d4 F71340F9 		ldr	x23, [sp, 32]
 4297 39d8 FA1F40F9 		ldr	x26, [sp, 56]
 4298 39dc FE2B40F9 		ldr	x30, [sp, 80]
 4299 39e0 F353C8A8 		ldp	x19, x20, [sp], 128
 4300 39e4 C0035FD6 		ret
 4301              		.p2align 3
 4302              	.L907:
 4303 39e8 800340B9 		ldr	w0, [x28]
 4304 39ec ADF5FF97 		bl	getSetNextCluster.constprop.9
 4305 39f0 01080051 		sub	w1, w0, #2
 4306 39f4 685640B9 		ldr	w8, [x19, 84]
 4307 39f8 675E40B9 		ldr	w7, [x19, 92]
 4308 39fc 663A40B9 		ldr	w6, [x19, 56]
 4309 3a00 9F7F0129 		stp	wzr, wzr, [x28, 8]
 4310 3a04 211C081B 		madd	w1, w1, w8, w7
 4311 3a08 80070029 		stp	w0, w1, [x28]
 4312 3a0c E16700B9 		str	w1, [sp, 100]
 4313 3a10 86FCFF34 		cbz	w6, .L965
 4314 3a14 7BF1FF97 		bl	sdWaitForData
 4315 3a18 40FCFF35 		cbnz	w0, .L965
AARCH64 GAS  C:\Users\ldebo\AppData\Local\Temp\cchOloIf.s 			page 77


 4316 3a1c C00240B9 		ldr	w0, [x22, #:lo12:RPi_IO_Base_Addr]
 4317 3a20 07408052 		mov	w7, 512
 4318 3a24 663A40B9 		ldr	w6, [x19, 56]
 4319 3a28 03004C11 		add	w3, w0, 3145728
 4320 3a2c E16740B9 		ldr	w1, [sp, 100]
 4321 3a30 63100011 		add	w3, w3, 4
 4322 3a34 DF0C0071 		cmp	w6, 3
 4323 3a38 660040B9 		ldr	w6, [x3]
 4324 3a3c 41000054 		bne	.L967
 4325 3a40 21581753 		lsl	w1, w1, 9
 4326              	.L967:
 4327 3a44 C63C0012 		and	w6, w6, 65535
 4328 3a48 E03B40F9 		ldr	x0, [sp, 112]
 4329 3a4c C6001032 		orr	w6, w6, 65536
 4330 3a50 660000B9 		str	w6, [x3]
 4331 3a54 660040B9 		ldr	w6, [x3]
 4332 3a58 E6240033 		bfi	w6, w7, 0, 10
 4333 3a5c 660000B9 		str	w6, [x3]
 4334 3a60 60F3FF97 		bl	sdSendCommandP
 4335 3a64 E0F9FF35 		cbnz	w0, .L965
 4336 3a68 00048052 		mov	w0, 32
 4337 3a6c B1F1FF97 		bl	sdWaitForInterrupt
 4338 3a70 60020035 		cbnz	w0, .L970
 4339 3a74 C30240B9 		ldr	w3, [x22, #:lo12:RPi_IO_Base_Addr]
 4340 3a78 E00314AA 		mov	x0, x20
 4341 3a7c 6300190B 		add	w3, w3, w25
 4342              		.p2align 3
 4343              	.L914:
 4344 3a80 610040B9 		ldr	w1, [x3]
 4345 3a84 014400B8 		str	w1, [x0], 4
 4346 3a88 1F001BEB 		cmp	x0, x27
 4347 3a8c A1FFFF54 		bne	.L914
 4348 3a90 801743B9 		ldr	w0, [x28, 788]
 4349 3a94 5A030851 		sub	w26, w26, #512
 4350 3a98 E17B40B9 		ldr	w1, [sp, 120]
 4351 3a9c 00000811 		add	w0, w0, 512
 4352 3aa0 801703B9 		str	w0, [x28, 788]
 4353 3aa4 3F001A6B 		cmp	w1, w26
 4354 3aa8 81EEFF54 		bne	.L915
 4355 3aac AAFFFF17 		b	.L906
 4356              	.L901:
 4357 3ab0 211443B9 		ldr	w1, [x1, 788]
 4358 3ab4 5A03010B 		add	w26, w26, w1
 4359 3ab8 1DFFFF17 		b	.L900
 4360              	.L970:
 4361 3abc 010340F9 		ldr	x1, [x24, #:lo12:.LANCHOR0]
 4362 3ac0 01F7FFB4 		cbz	x1, .L965
 4363 3ac4 00000090 		adrp	x0, .LC8
 4364 3ac8 00000091 		add	x0, x0, :lo12:.LC8
 4365 3acc 20003FD6 		blr	x1
 4366 3ad0 F55B41A9 		ldp	x21, x22, [sp, 16]
 4367 3ad4 00008012 		mov	w0, -1
 4368 3ad8 F76342A9 		ldp	x23, x24, [sp, 32]
 4369 3adc F96B43A9 		ldp	x25, x26, [sp, 48]
 4370 3ae0 FB7344A9 		ldp	x27, x28, [sp, 64]
 4371 3ae4 FE2B40F9 		ldr	x30, [sp, 80]
 4372 3ae8 F353C8A8 		ldp	x19, x20, [sp], 128
AARCH64 GAS  C:\Users\ldebo\AppData\Local\Temp\cchOloIf.s 			page 78


 4373 3aec C0035FD6 		ret
 4374              	.L953:
 4375 3af0 F50B40F9 		ldr	x21, [sp, 16]
 4376 3af4 F76342A9 		ldp	x23, x24, [sp, 32]
 4377 3af8 F96B43A9 		ldp	x25, x26, [sp, 48]
 4378 3afc ADFFFF17 		b	.L899
 4379              	.L964:
 4380 3b00 F55B41A9 		ldp	x21, x22, [sp, 16]
 4381 3b04 F76342A9 		ldp	x23, x24, [sp, 32]
 4382 3b08 F96B43A9 		ldp	x25, x26, [sp, 48]
 4383 3b0c FB7344A9 		ldp	x27, x28, [sp, 64]
 4384 3b10 A9FFFF17 		b	.L896
 4385              	.L919:
 4386 3b14 FA7B00B9 		str	w26, [sp, 120]
 4387 3b18 8FFFFF17 		b	.L906
 4388              		.size	sdSetFilePointer, .-sdSetFilePointer
 4389              		.align	2
 4390 3b1c 1F2003D5 		.p2align 4,,15
 4391              		.global	sdGetFileSize
 4392              		.type	sdGetFileSize, %function
 4393              	sdGetFileSize:
 4394 3b20 00040051 		sub	w0, w0, #1
 4395 3b24 1F1C0071 		cmp	w0, 7
 4396 3b28 48010054 		bhi	.L974
 4397 3b2c 01000090 		adrp	x1, intFileIORecord
 4398 3b30 21000091 		add	x1, x1, :lo12:intFileIORecord
 4399 3b34 826380D2 		mov	x2, 796
 4400 3b38 0104029B 		madd	x1, x0, x2, x1
 4401 3b3c 200440B9 		ldr	w0, [x1, 4]
 4402 3b40 40000034 		cbz	w0, .L972
 4403 3b44 201843B9 		ldr	w0, [x1, 792]
 4404              	.L972:
 4405 3b48 C0035FD6 		ret
 4406 3b4c 1F2003D5 		.p2align 3
 4407              	.L974:
 4408 3b50 00008052 		mov	w0, 0
 4409 3b54 C0035FD6 		ret
 4410              		.size	sdGetFileSize, .-sdGetFileSize
 4411              		.align	2
 4412 3b58 1F2003D5 		.p2align 4,,15
 4412      1F2003D5 
 4413              		.global	sdInitCard
 4414              		.type	sdInitCard, %function
 4415              	sdInitCard:
 4416 3b60 FF0303D1 		sub	sp, sp, #192
 4417 3b64 F35305A9 		stp	x19, x20, [sp, 80]
 4418 3b68 14000090 		adrp	x20, .LANCHOR0
 4419 3b6c F76307A9 		stp	x23, x24, [sp, 112]
 4420 3b70 F70300AA 		mov	x23, x0
 4421 3b74 581C0012 		and	w24, w2, 255
 4422 3b78 810200F9 		str	x1, [x20, #:lo12:.LANCHOR0]
 4423 3b7c FE5300F9 		str	x30, [sp, 160]
 4424 3b80 E4F4FF97 		bl	sdResetCard
 4425 3b84 F303002A 		mov	w19, w0
 4426 3b88 00010034 		cbz	w0, .L1068
 4427              	.L978:
 4428 3b8c E003132A 		mov	w0, w19
AARCH64 GAS  C:\Users\ldebo\AppData\Local\Temp\cchOloIf.s 			page 79


 4429 3b90 FE5340F9 		ldr	x30, [sp, 160]
 4430 3b94 F35345A9 		ldp	x19, x20, [sp, 80]
 4431 3b98 F76347A9 		ldp	x23, x24, [sp, 112]
 4432 3b9c FF030391 		add	sp, sp, 192
 4433 3ba0 C0035FD6 		ret
 4434 3ba4 1F2003D5 		.p2align 3
 4435              	.L1068:
 4436 3ba8 F63700F9 		str	x22, [sp, 104]
 4437 3bac 16000090 		adrp	x22, .LANCHOR1
 4438 3bb0 C0020091 		add	x0, x22, :lo12:.LANCHOR1
 4439 3bb4 41358052 		mov	w1, 426
 4440 3bb8 00400291 		add	x0, x0, 144
 4441 3bbc 09F3FF97 		bl	sdSendCommandP
 4442 3bc0 F303002A 		mov	w19, w0
 4443 3bc4 20080035 		cbnz	w0, .L1069
 4444 3bc8 00009052 		mov	w0, 32768
 4445 3bcc E01FAA72 		movk	w0, 0x50ff, lsl 16
 4446 3bd0 44F4FF97 		bl	sdAppSendOpCond
 4447 3bd4 F303002A 		mov	w19, w0
 4448 3bd8 000A0035 		cbnz	w0, .L1053
 4449 3bdc F53300F9 		str	x21, [sp, 96]
 4450 3be0 95020091 		add	x21, x20, :lo12:.LANCHOR0
 4451 3be4 61008052 		mov	w1, 3
 4452 3be8 80008052 		mov	w0, 4
 4453 3bec A22E4139 		ldrb	w2, [x21, 75]
 4454 3bf0 5F007AF2 		tst	x2, 64
 4455 3bf4 0010811A 		csel	w0, w0, w1, ne
 4456 3bf8 A04200B9 		str	w0, [x21, 64]
 4457              	.L983:
 4458 3bfc C0020091 		add	x0, x22, :lo12:.LANCHOR1
 4459 3c00 01008052 		mov	w1, 0
 4460 3c04 00B04039 		ldrb	w0, [x0, 44]
 4461 3c08 60000036 		tbz	x0, 0, .L987
 4462 3c0c 80020091 		add	x0, x20, :lo12:.LANCHOR0
 4463 3c10 014440B9 		ldr	w1, [x0, 68]
 4464              	.L987:
 4465 3c14 D5020091 		add	x21, x22, :lo12:.LANCHOR1
 4466 3c18 A0620091 		add	x0, x21, 24
 4467 3c1c F1F2FF97 		bl	sdSendCommandP
 4468 3c20 F303002A 		mov	w19, w0
 4469 3c24 A0080035 		cbnz	w0, .L1057
 4470 3c28 A0124139 		ldrb	w0, [x21, 68]
 4471 3c2c 01008052 		mov	w1, 0
 4472 3c30 80080037 		tbnz	x0, 0, .L1070
 4473              	.L988:
 4474 3c34 D5020091 		add	x21, x22, :lo12:.LANCHOR1
 4475 3c38 A0C20091 		add	x0, x21, 48
 4476 3c3c E9F2FF97 		bl	sdSendCommandP
 4477 3c40 F303002A 		mov	w19, w0
 4478 3c44 A0070035 		cbnz	w0, .L1057
 4479 3c48 A0F24239 		ldrb	w0, [x21, 188]
 4480 3c4c 01008052 		mov	w1, 0
 4481 3c50 60000036 		tbz	x0, 0, .L989
 4482 3c54 80020091 		add	x0, x20, :lo12:.LANCHOR0
 4483 3c58 014440B9 		ldr	w1, [x0, 68]
 4484              	.L989:
 4485 3c5c D5020091 		add	x21, x22, :lo12:.LANCHOR1
AARCH64 GAS  C:\Users\ldebo\AppData\Local\Temp\cchOloIf.s 			page 80


 4486 3c60 A0A20291 		add	x0, x21, 168
 4487 3c64 DFF2FF97 		bl	sdSendCommandP
 4488 3c68 F303002A 		mov	w19, w0
 4489 3c6c 60060035 		cbnz	w0, .L1057
 4490 3c70 00088F52 		mov	w0, 30784
 4491 3c74 A02FA072 		movk	w0, 0x17d, lsl 16
 4492 3c78 9AF1FF97 		bl	sdSetClock
 4493 3c7c F303002A 		mov	w19, w0
 4494 3c80 C0050035 		cbnz	w0, .L1057
 4495 3c84 A0324239 		ldrb	w0, [x21, 140]
 4496 3c88 01008052 		mov	w1, 0
 4497 3c8c FA4700F9 		str	x26, [sp, 136]
 4498 3c90 60000036 		tbz	x0, 0, .L990
 4499 3c94 80020091 		add	x0, x20, :lo12:.LANCHOR0
 4500 3c98 014440B9 		ldr	w1, [x0, 68]
 4501              	.L990:
 4502 3c9c DA020091 		add	x26, x22, :lo12:.LANCHOR1
 4503 3ca0 40E30191 		add	x0, x26, 120
 4504 3ca4 CFF2FF97 		bl	sdSendCommandP
 4505 3ca8 F303002A 		mov	w19, w0
 4506 3cac 00050035 		cbnz	w0, .L1058
 4507 3cb0 D4F0FF97 		bl	sdWaitForData
 4508 3cb4 20050034 		cbz	w0, .L991
 4509              	.L1003:
 4510 3cb8 53008052 		mov	w19, 2
 4511 3cbc FA4740F9 		ldr	x26, [sp, 136]
 4512 3cc0 F55B46A9 		ldp	x21, x22, [sp, 96]
 4513 3cc4 B2FFFF17 		b	.L978
 4514              		.p2align 3
 4515              	.L1069:
 4516 3cc8 1F0C0071 		cmp	w0, 3
 4517 3ccc 60020054 		beq	.L1053
 4518 3cd0 00000090 		adrp	x0, RPi_IO_Base_Addr
 4519 3cd4 000040B9 		ldr	w0, [x0, #:lo12:RPi_IO_Base_Addr]
 4520 3cd8 00004C11 		add	w0, w0, 3145728
 4521 3cdc 00900011 		add	w0, w0, 36
 4522 3ce0 000040B9 		ldr	w0, [x0]
 4523 3ce4 80000036 		tbz	x0, 0, .L986
 4524 3ce8 8AF4FF97 		bl	sdResetCard
 4525 3cec F303002A 		mov	w19, w0
 4526 3cf0 40010035 		cbnz	w0, .L1053
 4527              	.L986:
 4528 3cf4 E0231132 		mov	w0, 16744448
 4529 3cf8 FAF3FF97 		bl	sdAppSendOpCond
 4530 3cfc F303002A 		mov	w19, w0
 4531 3d00 C0000035 		cbnz	w0, .L1053
 4532 3d04 80020091 		add	x0, x20, :lo12:.LANCHOR0
 4533 3d08 F53300F9 		str	x21, [sp, 96]
 4534 3d0c 41008052 		mov	w1, 2
 4535 3d10 014000B9 		str	w1, [x0, 64]
 4536 3d14 BAFFFF17 		b	.L983
 4537              		.p2align 3
 4538              	.L1053:
 4539 3d18 F63740F9 		ldr	x22, [sp, 104]
 4540 3d1c E003132A 		mov	w0, w19
 4541 3d20 F35345A9 		ldp	x19, x20, [sp, 80]
 4542 3d24 F76347A9 		ldp	x23, x24, [sp, 112]
AARCH64 GAS  C:\Users\ldebo\AppData\Local\Temp\cchOloIf.s 			page 81


 4543 3d28 FE5340F9 		ldr	x30, [sp, 160]
 4544 3d2c FF030391 		add	sp, sp, 192
 4545 3d30 C0035FD6 		ret
 4546 3d34 1F2003D5 		.p2align 3
 4547              	.L1057:
 4548 3d38 F55B46A9 		ldp	x21, x22, [sp, 96]
 4549 3d3c 94FFFF17 		b	.L978
 4550              		.p2align 3
 4551              	.L1070:
 4552 3d40 80020091 		add	x0, x20, :lo12:.LANCHOR0
 4553 3d44 014440B9 		ldr	w1, [x0, 68]
 4554 3d48 BBFFFF17 		b	.L988
 4555              	.L1058:
 4556 3d4c F55B46A9 		ldp	x21, x22, [sp, 96]
 4557 3d50 FA4740F9 		ldr	x26, [sp, 136]
 4558 3d54 8EFFFF17 		b	.L978
 4559              	.L991:
 4560 3d58 F94300F9 		str	x25, [sp, 128]
 4561 3d5c 19000090 		adrp	x25, RPi_IO_Base_Addr
 4562 3d60 200340B9 		ldr	w0, [x25, #:lo12:RPi_IO_Base_Addr]
 4563 3d64 95020091 		add	x21, x20, :lo12:.LANCHOR0
 4564 3d68 02018052 		mov	w2, 8
 4565 3d6c 00004C11 		add	w0, w0, 3145728
 4566 3d70 B5220091 		add	x21, x21, 8
 4567 3d74 00100011 		add	w0, w0, 4
 4568 3d78 010040B9 		ldr	w1, [x0]
 4569 3d7c 213C0012 		and	w1, w1, 65535
 4570 3d80 21001032 		orr	w1, w1, 65536
 4571 3d84 010000B9 		str	w1, [x0]
 4572 3d88 010040B9 		ldr	w1, [x0]
 4573 3d8c 41240033 		bfi	w1, w2, 0, 10
 4574 3d90 010000B9 		str	w1, [x0]
 4575 3d94 A13E40B9 		ldr	w1, [x21, 60]
 4576 3d98 81040034 		cbz	w1, .L1071
 4577 3d9c 40430B91 		add	x0, x26, 720
 4578 3da0 90F2FF97 		bl	sdSendCommandP
 4579 3da4 E0170035 		cbnz	w0, .L1072
 4580 3da8 A04640B9 		ldr	w0, [x21, 68]
 4581 3dac 60192836 		tbz	x0, 5, .L1008
 4582              	.L993:
 4583 3db0 C0020091 		add	x0, x22, :lo12:.LANCHOR1
 4584 3db4 00904E39 		ldrb	w0, [x0, 932]
 4585 3db8 40030036 		tbz	x0, 0, .L1016
 4586 3dbc 80020091 		add	x0, x20, :lo12:.LANCHOR0
 4587 3dc0 014440B9 		ldr	w1, [x0, 68]
 4588              	.L995:
 4589 3dc4 C0020091 		add	x0, x22, :lo12:.LANCHOR1
 4590 3dc8 00400E91 		add	x0, x0, 912
 4591 3dcc 85F2FF97 		bl	sdSendCommandP
 4592 3dd0 F303002A 		mov	w19, w0
 4593 3dd4 00030035 		cbnz	w0, .L1060
 4594 3dd8 80020091 		add	x0, x20, :lo12:.LANCHOR0
 4595 3ddc 00200091 		add	x0, x0, 8
 4596 3de0 013C40B9 		ldr	w1, [x0, 60]
 4597 3de4 61000034 		cbz	w1, .L996
 4598 3de8 004440B9 		ldr	w0, [x0, 68]
 4599 3dec 00192836 		tbz	x0, 5, .L1010
AARCH64 GAS  C:\Users\ldebo\AppData\Local\Temp\cchOloIf.s 			page 82


 4600              	.L996:
 4601 3df0 00048052 		mov	w0, 32
 4602 3df4 CFF0FF97 		bl	sdWaitForInterrupt
 4603 3df8 F303002A 		mov	w19, w0
 4604 3dfc 20020034 		cbz	w0, .L1017
 4605 3e00 810240F9 		ldr	x1, [x20, #:lo12:.LANCHOR0]
 4606 3e04 810100B4 		cbz	x1, .L1060
 4607 3e08 00000090 		adrp	x0, .LC8
 4608 3e0c 00000091 		add	x0, x0, :lo12:.LC8
 4609 3e10 20003FD6 		blr	x1
 4610 3e14 F55B46A9 		ldp	x21, x22, [sp, 96]
 4611 3e18 F96B48A9 		ldp	x25, x26, [sp, 128]
 4612 3e1c 5CFFFF17 		b	.L978
 4613              	.L1016:
 4614 3e20 01008052 		mov	w1, 0
 4615 3e24 E8FFFF17 		b	.L995
 4616              	.L1071:
 4617 3e28 40E30A91 		add	x0, x26, 696
 4618 3e2c 6DF2FF97 		bl	sdSendCommandP
 4619 3e30 E0FFFF17 		b	.L993
 4620              	.L1060:
 4621 3e34 F55B46A9 		ldp	x21, x22, [sp, 96]
 4622 3e38 F96B48A9 		ldp	x25, x26, [sp, 128]
 4623 3e3c 54FFFF17 		b	.L978
 4624              	.L1017:
 4625 3e40 FB7309A9 		stp	x27, x28, [sp, 144]
 4626 3e44 3B030091 		add	x27, x25, :lo12:RPi_IO_Base_Addr
 4627 3e48 9C020091 		add	x28, x20, :lo12:.LANCHOR0
 4628 3e4c 13D49052 		mov	w19, 34464
 4629 3e50 3300A072 		movk	w19, 0x1, lsl 16
 4630 3e54 9A048052 		mov	w26, 36
 4631 3e58 1A06A072 		movk	w26, 0x30, lsl 16
 4632 3e5c 01048052 		mov	w1, 32
 4633 3e60 0106A072 		movk	w1, 0x30, lsl 16
 4634 3e64 15008052 		mov	w21, 0
 4635              	.L997:
 4636 3e68 600340B9 		ldr	w0, [x27]
 4637 3e6c 02001A0B 		add	w2, w0, w26
 4638 3e70 0000010B 		add	w0, w0, w1
 4639 3e74 420040B9 		ldr	w2, [x2]
 4640 3e78 82094836 		tbz	x2, 9, .L998
 4641 3e7c 000040B9 		ldr	w0, [x0]
 4642 3e80 82230091 		add	x2, x28, 8
 4643 3e84 F5080035 		cbnz	w21, .L999
 4644 3e88 402400B9 		str	w0, [x2, 36]
 4645              	.L1000:
 4646 3e8c B5060011 		add	w21, w21, 1
 4647 3e90 BF0A0071 		cmp	w21, 2
 4648 3e94 A1FEFF54 		bne	.L997
 4649 3e98 95020091 		add	x21, x20, :lo12:.LANCHOR0
 4650 3e9c B5220091 		add	x21, x21, 8
 4651 3ea0 A02640B9 		ldr	w0, [x21, 36]
 4652 3ea4 002C48D3 		ubfx	x0, x0, 8, 4
 4653 3ea8 1F100071 		cmp	w0, 4
 4654 3eac A00B0054 		beq	.L1073
 4655              	.L1004:
 4656 3eb0 C0020091 		add	x0, x22, :lo12:.LANCHOR1
AARCH64 GAS  C:\Users\ldebo\AppData\Local\Temp\cchOloIf.s 			page 83


 4657 3eb4 01408052 		mov	w1, 512
 4658 3eb8 00E00491 		add	x0, x0, 312
 4659 3ebc 49F2FF97 		bl	sdSendCommandP
 4660 3ec0 F303002A 		mov	w19, w0
 4661 3ec4 60060035 		cbnz	w0, .L1066
 4662 3ec8 94020091 		add	x20, x20, :lo12:.LANCHOR0
 4663 3ecc 811240B9 		ldr	w1, [x20, 16]
 4664 3ed0 821640B9 		ldr	w2, [x20, 20]
 4665 3ed4 21408213 		extr	w1, w1, w2, 16
 4666 3ed8 B70500B4 		cbz	x23, .L1011
 4667 3edc 824240B9 		ldr	w2, [x20, 64]
 4668 3ee0 832A4039 		ldrb	w3, [x20, 10]
 4669 3ee4 E13B00B9 		str	w1, [sp, 56]
 4670 3ee8 01000090 		adrp	x1, .LANCHOR2
 4671 3eec 21000091 		add	x1, x1, :lo12:.LANCHOR2
 4672 3ef0 84264039 		ldrb	w4, [x20, 9]
 4673 3ef4 631C0012 		and	w3, w3, 255
 4674 3ef8 85224039 		ldrb	w5, [x20, 8]
 4675 3efc 863E4039 		ldrb	w6, [x20, 15]
 4676 3f00 841C0012 		and	w4, w4, 255
 4677 3f04 873A4039 		ldrb	w7, [x20, 14]
 4678 3f08 A51C0012 		and	w5, w5, 255
 4679 3f0c 8E364039 		ldrb	w14, [x20, 13]
 4680 3f10 C61C0012 		and	w6, w6, 255
 4681 3f14 8D324039 		ldrb	w13, [x20, 12]
 4682 3f18 E71C0012 		and	w7, w7, 255
 4683 3f1c 8C4E4039 		ldrb	w12, [x20, 19]
 4684 3f20 CE1D0012 		and	w14, w14, 255
 4685 3f24 8B1240B9 		ldr	w11, [x20, 16]
 4686 3f28 AD1D0012 		and	w13, w13, 255
 4687 3f2c 8A1240B9 		ldr	w10, [x20, 16]
 4688 3f30 8C1D0012 		and	w12, w12, 255
 4689 3f34 891640B9 		ldr	w9, [x20, 20]
 4690 3f38 881640B9 		ldr	w8, [x20, 20]
 4691 3f3c 6B5D54D3 		ubfx	x11, x11, 20, 4
 4692 3f40 217862F8 		ldr	x1, [x1, x2, lsl 3]
 4693 3f44 4A4D50D3 		ubfx	x10, x10, 16, 4
 4694 3f48 808E4079 		ldrh	w0, [x20, 70]
 4695 3f4c 290D0012 		and	w9, w9, 15
 4696 3f50 082D44D3 		ubfx	x8, x8, 4, 8
 4697 3f54 821E40F9 		ldr	x2, [x20, 56]
 4698 3f58 08411F11 		add	w8, w8, 2000
 4699 3f5c EE0300B9 		str	w14, [sp]
 4700 3f60 ED0B00B9 		str	w13, [sp, 8]
 4701 3f64 EC1300B9 		str	w12, [sp, 16]
 4702 3f68 42CC54D3 		ubfx	x2, x2, 20, 32
 4703 3f6c EB1B00B9 		str	w11, [sp, 24]
 4704 3f70 EA2300B9 		str	w10, [sp, 32]
 4705 3f74 E92B00B9 		str	w9, [sp, 40]
 4706 3f78 E83300B9 		str	w8, [sp, 48]
 4707 3f7c E04300B9 		str	w0, [sp, 64]
 4708 3f80 00000090 		adrp	x0, .LC16
 4709 3f84 00000091 		add	x0, x0, :lo12:.LC16
 4710 3f88 E0023FD6 		blr	x23
 4711              	.L1011:
 4712 3f8c 38090035 		cbnz	w24, .L1074
 4713              	.L1066:
AARCH64 GAS  C:\Users\ldebo\AppData\Local\Temp\cchOloIf.s 			page 84


 4714 3f90 F55B46A9 		ldp	x21, x22, [sp, 96]
 4715 3f94 F96B48A9 		ldp	x25, x26, [sp, 128]
 4716 3f98 FB7349A9 		ldp	x27, x28, [sp, 144]
 4717 3f9c FCFEFF17 		b	.L978
 4718              	.L999:
 4719 3fa0 402800B9 		str	w0, [x2, 40]
 4720 3fa4 BAFFFF17 		b	.L1000
 4721              	.L998:
 4722 3fa8 E1BF00B9 		str	w1, [sp, 188]
 4723 3fac 200080D2 		mov	x0, 1
 4724 3fb0 00000094 		bl	timer_wait
 4725 3fb4 73060071 		subs	w19, w19, #1
 4726 3fb8 E1BF40B9 		ldr	w1, [sp, 188]
 4727 3fbc 61F5FF54 		bne	.L997
 4728 3fc0 840240F9 		ldr	x4, [x20, #:lo12:.LANCHOR0]
 4729 3fc4 240900B4 		cbz	x4, .L1061
 4730 3fc8 610340B9 		ldr	w1, [x27]
 4731 3fcc E2870C32 		mov	w2, 3145776
 4732 3fd0 00000090 		adrp	x0, .LC14
 4733 3fd4 00000091 		add	x0, x0, :lo12:.LC14
 4734 3fd8 23004C11 		add	w3, w1, 3145728
 4735 3fdc 3A001A0B 		add	w26, w1, w26
 4736 3fe0 2200020B 		add	w2, w1, w2
 4737 3fe4 63400011 		add	w3, w3, 16
 4738 3fe8 53008052 		mov	w19, 2
 4739 3fec 410340B9 		ldr	w1, [x26]
 4740 3ff0 420040B9 		ldr	w2, [x2]
 4741 3ff4 630040B9 		ldr	w3, [x3]
 4742 3ff8 80003FD6 		blr	x4
 4743 3ffc 820240F9 		ldr	x2, [x20, #:lo12:.LANCHOR0]
 4744 4000 E103152A 		mov	w1, w21
 4745 4004 00000090 		adrp	x0, .LC15
 4746 4008 00000091 		add	x0, x0, :lo12:.LC15
 4747 400c 40003FD6 		blr	x2
 4748 4010 F55B46A9 		ldp	x21, x22, [sp, 96]
 4749 4014 F96B48A9 		ldp	x25, x26, [sp, 128]
 4750 4018 FB7349A9 		ldp	x27, x28, [sp, 144]
 4751 401c DCFEFF17 		b	.L978
 4752              	.L1073:
 4753 4020 BA3E40B9 		ldr	w26, [x21, 60]
 4754 4024 C0020091 		add	x0, x22, :lo12:.LANCHOR1
 4755 4028 5A030034 		cbz	w26, .L1075
 4756 402c E1031A2A 		mov	w1, w26
 4757 4030 00400B91 		add	x0, x0, 720
 4758 4034 EBF1FF97 		bl	sdSendCommandP
 4759 4038 E0050035 		cbnz	w0, .L1076
 4760 403c A04640B9 		ldr	w0, [x21, 68]
 4761 4040 A0042836 		tbz	x0, 5, .L1062
 4762              	.L1006:
 4763 4044 C0020091 		add	x0, x22, :lo12:.LANCHOR1
 4764 4048 41031F32 		orr	w1, w26, 2
 4765 404c 00000C91 		add	x0, x0, 768
 4766 4050 E4F1FF97 		bl	sdSendCommandP
 4767 4054 F303002A 		mov	w19, w0
 4768 4058 C0F9FF35 		cbnz	w0, .L1066
 4769 405c 80020091 		add	x0, x20, :lo12:.LANCHOR0
 4770 4060 00200091 		add	x0, x0, 8
AARCH64 GAS  C:\Users\ldebo\AppData\Local\Temp\cchOloIf.s 			page 85


 4771 4064 013C40B9 		ldr	w1, [x0, 60]
 4772 4068 61000034 		cbz	w1, .L1009
 4773 406c 004440B9 		ldr	w0, [x0, 68]
 4774 4070 C0042836 		tbz	x0, 5, .L1064
 4775              	.L1009:
 4776 4074 200340B9 		ldr	w0, [x25, #:lo12:RPi_IO_Base_Addr]
 4777 4078 00004C11 		add	w0, w0, 3145728
 4778 407c 00A00011 		add	w0, w0, 40
 4779 4080 010040B9 		ldr	w1, [x0]
 4780 4084 21001F32 		orr	w1, w1, 2
 4781 4088 010000B9 		str	w1, [x0]
 4782 408c 89FFFF17 		b	.L1004
 4783              	.L1075:
 4784 4090 01008052 		mov	w1, 0
 4785 4094 00E00A91 		add	x0, x0, 696
 4786 4098 D2F1FF97 		bl	sdSendCommandP
 4787 409c EAFFFF17 		b	.L1006
 4788              	.L1072:
 4789 40a0 F303002A 		mov	w19, w0
 4790 40a4 F55B46A9 		ldp	x21, x22, [sp, 96]
 4791 40a8 F96B48A9 		ldp	x25, x26, [sp, 128]
 4792 40ac B8FEFF17 		b	.L978
 4793              	.L1074:
 4794 40b0 E00317AA 		mov	x0, x23
 4795 40b4 00000094 		bl	LoadDrivePartition
 4796 40b8 1F1C0072 		tst	w0, 255
 4797 40bc 93018052 		mov	w19, 12
 4798 40c0 F55B46A9 		ldp	x21, x22, [sp, 96]
 4799 40c4 F313931A 		csel	w19, wzr, w19, ne
 4800 40c8 F96B48A9 		ldp	x25, x26, [sp, 128]
 4801 40cc FB7349A9 		ldp	x27, x28, [sp, 144]
 4802 40d0 AFFEFF17 		b	.L978
 4803              	.L1062:
 4804 40d4 FB7349A9 		ldp	x27, x28, [sp, 144]
 4805              	.L1008:
 4806 40d8 33008052 		mov	w19, 1
 4807 40dc F55B46A9 		ldp	x21, x22, [sp, 96]
 4808 40e0 F96B48A9 		ldp	x25, x26, [sp, 128]
 4809 40e4 AAFEFF17 		b	.L978
 4810              	.L1061:
 4811 40e8 F94340F9 		ldr	x25, [sp, 128]
 4812 40ec FB7349A9 		ldp	x27, x28, [sp, 144]
 4813 40f0 F2FEFF17 		b	.L1003
 4814              	.L1076:
 4815 40f4 F303002A 		mov	w19, w0
 4816 40f8 F55B46A9 		ldp	x21, x22, [sp, 96]
 4817 40fc F96B48A9 		ldp	x25, x26, [sp, 128]
 4818 4100 FB7349A9 		ldp	x27, x28, [sp, 144]
 4819 4104 A2FEFF17 		b	.L978
 4820              	.L1064:
 4821 4108 FB7349A9 		ldp	x27, x28, [sp, 144]
 4822              	.L1010:
 4823 410c 33018052 		mov	w19, 9
 4824 4110 F55B46A9 		ldp	x21, x22, [sp, 96]
 4825 4114 F96B48A9 		ldp	x25, x26, [sp, 128]
 4826 4118 9DFEFF17 		b	.L978
 4827              		.size	sdInitCard, .-sdInitCard
AARCH64 GAS  C:\Users\ldebo\AppData\Local\Temp\cchOloIf.s 			page 86


 4828              		.align	2
 4829 411c 1F2003D5 		.p2align 4,,15
 4830              		.global	sdCardCSD
 4831              		.type	sdCardCSD, %function
 4832              	sdCardCSD:
 4833 4120 01000090 		adrp	x1, .LANCHOR0
 4834 4124 21000091 		add	x1, x1, :lo12:.LANCHOR0
 4835 4128 20600091 		add	x0, x1, 24
 4836 412c 214040B9 		ldr	w1, [x1, 64]
 4837 4130 3F000071 		cmp	w1, 0
 4838 4134 00109F9A 		csel	x0, x0, xzr, ne
 4839 4138 C0035FD6 		ret
 4840              		.size	sdCardCSD, .-sdCardCSD
 4841              		.global	LOG_ERROR
 4842              		.comm	__errno,4,4
 4843              		.section	.rodata
 4844              		.align	3
 4845              		.set	.LANCHOR2,. + 0
 4846              		.type	SD_TYPE_NAME, %object
 4847              		.size	SD_TYPE_NAME, 40
 4848              	SD_TYPE_NAME:
 4849 0000 00000000 		.xword	.LC17
 4849      00000000 
 4850 0008 00000000 		.xword	.LC18
 4850      00000000 
 4851 0010 00000000 		.xword	.LC19
 4851      00000000 
 4852 0018 00000000 		.xword	.LC20
 4852      00000000 
 4853 0020 00000000 		.xword	.LC21
 4853      00000000 
 4854              		.data
 4855              		.align	3
 4856              		.set	.LANCHOR1,. + 0
 4857              		.type	sdCommandTable, %object
 4858              		.size	sdCommandTable, 936
 4859              	sdCommandTable:
 4860 0000 474F5F49 		.string	"GO_IDLE_STATE"
 4860      444C455F 
 4860      53544154 
 4860      4500
 4861 000e 0000     		.zero	2
 4862 0010 0000     		.zero	2
 4863 0012 00       		.byte	0
 4864 0013 00       		.byte	0
 4865 0014 00       		.byte	0
 4866 0015 00       		.zero	1
 4867 0016 0000     		.hword	0
 4868 0018 414C4C5F 		.string	"ALL_SEND_CID"
 4868      53454E44 
 4868      5F434944 
 4868      00
 4869 0025 000000   		.zero	3
 4870 0028 0000     		.zero	2
 4871 002a 01       		.byte	1
 4872 002b 02       		.byte	2
 4873 002c 00       		.byte	0
AARCH64 GAS  C:\Users\ldebo\AppData\Local\Temp\cchOloIf.s 			page 87


 4874 002d 00       		.zero	1
 4875 002e 0000     		.hword	0
 4876 0030 53454E44 		.string	"SEND_REL_ADDR"
 4876      5F52454C 
 4876      5F414444 
 4876      5200
 4877 003e 0000     		.zero	2
 4878 0040 0000     		.zero	2
 4879 0042 02       		.byte	2
 4880 0043 03       		.byte	3
 4881 0044 00       		.byte	0
 4882 0045 00       		.zero	1
 4883 0046 0000     		.hword	0
 4884 0048 5345545F 		.string	"SET_DSR"
 4884      44535200 
 4885 0050 00000000 		.zero	8
 4885      00000000 
 4886 0058 0000     		.zero	2
 4887 005a 00       		.byte	0
 4888 005b 04       		.byte	4
 4889 005c 00       		.byte	0
 4890 005d 00       		.zero	1
 4891 005e 0000     		.hword	0
 4892 0060 53574954 		.string	"SWITCH_FUNC"
 4892      43485F46 
 4892      554E4300 
 4893 006c 00000000 		.zero	4
 4894 0070 0000     		.zero	2
 4895 0072 02       		.byte	2
 4896 0073 06       		.byte	6
 4897 0074 00       		.byte	0
 4898 0075 00       		.zero	1
 4899 0076 0000     		.hword	0
 4900 0078 43415244 		.string	"CARD_SELECT"
 4900      5F53454C 
 4900      45435400 
 4901 0084 00000000 		.zero	4
 4902 0088 0000     		.zero	2
 4903 008a 03       		.byte	3
 4904 008b 07       		.byte	7
 4905 008c 01       		.byte	1
 4906 008d 00       		.zero	1
 4907 008e 0000     		.hword	0
 4908 0090 53454E44 		.string	"SEND_IF_COND"
 4908      5F49465F 
 4908      434F4E44 
 4908      00
 4909 009d 000000   		.zero	3
 4910 00a0 0000     		.zero	2
 4911 00a2 02       		.byte	2
 4912 00a3 08       		.byte	8
 4913 00a4 00       		.byte	0
 4914 00a5 00       		.zero	1
 4915 00a6 6400     		.hword	100
 4916 00a8 53454E44 		.string	"SEND_CSD"
 4916      5F435344 
 4916      00
AARCH64 GAS  C:\Users\ldebo\AppData\Local\Temp\cchOloIf.s 			page 88


 4917 00b1 00000000 		.zero	7
 4917      000000
 4918 00b8 0000     		.zero	2
 4919 00ba 01       		.byte	1
 4920 00bb 09       		.byte	9
 4921 00bc 01       		.byte	1
 4922 00bd 00       		.zero	1
 4923 00be 0000     		.hword	0
 4924 00c0 53454E44 		.string	"SEND_CID"
 4924      5F434944 
 4924      00
 4925 00c9 00000000 		.zero	7
 4925      000000
 4926 00d0 0000     		.zero	2
 4927 00d2 01       		.byte	1
 4928 00d3 0A       		.byte	10
 4929 00d4 01       		.byte	1
 4930 00d5 00       		.zero	1
 4931 00d6 0000     		.hword	0
 4932 00d8 564F4C54 		.string	"VOLT_SWITCH"
 4932      5F535749 
 4932      54434800 
 4933 00e4 00000000 		.zero	4
 4934 00e8 0000     		.zero	2
 4935 00ea 02       		.byte	2
 4936 00eb 0B       		.byte	11
 4937 00ec 00       		.byte	0
 4938 00ed 00       		.zero	1
 4939 00ee 0000     		.hword	0
 4940 00f0 53544F50 		.string	"STOP_TRANS"
 4940      5F545241 
 4940      4E5300
 4941 00fb 00000000 		.zero	5
 4941      00
 4942 0100 0000     		.zero	2
 4943 0102 03       		.byte	3
 4944 0103 0C       		.byte	12
 4945 0104 00       		.byte	0
 4946 0105 00       		.zero	1
 4947 0106 0000     		.hword	0
 4948 0108 53454E44 		.string	"SEND_STATUS"
 4948      5F535441 
 4948      54555300 
 4949 0114 00000000 		.zero	4
 4950 0118 0000     		.zero	2
 4951 011a 02       		.byte	2
 4952 011b 0D       		.byte	13
 4953 011c 01       		.byte	1
 4954 011d 00       		.zero	1
 4955 011e 0000     		.hword	0
 4956 0120 474F5F49 		.string	"GO_INACTIVE"
 4956      4E414354 
 4956      49564500 
 4957 012c 00000000 		.zero	4
 4958 0130 0000     		.zero	2
 4959 0132 00       		.byte	0
 4960 0133 0F       		.byte	15
AARCH64 GAS  C:\Users\ldebo\AppData\Local\Temp\cchOloIf.s 			page 89


 4961 0134 01       		.byte	1
 4962 0135 00       		.zero	1
 4963 0136 0000     		.hword	0
 4964 0138 5345545F 		.string	"SET_BLOCKLEN"
 4964      424C4F43 
 4964      4B4C454E 
 4964      00
 4965 0145 000000   		.zero	3
 4966 0148 0000     		.zero	2
 4967 014a 02       		.byte	2
 4968 014b 10       		.byte	16
 4969 014c 00       		.byte	0
 4970 014d 00       		.zero	1
 4971 014e 0000     		.hword	0
 4972 0150 52454144 		.string	"READ_SINGLE"
 4972      5F53494E 
 4972      474C4500 
 4973 015c 00000000 		.zero	4
 4974 0160 10       		.byte	16
 4975 0161 00       		.zero	1
 4976 0162 22       		.byte	34
 4977 0163 11       		.byte	17
 4978 0164 00       		.byte	0
 4979 0165 00       		.zero	1
 4980 0166 0000     		.hword	0
 4981 0168 52454144 		.string	"READ_MULTI"
 4981      5F4D554C 
 4981      544900
 4982 0173 00000000 		.zero	5
 4982      00
 4983 0178 32       		.byte	50
 4984 0179 00       		.zero	1
 4985 017a 22       		.byte	34
 4986 017b 12       		.byte	18
 4987 017c 00       		.byte	0
 4988 017d 00       		.zero	1
 4989 017e 0000     		.hword	0
 4990 0180 53454E44 		.string	"SEND_TUNING"
 4990      5F54554E 
 4990      494E4700 
 4991 018c 00000000 		.zero	4
 4992 0190 0000     		.zero	2
 4993 0192 02       		.byte	2
 4994 0193 13       		.byte	19
 4995 0194 00       		.byte	0
 4996 0195 00       		.zero	1
 4997 0196 0000     		.hword	0
 4998 0198 53504545 		.string	"SPEED_CLASS"
 4998      445F434C 
 4998      41535300 
 4999 01a4 00000000 		.zero	4
 5000 01a8 0000     		.zero	2
 5001 01aa 03       		.byte	3
 5002 01ab 14       		.byte	20
 5003 01ac 00       		.byte	0
 5004 01ad 00       		.zero	1
 5005 01ae 0000     		.hword	0
AARCH64 GAS  C:\Users\ldebo\AppData\Local\Temp\cchOloIf.s 			page 90


 5006 01b0 5345545F 		.string	"SET_BLOCKCNT"
 5006      424C4F43 
 5006      4B434E54 
 5006      00
 5007 01bd 000000   		.zero	3
 5008 01c0 0000     		.zero	2
 5009 01c2 02       		.byte	2
 5010 01c3 17       		.byte	23
 5011 01c4 00       		.byte	0
 5012 01c5 00       		.zero	1
 5013 01c6 0000     		.hword	0
 5014 01c8 57524954 		.string	"WRITE_SINGLE"
 5014      455F5349 
 5014      4E474C45 
 5014      00
 5015 01d5 000000   		.zero	3
 5016 01d8 0000     		.zero	2
 5017 01da 22       		.byte	34
 5018 01db 18       		.byte	24
 5019 01dc 00       		.byte	0
 5020 01dd 00       		.zero	1
 5021 01de 0000     		.hword	0
 5022 01e0 57524954 		.string	"WRITE_MULTI"
 5022      455F4D55 
 5022      4C544900 
 5023 01ec 00000000 		.zero	4
 5024 01f0 22       		.byte	34
 5025 01f1 00       		.zero	1
 5026 01f2 22       		.byte	34
 5027 01f3 19       		.byte	25
 5028 01f4 00       		.byte	0
 5029 01f5 00       		.zero	1
 5030 01f6 0000     		.hword	0
 5031 01f8 50524F47 		.string	"PROGRAM_CSD"
 5031      52414D5F 
 5031      43534400 
 5032 0204 00000000 		.zero	4
 5033 0208 0000     		.zero	2
 5034 020a 02       		.byte	2
 5035 020b 1B       		.byte	27
 5036 020c 00       		.byte	0
 5037 020d 00       		.zero	1
 5038 020e 0000     		.hword	0
 5039 0210 5345545F 		.string	"SET_WRITE_PR"
 5039      57524954 
 5039      455F5052 
 5039      00
 5040 021d 000000   		.zero	3
 5041 0220 0000     		.zero	2
 5042 0222 03       		.byte	3
 5043 0223 1C       		.byte	28
 5044 0224 00       		.byte	0
 5045 0225 00       		.zero	1
 5046 0226 0000     		.hword	0
 5047 0228 434C525F 		.string	"CLR_WRITE_PR"
 5047      57524954 
 5047      455F5052 
AARCH64 GAS  C:\Users\ldebo\AppData\Local\Temp\cchOloIf.s 			page 91


 5047      00
 5048 0235 000000   		.zero	3
 5049 0238 0000     		.zero	2
 5050 023a 03       		.byte	3
 5051 023b 1D       		.byte	29
 5052 023c 00       		.byte	0
 5053 023d 00       		.zero	1
 5054 023e 0000     		.hword	0
 5055 0240 534E445F 		.string	"SND_WRITE_PR"
 5055      57524954 
 5055      455F5052 
 5055      00
 5056 024d 000000   		.zero	3
 5057 0250 0000     		.zero	2
 5058 0252 02       		.byte	2
 5059 0253 1E       		.byte	30
 5060 0254 00       		.byte	0
 5061 0255 00       		.zero	1
 5062 0256 0000     		.hword	0
 5063 0258 45524153 		.string	"ERASE_WR_ST"
 5063      455F5752 
 5063      5F535400 
 5064 0264 00000000 		.zero	4
 5065 0268 0000     		.zero	2
 5066 026a 02       		.byte	2
 5067 026b 20       		.byte	32
 5068 026c 00       		.byte	0
 5069 026d 00       		.zero	1
 5070 026e 0000     		.hword	0
 5071 0270 45524153 		.string	"ERASE_WR_END"
 5071      455F5752 
 5071      5F454E44 
 5071      00
 5072 027d 000000   		.zero	3
 5073 0280 0000     		.zero	2
 5074 0282 02       		.byte	2
 5075 0283 21       		.byte	33
 5076 0284 00       		.byte	0
 5077 0285 00       		.zero	1
 5078 0286 0000     		.hword	0
 5079 0288 45524153 		.string	"ERASE"
 5079      4500
 5080 028e 00000000 		.zero	10
 5080      00000000 
 5080      0000
 5081 0298 0000     		.zero	2
 5082 029a 03       		.byte	3
 5083 029b 26       		.byte	38
 5084 029c 00       		.byte	0
 5085 029d 00       		.zero	1
 5086 029e 0000     		.hword	0
 5087 02a0 4C4F434B 		.string	"LOCK_UNLOCK"
 5087      5F554E4C 
 5087      4F434B00 
 5088 02ac 00000000 		.zero	4
 5089 02b0 0000     		.zero	2
 5090 02b2 02       		.byte	2
AARCH64 GAS  C:\Users\ldebo\AppData\Local\Temp\cchOloIf.s 			page 92


 5091 02b3 2A       		.byte	42
 5092 02b4 00       		.byte	0
 5093 02b5 00       		.zero	1
 5094 02b6 0000     		.hword	0
 5095 02b8 4150505F 		.string	"APP_CMD"
 5095      434D4400 
 5096 02c0 00000000 		.zero	8
 5096      00000000 
 5097 02c8 0000     		.zero	2
 5098 02ca 00       		.byte	0
 5099 02cb 37       		.byte	55
 5100 02cc 00       		.byte	0
 5101 02cd 00       		.zero	1
 5102 02ce 6400     		.hword	100
 5103 02d0 4150505F 		.string	"APP_CMD"
 5103      434D4400 
 5104 02d8 00000000 		.zero	8
 5104      00000000 
 5105 02e0 0000     		.zero	2
 5106 02e2 02       		.byte	2
 5107 02e3 37       		.byte	55
 5108 02e4 01       		.byte	1
 5109 02e5 00       		.zero	1
 5110 02e6 0000     		.hword	0
 5111 02e8 47454E5F 		.string	"GEN_CMD"
 5111      434D4400 
 5112 02f0 00000000 		.zero	8
 5112      00000000 
 5113 02f8 0000     		.zero	2
 5114 02fa 02       		.byte	2
 5115 02fb 38       		.byte	56
 5116 02fc 00       		.byte	0
 5117 02fd 00       		.zero	1
 5118 02fe 0000     		.hword	0
 5119 0300 5345545F 		.string	"SET_BUS_WIDTH"
 5119      4255535F 
 5119      57494454 
 5119      4800
 5120 030e 0000     		.zero	2
 5121 0310 0000     		.zero	2
 5122 0312 02       		.byte	2
 5123 0313 06       		.byte	6
 5124 0314 00       		.byte	0
 5125 0315 00       		.zero	1
 5126 0316 0000     		.hword	0
 5127 0318 53445F53 		.string	"SD_STATUS"
 5127      54415455 
 5127      5300
 5128 0322 00000000 		.zero	6
 5128      0000
 5129 0328 0000     		.zero	2
 5130 032a 02       		.byte	2
 5131 032b 0D       		.byte	13
 5132 032c 01       		.byte	1
 5133 032d 00       		.zero	1
 5134 032e 0000     		.hword	0
 5135 0330 53454E44 		.string	"SEND_NUM_WRBL"
AARCH64 GAS  C:\Users\ldebo\AppData\Local\Temp\cchOloIf.s 			page 93


 5135      5F4E554D 
 5135      5F575242 
 5135      4C00
 5136 033e 0000     		.zero	2
 5137 0340 0000     		.zero	2
 5138 0342 02       		.byte	2
 5139 0343 16       		.byte	22
 5140 0344 00       		.byte	0
 5141 0345 00       		.zero	1
 5142 0346 0000     		.hword	0
 5143 0348 53454E44 		.string	"SEND_NUM_ERS"
 5143      5F4E554D 
 5143      5F455253 
 5143      00
 5144 0355 000000   		.zero	3
 5145 0358 0000     		.zero	2
 5146 035a 02       		.byte	2
 5147 035b 17       		.byte	23
 5148 035c 00       		.byte	0
 5149 035d 00       		.zero	1
 5150 035e 0000     		.hword	0
 5151 0360 53445F53 		.string	"SD_SENDOPCOND"
 5151      454E444F 
 5151      50434F4E 
 5151      4400
 5152 036e 0000     		.zero	2
 5153 0370 0000     		.zero	2
 5154 0372 02       		.byte	2
 5155 0373 29       		.byte	41
 5156 0374 00       		.byte	0
 5157 0375 00       		.zero	1
 5158 0376 E803     		.hword	1000
 5159 0378 5345545F 		.string	"SET_CLR_DET"
 5159      434C525F 
 5159      44455400 
 5160 0384 00000000 		.zero	4
 5161 0388 0000     		.zero	2
 5162 038a 02       		.byte	2
 5163 038b 2A       		.byte	42
 5164 038c 00       		.byte	0
 5165 038d 00       		.zero	1
 5166 038e 0000     		.hword	0
 5167 0390 53454E44 		.string	"SEND_SCR"
 5167      5F534352 
 5167      00
 5168 0399 00000000 		.zero	7
 5168      000000
 5169 03a0 10       		.byte	16
 5170 03a1 00       		.zero	1
 5171 03a2 22       		.byte	34
 5172 03a3 33       		.byte	51
 5173 03a4 00       		.byte	0
 5174 03a5 00       		.zero	1
 5175 03a6 0000     		.hword	0
 5176              		.bss
 5177              		.align	3
 5178              		.set	.LANCHOR0,. + 0
AARCH64 GAS  C:\Users\ldebo\AppData\Local\Temp\cchOloIf.s 			page 94


 5179              		.type	LOG_ERROR, %object
 5180              		.size	LOG_ERROR, 8
 5181              	LOG_ERROR:
 5182 0000 00000000 		.zero	8
 5182      00000000 
 5183              		.type	sdCard, %object
 5184              		.size	sdCard, 120
 5185              	sdCard:
 5186 0008 00000000 		.zero	120
 5186      00000000 
 5186      00000000 
 5186      00000000 
 5186      00000000 
 5187              		.type	intSearchRecord, %object
 5188              		.size	intSearchRecord, 3136
 5189              	intSearchRecord:
 5190 0080 00000000 		.zero	3136
 5190      00000000 
 5190      00000000 
 5190      00000000 
 5190      00000000 
 5191              		.type	intFileIORecord, %object
 5192              		.size	intFileIORecord, 6368
 5193              	intFileIORecord:
 5194 0cc0 00000000 		.zero	6368
 5194      00000000 
 5194      00000000 
 5194      00000000 
 5194      00000000 
 5195              		.section	.rodata.str1.8,"aMS",@progbits,1
 5196              		.align	3
 5197              	.LC0:
 5198 0000 454D4D43 		.string	"EMMC: Wait for data aborted: %08x %08x %08x\n"
 5198      3A205761 
 5198      69742066 
 5198      6F722064 
 5198      61746120 
 5199 002d 000000   		.zero	3
 5200              	.LC1:
 5201 0030 454D4D43 		.string	"EMMC: Wait for interrupt %08x timeout: %08x %08x %08x\n"
 5201      3A205761 
 5201      69742066 
 5201      6F722069 
 5201      6E746572 
 5202 0067 00       		.zero	1
 5203              	.LC2:
 5204 0068 454D4D43 		.string	"EMMC: Error waiting for interrupt: %08x %08x %08x\n"
 5204      3A204572 
 5204      726F7220 
 5204      77616974 
 5204      696E6720 
 5205 009b 00000000 		.zero	5
 5205      00
 5206              	.LC3:
 5207 00a0 454D4D43 		.string	"EMMC: Set clock: timeout waiting for inhibit flags. Status %08x.\n"
 5207      3A205365 
 5207      7420636C 
AARCH64 GAS  C:\Users\ldebo\AppData\Local\Temp\cchOloIf.s 			page 95


 5207      6F636B3A 
 5207      2074696D 
 5208 00e2 00000000 		.zero	6
 5208      0000
 5209              	.LC4:
 5210 00e8 454D4D43 		.string	"EMMC: ERROR: failed to get stable clock.\n"
 5210      3A204552 
 5210      524F523A 
 5210      20666169 
 5210      6C656420 
 5211 0112 00000000 		.zero	6
 5211      0000
 5212              	.LC5:
 5213 0118 454D4D43 		.string	"EMMC: Wait for command aborted: %08x %08x %08x\n"
 5213      3A205761 
 5213      69742066 
 5213      6F722063 
 5213      6F6D6D61 
 5214              	.LC6:
 5215 0148 454D4D43 		.string	"EMMC: ACMD41 returned non-timeout error %d\n"
 5215      3A204143 
 5215      4D443431 
 5215      20726574 
 5215      75726E65 
 5216 0174 00000000 		.zero	4
 5217              	.LC7:
 5218 0178 454D4D43 		.string	"EMMC: ERROR: failed to reset.\n"
 5218      3A204552 
 5218      524F523A 
 5218      20666169 
 5218      6C656420 
 5219 0197 00       		.zero	1
 5220              	.LC8:
 5221 0198 454D4D43 		.string	"EMMC: Timeout waiting for ready to read\n"
 5221      3A205469 
 5221      6D656F75 
 5221      74207761 
 5221      6974696E 
 5222 01c1 00000000 		.zero	7
 5222      000000
 5223              	.LC9:
 5224 01c8 454D4D43 		.string	"EMMC: Timeout waiting for data done\n"
 5224      3A205469 
 5224      6D656F75 
 5224      74207761 
 5224      6974696E 
 5225 01ed 000000   		.zero	3
 5226              	.LC10:
 5227 01f0 46415433 		.string	"FAT32 Volume Label: %s, ID: %08x\n"
 5227      3220566F 
 5227      6C756D65 
 5227      204C6162 
 5227      656C3A20 
 5228 0212 00000000 		.zero	6
 5228      0000
 5229              	.LC11:
 5230 0218 46415431 		.string	"FAT12/16 Volume Label: %s, Volume ID %08x\n"
AARCH64 GAS  C:\Users\ldebo\AppData\Local\Temp\cchOloIf.s 			page 96


 5230      322F3136 
 5230      20566F6C 
 5230      756D6520 
 5230      4C616265 
 5231 0243 00000000 		.zero	5
 5231      00
 5232              	.LC12:
 5233 0248 46697273 		.string	"First Sector: %lu, Data Sectors: %lu, TotalClusters: %lu, RootCluster: %lu\n"
 5233      74205365 
 5233      63746F72 
 5233      3A20256C 
 5233      752C2044 
 5234 0294 00000000 		.zero	4
 5235              	.LC13:
 5236 0298 454D4D43 		.string	"EMMC: Timeout waiting for erase: %08x %08x\n"
 5236      3A205469 
 5236      6D656F75 
 5236      74207761 
 5236      6974696E 
 5237 02c4 00000000 		.zero	4
 5238              	.LC14:
 5239 02c8 454D4D43 		.string	"EMMC: SEND_SCR ERR: %08x %08x %08x\n"
 5239      3A205345 
 5239      4E445F53 
 5239      43522045 
 5239      52523A20 
 5240 02ec 00000000 		.zero	4
 5241              	.LC15:
 5242 02f0 454D4D43 		.string	"EMMC: Reading SCR, only read %d words\n"
 5242      3A205265 
 5242      6164696E 
 5242      67205343 
 5242      522C206F 
 5243 0317 00       		.zero	1
 5244              	.LC16:
 5245 0318 454D4D43 		.string	"EMMC: SD Card %s %dMb mfr %d '%c%c:%c%c%c%c%c' r%d.%d %d/%d, #%08x RCA %04x\n"
 5245      3A205344 
 5245      20436172 
 5245      64202573 
 5245      2025644D 
 5246 0365 000000   		.zero	3
 5247              	.LC17:
 5248 0368 556E6B6E 		.string	"Unknown"
 5248      6F776E00 
 5249              	.LC18:
 5250 0370 4D4D4300 		.string	"MMC"
 5251 0374 00000000 		.zero	4
 5252              	.LC19:
 5253 0378 54797065 		.string	"Type 1"
 5253      203100
 5254 037f 00       		.zero	1
 5255              	.LC20:
 5256 0380 54797065 		.string	"Type 2 SC"
 5256      20322053 
 5256      4300
 5257 038a 00000000 		.zero	6
 5257      0000
AARCH64 GAS  C:\Users\ldebo\AppData\Local\Temp\cchOloIf.s 			page 97


 5258              	.LC21:
 5259 0390 54797065 		.string	"Type 2 HC"
 5259      20322048 
 5259      4300
 5260              		.ident	"GCC: (Linaro GCC 7.1-2017.05) 7.1.1 20170510"
AARCH64 GAS  C:\Users\ldebo\AppData\Local\Temp\cchOloIf.s 			page 98


DEFINED SYMBOLS
                            *ABS*:0000000000000000 SDCard.c
C:\Users\ldebo\AppData\Local\Temp\cchOloIf.s:4      .text:0000000000000000 $x
C:\Users\ldebo\AppData\Local\Temp\cchOloIf.s:7      .text:0000000000000000 sdWaitForData
C:\Users\ldebo\AppData\Local\Temp\cchOloIf.s:96     .text:0000000000000130 sdWaitForInterrupt
C:\Users\ldebo\AppData\Local\Temp\cchOloIf.s:219    .text:00000000000002e0 sdSetClock
C:\Users\ldebo\AppData\Local\Temp\cchOloIf.s:398    .text:0000000000000540 ReadLFNEntry
C:\Users\ldebo\AppData\Local\Temp\cchOloIf.s:499    .text:00000000000006a0 SetFindDataFromFATEntry.part.0
C:\Users\ldebo\AppData\Local\Temp\cchOloIf.s:583    .text:00000000000007e0 sdSendCommandP
C:\Users\ldebo\AppData\Local\Temp\cchOloIf.s:929    .text:0000000000000ce0 sdAppSendOpCond
C:\Users\ldebo\AppData\Local\Temp\cchOloIf.s:1101   .text:0000000000000f10 sdResetCard
C:\Users\ldebo\AppData\Local\Temp\cchOloIf.s:1212   .text:00000000000010a0 getSetNextCluster.constprop.9
C:\Users\ldebo\AppData\Local\Temp\cchOloIf.s:1309   .text:00000000000011f0 sdTransferBlocks.constprop.10
C:\Users\ldebo\AppData\Local\Temp\cchOloIf.s:1486   .text.unlikely:0000000000000000 $x
C:\Users\ldebo\AppData\Local\Temp\cchOloIf.s:1488   .text.unlikely:0000000000000000 LoadDrivePartition
C:\Users\ldebo\AppData\Local\Temp\cchOloIf.s:1614   .text:0000000000001470 sdTransferBlocks
C:\Users\ldebo\AppData\Local\Temp\cchOloIf.s:1879   .text:0000000000001810 sdClearBlocks
C:\Users\ldebo\AppData\Local\Temp\cchOloIf.s:1992   .text:0000000000001990 getSetNextCluster
C:\Users\ldebo\AppData\Local\Temp\cchOloIf.s:2170   .text:0000000000001c20 WildcardMatch
C:\Users\ldebo\AppData\Local\Temp\cchOloIf.s:2304   .text:0000000000001de0 LocateFATEntry
C:\Users\ldebo\AppData\Local\Temp\cchOloIf.s:2763   .text:0000000000002460 LocateFATEntry.constprop.8
C:\Users\ldebo\AppData\Local\Temp\cchOloIf.s:3146   .text:00000000000029b0 sdFindFirstFile
C:\Users\ldebo\AppData\Local\Temp\cchOloIf.s:3434   .text:0000000000002dd0 sdFindNextFile
C:\Users\ldebo\AppData\Local\Temp\cchOloIf.s:3506   .text:0000000000002ec0 sdFindClose
C:\Users\ldebo\AppData\Local\Temp\cchOloIf.s:3532   .text:0000000000002f10 sdCreateFile
C:\Users\ldebo\AppData\Local\Temp\cchOloIf.s:5193   .bss:0000000000000cc0 intFileIORecord
C:\Users\ldebo\AppData\Local\Temp\cchOloIf.s:3827   .text:0000000000003340 sdReadFile
C:\Users\ldebo\AppData\Local\Temp\cchOloIf.s:4066   .text:0000000000003690 sdCloseHandle
C:\Users\ldebo\AppData\Local\Temp\cchOloIf.s:4091   .text:00000000000036d0 sdSetFilePointer
C:\Users\ldebo\AppData\Local\Temp\cchOloIf.s:4393   .text:0000000000003b20 sdGetFileSize
C:\Users\ldebo\AppData\Local\Temp\cchOloIf.s:4415   .text:0000000000003b60 sdInitCard
C:\Users\ldebo\AppData\Local\Temp\cchOloIf.s:4832   .text:0000000000004120 sdCardCSD
C:\Users\ldebo\AppData\Local\Temp\cchOloIf.s:5181   .bss:0000000000000000 LOG_ERROR
                            *COM*:0000000000000004 __errno
C:\Users\ldebo\AppData\Local\Temp\cchOloIf.s:4844   .rodata:0000000000000000 $d
C:\Users\ldebo\AppData\Local\Temp\cchOloIf.s:4848   .rodata:0000000000000000 SD_TYPE_NAME
C:\Users\ldebo\AppData\Local\Temp\cchOloIf.s:4855   .data:0000000000000000 $d
C:\Users\ldebo\AppData\Local\Temp\cchOloIf.s:4859   .data:0000000000000000 sdCommandTable
C:\Users\ldebo\AppData\Local\Temp\cchOloIf.s:5177   .bss:0000000000000000 $d
C:\Users\ldebo\AppData\Local\Temp\cchOloIf.s:5185   .bss:0000000000000008 sdCard
C:\Users\ldebo\AppData\Local\Temp\cchOloIf.s:5189   .bss:0000000000000080 intSearchRecord
C:\Users\ldebo\AppData\Local\Temp\cchOloIf.s:5196   .rodata.str1.8:0000000000000000 $d

UNDEFINED SYMBOLS
RPi_IO_Base_Addr
timer_getTickCount
tick_difference
timer_wait
wctob
__locale_ctype_ptr
strchr
AARCH64 GAS  C:\Users\ldebo\AppData\Local\Temp\cchOloIf.s 			page 1


   1              		.arch armv8-a
   2              		.file	"rpi-GLES.c"
   3              		.text
   4              		.align	2
   5              		.p2align 4,,15
   6              		.type	ParseWaveFrontMesh, %function
   7              	ParseWaveFrontMesh:
   8 0000 FF430FD1 		sub	sp, sp, #976
   9 0004 06008052 		mov	w6, 0
  10 0008 05108052 		mov	w5, 128
  11 000c 64008052 		mov	w4, 3
  12 0010 03008052 		mov	w3, 0
  13 0014 F35300A9 		stp	x19, x20, [sp]
  14 0018 F30301AA 		mov	x19, x1
  15 001c F55B01A9 		stp	x21, x22, [sp, 16]
  16 0020 551C0012 		and	w21, w2, 255
  17 0024 FE2B00F9 		str	x30, [sp, 80]
  18 0028 02008052 		mov	w2, 0
  19 002c E82F00FD 		str	d8, [sp, 88]
  20 0030 0840201E 		fmov	s8, s0
  21 0034 362C40B9 		ldr	w22, [x1, 44]
  22 0038 212040F9 		ldr	x1, [x1, 64]
  23 003c E13B00F9 		str	x1, [sp, 112]
  24 0040 612640F9 		ldr	x1, [x19, 72]
  25 0044 E13700F9 		str	x1, [sp, 104]
  26 0048 0100B052 		mov	w1, -2147483648
  27 004c 00000094 		bl	sdCreateFile
  28 0050 40010035 		cbnz	w0, .L2
  29              	.L6:
  30 0054 15008052 		mov	w21, 0
  31              	.L3:
  32 0058 E003152A 		mov	w0, w21
  33 005c FE2B40F9 		ldr	x30, [sp, 80]
  34 0060 F35340A9 		ldp	x19, x20, [sp]
  35 0064 F55B41A9 		ldp	x21, x22, [sp, 16]
  36 0068 E82F40FD 		ldr	d8, [sp, 88]
  37 006c FF430F91 		add	sp, sp, 976
  38 0070 C0035FD6 		ret
  39 0074 1F2003D5 		.p2align 3
  40              	.L2:
  41 0078 F76302A9 		stp	x23, x24, [sp, 32]
  42 007c F403002A 		mov	w20, w0
  43 0080 F96B03A9 		stp	x25, x26, [sp, 48]
  44 0084 010080D2 		mov	x1, 0
  45 0088 FB7304A9 		stp	x27, x28, [sp, 64]
  46 008c 00000094 		bl	sdGetFileSize
  47 0090 8149001C 		ldr	s1, .LC2
  48 0094 F703002A 		mov	w23, w0
  49 0098 6049001C 		ldr	s0, .LC3
  50 009c F8430391 		add	x24, sp, 208
  51 00a0 1B0080D2 		mov	x27, 0
  52 00a4 F603162A 		uxtw	x22, w22
  53 00a8 FA031BAA 		mov	x26, x27
  54 00ac F903172A 		mov	w25, w23
  55 00b0 000B0091 		add	x0, x24, 2
  56 00b4 1C0080D2 		mov	x28, 0
  57 00b8 E03F00F9 		str	x0, [sp, 120]
AARCH64 GAS  C:\Users\ldebo\AppData\Local\Temp\cchOloIf.s 			page 2


  58 00bc F58B00B9 		str	w21, [sp, 136]
  59 00c0 6182162D 		stp	s1, s0, [x19, 180]
  60 00c4 6182172D 		stp	s1, s0, [x19, 188]
  61 00c8 6182182D 		stp	s1, s0, [x19, 196]
  62              	.L59:
  63 00cc 350080D2 		mov	x21, 1
  64 00d0 0E000014 		b	.L7
  65 00d4 1F2003D5 		.p2align 3
  66              	.L4:
  67 00d8 0203158B 		add	x2, x24, x21
  68 00dc 81034039 		ldrb	w1, [x28]
  69 00e0 BFFE0371 		cmp	w21, 255
  70 00e4 E303152A 		mov	w3, w21
  71 00e8 E0879F1A 		cset	w0, ls
  72 00ec 3F280071 		cmp	w1, 10
  73 00f0 41F01F38 		strb	w1, [x2, -1]
  74 00f4 9C070091 		add	x28, x28, 1
  75 00f8 39070051 		sub	w25, w25, #1
  76 00fc 00109F1A 		csel	w0, w0, wzr, ne
  77 0100 B5060091 		add	x21, x21, 1
  78 0104 60030034 		cbz	w0, .L116
  79              	.L7:
  80 0108 9F031AEB 		cmp	x28, x26
  81 010c 61FEFF54 		bne	.L4
  82 0110 1A408052 		mov	w26, 512
  83 0114 3FFF0771 		cmp	w25, 511
  84 0118 F7031A2A 		mov	w23, w26
  85 011c 68000054 		bhi	.L5
  86 0120 FA03192A 		mov	w26, w25
  87 0124 F703192A 		mov	w23, w25
  88              	.L5:
  89 0128 E0430791 		add	x0, sp, 464
  90 012c 040080D2 		mov	x4, 0
  91 0130 E10300AA 		mov	x1, x0
  92 0134 1AC03A8B 		add	x26, x0, x26, sxtw
  93 0138 E3F30291 		add	x3, sp, 188
  94 013c E203172A 		mov	w2, w23
  95 0140 E003142A 		mov	w0, w20
  96 0144 FC430791 		add	x28, sp, 464
  97 0148 00000094 		bl	sdReadFile
  98 014c 1F1C0072 		tst	w0, 255
  99 0150 80000054 		beq	.L113
 100 0154 E0BF40B9 		ldr	w0, [sp, 188]
 101 0158 1F00176B 		cmp	w0, w23
 102 015c E0FBFF54 		beq	.L4
 103              	.L113:
 104 0160 F76342A9 		ldp	x23, x24, [sp, 32]
 105 0164 F96B43A9 		ldp	x25, x26, [sp, 48]
 106 0168 FB7344A9 		ldp	x27, x28, [sp, 64]
 107 016c BAFFFF17 		b	.L6
 108              		.p2align 3
 109              	.L116:
 110 0170 1FCB2338 		strb	wzr, [x24, w3, sxtw]
 111 0174 E0434339 		ldrb	w0, [sp, 208]
 112 0178 1F980171 		cmp	w0, 102
 113 017c 600E0054 		beq	.L9
 114 0180 1FD80171 		cmp	w0, 118
AARCH64 GAS  C:\Users\ldebo\AppData\Local\Temp\cchOloIf.s 			page 3


 115 0184 A1010054 		bne	.L8
 116 0188 E0474339 		ldrb	w0, [sp, 209]
 117 018c 1F800071 		cmp	w0, 32
 118 0190 20280054 		beq	.L117
 119 0194 1FD00171 		cmp	w0, 116
 120 0198 C0180054 		beq	.L118
 121 019c 1FB80171 		cmp	w0, 110
 122 01a0 41140054 		bne	.L29
 123 01a4 E08B40B9 		ldr	w0, [sp, 136]
 124 01a8 80000035 		cbnz	w0, .L8
 125 01ac 609A40B9 		ldr	w0, [x19, 152]
 126 01b0 00040011 		add	w0, w0, 1
 127 01b4 609A00B9 		str	w0, [x19, 152]
 128              		.p2align 3
 129              	.L8:
 130 01b8 B9F8FF35 		cbnz	w25, .L59
 131              	.L123:
 132 01bc F58B40B9 		ldr	w21, [sp, 136]
 133 01c0 E003142A 		mov	w0, w20
 134 01c4 00000094 		bl	sdCloseHandle
 135 01c8 B5370035 		cbnz	w21, .L60
 136 01cc 60A240B9 		ldr	w0, [x19, 160]
 137 01d0 60000034 		cbz	w0, .L61
 138 01d4 609640B9 		ldr	w0, [x19, 148]
 139 01d8 203B0034 		cbz	w0, .L62
 140              	.L61:
 141 01dc 60A640B9 		ldr	w0, [x19, 164]
 142 01e0 60000034 		cbz	w0, .L63
 143 01e4 609A40B9 		ldr	w0, [x19, 152]
 144 01e8 A03A0034 		cbz	w0, .L62
 145              	.L63:
 146 01ec 609240B9 		ldr	w0, [x19, 144]
 147 01f0 403D0034 		cbz	w0, .L119
 148 01f4 718A562D 		ldp	s17, s2, [x19, 180]
 149 01f8 05102C1E 		fmov	s5, 5.0e-1
 150 01fc 7086572D 		ldp	s16, s1, [x19, 188]
 151 0200 00000090 		adrp	x0, .LC18
 152 0204 00000091 		add	x0, x0, :lo12:.LC18
 153 0208 4638311E 		fsub	s6, s2, s17
 154 020c 4228311E 		fadd	s2, s2, s17
 155 0210 6782582D 		ldp	s7, s0, [x19, 196]
 156 0214 2338301E 		fsub	s3, s1, s16
 157 0218 2128301E 		fadd	s1, s1, s16
 158 021c 14000090 		adrp	x20, .LC0
 159 0220 94020091 		add	x20, x20, :lo12:.LC0
 160 0224 4208251E 		fmul	s2, s2, s5
 161 0228 16000090 		adrp	x22, .LC1
 162 022c D6020091 		add	x22, x22, :lo12:.LC1
 163 0230 7020261E 		fcmpe	s3, s6
 164 0234 0438271E 		fsub	s4, s0, s7
 165 0238 0028271E 		fadd	s0, s0, s7
 166 023c 2108251E 		fmul	s1, s1, s5
 167 0240 35008052 		mov	w21, 1
 168 0244 63CC261E 		fcsel	s3, s3, s6, gt
 169 0248 0008251E 		fmul	s0, s0, s5
 170 024c 6286192D 		stp	s2, s1, [x19, 204]
 171 0250 9020231E 		fcmpe	s4, s3
AARCH64 GAS  C:\Users\ldebo\AppData\Local\Temp\cchOloIf.s 			page 4


 172 0254 84CC231E 		fcsel	s4, s4, s3, gt
 173 0258 0819241E 		fdiv	s8, s8, s4
 174 025c 60A21A2D 		stp	s0, s8, [x19, 212]
 175 0260 00000094 		bl	printf
 176 0264 619240B9 		ldr	w1, [x19, 144]
 177 0268 00000090 		adrp	x0, .LC19
 178 026c 00000091 		add	x0, x0, :lo12:.LC19
 179 0270 00000094 		bl	printf
 180 0274 619640B9 		ldr	w1, [x19, 148]
 181 0278 00000090 		adrp	x0, .LC15
 182 027c 00000091 		add	x0, x0, :lo12:.LC15
 183 0280 00000094 		bl	printf
 184 0284 619A40B9 		ldr	w1, [x19, 152]
 185 0288 00000090 		adrp	x0, .LC16
 186 028c 00000091 		add	x0, x0, :lo12:.LC16
 187 0290 00000094 		bl	printf
 188 0294 620E5529 		ldp	w2, w3, [x19, 168]
 189 0298 00000090 		adrp	x0, .LC20
 190 029c 00000091 		add	x0, x0, :lo12:.LC20
 191 02a0 64B240B9 		ldr	w4, [x19, 176]
 192 02a4 619E40B9 		ldr	w1, [x19, 156]
 193 02a8 00000094 		bl	printf
 194 02ac 60A240B9 		ldr	w0, [x19, 160]
 195 02b0 1F000071 		cmp	w0, 0
 196 02b4 00000090 		adrp	x0, .LC21
 197 02b8 00000091 		add	x0, x0, :lo12:.LC21
 198 02bc C102949A 		csel	x1, x22, x20, eq
 199 02c0 00000094 		bl	printf
 200 02c4 61A640B9 		ldr	w1, [x19, 164]
 201 02c8 00000090 		adrp	x0, .LC22
 202 02cc 00000091 		add	x0, x0, :lo12:.LC22
 203 02d0 3F000071 		cmp	w1, 0
 204 02d4 C102949A 		csel	x1, x22, x20, eq
 205 02d8 00000094 		bl	printf
 206 02dc 6182562D 		ldp	s1, s0, [x19, 180]
 207 02e0 00000090 		adrp	x0, .LC23
 208 02e4 00000091 		add	x0, x0, :lo12:.LC23
 209 02e8 2100381E 		fcvtzs	w1, s1
 210 02ec 0200381E 		fcvtzs	w2, s0
 211 02f0 00000094 		bl	printf
 212 02f4 6182572D 		ldp	s1, s0, [x19, 188]
 213 02f8 00000090 		adrp	x0, .LC24
 214 02fc 00000091 		add	x0, x0, :lo12:.LC24
 215 0300 2100381E 		fcvtzs	w1, s1
 216 0304 0200381E 		fcvtzs	w2, s0
 217 0308 00000094 		bl	printf
 218 030c 6182582D 		ldp	s1, s0, [x19, 196]
 219 0310 00000090 		adrp	x0, .LC25
 220 0314 00000091 		add	x0, x0, :lo12:.LC25
 221 0318 2100381E 		fcvtzs	w1, s1
 222 031c 0200381E 		fcvtzs	w2, s0
 223 0320 00000094 		bl	printf
 224 0324 60DA40BD 		ldr	s0, [x19, 216]
 225 0328 00000090 		adrp	x0, .LC26
 226 032c 00000091 		add	x0, x0, :lo12:.LC26
 227 0330 0100381E 		fcvtzs	w1, s0
 228 0334 00000094 		bl	printf
AARCH64 GAS  C:\Users\ldebo\AppData\Local\Temp\cchOloIf.s 			page 5


 229 0338 F76342A9 		ldp	x23, x24, [sp, 32]
 230 033c F96B43A9 		ldp	x25, x26, [sp, 48]
 231 0340 FB7344A9 		ldp	x27, x28, [sp, 64]
 232 0344 45FFFF17 		b	.L3
 233              		.p2align 3
 234              	.L9:
 235 0348 00000090 		adrp	x0, .LC8
 236 034c 01000091 		add	x1, x0, :lo12:.LC8
 237 0350 E03F40F9 		ldr	x0, [sp, 120]
 238 0354 E4D30291 		add	x4, sp, 180
 239 0358 E3E30291 		add	x3, sp, 184
 240 035c E2C30291 		add	x2, sp, 176
 241 0360 00000094 		bl	sscanf
 242 0364 1F0C0071 		cmp	w0, 3
 243 0368 41030054 		bne	.L30
 244 036c E08B40B9 		ldr	w0, [sp, 136]
 245 0370 00050034 		cbz	w0, .L120
 246              	.L32:
 247 0374 E0434339 		ldrb	w0, [sp, 208]
 248 0378 00300034 		cbz	w0, .L37
 249 037c E10318AA 		mov	x1, x24
 250 0380 17008052 		mov	w23, 0
 251 0384 1F2003D5 		.p2align 3
 252              	.L39:
 253 0388 1F800071 		cmp	w0, 32
 254 038c 201C4038 		ldrb	w0, [x1, 1]!
 255 0390 F716971A 		cinc	w23, w23, eq
 256 0394 A0FFFF35 		cbnz	w0, .L39
 257 0398 E00E0051 		sub	w0, w23, #3
 258 039c 1F080071 		cmp	w0, 2
 259 03a0 C82E0054 		bhi	.L37
 260 03a4 FF0E0071 		cmp	w23, 3
 261 03a8 E08B40B9 		ldr	w0, [sp, 136]
 262 03ac 60070054 		beq	.L121
 263 03b0 FF120071 		cmp	w23, 4
 264 03b4 60060054 		beq	.L122
 265 03b8 00270035 		cbnz	w0, .L73
 266 03bc 60B240B9 		ldr	w0, [x19, 176]
 267 03c0 00040011 		add	w0, w0, 1
 268 03c4 60B200B9 		str	w0, [x19, 176]
 269 03c8 39E8FF35 		cbnz	w25, .L59
 270 03cc 7CFFFF17 		b	.L123
 271              		.p2align 3
 272              	.L30:
 273 03d0 E03F40F9 		ldr	x0, [sp, 120]
 274 03d4 01000090 		adrp	x1, .LC9
 275 03d8 E3E30291 		add	x3, sp, 184
 276 03dc 21000091 		add	x1, x1, :lo12:.LC9
 277 03e0 E2C30291 		add	x2, sp, 176
 278 03e4 00000094 		bl	sscanf
 279 03e8 1F080071 		cmp	w0, 2
 280 03ec A1020054 		bne	.L33
 281 03f0 E08B40B9 		ldr	w0, [sp, 136]
 282 03f4 00FCFF35 		cbnz	w0, .L32
 283 03f8 609E40B9 		ldr	w0, [x19, 156]
 284 03fc 2100C0D2 		mov	x1, 4294967296
 285 0400 615200F9 		str	x1, [x19, 160]
AARCH64 GAS  C:\Users\ldebo\AppData\Local\Temp\cchOloIf.s 			page 6


 286 0404 00040011 		add	w0, w0, 1
 287 0408 609E00B9 		str	w0, [x19, 156]
 288 040c DAFFFF17 		b	.L32
 289              	.L120:
 290 0410 609E40B9 		ldr	w0, [x19, 156]
 291 0414 E10300B2 		mov	x1, 4294967297
 292 0418 615200F9 		str	x1, [x19, 160]
 293 041c 00040011 		add	w0, w0, 1
 294 0420 609E00B9 		str	w0, [x19, 156]
 295 0424 D4FFFF17 		b	.L32
 296              	.L29:
 297 0428 00000090 		adrp	x0, .LC7
 298 042c E10318AA 		mov	x1, x24
 299 0430 00000091 		add	x0, x0, :lo12:.LC7
 300 0434 00000094 		bl	printf
 301 0438 B9E4FF35 		cbnz	w25, .L59
 302 043c 60FFFF17 		b	.L123
 303              		.p2align 3
 304              	.L33:
 305 0440 E03F40F9 		ldr	x0, [sp, 120]
 306 0444 01000090 		adrp	x1, .LC10
 307 0448 E3D30291 		add	x3, sp, 180
 308 044c E2C30291 		add	x2, sp, 176
 309 0450 21000091 		add	x1, x1, :lo12:.LC10
 310 0454 00000094 		bl	sscanf
 311 0458 1F080071 		cmp	w0, 2
 312 045c E1180054 		bne	.L35
 313 0460 E08B40B9 		ldr	w0, [sp, 136]
 314 0464 80F8FF35 		cbnz	w0, .L32
 315 0468 609E40B9 		ldr	w0, [x19, 156]
 316 046c 210080D2 		mov	x1, 1
 317 0470 615200F9 		str	x1, [x19, 160]
 318 0474 00040011 		add	w0, w0, 1
 319 0478 609E00B9 		str	w0, [x19, 156]
 320 047c BEFFFF17 		b	.L32
 321              	.L122:
 322 0480 80020035 		cbnz	w0, .L72
 323 0484 60AE40B9 		ldr	w0, [x19, 172]
 324 0488 00040011 		add	w0, w0, 1
 325 048c 60AE00B9 		str	w0, [x19, 172]
 326 0490 F9E1FF35 		cbnz	w25, .L59
 327 0494 4AFFFF17 		b	.L123
 328              		.p2align 3
 329              	.L121:
 330 0498 C0010035 		cbnz	w0, .L72
 331 049c 60AA40B9 		ldr	w0, [x19, 168]
 332 04a0 00040011 		add	w0, w0, 1
 333 04a4 60AA00B9 		str	w0, [x19, 168]
 334 04a8 39E1FF35 		cbnz	w25, .L59
 335 04ac 44FFFF17 		b	.L123
 336              		.p2align 3
 337              	.L118:
 338 04b0 E08B40B9 		ldr	w0, [sp, 136]
 339 04b4 20E8FF35 		cbnz	w0, .L8
 340 04b8 609640B9 		ldr	w0, [x19, 148]
 341 04bc 00040011 		add	w0, w0, 1
 342 04c0 609600B9 		str	w0, [x19, 148]
AARCH64 GAS  C:\Users\ldebo\AppData\Local\Temp\cchOloIf.s 			page 7


 343 04c4 59E0FF35 		cbnz	w25, .L59
 344 04c8 3DFFFF17 		b	.L123
 345 04cc 1F2003D5 		.p2align 3
 346              	.L72:
 347 04d0 E0330391 		add	x0, sp, 204
 348 04d4 F50318AA 		mov	x21, x24
 349 04d8 E30300AA 		mov	x3, x0
 350 04dc E0230391 		add	x0, sp, 200
 351 04e0 E20300AA 		mov	x2, x0
 352 04e4 E0130391 		add	x0, sp, 196
 353 04e8 E10300AA 		mov	x1, x0
 354 04ec 1B008052 		mov	w27, 0
 355              	.L42:
 356 04f0 00000090 		adrp	x0, .LC9
 357 04f4 00000091 		add	x0, x0, :lo12:.LC9
 358 04f8 E04300F9 		str	x0, [sp, 128]
 359 04fc 00000090 		adrp	x0, .LC10
 360 0500 00000091 		add	x0, x0, :lo12:.LC10
 361 0504 E04B00F9 		str	x0, [sp, 144]
 362 0508 FA5300F9 		str	x26, [sp, 160]
 363 050c FA0301AA 		mov	x26, x1
 364 0510 F9531529 		stp	w25, w20, [sp, 168]
 365 0514 F40315AA 		mov	x20, x21
 366 0518 F9031B2A 		mov	w25, w27
 367 051c F50303AA 		mov	x21, x3
 368 0520 FB03172A 		mov	w27, w23
 369 0524 F70302AA 		mov	x23, x2
 370 0528 11000014 		b	.L98
 371              	.L49:
 372 052c 3F0F0071 		cmp	w25, 3
 373 0530 00090054 		beq	.L51
 374 0534 3F130071 		cmp	w25, 4
 375 0538 01080054 		bne	.L47
 376 053c 3F00006B 		cmp	w1, w0
 377 0540 42000054 		bcs	.L58
 378 0544 603600B9 		str	w0, [x19, 52]
 379              	.L58:
 380 0548 C00A0079 		strh	w0, [x22, 4]
 381 054c D61A0091 		add	x22, x22, 6
 382 0550 E01B4179 		ldrh	w0, [sp, 140]
 383 0554 C0A21F78 		strh	w0, [x22, -6]
 384 0558 E03B4179 		ldrh	w0, [sp, 156]
 385 055c C0C21F78 		strh	w0, [x22, -4]
 386              	.L54:
 387 0560 39070011 		add	w25, w25, 1
 388 0564 7F03196B 		cmp	w27, w25
 389 0568 00060054 		beq	.L124
 390              	.L98:
 391 056c E00314AA 		mov	x0, x20
 392 0570 01048052 		mov	w1, 32
 393 0574 00000094 		bl	strchr
 394 0578 14040091 		add	x20, x0, 1
 395 057c 00000090 		adrp	x0, .LC8
 396 0580 01000091 		add	x1, x0, :lo12:.LC8
 397 0584 E40315AA 		mov	x4, x21
 398 0588 E30317AA 		mov	x3, x23
 399 058c E2031AAA 		mov	x2, x26
AARCH64 GAS  C:\Users\ldebo\AppData\Local\Temp\cchOloIf.s 			page 8


 400 0590 E00314AA 		mov	x0, x20
 401 0594 00000094 		bl	sscanf
 402 0598 1F0C0071 		cmp	w0, 3
 403 059c A0020054 		beq	.L45
 404 05a0 E14340F9 		ldr	x1, [sp, 128]
 405 05a4 E30315AA 		mov	x3, x21
 406 05a8 E2031AAA 		mov	x2, x26
 407 05ac E00314AA 		mov	x0, x20
 408 05b0 00000094 		bl	sscanf
 409 05b4 1F080071 		cmp	w0, 2
 410 05b8 C0010054 		beq	.L45
 411 05bc E14B40F9 		ldr	x1, [sp, 144]
 412 05c0 E30317AA 		mov	x3, x23
 413 05c4 E2031AAA 		mov	x2, x26
 414 05c8 E00314AA 		mov	x0, x20
 415 05cc 00000094 		bl	sscanf
 416 05d0 1F080071 		cmp	w0, 2
 417 05d4 E0000054 		beq	.L45
 418 05d8 01000090 		adrp	x1, .LC11
 419 05dc 21000091 		add	x1, x1, :lo12:.LC11
 420 05e0 E2031AAA 		mov	x2, x26
 421 05e4 E00314AA 		mov	x0, x20
 422 05e8 00000094 		bl	sscanf
 423 05ec 1F2003D5 		.p2align 3
 424              	.L45:
 425 05f0 E0C740B9 		ldr	w0, [sp, 196]
 426 05f4 3F0B0071 		cmp	w25, 2
 427 05f8 613640B9 		ldr	w1, [x19, 52]
 428 05fc 00040051 		sub	w0, w0, #1
 429 0600 E0C700B9 		str	w0, [sp, 196]
 430 0604 C0030054 		beq	.L48
 431 0608 2CF9FF54 		bgt	.L49
 432 060c 3F070071 		cmp	w25, 1
 433 0610 41010054 		bne	.L47
 434 0614 3F00006B 		cmp	w1, w0
 435 0618 42000054 		bcs	.L55
 436 061c 603600B9 		str	w0, [x19, 52]
 437              	.L55:
 438 0620 C0260078 		strh	w0, [x22], 2
 439 0624 CFFFFF17 		b	.L54
 440              	.L124:
 441 0628 F9535529 		ldp	w25, w20, [sp, 168]
 442 062c FA5340F9 		ldr	x26, [sp, 160]
 443 0630 F9D4FF35 		cbnz	w25, .L59
 444 0634 E2FEFF17 		b	.L123
 445              		.p2align 3
 446              	.L47:
 447 0638 3F00006B 		cmp	w1, w0
 448 063c 42000054 		bcs	.L53
 449 0640 603600B9 		str	w0, [x19, 52]
 450              	.L53:
 451 0644 C0260078 		strh	w0, [x22], 2
 452 0648 E08F00B9 		str	w0, [sp, 140]
 453 064c C5FFFF17 		b	.L54
 454              	.L51:
 455 0650 3F00006B 		cmp	w1, w0
 456 0654 42000054 		bcs	.L57
AARCH64 GAS  C:\Users\ldebo\AppData\Local\Temp\cchOloIf.s 			page 9


 457 0658 603600B9 		str	w0, [x19, 52]
 458              	.L57:
 459 065c E11B4179 		ldrh	w1, [sp, 140]
 460 0660 D61A0091 		add	x22, x22, 6
 461 0664 C1A21F78 		strh	w1, [x22, -6]
 462 0668 E1334179 		ldrh	w1, [sp, 152]
 463 066c C1C21F78 		strh	w1, [x22, -4]
 464 0670 C0E21F78 		strh	w0, [x22, -2]
 465 0674 E09F00B9 		str	w0, [sp, 156]
 466 0678 BAFFFF17 		b	.L54
 467              	.L48:
 468 067c 3F00006B 		cmp	w1, w0
 469 0680 42000054 		bcs	.L56
 470 0684 603600B9 		str	w0, [x19, 52]
 471              	.L56:
 472 0688 C0260078 		strh	w0, [x22], 2
 473 068c E09B00B9 		str	w0, [sp, 152]
 474 0690 B4FFFF17 		b	.L54
 475              	.L117:
 476 0694 FB3F40F9 		ldr	x27, [sp, 120]
 477 0698 F5230391 		add	x21, sp, 200
 478 069c F7130391 		add	x23, sp, 196
 479 06a0 01000090 		adrp	x1, .LC4
 480 06a4 E5330391 		add	x5, sp, 204
 481 06a8 21000091 		add	x1, x1, :lo12:.LC4
 482 06ac E40315AA 		mov	x4, x21
 483 06b0 E30317AA 		mov	x3, x23
 484 06b4 E2030391 		add	x2, sp, 192
 485 06b8 E0031BAA 		mov	x0, x27
 486 06bc 00000094 		bl	sscanf
 487 06c0 1F100071 		cmp	w0, 4
 488 06c4 80010054 		beq	.L12
 489 06c8 01000090 		adrp	x1, .LC5
 490 06cc E40315AA 		mov	x4, x21
 491 06d0 E30317AA 		mov	x3, x23
 492 06d4 E2030391 		add	x2, sp, 192
 493 06d8 21000091 		add	x1, x1, :lo12:.LC5
 494 06dc E0031BAA 		mov	x0, x27
 495 06e0 00000094 		bl	sscanf
 496 06e4 1F0C0071 		cmp	w0, 3
 497 06e8 61160054 		bne	.L125
 498 06ec 00102E1E 		fmov	s0, 1.0e+0
 499 06f0 E0CF00BD 		str	s0, [sp, 204]
 500              	.L12:
 501 06f4 E08B40B9 		ldr	w0, [sp, 136]
 502 06f8 E40B582D 		ldp	s4, s2, [sp, 192]
 503 06fc E0CB40BD 		ldr	s0, [sp, 200]
 504 0700 80050035 		cbnz	w0, .L14
 505 0704 609240B9 		ldr	w0, [x19, 144]
 506 0708 00040011 		add	w0, w0, 1
 507 070c 609200B9 		str	w0, [x19, 144]
 508              	.L15:
 509 0710 61BA40BD 		ldr	s1, [x19, 184]
 510 0714 3020241E 		fcmpe	s1, s4
 511 0718 45000054 		bpl	.L16
 512 071c 64BA00BD 		str	s4, [x19, 184]
 513              	.L16:
AARCH64 GAS  C:\Users\ldebo\AppData\Local\Temp\cchOloIf.s 			page 10


 514 0720 61B640BD 		ldr	s1, [x19, 180]
 515 0724 3020241E 		fcmpe	s1, s4
 516 0728 4D000054 		ble	.L18
 517 072c 64B600BD 		str	s4, [x19, 180]
 518              	.L18:
 519 0730 61C240BD 		ldr	s1, [x19, 192]
 520 0734 3020221E 		fcmpe	s1, s2
 521 0738 45000054 		bpl	.L20
 522 073c 62C200BD 		str	s2, [x19, 192]
 523              	.L20:
 524 0740 61BE40BD 		ldr	s1, [x19, 188]
 525 0744 3020221E 		fcmpe	s1, s2
 526 0748 4D000054 		ble	.L22
 527 074c 62BE00BD 		str	s2, [x19, 188]
 528              	.L22:
 529 0750 61CA40BD 		ldr	s1, [x19, 200]
 530 0754 3020201E 		fcmpe	s1, s0
 531 0758 45000054 		bpl	.L24
 532 075c 60CA00BD 		str	s0, [x19, 200]
 533              	.L24:
 534 0760 61C640BD 		ldr	s1, [x19, 196]
 535 0764 3020201E 		fcmpe	s1, s0
 536 0768 8DD2FF54 		ble	.L8
 537 076c 60C600BD 		str	s0, [x19, 196]
 538 0770 F9CAFF35 		cbnz	w25, .L59
 539 0774 92FEFF17 		b	.L123
 540              		.p2align 3
 541              	.L35:
 542 0778 E03F40F9 		ldr	x0, [sp, 120]
 543 077c 01000090 		adrp	x1, .LC11
 544 0780 E2C30291 		add	x2, sp, 176
 545 0784 21000091 		add	x1, x1, :lo12:.LC11
 546 0788 00000094 		bl	sscanf
 547 078c 1F040071 		cmp	w0, 1
 548 0790 E10C0054 		bne	.L36
 549 0794 E08B40B9 		ldr	w0, [sp, 136]
 550 0798 E0DEFF35 		cbnz	w0, .L32
 551 079c 609E40B9 		ldr	w0, [x19, 156]
 552 07a0 7F5200F9 		str	xzr, [x19, 160]
 553 07a4 00040011 		add	w0, w0, 1
 554 07a8 609E00B9 		str	w0, [x19, 156]
 555 07ac F2FEFF17 		b	.L32
 556              	.L14:
 557 07b0 658E592D 		ldp	s5, s3, [x19, 204]
 558 07b4 E30780D2 		mov	x3, 63
 559 07b8 619A5A2D 		ldp	s1, s6, [x19, 212]
 560 07bc E03740F9 		ldr	x0, [sp, 104]
 561 07c0 8438251E 		fsub	s4, s4, s5
 562 07c4 4238231E 		fsub	s2, s2, s3
 563 07c8 04300091 		add	x4, x0, 12
 564 07cc E03B40F9 		ldr	x0, [sp, 112]
 565 07d0 0038211E 		fsub	s0, s0, s1
 566 07d4 E60304AA 		mov	x6, x4
 567 07d8 05600091 		add	x5, x0, 24
 568 07dc E69706A9 		stp	x6, x5, [sp, 104]
 569 07e0 8408261E 		fmul	s4, s4, s6
 570 07e4 4208261E 		fmul	s2, s2, s6
AARCH64 GAS  C:\Users\ldebo\AppData\Local\Temp\cchOloIf.s 			page 11


 571 07e8 0008261E 		fmul	s0, s0, s6
 572 07ec 8200261E 		fmov	w2, s4
 573 07f0 4100261E 		fmov	w1, s2
 574 07f4 E40B182D 		stp	s4, s2, [sp, 192]
 575 07f8 0000261E 		fmov	w0, s0
 576 07fc E0CB00BD 		str	s0, [sp, 200]
 577 0800 443C48D3 		ubfx	x4, x2, 8, 8
 578 0804 C4501F38 		strb	w4, [x6, -11]
 579 0808 445C50D3 		ubfx	x4, x2, 16, 8
 580 080c 427C1853 		lsr	w2, w2, 24
 581 0810 C4601F38 		strb	w4, [x6, -10]
 582 0814 243C48D3 		ubfx	x4, x1, 8, 8
 583 0818 C2701F38 		strb	w2, [x6, -9]
 584 081c 225C50D3 		ubfx	x2, x1, 16, 8
 585 0820 217C1853 		lsr	w1, w1, 24
 586 0824 C4401F3C 		str	b4, [x6, -12]
 587 0828 C2801F3C 		str	b2, [x6, -8]
 588 082c C4901F38 		strb	w4, [x6, -7]
 589 0830 C2A01F38 		strb	w2, [x6, -6]
 590 0834 023C48D3 		ubfx	x2, x0, 8, 8
 591 0838 C1B01F38 		strb	w1, [x6, -5]
 592 083c 015C50D3 		ubfx	x1, x0, 16, 8
 593 0840 C0C01F3C 		str	b0, [x6, -4]
 594 0844 007C1853 		lsr	w0, w0, 24
 595 0848 C2D01F38 		strb	w2, [x6, -3]
 596 084c C1E01F38 		strb	w1, [x6, -2]
 597 0850 C0F01F38 		strb	w0, [x6, -1]
 598 0854 BF001F38 		strb	wzr, [x5, -16]
 599 0858 BF101F38 		strb	wzr, [x5, -15]
 600 085c BF201F38 		strb	wzr, [x5, -14]
 601 0860 BF301F38 		strb	wzr, [x5, -13]
 602 0864 BF401F38 		strb	wzr, [x5, -12]
 603 0868 BF501F38 		strb	wzr, [x5, -11]
 604 086c BF601F38 		strb	wzr, [x5, -10]
 605 0870 A3701F38 		strb	w3, [x5, -9]
 606 0874 BF801F38 		strb	wzr, [x5, -8]
 607 0878 BF901F38 		strb	wzr, [x5, -7]
 608 087c BFA01F38 		strb	wzr, [x5, -6]
 609 0880 A3B01F38 		strb	w3, [x5, -5]
 610 0884 BFC01F38 		strb	wzr, [x5, -4]
 611 0888 BFD01F38 		strb	wzr, [x5, -3]
 612 088c BFE01F38 		strb	wzr, [x5, -2]
 613 0890 A3F01F38 		strb	w3, [x5, -1]
 614 0894 9FFFFF17 		b	.L15
 615              	.L73:
 616 0898 E0330391 		add	x0, sp, 204
 617 089c F50318AA 		mov	x21, x24
 618 08a0 E30300AA 		mov	x3, x0
 619 08a4 E0230391 		add	x0, sp, 200
 620 08a8 E20300AA 		mov	x2, x0
 621 08ac E0130391 		add	x0, sp, 196
 622 08b0 1B008052 		mov	w27, 0
 623 08b4 E10300AA 		mov	x1, x0
 624 08b8 0EFFFF17 		b	.L42
 625              	.L60:
 626 08bc 6086562D 		ldp	s0, s1, [x19, 180]
 627 08c0 00000090 		adrp	x0, .LC23
AARCH64 GAS  C:\Users\ldebo\AppData\Local\Temp\cchOloIf.s 			page 12


 628 08c4 00000091 		add	x0, x0, :lo12:.LC23
 629 08c8 2200381E 		fcvtzs	w2, s1
 630 08cc 0100381E 		fcvtzs	w1, s0
 631 08d0 00000094 		bl	printf
 632 08d4 6182572D 		ldp	s1, s0, [x19, 188]
 633 08d8 00000090 		adrp	x0, .LC24
 634 08dc 00000091 		add	x0, x0, :lo12:.LC24
 635 08e0 2100381E 		fcvtzs	w1, s1
 636 08e4 0200381E 		fcvtzs	w2, s0
 637 08e8 00000094 		bl	printf
 638 08ec 6182582D 		ldp	s1, s0, [x19, 196]
 639 08f0 00000090 		adrp	x0, .LC25
 640 08f4 00000091 		add	x0, x0, :lo12:.LC25
 641 08f8 2100381E 		fcvtzs	w1, s1
 642 08fc 0200381E 		fcvtzs	w2, s0
 643 0900 00000094 		bl	printf
 644 0904 00000090 		adrp	x0, .LC27
 645 0908 00000091 		add	x0, x0, :lo12:.LC27
 646 090c 00000094 		bl	printf
 647 0910 006889D2 		mov	x0, 19264
 648 0914 8009A0F2 		movk	x0, 0x4c, lsl 16
 649 0918 00000094 		bl	timer_wait
 650 091c F76342A9 		ldp	x23, x24, [sp, 32]
 651 0920 F96B43A9 		ldp	x25, x26, [sp, 48]
 652 0924 FB7344A9 		ldp	x27, x28, [sp, 64]
 653 0928 CCFDFF17 		b	.L3
 654              	.L36:
 655 092c 00000090 		adrp	x0, .LC12
 656 0930 00000091 		add	x0, x0, :lo12:.LC12
 657 0934 00000094 		bl	printf
 658 0938 8FFEFF17 		b	.L32
 659              	.L62:
 660 093c 00000090 		adrp	x0, .LC14
 661 0940 00000091 		add	x0, x0, :lo12:.LC14
 662 0944 00000094 		bl	printf
 663 0948 619640B9 		ldr	w1, [x19, 148]
 664 094c 00000090 		adrp	x0, .LC15
 665 0950 00000091 		add	x0, x0, :lo12:.LC15
 666 0954 00000094 		bl	printf
 667 0958 619A40B9 		ldr	w1, [x19, 152]
 668 095c 00000090 		adrp	x0, .LC16
 669 0960 00000091 		add	x0, x0, :lo12:.LC16
 670 0964 00000094 		bl	printf
 671 0968 F76342A9 		ldp	x23, x24, [sp, 32]
 672 096c F96B43A9 		ldp	x25, x26, [sp, 48]
 673 0970 FB7344A9 		ldp	x27, x28, [sp, 64]
 674 0974 B9FDFF17 		b	.L3
 675              	.L37:
 676 0978 00000090 		adrp	x0, .LC13
 677 097c 00000091 		add	x0, x0, :lo12:.LC13
 678              	.L114:
 679 0980 00000094 		bl	printf
 680 0984 15008052 		mov	w21, 0
 681 0988 F76342A9 		ldp	x23, x24, [sp, 32]
 682 098c F96B43A9 		ldp	x25, x26, [sp, 48]
 683 0990 FB7344A9 		ldp	x27, x28, [sp, 64]
 684 0994 B1FDFF17 		b	.L3
AARCH64 GAS  C:\Users\ldebo\AppData\Local\Temp\cchOloIf.s 			page 13


 685              	.L119:
 686 0998 00000090 		adrp	x0, .LC17
 687 099c 00000091 		add	x0, x0, :lo12:.LC17
 688 09a0 00000094 		bl	printf
 689 09a4 F76342A9 		ldp	x23, x24, [sp, 32]
 690 09a8 F96B43A9 		ldp	x25, x26, [sp, 48]
 691 09ac FB7344A9 		ldp	x27, x28, [sp, 64]
 692 09b0 AAFDFF17 		b	.L3
 693              	.L125:
 694 09b4 00000090 		adrp	x0, .LC6
 695 09b8 00000091 		add	x0, x0, :lo12:.LC6
 696 09bc F1FFFF17 		b	.L114
 697              		.size	ParseWaveFrontMesh, .-ParseWaveFrontMesh
 698              		.align	2
 699              	.LC2:
 700 09c0 FFFF7F7F 		.word	2139095039
 701              		.align	2
 702              	.LC3:
 703 09c4 00008000 		.word	8388608
 704              		.align	2
 705 09c8 1F2003D5 		.p2align 4,,15
 705      1F2003D5 
 706              		.global	vec3_dot
 707              		.type	vec3_dot, %function
 708              	vec3_dot:
 709 09d0 2108241E 		fmul	s1, s1, s4
 710 09d4 FF8300D1 		sub	sp, sp, #32
 711 09d8 0004031F 		fmadd	s0, s0, s3, s1
 712 09dc 4000051F 		fmadd	s0, s2, s5, s0
 713 09e0 FF830091 		add	sp, sp, 32
 714 09e4 C0035FD6 		ret
 715              		.size	vec3_dot, .-vec3_dot
 716              		.align	2
 717 09e8 1F2003D5 		.p2align 4,,15
 717      1F2003D5 
 718              		.global	vec3_cross
 719              		.type	vec3_cross, %function
 720              	vec3_cross:
 721 09f0 2640201E 		fmov	s6, s1
 722 09f4 FF0301D1 		sub	sp, sp, #64
 723 09f8 3008231E 		fmul	s16, s1, s3
 724 09fc 4708241E 		fmul	s7, s2, s4
 725 0a00 0108251E 		fmul	s1, s0, s5
 726 0a04 4184231F 		fnmsub	s1, s2, s3, s1
 727 0a08 FF030191 		add	sp, sp, 64
 728 0a0c 02C0241F 		fnmsub	s2, s0, s4, s16
 729 0a10 C09C251F 		fnmsub	s0, s6, s5, s7
 730 0a14 C0035FD6 		ret
 731              		.size	vec3_cross, .-vec3_cross
 732              		.align	2
 733 0a18 1F2003D5 		.p2align 4,,15
 733      1F2003D5 
 734              		.global	vec3_sub
 735              		.type	vec3_sub, %function
 736              	vec3_sub:
 737 0a20 FF0301D1 		sub	sp, sp, #64
 738 0a24 2138241E 		fsub	s1, s1, s4
AARCH64 GAS  C:\Users\ldebo\AppData\Local\Temp\cchOloIf.s 			page 14


 739 0a28 4238251E 		fsub	s2, s2, s5
 740 0a2c 0038231E 		fsub	s0, s0, s3
 741 0a30 FF030191 		add	sp, sp, 64
 742 0a34 C0035FD6 		ret
 743              		.size	vec3_sub, .-vec3_sub
 744              		.align	2
 745 0a38 1F2003D5 		.p2align 4,,15
 745      1F2003D5 
 746              		.global	vec3_add
 747              		.type	vec3_add, %function
 748              	vec3_add:
 749 0a40 FF0301D1 		sub	sp, sp, #64
 750 0a44 2138241E 		fsub	s1, s1, s4
 751 0a48 4238251E 		fsub	s2, s2, s5
 752 0a4c 0038231E 		fsub	s0, s0, s3
 753 0a50 FF030191 		add	sp, sp, 64
 754 0a54 C0035FD6 		ret
 755              		.size	vec3_add, .-vec3_add
 756              		.align	2
 757 0a58 1F2003D5 		.p2align 4,,15
 757      1F2003D5 
 758              		.global	vec3_scale
 759              		.type	vec3_scale, %function
 760              	vec3_scale:
 761 0a60 FFC300D1 		sub	sp, sp, #48
 762 0a64 6108211E 		fmul	s1, s3, s1
 763 0a68 6208221E 		fmul	s2, s3, s2
 764 0a6c 0008231E 		fmul	s0, s0, s3
 765 0a70 FFC30091 		add	sp, sp, 48
 766 0a74 C0035FD6 		ret
 767              		.size	vec3_scale, .-vec3_scale
 768              		.align	2
 769 0a78 1F2003D5 		.p2align 4,,15
 769      1F2003D5 
 770              		.global	XRotationMatrix3D
 771              		.type	XRotationMatrix3D, %function
 772              	XRotationMatrix3D:
 773 0a80 F353B9A9 		stp	x19, x20, [sp, -112]!
 774 0a84 F40308AA 		mov	x20, x8
 775 0a88 130880D2 		mov	x19, 64
 776 0a8c E827026D 		stp	d8, d9, [sp, 32]
 777 0a90 0840201E 		fmov	s8, s0
 778 0a94 FE0B00F9 		str	x30, [sp, 16]
 779 0a98 00000094 		bl	sinf
 780 0a9c 0940201E 		fmov	s9, s0
 781 0aa0 0041201E 		fmov	s0, s8
 782 0aa4 00000094 		bl	cosf
 783 0aa8 0840201E 		fmov	s8, s0
 784 0aac E20313AA 		mov	x2, x19
 785 0ab0 E0C30091 		add	x0, sp, 48
 786 0ab4 01000090 		adrp	x1, .LANCHOR0
 787 0ab8 21000091 		add	x1, x1, :lo12:.LANCHOR0
 788 0abc 00000094 		bl	memcpy
 789 0ac0 2041211E 		fneg	s0, s9
 790 0ac4 E20313AA 		mov	x2, x19
 791 0ac8 E1C30091 		add	x1, sp, 48
 792 0acc E9A30A2D 		stp	s9, s8, [sp, 84]
AARCH64 GAS  C:\Users\ldebo\AppData\Local\Temp\cchOloIf.s 			page 15


 793 0ad0 E00314AA 		mov	x0, x20
 794 0ad4 E883082D 		stp	s8, s0, [sp, 68]
 795 0ad8 00000094 		bl	memcpy
 796 0adc FE0B40F9 		ldr	x30, [sp, 16]
 797 0ae0 E827426D 		ldp	d8, d9, [sp, 32]
 798 0ae4 F353C7A8 		ldp	x19, x20, [sp], 112
 799 0ae8 C0035FD6 		ret
 800              		.size	XRotationMatrix3D, .-XRotationMatrix3D
 801              		.align	2
 802 0aec 1F2003D5 		.p2align 4,,15
 803              		.global	YRotationMatrix3D
 804              		.type	YRotationMatrix3D, %function
 805              	YRotationMatrix3D:
 806 0af0 F353B9A9 		stp	x19, x20, [sp, -112]!
 807 0af4 F40308AA 		mov	x20, x8
 808 0af8 130880D2 		mov	x19, 64
 809 0afc E827026D 		stp	d8, d9, [sp, 32]
 810 0b00 0840201E 		fmov	s8, s0
 811 0b04 FE0B00F9 		str	x30, [sp, 16]
 812 0b08 00000094 		bl	sinf
 813 0b0c 0940201E 		fmov	s9, s0
 814 0b10 0041201E 		fmov	s0, s8
 815 0b14 00000094 		bl	cosf
 816 0b18 0840201E 		fmov	s8, s0
 817 0b1c E20313AA 		mov	x2, x19
 818 0b20 E0C30091 		add	x0, sp, 48
 819 0b24 01000090 		adrp	x1, .LANCHOR0
 820 0b28 21000091 		add	x1, x1, :lo12:.LANCHOR0
 821 0b2c 00000094 		bl	memcpy
 822 0b30 2041211E 		fneg	s0, s9
 823 0b34 E20313AA 		mov	x2, x19
 824 0b38 E1C30091 		add	x1, sp, 48
 825 0b3c E83300BD 		str	s8, [sp, 48]
 826 0b40 E00314AA 		mov	x0, x20
 827 0b44 E95300BD 		str	s9, [sp, 80]
 828 0b48 E85B00BD 		str	s8, [sp, 88]
 829 0b4c E03B00BD 		str	s0, [sp, 56]
 830 0b50 00000094 		bl	memcpy
 831 0b54 FE0B40F9 		ldr	x30, [sp, 16]
 832 0b58 E827426D 		ldp	d8, d9, [sp, 32]
 833 0b5c F353C7A8 		ldp	x19, x20, [sp], 112
 834 0b60 C0035FD6 		ret
 835              		.size	YRotationMatrix3D, .-YRotationMatrix3D
 836              		.align	2
 837 0b64 1F2003D5 		.p2align 4,,15
 837      1F2003D5 
 837      1F2003D5 
 838              		.global	ZRotationMatrix3D
 839              		.type	ZRotationMatrix3D, %function
 840              	ZRotationMatrix3D:
 841 0b70 F353B9A9 		stp	x19, x20, [sp, -112]!
 842 0b74 F40308AA 		mov	x20, x8
 843 0b78 130880D2 		mov	x19, 64
 844 0b7c E827026D 		stp	d8, d9, [sp, 32]
 845 0b80 0840201E 		fmov	s8, s0
 846 0b84 FE0B00F9 		str	x30, [sp, 16]
 847 0b88 00000094 		bl	sinf
AARCH64 GAS  C:\Users\ldebo\AppData\Local\Temp\cchOloIf.s 			page 16


 848 0b8c 0940201E 		fmov	s9, s0
 849 0b90 0041201E 		fmov	s0, s8
 850 0b94 00000094 		bl	cosf
 851 0b98 0840201E 		fmov	s8, s0
 852 0b9c E20313AA 		mov	x2, x19
 853 0ba0 E0C30091 		add	x0, sp, 48
 854 0ba4 01000090 		adrp	x1, .LANCHOR0
 855 0ba8 21000091 		add	x1, x1, :lo12:.LANCHOR0
 856 0bac 00000094 		bl	memcpy
 857 0bb0 2041211E 		fneg	s0, s9
 858 0bb4 E20313AA 		mov	x2, x19
 859 0bb8 E1C30091 		add	x1, sp, 48
 860 0bbc E923082D 		stp	s9, s8, [sp, 64]
 861 0bc0 E00314AA 		mov	x0, x20
 862 0bc4 E803062D 		stp	s8, s0, [sp, 48]
 863 0bc8 00000094 		bl	memcpy
 864 0bcc FE0B40F9 		ldr	x30, [sp, 16]
 865 0bd0 E827426D 		ldp	d8, d9, [sp, 32]
 866 0bd4 F353C7A8 		ldp	x19, x20, [sp], 112
 867 0bd8 C0035FD6 		ret
 868              		.size	ZRotationMatrix3D, .-ZRotationMatrix3D
 869              		.align	2
 870 0bdc 1F2003D5 		.p2align 4,,15
 871              		.global	TranslationMatrix3D
 872              		.type	TranslationMatrix3D, %function
 873              	TranslationMatrix3D:
 874 0be0 F353B9A9 		stp	x19, x20, [sp, -112]!
 875 0be4 01000090 		adrp	x1, .LANCHOR0
 876 0be8 F40308AA 		mov	x20, x8
 877 0bec 130880D2 		mov	x19, 64
 878 0bf0 EA0F00FD 		str	d10, [sp, 24]
 879 0bf4 0A40201E 		fmov	s10, s0
 880 0bf8 E827026D 		stp	d8, d9, [sp, 32]
 881 0bfc 2940201E 		fmov	s9, s1
 882 0c00 4840201E 		fmov	s8, s2
 883 0c04 FE0B00F9 		str	x30, [sp, 16]
 884 0c08 E20313AA 		mov	x2, x19
 885 0c0c 21000091 		add	x1, x1, :lo12:.LANCHOR0
 886 0c10 E0C30091 		add	x0, sp, 48
 887 0c14 00000094 		bl	memcpy
 888 0c18 EA3F00BD 		str	s10, [sp, 60]
 889 0c1c E20313AA 		mov	x2, x19
 890 0c20 E1C30091 		add	x1, sp, 48
 891 0c24 E94F00BD 		str	s9, [sp, 76]
 892 0c28 E00314AA 		mov	x0, x20
 893 0c2c E85F00BD 		str	s8, [sp, 92]
 894 0c30 00000094 		bl	memcpy
 895 0c34 FE0B40F9 		ldr	x30, [sp, 16]
 896 0c38 EA0F40FD 		ldr	d10, [sp, 24]
 897 0c3c E827426D 		ldp	d8, d9, [sp, 32]
 898 0c40 F353C7A8 		ldp	x19, x20, [sp], 112
 899 0c44 C0035FD6 		ret
 900              		.size	TranslationMatrix3D, .-TranslationMatrix3D
 901              		.align	2
 902 0c48 1F2003D5 		.p2align 4,,15
 902      1F2003D5 
 903              		.global	ScaleMatrix3D
AARCH64 GAS  C:\Users\ldebo\AppData\Local\Temp\cchOloIf.s 			page 17


 904              		.type	ScaleMatrix3D, %function
 905              	ScaleMatrix3D:
 906 0c50 F353B9A9 		stp	x19, x20, [sp, -112]!
 907 0c54 01000090 		adrp	x1, .LANCHOR0
 908 0c58 F40308AA 		mov	x20, x8
 909 0c5c 130880D2 		mov	x19, 64
 910 0c60 EA0F00FD 		str	d10, [sp, 24]
 911 0c64 0A40201E 		fmov	s10, s0
 912 0c68 E827026D 		stp	d8, d9, [sp, 32]
 913 0c6c 2940201E 		fmov	s9, s1
 914 0c70 4840201E 		fmov	s8, s2
 915 0c74 FE0B00F9 		str	x30, [sp, 16]
 916 0c78 E20313AA 		mov	x2, x19
 917 0c7c 21000091 		add	x1, x1, :lo12:.LANCHOR0
 918 0c80 E0C30091 		add	x0, sp, 48
 919 0c84 00000094 		bl	memcpy
 920 0c88 EA3300BD 		str	s10, [sp, 48]
 921 0c8c E20313AA 		mov	x2, x19
 922 0c90 E1C30091 		add	x1, sp, 48
 923 0c94 E94700BD 		str	s9, [sp, 68]
 924 0c98 E00314AA 		mov	x0, x20
 925 0c9c E85B00BD 		str	s8, [sp, 88]
 926 0ca0 00000094 		bl	memcpy
 927 0ca4 FE0B40F9 		ldr	x30, [sp, 16]
 928 0ca8 EA0F40FD 		ldr	d10, [sp, 24]
 929 0cac E827426D 		ldp	d8, d9, [sp, 32]
 930 0cb0 F353C7A8 		ldp	x19, x20, [sp], 112
 931 0cb4 C0035FD6 		ret
 932              		.size	ScaleMatrix3D, .-ScaleMatrix3D
 933              		.align	2
 934 0cb8 1F2003D5 		.p2align 4,,15
 934      1F2003D5 
 935              		.global	MirrorMatrix3D
 936              		.type	MirrorMatrix3D, %function
 937              	MirrorMatrix3D:
 938 0cc0 F353B9A9 		stp	x19, x20, [sp, -112]!
 939 0cc4 341C0012 		and	w20, w1, 255
 940 0cc8 531C0012 		and	w19, w2, 255
 941 0ccc 01000090 		adrp	x1, .LANCHOR0
 942 0cd0 F55B01A9 		stp	x21, x22, [sp, 16]
 943 0cd4 020880D2 		mov	x2, 64
 944 0cd8 FE1300F9 		str	x30, [sp, 32]
 945 0cdc F50308AA 		mov	x21, x8
 946 0ce0 161C0012 		and	w22, w0, 255
 947 0ce4 21000091 		add	x1, x1, :lo12:.LANCHOR0
 948 0ce8 E0C30091 		add	x0, sp, 48
 949 0cec 00000094 		bl	memcpy
 950 0cf0 01102E1E 		fmov	s1, 1.0e+0
 951 0cf4 DF020071 		cmp	w22, 0
 952 0cf8 00103E1E 		fmov	s0, -1.0e+0
 953 0cfc E1C30091 		add	x1, sp, 48
 954 0d00 020880D2 		mov	x2, 64
 955 0d04 E00315AA 		mov	x0, x21
 956 0d08 031C211E 		fcsel	s3, s0, s1, ne
 957 0d0c 9F020071 		cmp	w20, 0
 958 0d10 021C211E 		fcsel	s2, s0, s1, ne
 959 0d14 7F020071 		cmp	w19, 0
AARCH64 GAS  C:\Users\ldebo\AppData\Local\Temp\cchOloIf.s 			page 18


 960 0d18 E33300BD 		str	s3, [sp, 48]
 961 0d1c 001C211E 		fcsel	s0, s0, s1, ne
 962 0d20 E24700BD 		str	s2, [sp, 68]
 963 0d24 E05B00BD 		str	s0, [sp, 88]
 964 0d28 00000094 		bl	memcpy
 965 0d2c F55B41A9 		ldp	x21, x22, [sp, 16]
 966 0d30 FE1340F9 		ldr	x30, [sp, 32]
 967 0d34 F353C7A8 		ldp	x19, x20, [sp], 112
 968 0d38 C0035FD6 		ret
 969              		.size	MirrorMatrix3D, .-MirrorMatrix3D
 970              		.align	2
 971 0d3c 1F2003D5 		.p2align 4,,15
 972              		.global	TransposeMatrix3D
 973              		.type	TransposeMatrix3D, %function
 974              	TransposeMatrix3D:
 975 0d40 1298402D 		ldp	s18, s6, [x0, 4]
 976 0d44 02CC412D 		ldp	s2, s19, [x0, 12]
 977 0d48 0404432D 		ldp	s4, s1, [x0, 24]
 978 0d4c 1140442D 		ldp	s17, s16, [x0, 32]
 979 0d50 009C452D 		ldp	s0, s7, [x0, 44]
 980 0d54 0610042D 		stp	s6, s4, [x0, 32]
 981 0d58 058C462D 		ldp	s5, s3, [x0, 52]
 982 0d5c 13C4002D 		stp	s19, s17, [x0, 4]
 983 0d60 07C8012D 		stp	s7, s18, [x0, 12]
 984 0d64 1014032D 		stp	s16, s5, [x0, 24]
 985 0d68 0388052D 		stp	s3, s2, [x0, 44]
 986 0d6c 0180062D 		stp	s1, s0, [x0, 52]
 987 0d70 C0035FD6 		ret
 988              		.size	TransposeMatrix3D, .-TransposeMatrix3D
 989              		.align	2
 990 0d74 1F2003D5 		.p2align 4,,15
 990      1F2003D5 
 990      1F2003D5 
 991              		.global	MultiplyMatrix3D
 992              		.type	MultiplyMatrix3D, %function
 993              	MultiplyMatrix3D:
 994 0d80 E30300AA 		mov	x3, x0
 995 0d84 E40301AA 		mov	x4, x1
 996 0d88 FE0F1AF8 		str	x30, [sp, -96]!
 997 0d8c 020880D2 		mov	x2, 64
 998 0d90 E00308AA 		mov	x0, x8
 999 0d94 E827016D 		stp	d8, d9, [sp, 16]
 1000 0d98 E1830091 		add	x1, sp, 32
 1001 0d9c 6520402D 		ldp	s5, s8, [x3]
 1002 0da0 9A64422D 		ldp	s26, s25, [x4, 16]
 1003 0da4 8100402D 		ldp	s1, s0, [x4]
 1004 0da8 6210412D 		ldp	s2, s4, [x3, 8]
 1005 0dac 430B281E 		fmul	s3, s26, s8
 1006 0db0 9B48442D 		ldp	s27, s18, [x4, 32]
 1007 0db4 230C051F 		fmadd	s3, s1, s5, s3
 1008 0db8 901C462D 		ldp	s16, s7, [x4, 48]
 1009 0dbc 9660432D 		ldp	s22, s24, [x4, 24]
 1010 0dc0 630F021F 		fmadd	s3, s27, s2, s3
 1011 0dc4 945C412D 		ldp	s20, s23, [x4, 8]
 1012 0dc8 030E041F 		fmadd	s3, s16, s4, s3
 1013 0dcc 9154452D 		ldp	s17, s21, [x4, 40]
 1014 0dd0 864C472D 		ldp	s6, s19, [x4, 56]
AARCH64 GAS  C:\Users\ldebo\AppData\Local\Temp\cchOloIf.s 			page 19


 1015 0dd4 7E7C422D 		ldp	s30, s31, [x3, 16]
 1016 0dd8 7D70432D 		ldp	s29, s28, [x3, 24]
 1017 0ddc E32300BD 		str	s3, [sp, 32]
 1018 0de0 230B281E 		fmul	s3, s25, s8
 1019 0de4 030C051F 		fmadd	s3, s0, s5, s3
 1020 0de8 430E021F 		fmadd	s3, s18, s2, s3
 1021 0dec E30C041F 		fmadd	s3, s7, s4, s3
 1022 0df0 E32700BD 		str	s3, [sp, 36]
 1023 0df4 C30A281E 		fmul	s3, s22, s8
 1024 0df8 080B281E 		fmul	s8, s24, s8
 1025 0dfc 830E051F 		fmadd	s3, s20, s5, s3
 1026 0e00 E522051F 		fmadd	s5, s23, s5, s8
 1027 0e04 230E021F 		fmadd	s3, s17, s2, s3
 1028 0e08 A216021F 		fmadd	s2, s21, s2, s5
 1029 0e0c C30C041F 		fmadd	s3, s6, s4, s3
 1030 0e10 620A041F 		fmadd	s2, s19, s4, s2
 1031 0e14 240B3F1E 		fmul	s4, s25, s31
 1032 0e18 450B3F1E 		fmul	s5, s26, s31
 1033 0e1c 04101E1F 		fmadd	s4, s0, s30, s4
 1034 0e20 25141E1F 		fmadd	s5, s1, s30, s5
 1035 0e24 44121D1F 		fmadd	s4, s18, s29, s4
 1036 0e28 65171D1F 		fmadd	s5, s27, s29, s5
 1037 0e2c E4101C1F 		fmadd	s4, s7, s28, s4
 1038 0e30 05161C1F 		fmadd	s5, s16, s28, s5
 1039 0e34 E30B052D 		stp	s3, s2, [sp, 40]
 1040 0e38 C30A3F1E 		fmul	s3, s22, s31
 1041 0e3c FF0B381E 		fmul	s31, s31, s24
 1042 0e40 830E1E1F 		fmadd	s3, s20, s30, s3
 1043 0e44 DE7F171F 		fmadd	s30, s30, s23, s31
 1044 0e48 A30F111F 		fmadd	s3, s29, s17, s3
 1045 0e4c BD7B151F 		fmadd	s29, s29, s21, s30
 1046 0e50 830F061F 		fmadd	s3, s28, s6, s3
 1047 0e54 9C77131F 		fmadd	s28, s28, s19, s29
 1048 0e58 E513062D 		stp	s5, s4, [sp, 48]
 1049 0e5c 643C40BD 		ldr	s4, [x3, 60]
 1050 0e60 7E24442D 		ldp	s30, s9, [x3, 32]
 1051 0e64 7FA0462D 		ldp	s31, s8, [x3, 52]
 1052 0e68 65F4452D 		ldp	s5, s29, [x3, 44]
 1053 0e6c E373072D 		stp	s3, s28, [sp, 56]
 1054 0e70 7C2840BD 		ldr	s28, [x3, 40]
 1055 0e74 430B291E 		fmul	s3, s26, s9
 1056 0e78 FA0B3A1E 		fmul	s26, s31, s26
 1057 0e7c C20A291E 		fmul	s2, s22, s9
 1058 0e80 230C1E1F 		fmadd	s3, s1, s30, s3
 1059 0e84 F60B361E 		fmul	s22, s31, s22
 1060 0e88 A16B011F 		fmadd	s1, s29, s1, s26
 1061 0e8c FA0B391E 		fmul	s26, s31, s25
 1062 0e90 390B291E 		fmul	s25, s25, s9
 1063 0e94 090B291E 		fmul	s9, s24, s9
 1064 0e98 F80B381E 		fmul	s24, s31, s24
 1065 0e9c BA6B001F 		fmadd	s26, s29, s0, s26
 1066 0ea0 820A1E1F 		fmadd	s2, s20, s30, s2
 1067 0ea4 00641E1F 		fmadd	s0, s0, s30, s25
 1068 0ea8 B45B141F 		fmadd	s20, s29, s20, s22
 1069 0eac FE261E1F 		fmadd	s30, s23, s30, s9
 1070 0eb0 B763171F 		fmadd	s23, s29, s23, s24
 1071 0eb4 01051B1F 		fmadd	s1, s8, s27, s1
AARCH64 GAS  C:\Users\ldebo\AppData\Local\Temp\cchOloIf.s 			page 20


 1072 0eb8 630F1C1F 		fmadd	s3, s27, s28, s3
 1073 0ebc 40021C1F 		fmadd	s0, s18, s28, s0
 1074 0ec0 220A1C1F 		fmadd	s2, s17, s28, s2
 1075 0ec4 1269121F 		fmadd	s18, s8, s18, s26
 1076 0ec8 BC7A1C1F 		fmadd	s28, s21, s28, s30
 1077 0ecc 1151111F 		fmadd	s17, s8, s17, s20
 1078 0ed0 155D151F 		fmadd	s21, s8, s21, s23
 1079 0ed4 E000051F 		fmadd	s0, s7, s5, s0
 1080 0ed8 C208051F 		fmadd	s2, s6, s5, s2
 1081 0edc 030E051F 		fmadd	s3, s16, s5, s3
 1082 0ee0 8104101F 		fmadd	s1, s4, s16, s1
 1083 0ee4 6572051F 		fmadd	s5, s19, s5, s28
 1084 0ee8 8748071F 		fmadd	s7, s4, s7, s18
 1085 0eec 8644061F 		fmadd	s6, s4, s6, s17
 1086 0ef0 9354131F 		fmadd	s19, s4, s19, s21
 1087 0ef4 E303082D 		stp	s3, s0, [sp, 64]
 1088 0ef8 E217092D 		stp	s2, s5, [sp, 72]
 1089 0efc E11F0A2D 		stp	s1, s7, [sp, 80]
 1090 0f00 E64F0B2D 		stp	s6, s19, [sp, 88]
 1091 0f04 00000094 		bl	memcpy
 1092 0f08 E827416D 		ldp	d8, d9, [sp, 16]
 1093 0f0c FE0746F8 		ldr	x30, [sp], 96
 1094 0f10 C0035FD6 		ret
 1095              		.size	MultiplyMatrix3D, .-MultiplyMatrix3D
 1096              		.align	2
 1097 0f14 1F2003D5 		.p2align 4,,15
 1097      1F2003D5 
 1097      1F2003D5 
 1098              		.global	TransformPoint3D
 1099              		.type	TransformPoint3D, %function
 1100              	TransformPoint3D:
 1101 0f20 0414462D 		ldp	s4, s5, [x0, 48]
 1102 0f24 14102E1E 		fmov	s20, 1.0e+0
 1103 0f28 0354472D 		ldp	s3, s21, [x0, 56]
 1104 0f2c 114C402D 		ldp	s17, s19, [x0]
 1105 0f30 2508251E 		fmul	s5, s1, s5
 1106 0f34 8414001F 		fmadd	s4, s4, s0, s5
 1107 0f38 060840BD 		ldr	s6, [x0, 8]
 1108 0f3c 1048422D 		ldp	s16, s18, [x0, 16]
 1109 0f40 6310021F 		fmadd	s3, s3, s2, s4
 1110 0f44 0758442D 		ldp	s7, s22, [x0, 32]
 1111 0f48 3308331E 		fmul	s19, s1, s19
 1112 0f4c 051840BD 		ldr	s5, [x0, 24]
 1113 0f50 314E001F 		fmadd	s17, s17, s0, s19
 1114 0f54 3208321E 		fmul	s18, s1, s18
 1115 0f58 042840BD 		ldr	s4, [x0, 40]
 1116 0f5c 104A001F 		fmadd	s16, s16, s0, s18
 1117 0f60 C644021F 		fmadd	s6, s6, s2, s17
 1118 0f64 2108361E 		fmul	s1, s1, s22
 1119 0f68 E104001F 		fmadd	s1, s7, s0, s1
 1120 0f6c A040021F 		fmadd	s0, s5, s2, s16
 1121 0f70 8204021F 		fmadd	s2, s4, s2, s1
 1122 0f74 070C40BD 		ldr	s7, [x0, 12]
 1123 0f78 051C40BD 		ldr	s5, [x0, 28]
 1124 0f7c 6128351E 		fadd	s1, s3, s21
 1125 0f80 042C40BD 		ldr	s4, [x0, 44]
 1126 0f84 C328271E 		fadd	s3, s6, s7
AARCH64 GAS  C:\Users\ldebo\AppData\Local\Temp\cchOloIf.s 			page 21


 1127 0f88 2820201E 		fcmp	s1, #0.0
 1128 0f8c 0028251E 		fadd	s0, s0, s5
 1129 0f90 4228241E 		fadd	s2, s2, s4
 1130 0f94 2414341E 		fccmp	s1, s20, 4, ne
 1131 0f98 80000054 		beq	.L158
 1132 0f9c 6318211E 		fdiv	s3, s3, s1
 1133 0fa0 0018211E 		fdiv	s0, s0, s1
 1134 0fa4 4218211E 		fdiv	s2, s2, s1
 1135              	.L158:
 1136 0fa8 410000B4 		cbz	x1, .L159
 1137 0fac 230000BD 		str	s3, [x1]
 1138              	.L159:
 1139 0fb0 420000B4 		cbz	x2, .L160
 1140 0fb4 400000BD 		str	s0, [x2]
 1141              	.L160:
 1142 0fb8 430000B4 		cbz	x3, .L157
 1143 0fbc 620000BD 		str	s2, [x3]
 1144              	.L157:
 1145 0fc0 C0035FD6 		ret
 1146              		.size	TransformPoint3D, .-TransformPoint3D
 1147              		.align	2
 1148 0fc4 1F2003D5 		.p2align 4,,15
 1148      1F2003D5 
 1148      1F2003D5 
 1149              		.global	InitV3D
 1150              		.type	InitV3D, %function
 1151              	InitV3D:
 1152 0fd0 FFC300D1 		sub	sp, sp, #48
 1153 0fd4 80008052 		mov	w0, 4
 1154 0fd8 21008052 		mov	w1, 1
 1155 0fdc 04018052 		mov	w4, 8
 1156 0fe0 47028052 		mov	w7, 18
 1157 0fe4 6700A072 		movk	w7, 0x3, lsl 16
 1158 0fe8 E00300B9 		str	w0, [sp]
 1159 0fec 06509652 		mov	w6, 45696
 1160 0ff0 C6DCA172 		movk	w6, 0xee6, lsl 16
 1161 0ff4 E00B00B9 		str	w0, [sp, 8]
 1162 0ff8 A5008052 		mov	w5, 5
 1163 0ffc E11300B9 		str	w1, [sp, 16]
 1164 1000 E303042A 		mov	w3, w4
 1165 1004 42009052 		mov	w2, 32770
 1166 1008 6200A072 		movk	w2, 0x3, lsl 16
 1167 100c FE1300F9 		str	x30, [sp, 32]
 1168 1010 21018052 		mov	w1, 9
 1169 1014 000080D2 		mov	x0, 0
 1170 1018 00000094 		bl	mailbox_tag_message
 1171 101c 001C0072 		ands	w0, w0, 255
 1172 1020 20010054 		beq	.L175
 1173 1024 00000090 		adrp	x0, RPi_IO_Base_Addr
 1174 1028 000040B9 		ldr	w0, [x0, #:lo12:RPi_IO_Base_Addr]
 1175 102c C16A8652 		mov	w1, 13142
 1176 1030 8148A072 		movk	w1, 0x244, lsl 16
 1177 1034 00007011 		add	w0, w0, 12582912
 1178 1038 000040B9 		ldr	w0, [x0]
 1179 103c 1F00016B 		cmp	w0, w1
 1180 1040 E0179F1A 		cset	w0, eq
 1181              	.L175:
AARCH64 GAS  C:\Users\ldebo\AppData\Local\Temp\cchOloIf.s 			page 22


 1182 1044 FE1340F9 		ldr	x30, [sp, 32]
 1183 1048 FFC30091 		add	sp, sp, 48
 1184 104c C0035FD6 		ret
 1185              		.size	InitV3D, .-InitV3D
 1186              		.align	2
 1187              		.p2align 4,,15
 1188              		.global	V3D_mem_alloc
 1189              		.type	V3D_mem_alloc, %function
 1190              	V3D_mem_alloc:
 1191 1050 FE0F1DF8 		str	x30, [sp, -48]!
 1192 1054 84018052 		mov	w4, 12
 1193 1058 E703022A 		mov	w7, w2
 1194 105c E203042A 		mov	w2, w4
 1195 1060 E603012A 		mov	w6, w1
 1196 1064 E503002A 		mov	w5, w0
 1197 1068 6200A072 		movk	w2, 0x3, lsl 16
 1198 106c E0630091 		add	x0, sp, 24
 1199 1070 E303042A 		mov	w3, w4
 1200 1074 C1008052 		mov	w1, 6
 1201 1078 00000094 		bl	mailbox_tag_message
 1202 107c 1F1C0072 		tst	w0, 255
 1203 1080 E12740B9 		ldr	w1, [sp, 36]
 1204 1084 FE0743F8 		ldr	x30, [sp], 48
 1205 1088 20109F1A 		csel	w0, w1, wzr, ne
 1206 108c C0035FD6 		ret
 1207              		.size	V3D_mem_alloc, .-V3D_mem_alloc
 1208              		.align	2
 1209              		.p2align 4,,15
 1210              		.global	V3D_mem_free
 1211              		.type	V3D_mem_free, %function
 1212              	V3D_mem_free:
 1213 1090 84008052 		mov	w4, 4
 1214 1094 E503002A 		mov	w5, w0
 1215 1098 E2018052 		mov	w2, 15
 1216 109c 6200A072 		movk	w2, 0x3, lsl 16
 1217 10a0 E303042A 		mov	w3, w4
 1218 10a4 E103042A 		mov	w1, w4
 1219 10a8 000080D2 		mov	x0, 0
 1220 10ac 00000014 		b	mailbox_tag_message
 1221              		.size	V3D_mem_free, .-V3D_mem_free
 1222              		.align	2
 1223              		.p2align 4,,15
 1224              		.global	V3D_mem_lock
 1225              		.type	V3D_mem_lock, %function
 1226              	V3D_mem_lock:
 1227 10b0 FE0F1EF8 		str	x30, [sp, -32]!
 1228 10b4 84008052 		mov	w4, 4
 1229 10b8 E503002A 		mov	w5, w0
 1230 10bc E103042A 		mov	w1, w4
 1231 10c0 E0430091 		add	x0, sp, 16
 1232 10c4 E303042A 		mov	w3, w4
 1233 10c8 A2018052 		mov	w2, 13
 1234 10cc 6200A072 		movk	w2, 0x3, lsl 16
 1235 10d0 00000094 		bl	mailbox_tag_message
 1236 10d4 1F1C0072 		tst	w0, 255
 1237 10d8 E11F40B9 		ldr	w1, [sp, 28]
 1238 10dc FE0742F8 		ldr	x30, [sp], 32
AARCH64 GAS  C:\Users\ldebo\AppData\Local\Temp\cchOloIf.s 			page 23


 1239 10e0 20109F1A 		csel	w0, w1, wzr, ne
 1240 10e4 C0035FD6 		ret
 1241              		.size	V3D_mem_lock, .-V3D_mem_lock
 1242              		.align	2
 1243 10e8 1F2003D5 		.p2align 4,,15
 1243      1F2003D5 
 1244              		.global	V3D_mem_unlock
 1245              		.type	V3D_mem_unlock, %function
 1246              	V3D_mem_unlock:
 1247 10f0 84008052 		mov	w4, 4
 1248 10f4 E503002A 		mov	w5, w0
 1249 10f8 C2018052 		mov	w2, 14
 1250 10fc 6200A072 		movk	w2, 0x3, lsl 16
 1251 1100 E303042A 		mov	w3, w4
 1252 1104 E103042A 		mov	w1, w4
 1253 1108 000080D2 		mov	x0, 0
 1254 110c 00000014 		b	mailbox_tag_message
 1255              		.size	V3D_mem_unlock, .-V3D_mem_unlock
 1256              		.align	2
 1257              		.p2align 4,,15
 1258              		.global	V3D_execute_code
 1259              		.type	V3D_execute_code, %function
 1260              	V3D_execute_code:
 1261 1110 FFC300D1 		sub	sp, sp, #48
 1262 1114 E703022A 		mov	w7, w2
 1263 1118 02028052 		mov	w2, 16
 1264 111c 6200A072 		movk	w2, 0x3, lsl 16
 1265 1120 E30300B9 		str	w3, [sp]
 1266 1124 E40B00B9 		str	w4, [sp, 8]
 1267 1128 84038052 		mov	w4, 28
 1268 112c E51300B9 		str	w5, [sp, 16]
 1269 1130 E303042A 		mov	w3, w4
 1270 1134 E61B00B9 		str	w6, [sp, 24]
 1271 1138 E503002A 		mov	w5, w0
 1272 113c FE1300F9 		str	x30, [sp, 32]
 1273 1140 E603012A 		mov	w6, w1
 1274 1144 000080D2 		mov	x0, 0
 1275 1148 41018052 		mov	w1, 10
 1276 114c 00000094 		bl	mailbox_tag_message
 1277 1150 FE1340F9 		ldr	x30, [sp, 32]
 1278 1154 FFC30091 		add	sp, sp, 48
 1279 1158 C0035FD6 		ret
 1280              		.size	V3D_execute_code, .-V3D_execute_code
 1281              		.align	2
 1282 115c 1F2003D5 		.p2align 4,,15
 1283              		.global	V3D_execute_qpu
 1284              		.type	V3D_execute_qpu, %function
 1285              	V3D_execute_qpu:
 1286 1160 FF8300D1 		sub	sp, sp, #32
 1287 1164 E703022A 		mov	w7, w2
 1288 1168 E603012A 		mov	w6, w1
 1289 116c E503002A 		mov	w5, w0
 1290 1170 04028052 		mov	w4, 16
 1291 1174 E1008052 		mov	w1, 7
 1292 1178 E30300B9 		str	w3, [sp]
 1293 117c 22028052 		mov	w2, 17
 1294 1180 6200A072 		movk	w2, 0x3, lsl 16
AARCH64 GAS  C:\Users\ldebo\AppData\Local\Temp\cchOloIf.s 			page 24


 1295 1184 FE0B00F9 		str	x30, [sp, 16]
 1296 1188 E303042A 		mov	w3, w4
 1297 118c 000080D2 		mov	x0, 0
 1298 1190 00000094 		bl	mailbox_tag_message
 1299 1194 FE0B40F9 		ldr	x30, [sp, 16]
 1300 1198 FF830091 		add	sp, sp, 32
 1301 119c C0035FD6 		ret
 1302              		.size	V3D_execute_qpu, .-V3D_execute_qpu
 1303              		.align	2
 1304              		.p2align 4,,15
 1305              		.global	DoRotate
 1306              		.type	DoRotate, %function
 1307              	DoRotate:
 1308 11a0 F353B1A9 		stp	x19, x20, [sp, -240]!
 1309 11a4 A11A005C 		ldr	d1, .LC28
 1310 11a8 E81300FD 		str	d8, [sp, 32]
 1311 11ac 03000090 		adrp	x3, .LANCHOR1
 1312 11b0 680040BD 		ldr	s8, [x3, #:lo12:.LANCHOR1]
 1313 11b4 FE0F00F9 		str	x30, [sp, 24]
 1314 11b8 0828281E 		fadd	s8, s0, s8
 1315 11bc 00C1221E 		fcvt	d0, s8
 1316 11c0 1020611E 		fcmpe	d0, d1
 1317 11c4 6B000054 		blt	.L216
 1318 11c8 0838611E 		fsub	d8, d0, d1
 1319 11cc 0841621E 		fcvt	s8, d8
 1320              	.L216:
 1321 11d0 680000BD 		str	s8, [x3, #:lo12:.LANCHOR1]
 1322 11d4 A21800B4 		cbz	x2, .L194
 1323 11d8 432040F9 		ldr	x3, [x2, 64]
 1324 11dc 631800B4 		cbz	x3, .L194
 1325 11e0 432440F9 		ldr	x3, [x2, 72]
 1326 11e4 231800B4 		cbz	x3, .L194
 1327 11e8 0041201E 		fmov	s0, s8
 1328 11ec F303012A 		mov	w19, w1
 1329 11f0 F403002A 		mov	w20, w0
 1330 11f4 F50B00F9 		str	x21, [sp, 16]
 1331 11f8 E91700FD 		str	d9, [sp, 40]
 1332 11fc F50302AA 		mov	x21, x2
 1333 1200 00000094 		bl	sinf
 1334 1204 0940201E 		fmov	s9, s0
 1335 1208 0041201E 		fmov	s0, s8
 1336 120c 00000094 		bl	cosf
 1337 1210 0840201E 		fmov	s8, s0
 1338 1214 020880D2 		mov	x2, 64
 1339 1218 A1420191 		add	x1, x21, 80
 1340 121c E0C30191 		add	x0, sp, 112
 1341 1220 00000094 		bl	memcpy
 1342 1224 3B41211E 		fneg	s27, s9
 1343 1228 0104000F 		movi	v1.2s, #0
 1344 122c FA8B40BD 		ldr	s26, [sp, 136]
 1345 1230 E05B4E2D 		ldp	s0, s22, [sp, 112]
 1346 1234 F0474F2D 		ldp	s16, s17, [sp, 120]
 1347 1238 E61F502D 		ldp	s6, s7, [sp, 128]
 1348 123c D70A211E 		fmul	s23, s22, s1
 1349 1240 175C011F 		fmadd	s23, s0, s1, s23
 1350 1244 3909361E 		fmul	s25, s9, s22
 1351 1248 1609361E 		fmul	s22, s8, s22
AARCH64 GAS  C:\Users\ldebo\AppData\Local\Temp\cchOloIf.s 			page 25


 1352 124c 1965001F 		fmadd	s25, s8, s0, s25
 1353 1250 765B001F 		fmadd	s22, s27, s0, s22
 1354 1254 145E011F 		fmadd	s20, s16, s1, s23
 1355 1258 FD7F522D 		ldp	s29, s31, [sp, 144]
 1356 125c 1966011F 		fmadd	s25, s16, s1, s25
 1357 1260 FC7B542D 		ldp	s28, s30, [sp, 160]
 1358 1264 165A011F 		fmadd	s22, s16, s1, s22
 1359 1268 E508211E 		fmul	s5, s7, s1
 1360 126c 2009271E 		fmul	s0, s9, s7
 1361 1270 F72A301E 		fadd	s23, s23, s16
 1362 1274 F08F40BD 		ldr	s16, [sp, 140]
 1363 1278 0709271E 		fmul	s7, s8, s7
 1364 127c 0001061F 		fmadd	s0, s8, s6, s0
 1365 1280 671F061F 		fmadd	s7, s27, s6, s7
 1366 1284 C514011F 		fmadd	s5, s6, s1, s5
 1367 1288 3966011F 		fmadd	s25, s17, s1, s25
 1368 128c 4003011F 		fmadd	s0, s26, s1, s0
 1369 1290 471F011F 		fmadd	s7, s26, s1, s7
 1370 1294 365A011F 		fmadd	s22, s17, s1, s22
 1371 1298 0002011F 		fmadd	s0, s16, s1, s0
 1372 129c 071E011F 		fmadd	s7, s16, s1, s7
 1373 12a0 E30B211E 		fmul	s3, s31, s1
 1374 12a4 D80B211E 		fmul	s24, s30, s1
 1375 12a8 E49B40BD 		ldr	s4, [sp, 152]
 1376 12ac A30F011F 		fmadd	s3, s29, s1, s3
 1377 12b0 E2AB40BD 		ldr	s2, [sp, 168]
 1378 12b4 9863011F 		fmadd	s24, s28, s1, s24
 1379 12b8 5317011F 		fmadd	s19, s26, s1, s5
 1380 12bc 26093F1E 		fmul	s6, s9, s31
 1381 12c0 A5283A1E 		fadd	s5, s5, s26
 1382 12c4 FA9F40BD 		ldr	s26, [sp, 156]
 1383 12c8 920C011F 		fmadd	s18, s4, s1, s3
 1384 12cc 1F093F1E 		fmul	s31, s8, s31
 1385 12d0 5560011F 		fmadd	s21, s2, s1, s24
 1386 12d4 F95B162D 		stp	s25, s22, [sp, 176]
 1387 12d8 F9AF40BD 		ldr	s25, [sp, 172]
 1388 12dc E01F182D 		stp	s0, s7, [sp, 192]
 1389 12e0 C00B291E 		fmul	s0, s30, s9
 1390 12e4 DE0B281E 		fmul	s30, s30, s8
 1391 12e8 06191D1F 		fmadd	s6, s8, s29, s6
 1392 12ec 00011C1F 		fmadd	s0, s8, s28, s0
 1393 12f0 7D7F1D1F 		fmadd	s29, s27, s29, s31
 1394 12f4 7B7B1C1F 		fmadd	s27, s27, s28, s30
 1395 12f8 8618011F 		fmadd	s6, s4, s1, s6
 1396 12fc 4000011F 		fmadd	s0, s2, s1, s0
 1397 1300 6328241E 		fadd	s3, s3, s4
 1398 1304 5828381E 		fadd	s24, s2, s24
 1399 1308 8474011F 		fmadd	s4, s4, s1, s29
 1400 130c 426C011F 		fmadd	s2, s2, s1, s27
 1401 1310 375E011F 		fmadd	s23, s17, s1, s23
 1402 1314 0516011F 		fmadd	s5, s16, s1, s5
 1403 1318 461B011F 		fmadd	s6, s26, s1, s6
 1404 131c 4413011F 		fmadd	s4, s26, s1, s4
 1405 1320 430F011F 		fmadd	s3, s26, s1, s3
 1406 1324 2003011F 		fmadd	s0, s25, s1, s0
 1407 1328 220B011F 		fmadd	s2, s25, s1, s2
 1408 132c 2163011F 		fmadd	s1, s25, s1, s24
AARCH64 GAS  C:\Users\ldebo\AppData\Local\Temp\cchOloIf.s 			page 26


 1409 1330 912A311E 		fadd	s17, s20, s17
 1410 1334 702A301E 		fadd	s16, s19, s16
 1411 1338 522A3A1E 		fadd	s18, s18, s26
 1412 133c 352B351E 		fadd	s21, s25, s21
 1413 1340 E6131A2D 		stp	s6, s4, [sp, 208]
 1414 1344 E00B1C2D 		stp	s0, s2, [sp, 224]
 1415 1348 F747172D 		stp	s23, s17, [sp, 184]
 1416 134c E543192D 		stp	s5, s16, [sp, 200]
 1417 1350 E34B1B2D 		stp	s3, s18, [sp, 216]
 1418 1354 E1571D2D 		stp	s1, s21, [sp, 232]
 1419 1358 E61F4BA9 		ldp	x6, x7, [sp, 176]
 1420 135c E61F03A9 		stp	x6, x7, [sp, 48]
 1421 1360 A89240B9 		ldr	w8, [x21, 144]
 1422 1364 E4174CA9 		ldp	x4, x5, [sp, 192]
 1423 1368 E41704A9 		stp	x4, x5, [sp, 64]
 1424 136c E20F4DA9 		ldp	x2, x3, [sp, 208]
 1425 1370 E20F05A9 		stp	x2, x3, [sp, 80]
 1426 1374 E0074EA9 		ldp	x0, x1, [sp, 224]
 1427 1378 E00706A9 		stp	x0, x1, [sp, 96]
 1428 137c A30A44A9 		ldp	x3, x2, [x21, 64]
 1429 1380 080B0034 		cbz	w8, .L215
 1430 1384 08050051 		sub	w8, w8, #1
 1431 1388 0A0380D2 		mov	x10, 24
 1432 138c 8402221E 		scvtf	s4, w20
 1433 1390 6302221E 		scvtf	s3, w19
 1434 1394 05102E1E 		fmov	s5, 1.0e+0
 1435 1398 0C1080D2 		mov	x12, 128
 1436 139c 0A290A9B 		madd	x10, x8, x10, x10
 1437 13a0 CB0780D2 		mov	x11, 62
 1438 13a4 F963462D 		ldp	s25, s24, [sp, 48]
 1439 13a8 6A000A8B 		add	x10, x3, x10
 1440 13ac F75B472D 		ldp	s23, s22, [sp, 56]
 1441 13b0 F553482D 		ldp	s21, s20, [sp, 64]
 1442 13b4 F34B492D 		ldp	s19, s18, [sp, 72]
 1443 13b8 F1434C2D 		ldp	s17, s16, [sp, 96]
 1444 13bc E71B4D2D 		ldp	s7, s6, [sp, 104]
 1445 13c0 18000014 		b	.L199
 1446 13c4 1F2003D5 		.p2align 3
 1447              	.L219:
 1448 13c8 2118221E 		fdiv	s1, s1, s2
 1449 13cc 7F100039 		strb	wzr, [x3, 4]
 1450 13d0 0018221E 		fdiv	s0, s0, s2
 1451 13d4 7F140039 		strb	wzr, [x3, 5]
 1452 13d8 6C180039 		strb	w12, [x3, 6]
 1453 13dc 42300091 		add	x2, x2, 12
 1454 13e0 6B1C0039 		strb	w11, [x3, 7]
 1455 13e4 63600091 		add	x3, x3, 24
 1456 13e8 2128241E 		fadd	s1, s1, s4
 1457 13ec 0028231E 		fadd	s0, s0, s3
 1458              	.L218:
 1459 13f0 2100381E 		fcvtzs	w1, s1
 1460 13f4 0000381E 		fcvtzs	w0, s0
 1461 13f8 7F000AEB 		cmp	x3, x10
 1462 13fc 212C1C53 		ubfiz	w1, w1, 4, 12
 1463 1400 002C1C53 		ubfiz	w0, w0, 4, 12
 1464 1404 61801E38 		strb	w1, [x3, -24]
 1465 1408 60A01E38 		strb	w0, [x3, -22]
AARCH64 GAS  C:\Users\ldebo\AppData\Local\Temp\cchOloIf.s 			page 27


 1466 140c 213C48D3 		ubfx	x1, x1, 8, 8
 1467 1410 003C48D3 		ubfx	x0, x0, 8, 8
 1468 1414 61901E38 		strb	w1, [x3, -23]
 1469 1418 60B01E38 		strb	w0, [x3, -21]
 1470 141c 20060054 		beq	.L215
 1471              	.L199:
 1472 1420 40104039 		ldrb	w0, [x2, 4]
 1473 1424 4D144039 		ldrb	w13, [x2, 5]
 1474 1428 4F004039 		ldrb	w15, [x2]
 1475 142c 49044039 		ldrb	w9, [x2, 1]
 1476 1430 48184039 		ldrb	w8, [x2, 6]
 1477 1434 0D200DAA 		orr	x13, x0, x13, lsl 8
 1478 1438 47084039 		ldrb	w7, [x2, 2]
 1479 143c 441C4039 		ldrb	w4, [x2, 7]
 1480 1440 E92109AA 		orr	x9, x15, x9, lsl 8
 1481 1444 4E204039 		ldrb	w14, [x2, 8]
 1482 1448 A84108AA 		orr	x8, x13, x8, lsl 16
 1483 144c 46244039 		ldrb	w6, [x2, 9]
 1484 1450 274107AA 		orr	x7, x9, x7, lsl 16
 1485 1454 410C4039 		ldrb	w1, [x2, 3]
 1486 1458 0461042A 		orr	w4, w8, w4, lsl 24
 1487 145c 45284039 		ldrb	w5, [x2, 10]
 1488 1460 9B00271E 		fmov	s27, w4
 1489 1464 402C4039 		ldrb	w0, [x2, 11]
 1490 1468 C42106AA 		orr	x4, x14, x6, lsl 8
 1491 146c E160012A 		orr	w1, w7, w1, lsl 24
 1492 1470 3A00271E 		fmov	s26, w1
 1493 1474 814005AA 		orr	x1, x4, x5, lsl 16
 1494 1478 620B301E 		fmul	s2, s27, s16
 1495 147c 2060002A 		orr	w0, w1, w0, lsl 24
 1496 1480 0000271E 		fmov	s0, w0
 1497 1484 420B111F 		fmadd	s2, s26, s17, s2
 1498 1488 610B381E 		fmul	s1, s27, s24
 1499 148c 0208071F 		fmadd	s2, s0, s7, s2
 1500 1490 7B0B341E 		fmul	s27, s27, s20
 1501 1494 4107191F 		fmadd	s1, s26, s25, s1
 1502 1498 5A6F151F 		fmadd	s26, s26, s21, s27
 1503 149c 0104171F 		fmadd	s1, s0, s23, s1
 1504 14a0 0068131F 		fmadd	s0, s0, s19, s26
 1505 14a4 4228261E 		fadd	s2, s2, s6
 1506 14a8 2128361E 		fadd	s1, s1, s22
 1507 14ac 0028321E 		fadd	s0, s0, s18
 1508 14b0 4820201E 		fcmp	s2, #0.0
 1509 14b4 4414251E 		fccmp	s2, s5, 4, ne
 1510 14b8 81F8FF54 		bne	.L219
 1511 14bc 7F100039 		strb	wzr, [x3, 4]
 1512 14c0 2128241E 		fadd	s1, s1, s4
 1513 14c4 7F140039 		strb	wzr, [x3, 5]
 1514 14c8 0028231E 		fadd	s0, s0, s3
 1515 14cc 6C180039 		strb	w12, [x3, 6]
 1516 14d0 42300091 		add	x2, x2, 12
 1517 14d4 6B1C0039 		strb	w11, [x3, 7]
 1518 14d8 63600091 		add	x3, x3, 24
 1519 14dc C5FFFF17 		b	.L218
 1520              		.p2align 3
 1521              	.L215:
 1522 14e0 F50B40F9 		ldr	x21, [sp, 16]
AARCH64 GAS  C:\Users\ldebo\AppData\Local\Temp\cchOloIf.s 			page 28


 1523 14e4 E91740FD 		ldr	d9, [sp, 40]
 1524              	.L194:
 1525 14e8 FE0F40F9 		ldr	x30, [sp, 24]
 1526 14ec E81340FD 		ldr	d8, [sp, 32]
 1527 14f0 F353CFA8 		ldp	x19, x20, [sp], 240
 1528 14f4 C0035FD6 		ret
 1529              		.size	DoRotate, .-DoRotate
 1530              		.align	3
 1531              	.LC28:
 1532 14f8 4AD8124D 		.word	1293080650
 1533 14fc FB211940 		.word	1075388923
 1534              		.align	2
 1535              		.p2align 4,,15
 1536              		.global	RenderModel
 1537              		.type	RenderModel, %function
 1538              	RenderModel:
 1539 1500 800800B4 		cbz	x0, .L220
 1540 1504 02000090 		adrp	x2, RPi_IO_Base_Addr
 1541 1508 410040B9 		ldr	w1, [x2, #:lo12:RPi_IO_Base_Addr]
 1542 150c 85008052 		mov	w5, 4
 1543 1510 E4CF0032 		mov	w4, 252645135
 1544 1514 21007011 		add	w1, w1, 12582912
 1545 1518 03048052 		mov	w3, 32
 1546 151c 252000B9 		str	w5, [x1, 32]
 1547 1520 410040B9 		ldr	w1, [x2, #:lo12:RPi_IO_Base_Addr]
 1548 1524 21007011 		add	w1, w1, 12582912
 1549 1528 242400B9 		str	w4, [x1, 36]
 1550 152c 410040B9 		ldr	w1, [x2, #:lo12:RPi_IO_Base_Addr]
 1551 1530 21007011 		add	w1, w1, 12582912
 1552 1534 230001B9 		str	w3, [x1, 256]
 1553 1538 440040B9 		ldr	w4, [x2, #:lo12:RPi_IO_Base_Addr]
 1554 153c 84007011 		add	w4, w4, 12582912
 1555 1540 83000491 		add	x3, x4, 256
 1556 1544 1F2003D5 		.p2align 3
 1557              	.L222:
 1558 1548 610040B9 		ldr	w1, [x3]
 1559 154c E1FF2F37 		tbnz	x1, 5, .L222
 1560 1550 21008052 		mov	w1, 1
 1561 1554 813401B9 		str	w1, [x4, 308]
 1562 1558 410040B9 		ldr	w1, [x2, #:lo12:RPi_IO_Base_Addr]
 1563 155c 030440B9 		ldr	w3, [x0, 4]
 1564 1560 21007011 		add	w1, w1, 12582912
 1565 1564 231001B9 		str	w3, [x1, 272]
 1566 1568 410040B9 		ldr	w1, [x2, #:lo12:RPi_IO_Base_Addr]
 1567 156c 041C40B9 		ldr	w4, [x0, 28]
 1568 1570 21007011 		add	w1, w1, 12582912
 1569 1574 030440B9 		ldr	w3, [x0, 4]
 1570 1578 6300040B 		add	w3, w3, w4
 1571 157c 230801B9 		str	w3, [x1, 264]
 1572 1580 440040B9 		ldr	w4, [x2, #:lo12:RPi_IO_Base_Addr]
 1573 1584 84007011 		add	w4, w4, 12582912
 1574 1588 83D00491 		add	x3, x4, 308
 1575 158c 1F2003D5 		.p2align 3
 1576              	.L223:
 1577 1590 610040B9 		ldr	w1, [x3]
 1578 1594 E1FFFF34 		cbz	w1, .L223
 1579 1598 01048052 		mov	w1, 32
AARCH64 GAS  C:\Users\ldebo\AppData\Local\Temp\cchOloIf.s 			page 29


 1580 159c 810401B9 		str	w1, [x4, 260]
 1581 15a0 440040B9 		ldr	w4, [x2, #:lo12:RPi_IO_Base_Addr]
 1582 15a4 84007011 		add	w4, w4, 12582912
 1583 15a8 83100491 		add	x3, x4, 260
 1584 15ac 1F2003D5 		.p2align 3
 1585              	.L224:
 1586 15b0 610040B9 		ldr	w1, [x3]
 1587 15b4 E1FF2F37 		tbnz	x1, 5, .L224
 1588 15b8 21008052 		mov	w1, 1
 1589 15bc 813801B9 		str	w1, [x4, 312]
 1590 15c0 04409C52 		mov	w4, 57856
 1591 15c4 2400A072 		movk	w4, 0x1, lsl 16
 1592 15c8 410040B9 		ldr	w1, [x2, #:lo12:RPi_IO_Base_Addr]
 1593 15cc 030440B9 		ldr	w3, [x0, 4]
 1594 15d0 21007011 		add	w1, w1, 12582912
 1595 15d4 6300040B 		add	w3, w3, w4
 1596 15d8 231401B9 		str	w3, [x1, 276]
 1597 15dc 430040B9 		ldr	w3, [x2, #:lo12:RPi_IO_Base_Addr]
 1598 15e0 010440B9 		ldr	w1, [x0, 4]
 1599 15e4 63007011 		add	w3, w3, 12582912
 1600 15e8 002040B9 		ldr	w0, [x0, 32]
 1601 15ec 2000000B 		add	w0, w1, w0
 1602 15f0 0000040B 		add	w0, w0, w4
 1603 15f4 600C01B9 		str	w0, [x3, 268]
 1604 15f8 410040B9 		ldr	w1, [x2, #:lo12:RPi_IO_Base_Addr]
 1605 15fc 21007011 		add	w1, w1, 12582912
 1606 1600 21E00491 		add	x1, x1, 312
 1607 1604 1F2003D5 		.p2align 3
 1608              	.L225:
 1609 1608 200040B9 		ldr	w0, [x1]
 1610 160c E0FFFF34 		cbz	w0, .L225
 1611              	.L220:
 1612 1610 C0035FD6 		ret
 1613              		.size	RenderModel, .-RenderModel
 1614              		.align	2
 1615 1614 1F2003D5 		.p2align 4,,15
 1615      1F2003D5 
 1615      1F2003D5 
 1616              		.global	SetupRenderer
 1617              		.type	SetupRenderer, %function
 1618              	SetupRenderer:
 1619 1620 F353BBA9 		stp	x19, x20, [sp, -80]!
 1620 1624 FE1700F9 		str	x30, [sp, 40]
 1621 1628 402000B4 		cbz	x0, .L239
 1622 162c 84018052 		mov	w4, 12
 1623 1630 F71300F9 		str	x23, [sp, 32]
 1624 1634 F703022A 		mov	w23, w2
 1625 1638 E203042A 		mov	w2, w4
 1626 163c F55B01A9 		stp	x21, x22, [sp, 16]
 1627 1640 F30300AA 		mov	x19, x0
 1628 1644 F503032A 		mov	w21, w3
 1629 1648 F603012A 		mov	w22, w1
 1630 164c 07038052 		mov	w7, 24
 1631 1650 06008252 		mov	w6, 4096
 1632 1654 0510A052 		mov	w5, 8388608
 1633 1658 E303042A 		mov	w3, w4
 1634 165c C1008052 		mov	w1, 6
AARCH64 GAS  C:\Users\ldebo\AppData\Local\Temp\cchOloIf.s 			page 30


 1635 1660 E0E30091 		add	x0, sp, 56
 1636 1664 6200A072 		movk	w2, 0x3, lsl 16
 1637 1668 00000094 		bl	mailbox_tag_message
 1638 166c 141C0072 		ands	w20, w0, 255
 1639 1670 C01E0054 		beq	.L264
 1640 1674 E54740B9 		ldr	w5, [sp, 68]
 1641 1678 650200B9 		str	w5, [x19]
 1642 167c 651D0034 		cbz	w5, .L263
 1643 1680 84008052 		mov	w4, 4
 1644 1684 A2018052 		mov	w2, 13
 1645 1688 6200A072 		movk	w2, 0x3, lsl 16
 1646 168c E303042A 		mov	w3, w4
 1647 1690 E103042A 		mov	w1, w4
 1648 1694 E0E30091 		add	x0, sp, 56
 1649 1698 00000094 		bl	mailbox_tag_message
 1650 169c E14740B9 		ldr	w1, [sp, 68]
 1651 16a0 1F1C0072 		tst	w0, 255
 1652 16a4 20109F1A 		csel	w0, w1, wzr, ne
 1653 16a8 600600B9 		str	w0, [x19, 4]
 1654 16ac 00000094 		bl	GPUaddrToARMaddr
 1655 16b0 605A0129 		stp	w0, w22, [x19, 8]
 1656 16b4 E31F77B2 		mov	x3, 130560
 1657 16b8 C2FE0011 		add	w2, w22, 63
 1658 16bc 6440208B 		add	x4, x3, x0, uxtw
 1659 16c0 E1FE0011 		add	w1, w23, 63
 1660 16c4 427C0653 		lsr	w2, w2, 6
 1661 16c8 217C0653 		lsr	w1, w1, 6
 1662 16cc 770A0229 		stp	w23, w2, [x19, 16]
 1663 16d0 AB018052 		mov	w11, 13
 1664 16d4 611A00B9 		str	w1, [x19, 24]
 1665 16d8 01088012 		mov	w1, -65
 1666 16dc 61482038 		strb	w1, [x3, w0, uxtw]
 1667 16e0 210E8012 		mov	w1, -114
 1668 16e4 8B040039 		strb	w11, [x4, 1]
 1669 16e8 6B048052 		mov	w11, 35
 1670 16ec 81080039 		strb	w1, [x4, 2]
 1671 16f0 200C8012 		mov	w0, -98
 1672 16f4 8B100039 		strb	w11, [x4, 4]
 1673 16f8 CB058012 		mov	w11, -47
 1674 16fc 81280039 		strb	w1, [x4, 10]
 1675 1700 02098052 		mov	w2, 72
 1676 1704 81480039 		strb	w1, [x4, 18]
 1677 1708 410C8052 		mov	w1, 98
 1678 170c C60E8052 		mov	w6, 118
 1679 1710 45008052 		mov	w5, 2
 1680 1714 C30F8012 		mov	w3, -127
 1681 1718 08088052 		mov	w8, 64
 1682 171c 0C028052 		mov	w12, 16
 1683 1720 82140039 		strb	w2, [x4, 5]
 1684 1724 8B1C0039 		strb	w11, [x4, 7]
 1685 1728 490E8052 		mov	w9, 114
 1686 172c 89180039 		strb	w9, [x4, 6]
 1687 1730 270E8052 		mov	w7, 113
 1688 1734 86200039 		strb	w6, [x4, 8]
 1689 1738 6A0E8052 		mov	w10, 115
 1690 173c 87240039 		strb	w7, [x4, 9]
 1691 1740 4D0D8012 		mov	w13, -107
AARCH64 GAS  C:\Users\ldebo\AppData\Local\Temp\cchOloIf.s 			page 31


 1692 1744 8D0C0039 		strb	w13, [x4, 3]
 1693 1748 2B048052 		mov	w11, 33
 1694 174c 832C0039 		strb	w3, [x4, 11]
 1695 1750 2D098052 		mov	w13, 73
 1696 1754 8B300039 		strb	w11, [x4, 12]
 1697 1758 900B8012 		mov	w16, -93
 1698 175c 82340039 		strb	w2, [x4, 13]
 1699 1760 0B0A8052 		mov	w11, 80
 1700 1764 85380039 		strb	w5, [x4, 14]
 1701 1768 EF0F8012 		mov	w15, -128
 1702 176c 883C0039 		strb	w8, [x4, 15]
 1703 1770 8E038012 		mov	w14, -29
 1704 1774 86400039 		strb	w6, [x4, 16]
 1705 1778 8A440039 		strb	w10, [x4, 17]
 1706 177c 834C0039 		strb	w3, [x4, 19]
 1707 1780 81500039 		strb	w1, [x4, 20]
 1708 1784 A10E8052 		mov	w1, 117
 1709 1788 82540039 		strb	w2, [x4, 21]
 1710 178c 85580039 		strb	w5, [x4, 22]
 1711 1790 8C5C0039 		strb	w12, [x4, 23]
 1712 1794 88600039 		strb	w8, [x4, 24]
 1713 1798 28028052 		mov	w8, 17
 1714 179c 81640039 		strb	w1, [x4, 25]
 1715 17a0 010E8052 		mov	w1, 112
 1716 17a4 80680039 		strb	w0, [x4, 26]
 1717 17a8 836C0039 		strb	w3, [x4, 27]
 1718 17ac 23018052 		mov	w3, 9
 1719 17b0 82740039 		strb	w2, [x4, 29]
 1720 17b4 42088052 		mov	w2, 66
 1721 17b8 82780039 		strb	w2, [x4, 30]
 1722 17bc 020C8052 		mov	w2, 96
 1723 17c0 82B80039 		strb	w2, [x4, 46]
 1724 17c4 A2028052 		mov	w2, 21
 1725 17c8 82CC0039 		strb	w2, [x4, 51]
 1726 17cc 62018052 		mov	w2, 11
 1727 17d0 90700039 		strb	w16, [x4, 28]
 1728 17d4 50028052 		mov	w16, 18
 1729 17d8 887C0039 		strb	w8, [x4, 31]
 1730 17dc 83800039 		strb	w3, [x4, 32]
 1731 17e0 81840039 		strb	w1, [x4, 33]
 1732 17e4 80880039 		strb	w0, [x4, 34]
 1733 17e8 8F8C0039 		strb	w15, [x4, 35]
 1734 17ec 8E900039 		strb	w14, [x4, 36]
 1735 17f0 8D940039 		strb	w13, [x4, 37]
 1736 17f4 8B980039 		strb	w11, [x4, 38]
 1737 17f8 889C0039 		strb	w8, [x4, 39]
 1738 17fc 90A00039 		strb	w16, [x4, 40]
 1739 1800 81A40039 		strb	w1, [x4, 41]
 1740 1804 80A80039 		strb	w0, [x4, 42]
 1741 1808 8FAC0039 		strb	w15, [x4, 43]
 1742 180c 8EB00039 		strb	w14, [x4, 44]
 1743 1810 8DB40039 		strb	w13, [x4, 45]
 1744 1814 ED078012 		mov	w13, -64
 1745 1818 88BC0039 		strb	w8, [x4, 47]
 1746 181c 8DC00039 		strb	w13, [x4, 48]
 1747 1820 AD3E48D3 		ubfx	x13, x21, 8, 8
 1748 1824 86C40039 		strb	w6, [x4, 49]
AARCH64 GAS  C:\Users\ldebo\AppData\Local\Temp\cchOloIf.s 			page 32


 1749 1828 060B8012 		mov	w6, -89
 1750 182c 80C80039 		strb	w0, [x4, 50]
 1751 1830 86D00039 		strb	w6, [x4, 52]
 1752 1834 86008052 		mov	w6, 4
 1753 1838 82D40039 		strb	w2, [x4, 53]
 1754 183c 02068052 		mov	w2, 48
 1755 1840 85D80039 		strb	w5, [x4, 54]
 1756 1844 85038052 		mov	w5, 28
 1757 1848 82DC0039 		strb	w2, [x4, 55]
 1758 184c 02038012 		mov	w2, -25
 1759 1850 9FE00039 		strb	wzr, [x4, 56]
 1760 1854 81E40039 		strb	w1, [x4, 57]
 1761 1858 80E80039 		strb	w0, [x4, 58]
 1762 185c 9FEC0039 		strb	wzr, [x4, 59]
 1763 1860 82F00039 		strb	w2, [x4, 60]
 1764 1864 83F40039 		strb	w3, [x4, 61]
 1765 1868 9FF80039 		strb	wzr, [x4, 62]
 1766 186c 8CFC0039 		strb	w12, [x4, 63]
 1767 1870 AC5E50D3 		ubfx	x12, x21, 16, 8
 1768 1874 9F000139 		strb	wzr, [x4, 64]
 1769 1878 81040139 		strb	w1, [x4, 65]
 1770 187c 80080139 		strb	w0, [x4, 66]
 1771 1880 00008012 		mov	w0, -1
 1772 1884 9F0C0139 		strb	wzr, [x4, 67]
 1773 1888 82100139 		strb	w2, [x4, 68]
 1774 188c 02409CD2 		mov	x2, 57856
 1775 1890 2200A0F2 		movk	x2, 0x1, lsl 16
 1776 1894 83140139 		strb	w3, [x4, 69]
 1777 1898 9F180139 		strb	wzr, [x4, 70]
 1778 189c 8B1C0139 		strb	w11, [x4, 71]
 1779 18a0 AB7E1853 		lsr	w11, w21, 24
 1780 18a4 630A40B9 		ldr	w3, [x19, 8]
 1781 18a8 6100028B 		add	x1, x3, x2
 1782 18ac 248C0091 		add	x4, x1, 35
 1783 18b0 69682238 		strb	w9, [x3, x2]
 1784 18b4 3F040039 		strb	wzr, [x1, 1]
 1785 18b8 3F080039 		strb	wzr, [x1, 2]
 1786 18bc 3F0C0039 		strb	wzr, [x1, 3]
 1787 18c0 20100039 		strb	w0, [x1, 4]
 1788 18c4 3F140039 		strb	wzr, [x1, 5]
 1789 18c8 3F180039 		strb	wzr, [x1, 6]
 1790 18cc 3F1C0039 		strb	wzr, [x1, 7]
 1791 18d0 20200039 		strb	w0, [x1, 8]
 1792 18d4 3F240039 		strb	wzr, [x1, 9]
 1793 18d8 3F280039 		strb	wzr, [x1, 10]
 1794 18dc 3F2C0039 		strb	wzr, [x1, 11]
 1795 18e0 3F300039 		strb	wzr, [x1, 12]
 1796 18e4 3F340039 		strb	wzr, [x1, 13]
 1797 18e8 27380039 		strb	w7, [x1, 14]
 1798 18ec 353C0039 		strb	w21, [x1, 15]
 1799 18f0 2D400039 		strb	w13, [x1, 16]
 1800 18f4 2C440039 		strb	w12, [x1, 17]
 1801 18f8 2B480039 		strb	w11, [x1, 18]
 1802 18fc 600E40B9 		ldr	w0, [x19, 12]
 1803 1900 204C0039 		strb	w0, [x1, 19]
 1804 1904 003C48D3 		ubfx	x0, x0, 8, 8
 1805 1908 20500039 		strb	w0, [x1, 20]
AARCH64 GAS  C:\Users\ldebo\AppData\Local\Temp\cchOloIf.s 			page 33


 1806 190c 601240B9 		ldr	w0, [x19, 16]
 1807 1910 20540039 		strb	w0, [x1, 21]
 1808 1914 265C0039 		strb	w6, [x1, 23]
 1809 1918 3F600039 		strb	wzr, [x1, 24]
 1810 191c 003C48D3 		ubfx	x0, x0, 8, 8
 1811 1920 20580039 		strb	w0, [x1, 22]
 1812 1924 2A640039 		strb	w10, [x1, 25]
 1813 1928 3F680039 		strb	wzr, [x1, 26]
 1814 192c 3F6C0039 		strb	wzr, [x1, 27]
 1815 1930 25700039 		strb	w5, [x1, 28]
 1816 1934 3F740039 		strb	wzr, [x1, 29]
 1817 1938 3F780039 		strb	wzr, [x1, 30]
 1818 193c 3F7C0039 		strb	wzr, [x1, 31]
 1819 1940 3F800039 		strb	wzr, [x1, 32]
 1820 1944 3F840039 		strb	wzr, [x1, 33]
 1821 1948 3F880039 		strb	wzr, [x1, 34]
 1822 194c 711640B9 		ldr	w17, [x19, 20]
 1823 1950 71050034 		cbz	w17, .L241
 1824 1954 6D1A40B9 		ldr	w13, [x19, 24]
 1825 1958 2B6A1B53 		lsl	w11, w17, 5
 1826 195c 32060051 		sub	w18, w17, #1
 1827 1960 0C008052 		mov	w12, 0
 1828 1964 B0050051 		sub	w16, w13, #1
 1829 1968 00038052 		mov	w0, 24
 1830 196c EE0310AA 		mov	x14, x16
 1831 1970 10060091 		add	x16, x16, 1
 1832 1974 100E108B 		add	x16, x16, x16, lsl 3
 1833 1978 2F038052 		mov	w15, 25
 1834 197c 1F2003D5 		.p2align 3
 1835              	.L242:
 1836 1980 8D030034 		cbz	w13, .L251
 1837 1984 620640B9 		ldr	w2, [x19, 4]
 1838 1988 891D0012 		and	w9, w12, 255
 1839 198c 5F020C6B 		cmp	w18, w12
 1840 1990 42184011 		add	w2, w2, 24576
 1841 1994 A0060054 		beq	.L243
 1842 1998 42140C0B 		add	w2, w2, w12, lsl 5
 1843 199c E10304AA 		mov	x1, x4
 1844 19a0 03008052 		mov	w3, 0
 1845 19a4 1F2003D5 		.p2align 3
 1846              	.L244:
 1847 19a8 473C48D3 		ubfx	x7, x2, 8, 8
 1848 19ac 465C50D3 		ubfx	x6, x2, 16, 8
 1849 19b0 2A000039 		strb	w10, [x1]
 1850 19b4 457C1853 		lsr	w5, w2, 24
 1851 19b8 29040039 		strb	w9, [x1, 1]
 1852 19bc 21240091 		add	x1, x1, 9
 1853 19c0 23901F38 		strb	w3, [x1, -7]
 1854 19c4 63040011 		add	w3, w3, 1
 1855 19c8 28A01F38 		strb	w8, [x1, -6]
 1856 19cc 7F000D6B 		cmp	w3, w13
 1857 19d0 22B01F38 		strb	w2, [x1, -5]
 1858 19d4 42000B0B 		add	w2, w2, w11
 1859 19d8 27C01F38 		strb	w7, [x1, -4]
 1860 19dc 26D01F38 		strb	w6, [x1, -3]
 1861 19e0 25E01F38 		strb	w5, [x1, -2]
 1862 19e4 20F01F38 		strb	w0, [x1, -1]
AARCH64 GAS  C:\Users\ldebo\AppData\Local\Temp\cchOloIf.s 			page 34


 1863 19e8 01FEFF54 		bne	.L244
 1864 19ec 8400108B 		add	x4, x4, x16
 1865              	.L251:
 1866 19f0 8C050011 		add	w12, w12, 1
 1867 19f4 3F020C6B 		cmp	w17, w12
 1868 19f8 41FCFF54 		bne	.L242
 1869              	.L241:
 1870 19fc 610A40B9 		ldr	w1, [x19, 8]
 1871 1a00 E003142A 		mov	w0, w20
 1872 1a04 F55B41A9 		ldp	x21, x22, [sp, 16]
 1873 1a08 8100014B 		sub	w1, w4, w1
 1874 1a0c 21784051 		sub	w1, w1, #122880
 1875 1a10 F71340F9 		ldr	x23, [sp, 32]
 1876 1a14 21000851 		sub	w1, w1, #512
 1877 1a18 612200B9 		str	w1, [x19, 32]
 1878 1a1c FE1740F9 		ldr	x30, [sp, 40]
 1879 1a20 F353C5A8 		ldp	x19, x20, [sp], 80
 1880 1a24 C0035FD6 		ret
 1881              		.p2align 3
 1882              	.L263:
 1883 1a28 F55B41A9 		ldp	x21, x22, [sp, 16]
 1884 1a2c F71340F9 		ldr	x23, [sp, 32]
 1885              	.L239:
 1886 1a30 14008052 		mov	w20, 0
 1887 1a34 FE1740F9 		ldr	x30, [sp, 40]
 1888 1a38 E003142A 		mov	w0, w20
 1889 1a3c F353C5A8 		ldp	x19, x20, [sp], 80
 1890 1a40 C0035FD6 		ret
 1891 1a44 1F2003D5 		.p2align 3
 1892              	.L264:
 1893 1a48 F55B41A9 		ldp	x21, x22, [sp, 16]
 1894 1a4c E003142A 		mov	w0, w20
 1895 1a50 F71340F9 		ldr	x23, [sp, 32]
 1896 1a54 7F0200B9 		str	wzr, [x19]
 1897 1a58 FE1740F9 		ldr	x30, [sp, 40]
 1898 1a5c F353C5A8 		ldp	x19, x20, [sp], 80
 1899 1a60 C0035FD6 		ret
 1900 1a64 1F2003D5 		.p2align 3
 1901              	.L243:
 1902 1a68 4214120B 		add	w2, w2, w18, lsl 5
 1903 1a6c 8600108B 		add	x6, x4, x16
 1904 1a70 01008052 		mov	w1, 0
 1905 1a74 1F2003D5 		.p2align 3
 1906              	.L248:
 1907 1a78 DF01016B 		cmp	w14, w1
 1908 1a7c 453C48D3 		ubfx	x5, x2, 8, 8
 1909 1a80 435C50D3 		ubfx	x3, x2, 16, 8
 1910 1a84 8A000039 		strb	w10, [x4]
 1911 1a88 89040039 		strb	w9, [x4, 1]
 1912 1a8c 84240091 		add	x4, x4, 9
 1913 1a90 81901F38 		strb	w1, [x4, -7]
 1914 1a94 21040011 		add	w1, w1, 1
 1915 1a98 88A01F38 		strb	w8, [x4, -6]
 1916 1a9c 82B01F38 		strb	w2, [x4, -5]
 1917 1aa0 85C01F38 		strb	w5, [x4, -4]
 1918 1aa4 457C1853 		lsr	w5, w2, 24
 1919 1aa8 83D01F38 		strb	w3, [x4, -3]
AARCH64 GAS  C:\Users\ldebo\AppData\Local\Temp\cchOloIf.s 			page 35


 1920 1aac E301801A 		csel	w3, w15, w0, eq
 1921 1ab0 85E01F38 		strb	w5, [x4, -2]
 1922 1ab4 42000B0B 		add	w2, w2, w11
 1923 1ab8 83F01F38 		strb	w3, [x4, -1]
 1924 1abc 9F0006EB 		cmp	x4, x6
 1925 1ac0 C1FDFF54 		bne	.L248
 1926 1ac4 CBFFFF17 		b	.L251
 1927              		.size	SetupRenderer, .-SetupRenderer
 1928              		.align	2
 1929 1ac8 1F2003D5 		.p2align 4,,15
 1929      1F2003D5 
 1930              		.global	DoneRenderer
 1931              		.type	DoneRenderer, %function
 1932              	DoneRenderer:
 1933 1ad0 C00200B4 		cbz	x0, .L267
 1934 1ad4 F37BBFA9 		stp	x19, x30, [sp, -16]!
 1935 1ad8 F30300AA 		mov	x19, x0
 1936 1adc 84008052 		mov	w4, 4
 1937 1ae0 C2018052 		mov	w2, 14
 1938 1ae4 6200A072 		movk	w2, 0x3, lsl 16
 1939 1ae8 650240B9 		ldr	w5, [x19]
 1940 1aec E303042A 		mov	w3, w4
 1941 1af0 E103042A 		mov	w1, w4
 1942 1af4 000080D2 		mov	x0, 0
 1943 1af8 00000094 		bl	mailbox_tag_message
 1944 1afc 650240B9 		ldr	w5, [x19]
 1945 1b00 84008052 		mov	w4, 4
 1946 1b04 E2018052 		mov	w2, 15
 1947 1b08 6200A072 		movk	w2, 0x3, lsl 16
 1948 1b0c E303042A 		mov	w3, w4
 1949 1b10 E103042A 		mov	w1, w4
 1950 1b14 000080D2 		mov	x0, 0
 1951 1b18 00000094 		bl	mailbox_tag_message
 1952 1b1c 20008052 		mov	w0, 1
 1953 1b20 F37BC1A8 		ldp	x19, x30, [sp], 16
 1954 1b24 C0035FD6 		ret
 1955              		.p2align 3
 1956              	.L267:
 1957 1b28 00008052 		mov	w0, 0
 1958 1b2c C0035FD6 		ret
 1959              		.size	DoneRenderer, .-DoneRenderer
 1960              		.align	2
 1961              		.p2align 4,,15
 1962              		.global	CreateVertexData
 1963              		.type	CreateVertexData, %function
 1964              	CreateVertexData:
 1965 1b30 F353ABA9 		stp	x19, x20, [sp, -336]!
 1966 1b34 F30301AA 		mov	x19, x1
 1967 1b38 F40302AA 		mov	x20, x2
 1968 1b3c F50B00F9 		str	x21, [sp, 16]
 1969 1b40 F50300AA 		mov	x21, x0
 1970 1b44 FE1300F9 		str	x30, [sp, 32]
 1971 1b48 E91F00FD 		str	d9, [sp, 56]
 1972 1b4c 0940201E 		fmov	s9, s0
 1973 1b50 A20000B4 		cbz	x2, .L273
 1974 1b54 00000090 		adrp	x0, .LC29
 1975 1b58 E10315AA 		mov	x1, x21
AARCH64 GAS  C:\Users\ldebo\AppData\Local\Temp\cchOloIf.s 			page 36


 1976 1b5c 00000091 		add	x0, x0, :lo12:.LC29
 1977 1b60 40003FD6 		blr	x2
 1978              	.L273:
 1979 1b64 F31000B4 		cbz	x19, .L276
 1980 1b68 EA2F046D 		stp	d10, d11, [sp, 64]
 1981 1b6c AA2D001C 		ldr	s10, .LC30
 1982 1b70 E81B00FD 		str	d8, [sp, 48]
 1983 1b74 4041201E 		fmov	s0, s10
 1984 1b78 00000094 		bl	sinf
 1985 1b7c 0B40201E 		fmov	s11, s0
 1986 1b80 4041201E 		fmov	s0, s10
 1987 1b84 00000094 		bl	cosf
 1988 1b88 0840201E 		fmov	s8, s0
 1989 1b8c 020880D2 		mov	x2, 64
 1990 1b90 01000090 		adrp	x1, .LANCHOR0
 1991 1b94 E0430491 		add	x0, sp, 272
 1992 1b98 21000091 		add	x1, x1, :lo12:.LANCHOR0
 1993 1b9c 00000094 		bl	memcpy
 1994 1ba0 6141211E 		fneg	s1, s11
 1995 1ba4 4041201E 		fmov	s0, s10
 1996 1ba8 E82701BD 		str	s8, [sp, 292]
 1997 1bac E41751A9 		ldp	x4, x5, [sp, 272]
 1998 1bb0 E41705A9 		stp	x4, x5, [sp, 80]
 1999 1bb4 EB3701BD 		str	s11, [sp, 308]
 2000 1bb8 E00754A9 		ldp	x0, x1, [sp, 320]
 2001 1bbc E12B01BD 		str	s1, [sp, 296]
 2002 1bc0 E83B01BD 		str	s8, [sp, 312]
 2003 1bc4 E41752A9 		ldp	x4, x5, [sp, 288]
 2004 1bc8 E41706A9 		stp	x4, x5, [sp, 96]
 2005 1bcc E20F53A9 		ldp	x2, x3, [sp, 304]
 2006 1bd0 E20F07A9 		stp	x2, x3, [sp, 112]
 2007 1bd4 E00708A9 		stp	x0, x1, [sp, 128]
 2008 1bd8 00000094 		bl	sinf
 2009 1bdc 0840201E 		fmov	s8, s0
 2010 1be0 4041201E 		fmov	s0, s10
 2011 1be4 00000094 		bl	cosf
 2012 1be8 1041211E 		fneg	s16, s8
 2013 1bec E20F46A9 		ldp	x2, x3, [sp, 96]
 2014 1bf0 E20F0AA9 		stp	x2, x3, [sp, 160]
 2015 1bf4 E00747A9 		ldp	x0, x1, [sp, 112]
 2016 1bf8 E0070BA9 		stp	x0, x1, [sp, 176]
 2017 1bfc E41745A9 		ldp	x4, x5, [sp, 80]
 2018 1c00 0104000F 		movi	v1.2s, #0
 2019 1c04 F817542D 		ldp	s24, s5, [sp, 160]
 2020 1c08 E41709A9 		stp	x4, x5, [sp, 144]
 2021 1c0c F70F562D 		ldp	s23, s3, [sp, 176]
 2022 1c10 020880D2 		mov	x2, 64
 2023 1c14 F91F522D 		ldp	s25, s7, [sp, 144]
 2024 1c18 BA08211E 		fmul	s26, s5, s1
 2025 1c1c E653532D 		ldp	s6, s20, [sp, 152]
 2026 1c20 6A08211E 		fmul	s10, s3, s1
 2027 1c24 E4AB40BD 		ldr	s4, [sp, 168]
 2028 1c28 126B011F 		fmadd	s18, s24, s1, s26
 2029 1c2c E2BB40BD 		ldr	s2, [sp, 184]
 2030 1c30 F12A011F 		fmadd	s17, s23, s1, s10
 2031 1c34 FB08211E 		fmul	s27, s7, s1
 2032 1c38 0517011F 		fmadd	s5, s24, s1, s5
AARCH64 GAS  C:\Users\ldebo\AppData\Local\Temp\cchOloIf.s 			page 37


 2033 1c3c 336F011F 		fmadd	s19, s25, s1, s27
 2034 1c40 1C6C191F 		fmadd	s28, s0, s25, s27
 2035 1c44 9648011F 		fmadd	s22, s4, s1, s18
 2036 1c48 D34C011F 		fmadd	s19, s6, s1, s19
 2037 1c4c 5544011F 		fmadd	s21, s2, s1, s17
 2038 1c50 F2AF40BD 		ldr	s18, [sp, 172]
 2039 1c54 F1BF40BD 		ldr	s17, [sp, 188]
 2040 1c58 271F011F 		fmadd	s7, s25, s1, s7
 2041 1c5c E30E011F 		fmadd	s3, s23, s1, s3
 2042 1c60 196E191F 		fmadd	s25, s16, s25, s27
 2043 1c64 1B68181F 		fmadd	s27, s0, s24, s26
 2044 1c68 186A181F 		fmadd	s24, s16, s24, s26
 2045 1c6c 1A28171F 		fmadd	s26, s0, s23, s10
 2046 1c70 172A171F 		fmadd	s23, s16, s23, s10
 2047 1c74 1C71061F 		fmadd	s28, s8, s6, s28
 2048 1c78 C71C011F 		fmadd	s7, s6, s1, s7
 2049 1c7c 8514011F 		fmadd	s5, s4, s1, s5
 2050 1c80 0664061F 		fmadd	s6, s0, s6, s25
 2051 1c84 430C011F 		fmadd	s3, s2, s1, s3
 2052 1c88 996C081F 		fmadd	s25, s4, s8, s27
 2053 1c8c 8460001F 		fmadd	s4, s4, s0, s24
 2054 1c90 1869021F 		fmadd	s24, s8, s2, s26
 2055 1c94 025C021F 		fmadd	s2, s0, s2, s23
 2056 1c98 871E011F 		fmadd	s7, s20, s1, s7
 2057 1c9c 861A011F 		fmadd	s6, s20, s1, s6
 2058 1ca0 5966011F 		fmadd	s25, s18, s1, s25
 2059 1ca4 3762011F 		fmadd	s23, s17, s1, s24
 2060 1ca8 9A72011F 		fmadd	s26, s20, s1, s28
 2061 1cac 4516011F 		fmadd	s5, s18, s1, s5
 2062 1cb0 4412011F 		fmadd	s4, s18, s1, s4
 2063 1cb4 230E011F 		fmadd	s3, s17, s1, s3
 2064 1cb8 220A011F 		fmadd	s2, s17, s1, s2
 2065 1cbc E00748A9 		ldp	x0, x1, [sp, 128]
 2066 1cc0 E0070CA9 		stp	x0, x1, [sp, 192]
 2067 1cc4 E1430491 		add	x1, sp, 272
 2068 1cc8 60420191 		add	x0, x19, 80
 2069 1ccc 732A341E 		fadd	s19, s19, s20
 2070 1cd0 522A361E 		fadd	s18, s18, s22
 2071 1cd4 312A351E 		fadd	s17, s17, s21
 2072 1cd8 FA1F1A2D 		stp	s26, s7, [sp, 208]
 2073 1cdc F9171C2D 		stp	s25, s5, [sp, 224]
 2074 1ce0 E64F1B2D 		stp	s6, s19, [sp, 216]
 2075 1ce4 E44B1D2D 		stp	s4, s18, [sp, 232]
 2076 1ce8 F70F1E2D 		stp	s23, s3, [sp, 240]
 2077 1cec E2471F2D 		stp	s2, s17, [sp, 248]
 2078 1cf0 E60F582D 		ldp	s6, s3, [sp, 192]
 2079 1cf4 E50B592D 		ldp	s5, s2, [sp, 200]
 2080 1cf8 E8274DA9 		ldp	x8, x9, [sp, 208]
 2081 1cfc C40C011F 		fmadd	s4, s6, s1, s3
 2082 1d00 6308211E 		fmul	s3, s3, s1
 2083 1d04 E82711A9 		stp	x8, x9, [sp, 272]
 2084 1d08 C70C011F 		fmadd	s7, s6, s1, s3
 2085 1d0c 0A0C061F 		fmadd	s10, s0, s6, s3
 2086 1d10 A71C011F 		fmadd	s7, s5, s1, s7
 2087 1d14 100E061F 		fmadd	s16, s16, s6, s3
 2088 1d18 A410011F 		fmadd	s4, s5, s1, s4
 2089 1d1c 0040051F 		fmadd	s0, s0, s5, s16
AARCH64 GAS  C:\Users\ldebo\AppData\Local\Temp\cchOloIf.s 			page 38


 2090 1d20 0829051F 		fmadd	s8, s8, s5, s10
 2091 1d24 4310011F 		fmadd	s3, s2, s1, s4
 2092 1d28 4820011F 		fmadd	s8, s2, s1, s8
 2093 1d2c 4100011F 		fmadd	s1, s2, s1, s0
 2094 1d30 E61F4EA9 		ldp	x6, x7, [sp, 224]
 2095 1d34 E9030491 		add	x9, sp, 256
 2096 1d38 E4174FA9 		ldp	x4, x5, [sp, 240]
 2097 1d3c E61F12A9 		stp	x6, x7, [sp, 288]
 2098 1d40 4228271E 		fadd	s2, s2, s7
 2099 1d44 E41713A9 		stp	x4, x5, [sp, 304]
 2100 1d48 280D002D 		stp	s8, s3, [x9]
 2101 1d4c 2109012D 		stp	s1, s2, [x9, 8]
 2102 1d50 E41750A9 		ldp	x4, x5, [sp, 256]
 2103 1d54 E41714A9 		stp	x4, x5, [sp, 320]
 2104 1d58 00000094 		bl	memcpy
 2105 1d5c 2041201E 		fmov	s0, s9
 2106 1d60 02008052 		mov	w2, 0
 2107 1d64 E10313AA 		mov	x1, x19
 2108 1d68 E00315AA 		mov	x0, x21
 2109 1d6c A5F8FF97 		bl	ParseWaveFrontMesh
 2110 1d70 1F1C0072 		tst	w0, 255
 2111 1d74 21010054 		bne	.L301
 2112              	.L300:
 2113 1d78 EA2F446D 		ldp	d10, d11, [sp, 64]
 2114 1d7c E81B40FD 		ldr	d8, [sp, 48]
 2115              	.L276:
 2116 1d80 00008052 		mov	w0, 0
 2117              	.L275:
 2118 1d84 F50B40F9 		ldr	x21, [sp, 16]
 2119 1d88 FE1340F9 		ldr	x30, [sp, 32]
 2120 1d8c E91F40FD 		ldr	d9, [sp, 56]
 2121 1d90 F353D5A8 		ldp	x19, x20, [sp], 336
 2122 1d94 C0035FD6 		ret
 2123              		.p2align 3
 2124              	.L301:
 2125 1d98 62025529 		ldp	w2, w0, [x19, 168]
 2126 1d9c 85048052 		mov	w5, 36
 2127 1da0 699240B9 		ldr	w9, [x19, 144]
 2128 1da4 84018052 		mov	w4, 12
 2129 1da8 61B240B9 		ldr	w1, [x19, 176]
 2130 1dac 07038052 		mov	w7, 24
 2131 1db0 4204020B 		add	w2, w2, w2, lsl 1
 2132 1db4 F60F00F9 		str	x22, [sp, 24]
 2133 1db8 D6008052 		mov	w22, 6
 2134 1dbc 06008252 		mov	w6, 4096
 2135 1dc0 210C010B 		add	w1, w1, w1, lsl 3
 2136 1dc4 E303042A 		mov	w3, w4
 2137 1dc8 0008161B 		madd	w0, w0, w22, w2
 2138 1dcc E203042A 		mov	w2, w4
 2139 1dd0 0000010B 		add	w0, w0, w1
 2140 1dd4 603200B9 		str	w0, [x19, 48]
 2141 1dd8 0800000B 		add	w8, w0, w0
 2142 1ddc 6200A072 		movk	w2, 0x3, lsl 16
 2143 1de0 E103162A 		mov	w1, w22
 2144 1de4 E0430391 		add	x0, sp, 208
 2145 1de8 2521051B 		madd	w5, w9, w5, w8
 2146 1dec 00000094 		bl	mailbox_tag_message
AARCH64 GAS  C:\Users\ldebo\AppData\Local\Temp\cchOloIf.s 			page 39


 2147 1df0 1F1C0072 		tst	w0, 255
 2148 1df4 20050054 		beq	.L302
 2149 1df8 E5DF40B9 		ldr	w5, [sp, 220]
 2150 1dfc 652600B9 		str	w5, [x19, 36]
 2151 1e00 E5040034 		cbz	w5, .L278
 2152 1e04 84008052 		mov	w4, 4
 2153 1e08 A2018052 		mov	w2, 13
 2154 1e0c 6200A072 		movk	w2, 0x3, lsl 16
 2155 1e10 E103042A 		mov	w1, w4
 2156 1e14 E303042A 		mov	w3, w4
 2157 1e18 E0430391 		add	x0, sp, 208
 2158 1e1c 00000094 		bl	mailbox_tag_message
 2159 1e20 E1DF40B9 		ldr	w1, [sp, 220]
 2160 1e24 1F1C0072 		tst	w0, 255
 2161 1e28 20109F1A 		csel	w0, w1, wzr, ne
 2162 1e2c 602A00B9 		str	w0, [x19, 40]
 2163 1e30 00000094 		bl	GPUaddrToARMaddr
 2164 1e34 E403002A 		uxtw	x4, w0
 2165 1e38 613240B9 		ldr	w1, [x19, 48]
 2166 1e3c 82018052 		mov	w2, 12
 2167 1e40 639240B9 		ldr	w3, [x19, 144]
 2168 1e44 2041201E 		fmov	s0, s9
 2169 1e48 602E00B9 		str	w0, [x19, 44]
 2170 1e4c E003012A 		uxtw	x0, w1
 2171 1e50 662A40B9 		ldr	w6, [x19, 40]
 2172 1e54 8544218B 		add	x5, x4, x1, uxtw 1
 2173 1e58 652200F9 		str	x5, [x19, 64]
 2174 1e5c 1F2003D5 		nop // between mem op and mult-accumulate
 2175 1e60 6300A29B 		umaddl	x3, w3, w2, x0
 2176 1e64 C104010B 		add	w1, w6, w1, lsl 1
 2177 1e68 613A00B9 		str	w1, [x19, 56]
 2178 1e6c 22008052 		mov	w2, 1
 2179 1e70 E00315AA 		mov	x0, x21
 2180 1e74 E10313AA 		mov	x1, x19
 2181 1e78 8304038B 		add	x3, x4, x3, lsl 1
 2182 1e7c 632600F9 		str	x3, [x19, 72]
 2183 1e80 60F8FF97 		bl	ParseWaveFrontMesh
 2184 1e84 001C0072 		ands	w0, w0, 255
 2185 1e88 41020054 		bne	.L303
 2186              	.L299:
 2187 1e8c F60F40F9 		ldr	x22, [sp, 24]
 2188 1e90 BAFFFF17 		b	.L300
 2189 1e94 1F2003D5 		.p2align 3
 2190              	.L302:
 2191 1e98 7F2600B9 		str	wzr, [x19, 36]
 2192              	.L278:
 2193 1e9c 94FFFFB4 		cbz	x20, .L299
 2194 1ea0 00000090 		adrp	x0, .LC31
 2195 1ea4 00000091 		add	x0, x0, :lo12:.LC31
 2196 1ea8 80023FD6 		blr	x20
 2197 1eac F50B40F9 		ldr	x21, [sp, 16]
 2198 1eb0 F60F40F9 		ldr	x22, [sp, 24]
 2199 1eb4 00008052 		mov	w0, 0
 2200 1eb8 FE1340F9 		ldr	x30, [sp, 32]
 2201 1ebc E81B40FD 		ldr	d8, [sp, 48]
 2202 1ec0 E91F40FD 		ldr	d9, [sp, 56]
 2203 1ec4 EA2F446D 		ldp	d10, d11, [sp, 64]
AARCH64 GAS  C:\Users\ldebo\AppData\Local\Temp\cchOloIf.s 			page 40


 2204 1ec8 F353D5A8 		ldp	x19, x20, [sp], 336
 2205 1ecc C0035FD6 		ret
 2206              		.p2align 3
 2207              	.L303:
 2208 1ed0 610A40B9 		ldr	w1, [x19, 8]
 2209 1ed4 020E8052 		mov	w2, 112
 2210 1ed8 23008052 		mov	w3, 1
 2211 1edc CD0C8052 		mov	w13, 102
 2212 1ee0 90008052 		mov	w16, 4
 2213 1ee4 0F078052 		mov	w15, 56
 2214 1ee8 4E028052 		mov	w14, 18
 2215 1eec 65008052 		mov	w5, 3
 2216 1ef0 22000039 		strb	w2, [x1]
 2217 1ef4 0C0C8052 		mov	w12, 96
 2218 1ef8 EB0C8052 		mov	w11, 103
 2219 1efc 2A088052 		mov	w10, 65
 2220 1f00 620640B9 		ldr	w2, [x19, 4]
 2221 1f04 88028052 		mov	w8, 20
 2222 1f08 3F140039 		strb	wzr, [x1, 5]
 2223 1f0c 09048052 		mov	w9, 32
 2224 1f10 42184011 		add	w2, w2, 24576
 2225 1f14 22040039 		strb	w2, [x1, 1]
 2226 1f18 3F180039 		strb	wzr, [x1, 6]
 2227 1f1c 447C1853 		lsr	w4, w2, 24
 2228 1f20 24100039 		strb	w4, [x1, 4]
 2229 1f24 463C48D3 		ubfx	x6, x2, 8, 8
 2230 1f28 425C50D3 		ubfx	x2, x2, 16, 8
 2231 1f2c 26080039 		strb	w6, [x1, 2]
 2232 1f30 220C0039 		strb	w2, [x1, 3]
 2233 1f34 06038052 		mov	w6, 24
 2234 1f38 231C0039 		strb	w3, [x1, 7]
 2235 1f3c A7008052 		mov	w7, 5
 2236 1f40 3F200039 		strb	wzr, [x1, 8]
 2237 1f44 24EC0091 		add	x4, x1, 59
 2238 1f48 620640B9 		ldr	w2, [x19, 4]
 2239 1f4c 42000811 		add	w2, w2, 512
 2240 1f50 22240039 		strb	w2, [x1, 9]
 2241 1f54 5124C61A 		lsr	w17, w2, w6
 2242 1f58 31300039 		strb	w17, [x1, 12]
 2243 1f5c 513C48D3 		ubfx	x17, x2, 8, 8
 2244 1f60 425C50D3 		ubfx	x2, x2, 16, 8
 2245 1f64 31280039 		strb	w17, [x1, 10]
 2246 1f68 222C0039 		strb	w2, [x1, 11]
 2247 1f6c 621640B9 		ldr	w2, [x19, 20]
 2248 1f70 22340039 		strb	w2, [x1, 13]
 2249 1f74 621A40B9 		ldr	w2, [x19, 24]
 2250 1f78 22380039 		strb	w2, [x1, 14]
 2251 1f7c 303C0039 		strb	w16, [x1, 15]
 2252 1f80 36400039 		strb	w22, [x1, 16]
 2253 1f84 2F440039 		strb	w15, [x1, 17]
 2254 1f88 2E480039 		strb	w14, [x1, 18]
 2255 1f8c 2D4C0039 		strb	w13, [x1, 19]
 2256 1f90 3F500039 		strb	wzr, [x1, 20]
 2257 1f94 3F540039 		strb	wzr, [x1, 21]
 2258 1f98 3F580039 		strb	wzr, [x1, 22]
 2259 1f9c 3F5C0039 		strb	wzr, [x1, 23]
 2260 1fa0 620E40B9 		ldr	w2, [x19, 12]
AARCH64 GAS  C:\Users\ldebo\AppData\Local\Temp\cchOloIf.s 			page 41


 2261 1fa4 22600039 		strb	w2, [x1, 24]
 2262 1fa8 423C48D3 		ubfx	x2, x2, 8, 8
 2263 1fac 22640039 		strb	w2, [x1, 25]
 2264 1fb0 621240B9 		ldr	w2, [x19, 16]
 2265 1fb4 22680039 		strb	w2, [x1, 26]
 2266 1fb8 2C700039 		strb	w12, [x1, 28]
 2267 1fbc 25740039 		strb	w5, [x1, 29]
 2268 1fc0 423C48D3 		ubfx	x2, x2, 8, 8
 2269 1fc4 226C0039 		strb	w2, [x1, 27]
 2270 1fc8 3F780039 		strb	wzr, [x1, 30]
 2271 1fcc 3F7C0039 		strb	wzr, [x1, 31]
 2272 1fd0 2B800039 		strb	w11, [x1, 32]
 2273 1fd4 3F840039 		strb	wzr, [x1, 33]
 2274 1fd8 3F880039 		strb	wzr, [x1, 34]
 2275 1fdc 3F8C0039 		strb	wzr, [x1, 35]
 2276 1fe0 3F900039 		strb	wzr, [x1, 36]
 2277 1fe4 2A940039 		strb	w10, [x1, 37]
 2278 1fe8 620640B9 		ldr	w2, [x19, 4]
 2279 1fec 28AC0039 		strb	w8, [x1, 43]
 2280 1ff0 42000211 		add	w2, w2, 128
 2281 1ff4 22980039 		strb	w2, [x1, 38]
 2282 1ff8 29A80039 		strb	w9, [x1, 42]
 2283 1ffc 4824C61A 		lsr	w8, w2, w6
 2284 2000 28A40039 		strb	w8, [x1, 41]
 2285 2004 483C48D3 		ubfx	x8, x2, 8, 8
 2286 2008 425C50D3 		ubfx	x2, x2, 16, 8
 2287 200c 289C0039 		strb	w8, [x1, 39]
 2288 2010 22A00039 		strb	w2, [x1, 40]
 2289 2014 623240B9 		ldr	w2, [x19, 48]
 2290 2018 22B00039 		strb	w2, [x1, 44]
 2291 201c 493C48D3 		ubfx	x9, x2, 8, 8
 2292 2020 485C50D3 		ubfx	x8, x2, 16, 8
 2293 2024 29B40039 		strb	w9, [x1, 45]
 2294 2028 4224C61A 		lsr	w2, w2, w6
 2295 202c 28B80039 		strb	w8, [x1, 46]
 2296 2030 22BC0039 		strb	w2, [x1, 47]
 2297 2034 622A40B9 		ldr	w2, [x19, 40]
 2298 2038 22C00039 		strb	w2, [x1, 48]
 2299 203c 493C48D3 		ubfx	x9, x2, 8, 8
 2300 2040 485C50D3 		ubfx	x8, x2, 16, 8
 2301 2044 29C40039 		strb	w9, [x1, 49]
 2302 2048 4224C61A 		lsr	w2, w2, w6
 2303 204c 28C80039 		strb	w8, [x1, 50]
 2304 2050 22CC0039 		strb	w2, [x1, 51]
 2305 2054 623640B9 		ldr	w2, [x19, 52]
 2306 2058 42080011 		add	w2, w2, 2
 2307 205c 22D00039 		strb	w2, [x1, 52]
 2308 2060 4824C61A 		lsr	w8, w2, w6
 2309 2064 493C48D3 		ubfx	x9, x2, 8, 8
 2310 2068 425C50D3 		ubfx	x2, x2, 16, 8
 2311 206c 29D40039 		strb	w9, [x1, 53]
 2312 2070 22D80039 		strb	w2, [x1, 54]
 2313 2074 28DC0039 		strb	w8, [x1, 55]
 2314 2078 E8231832 		mov	w8, 130816
 2315 207c 27E00039 		strb	w7, [x1, 56]
 2316 2080 23E40039 		strb	w3, [x1, 57]
 2317 2084 3FE80039 		strb	wzr, [x1, 58]
AARCH64 GAS  C:\Users\ldebo\AppData\Local\Temp\cchOloIf.s 			page 42


 2318 2088 620A40B9 		ldr	w2, [x19, 8]
 2319 208c 41000211 		add	w1, w2, 128
 2320 2090 8200024B 		sub	w2, w4, w2
 2321 2094 621E00B9 		str	w2, [x19, 28]
 2322 2098 23000039 		strb	w3, [x1]
 2323 209c E31F1732 		mov	w3, 130560
 2324 20a0 26040039 		strb	w6, [x1, 1]
 2325 20a4 3F080039 		strb	wzr, [x1, 2]
 2326 20a8 250C0039 		strb	w5, [x1, 3]
 2327 20ac 620640B9 		ldr	w2, [x19, 4]
 2328 20b0 67E24039 		ldrb	w7, [x19, 56]
 2329 20b4 4300030B 		add	w3, w2, w3
 2330 20b8 4200080B 		add	w2, w2, w8
 2331 20bc 66E64039 		ldrb	w6, [x19, 57]
 2332 20c0 6B7C1853 		lsr	w11, w3, 24
 2333 20c4 65EA4039 		ldrb	w5, [x19, 58]
 2334 20c8 6D3C48D3 		ubfx	x13, x3, 8, 8
 2335 20cc 64EE4039 		ldrb	w4, [x19, 59]
 2336 20d0 6C5C50D3 		ubfx	x12, x3, 16, 8
 2337 20d4 4A3C48D3 		ubfx	x10, x2, 8, 8
 2338 20d8 495C50D3 		ubfx	x9, x2, 16, 8
 2339 20dc F60F40F9 		ldr	x22, [sp, 24]
 2340 20e0 487C1853 		lsr	w8, w2, 24
 2341 20e4 E81B40FD 		ldr	d8, [sp, 48]
 2342 20e8 EA2F446D 		ldp	d10, d11, [sp, 64]
 2343 20ec 23100039 		strb	w3, [x1, 4]
 2344 20f0 2D140039 		strb	w13, [x1, 5]
 2345 20f4 2C180039 		strb	w12, [x1, 6]
 2346 20f8 2B1C0039 		strb	w11, [x1, 7]
 2347 20fc 22200039 		strb	w2, [x1, 8]
 2348 2100 2A240039 		strb	w10, [x1, 9]
 2349 2104 29280039 		strb	w9, [x1, 10]
 2350 2108 282C0039 		strb	w8, [x1, 11]
 2351 210c 27300039 		strb	w7, [x1, 12]
 2352 2110 26340039 		strb	w6, [x1, 13]
 2353 2114 25380039 		strb	w5, [x1, 14]
 2354 2118 243C0039 		strb	w4, [x1, 15]
 2355 211c 1AFFFF17 		b	.L275
 2356              		.size	CreateVertexData, .-CreateVertexData
 2357              		.align	2
 2358              	.LC30:
 2359 2120 DA0F493F 		.word	1061752794
 2360              		.global	IdentityMatrix3D
 2361              		.global	fShaderStr
 2362              		.global	vShaderStr
 2363              		.comm	__errno,4,4
 2364              		.section	.rodata
 2365              		.align	3
 2366              		.set	.LANCHOR0,. + 0
 2367              		.type	IdentityMatrix3D, %object
 2368              		.size	IdentityMatrix3D, 64
 2369              	IdentityMatrix3D:
 2370 0000 0000803F 		.word	1065353216
 2371 0004 00000000 		.word	0
 2372 0008 00000000 		.word	0
 2373 000c 00000000 		.word	0
 2374 0010 00000000 		.word	0
AARCH64 GAS  C:\Users\ldebo\AppData\Local\Temp\cchOloIf.s 			page 43


 2375 0014 0000803F 		.word	1065353216
 2376 0018 00000000 		.word	0
 2377 001c 00000000 		.word	0
 2378 0020 00000000 		.word	0
 2379 0024 00000000 		.word	0
 2380 0028 0000803F 		.word	1065353216
 2381 002c 00000000 		.word	0
 2382 0030 00000000 		.word	0
 2383 0034 00000000 		.word	0
 2384 0038 00000000 		.word	0
 2385 003c 0000803F 		.word	1065353216
 2386              		.data
 2387              		.align	3
 2388              		.type	fShaderStr, %object
 2389              		.size	fShaderStr, 372
 2390              	fShaderStr:
 2391 0000 70726563 		.ascii	"precision mediump float;                            \nvaryin"
 2391      6973696F 
 2391      6E206D65 
 2391      6469756D 
 2391      7020666C 
 2392 003b 67207665 		.ascii	"g vec2 v_texCoord;                            \nuniform s"
 2392      63322076 
 2392      5F746578 
 2392      436F6F72 
 2392      643B2020 
 2393 0073 616D706C 		.string	"ampler2D s_texture;                        \nvoid main()                                 
 2393      65723244 
 2393      20735F74 
 2393      65787475 
 2393      72653B20 
 2394 0174 00000000 		.zero	4
 2395              		.type	vShaderStr, %object
 2396              		.size	vShaderStr, 281
 2397              	vShaderStr:
 2398 0178 756E6966 		.ascii	"uniform mat4 u_rotateMx;"
 2398      6F726D20 
 2398      6D617434 
 2398      20755F72 
 2398      6F746174 
 2399 0190 20200A61 		.string	"  \nattribute vec4 a_position;   \nattribute vec2 a_texCoord;   \nvarying vec2 v_texCoord
 2399      74747269 
 2399      62757465 
 2399      20766563 
 2399      3420615F 
 2400              		.bss
 2401              		.align	2
 2402              		.set	.LANCHOR1,. + 0
 2403              		.type	angle, %object
 2404              		.size	angle, 4
 2405              	angle:
 2406 0000 00000000 		.zero	4
 2407              		.section	.rodata.str1.8,"aMS",@progbits,1
 2408              		.align	3
 2409              	.LC0:
 2410 0000 79657300 		.string	"yes"
 2411 0004 00000000 		.zero	4
AARCH64 GAS  C:\Users\ldebo\AppData\Local\Temp\cchOloIf.s 			page 44


 2412              	.LC1:
 2413 0008 6E6F00   		.string	"no"
 2414 000b 00000000 		.zero	5
 2414      00
 2415              	.LC4:
 2416 0010 25662025 		.string	"%f %f %f %f"
 2416      66202566 
 2416      20256600 
 2417 001c 00000000 		.zero	4
 2418              	.LC5:
 2419 0020 25662025 		.string	"%f %f %f"
 2419      66202566 
 2419      00
 2420 0029 00000000 		.zero	7
 2420      000000
 2421              	.LC6:
 2422 0030 4572726F 		.string	"Error reading vertex data!\n"
 2422      72207265 
 2422      6164696E 
 2422      67207665 
 2422      72746578 
 2423 004c 00000000 		.zero	4
 2424              	.LC7:
 2425 0050 5761726E 		.string	"Warning: unknown token \"%s\"! (ignoring)\n"
 2425      696E673A 
 2425      20756E6B 
 2425      6E6F776E 
 2425      20746F6B 
 2426 0079 00000000 		.zero	7
 2426      000000
 2427              	.LC8:
 2428 0080 25642F25 		.string	"%d/%d/%d"
 2428      642F2564 
 2428      00
 2429 0089 00000000 		.zero	7
 2429      000000
 2430              	.LC9:
 2431 0090 25642F2F 		.string	"%d//%d"
 2431      256400
 2432 0097 00       		.zero	1
 2433              	.LC10:
 2434 0098 25642F25 		.string	"%d/%d"
 2434      6400
 2435 009e 0000     		.zero	2
 2436              	.LC11:
 2437 00a0 256400   		.string	"%d"
 2438 00a3 00000000 		.zero	5
 2438      00
 2439              	.LC12:
 2440 00a8 4572726F 		.string	"Error: found face with no vertex!\n"
 2440      723A2066 
 2440      6F756E64 
 2440      20666163 
 2440      65207769 
 2441 00cb 00000000 		.zero	5
 2441      00
 2442              	.LC13:
AARCH64 GAS  C:\Users\ldebo\AppData\Local\Temp\cchOloIf.s 			page 45


 2443 00d0 4572726F 		.string	"Error: faces can only be triangles or quads !\n"
 2443      723A2066 
 2443      61636573 
 2443      2063616E 
 2443      206F6E6C 
 2444 00ff 00       		.zero	1
 2445              	.LC14:
 2446 0100 6572726F 		.string	"error: contradiction between collected info!\n"
 2446      723A2063 
 2446      6F6E7472 
 2446      61646963 
 2446      74696F6E 
 2447 012e 0000     		.zero	2
 2448              	.LC15:
 2449 0130 2020202A 		.string	"   * %i texture coords.\n"
 2449      20256920 
 2449      74657874 
 2449      75726520 
 2449      636F6F72 
 2450 0149 00000000 		.zero	7
 2450      000000
 2451              	.LC16:
 2452 0150 2020202A 		.string	"   * %i normal vectors\n"
 2452      20256920 
 2452      6E6F726D 
 2452      616C2076 
 2452      6563746F 
 2453              	.LC17:
 2454 0168 6572726F 		.string	"error: no vertex found!\n"
 2454      723A206E 
 2454      6F207665 
 2454      72746578 
 2454      20666F75 
 2455 0181 00000000 		.zero	7
 2455      000000
 2456              	.LC18:
 2457 0188 66697273 		.string	"first pass results: found\n"
 2457      74207061 
 2457      73732072 
 2457      6573756C 
 2457      74733A20 
 2458 01a3 00000000 		.zero	5
 2458      00
 2459              	.LC19:
 2460 01a8 2020202A 		.string	"   * %i vertices\n"
 2460      20256920 
 2460      76657274 
 2460      69636573 
 2460      0A00
 2461 01ba 00000000 		.zero	6
 2461      0000
 2462              	.LC20:
 2463 01c0 2020202A 		.string	"   * %i faces being %i triangles, %i Quads, %i Polygons\n"
 2463      20256920 
 2463      66616365 
 2463      73206265 
 2463      696E6720 
AARCH64 GAS  C:\Users\ldebo\AppData\Local\Temp\cchOloIf.s 			page 46


 2464 01f9 00000000 		.zero	7
 2464      000000
 2465              	.LC21:
 2466 0200 2020202A 		.string	"   * has texture coords.: %s\n"
 2466      20686173 
 2466      20746578 
 2466      74757265 
 2466      20636F6F 
 2467 021e 0000     		.zero	2
 2468              	.LC22:
 2469 0220 2020202A 		.string	"   * has normals: %s\n"
 2469      20686173 
 2469      206E6F72 
 2469      6D616C73 
 2469      3A202573 
 2470 0236 0000     		.zero	2
 2471              	.LC23:
 2472 0238 2020202A 		.string	"   * minX: %i maxX: %i\n"
 2472      206D696E 
 2472      583A2025 
 2472      69206D61 
 2472      78583A20 
 2473              	.LC24:
 2474 0250 2020202A 		.string	"   * minY: %i maxY: %i\n"
 2474      206D696E 
 2474      593A2025 
 2474      69206D61 
 2474      78593A20 
 2475              	.LC25:
 2476 0268 2020202A 		.string	"   * minZ: %i maxZ: %i\n"
 2476      206D696E 
 2476      5A3A2025 
 2476      69206D61 
 2476      785A3A20 
 2477              	.LC26:
 2478 0280 2020202A 		.string	"   * scale: %i\n"
 2478      20736361 
 2478      6C653A20 
 2478      25690A00 
 2479              	.LC27:
 2480 0290 20446973 		.string	" Display starts in 5 seconds\n"
 2480      706C6179 
 2480      20737461 
 2480      72747320 
 2480      696E2035 
 2481 02ae 0000     		.zero	2
 2482              	.LC29:
 2483 02b0 4C6F6164 		.string	"Loading %s\n"
 2483      696E6720 
 2483      25730A00 
 2484 02bc 00000000 		.zero	4
 2485              	.LC31:
 2486 02c0 4572726F 		.string	"Error: Unable to allocate vertex data memory"
 2486      723A2055 
 2486      6E61626C 
 2486      6520746F 
 2486      20616C6C 
AARCH64 GAS  C:\Users\ldebo\AppData\Local\Temp\cchOloIf.s 			page 47


 2487              		.ident	"GCC: (Linaro GCC 7.1-2017.05) 7.1.1 20170510"
AARCH64 GAS  C:\Users\ldebo\AppData\Local\Temp\cchOloIf.s 			page 48


DEFINED SYMBOLS
                            *ABS*:0000000000000000 rpi-GLES.c
C:\Users\ldebo\AppData\Local\Temp\cchOloIf.s:4      .text:0000000000000000 $x
C:\Users\ldebo\AppData\Local\Temp\cchOloIf.s:7      .text:0000000000000000 ParseWaveFrontMesh
C:\Users\ldebo\AppData\Local\Temp\cchOloIf.s:700    .text:00000000000009c0 $d
C:\Users\ldebo\AppData\Local\Temp\cchOloIf.s:703    .text:00000000000009c4 $d
C:\Users\ldebo\AppData\Local\Temp\cchOloIf.s:704    .text:00000000000009c8 $x
C:\Users\ldebo\AppData\Local\Temp\cchOloIf.s:708    .text:00000000000009d0 vec3_dot
C:\Users\ldebo\AppData\Local\Temp\cchOloIf.s:720    .text:00000000000009f0 vec3_cross
C:\Users\ldebo\AppData\Local\Temp\cchOloIf.s:736    .text:0000000000000a20 vec3_sub
C:\Users\ldebo\AppData\Local\Temp\cchOloIf.s:748    .text:0000000000000a40 vec3_add
C:\Users\ldebo\AppData\Local\Temp\cchOloIf.s:760    .text:0000000000000a60 vec3_scale
C:\Users\ldebo\AppData\Local\Temp\cchOloIf.s:772    .text:0000000000000a80 XRotationMatrix3D
C:\Users\ldebo\AppData\Local\Temp\cchOloIf.s:805    .text:0000000000000af0 YRotationMatrix3D
C:\Users\ldebo\AppData\Local\Temp\cchOloIf.s:840    .text:0000000000000b70 ZRotationMatrix3D
C:\Users\ldebo\AppData\Local\Temp\cchOloIf.s:873    .text:0000000000000be0 TranslationMatrix3D
C:\Users\ldebo\AppData\Local\Temp\cchOloIf.s:905    .text:0000000000000c50 ScaleMatrix3D
C:\Users\ldebo\AppData\Local\Temp\cchOloIf.s:937    .text:0000000000000cc0 MirrorMatrix3D
C:\Users\ldebo\AppData\Local\Temp\cchOloIf.s:974    .text:0000000000000d40 TransposeMatrix3D
C:\Users\ldebo\AppData\Local\Temp\cchOloIf.s:993    .text:0000000000000d80 MultiplyMatrix3D
C:\Users\ldebo\AppData\Local\Temp\cchOloIf.s:1100   .text:0000000000000f20 TransformPoint3D
C:\Users\ldebo\AppData\Local\Temp\cchOloIf.s:1151   .text:0000000000000fd0 InitV3D
C:\Users\ldebo\AppData\Local\Temp\cchOloIf.s:1190   .text:0000000000001050 V3D_mem_alloc
C:\Users\ldebo\AppData\Local\Temp\cchOloIf.s:1212   .text:0000000000001090 V3D_mem_free
C:\Users\ldebo\AppData\Local\Temp\cchOloIf.s:1226   .text:00000000000010b0 V3D_mem_lock
C:\Users\ldebo\AppData\Local\Temp\cchOloIf.s:1246   .text:00000000000010f0 V3D_mem_unlock
C:\Users\ldebo\AppData\Local\Temp\cchOloIf.s:1260   .text:0000000000001110 V3D_execute_code
C:\Users\ldebo\AppData\Local\Temp\cchOloIf.s:1285   .text:0000000000001160 V3D_execute_qpu
C:\Users\ldebo\AppData\Local\Temp\cchOloIf.s:1307   .text:00000000000011a0 DoRotate
C:\Users\ldebo\AppData\Local\Temp\cchOloIf.s:1532   .text:00000000000014f8 $d
C:\Users\ldebo\AppData\Local\Temp\cchOloIf.s:1534   .text:0000000000001500 $x
C:\Users\ldebo\AppData\Local\Temp\cchOloIf.s:1538   .text:0000000000001500 RenderModel
C:\Users\ldebo\AppData\Local\Temp\cchOloIf.s:1618   .text:0000000000001620 SetupRenderer
C:\Users\ldebo\AppData\Local\Temp\cchOloIf.s:1932   .text:0000000000001ad0 DoneRenderer
C:\Users\ldebo\AppData\Local\Temp\cchOloIf.s:1964   .text:0000000000001b30 CreateVertexData
C:\Users\ldebo\AppData\Local\Temp\cchOloIf.s:2359   .text:0000000000002120 $d
C:\Users\ldebo\AppData\Local\Temp\cchOloIf.s:2369   .rodata:0000000000000000 IdentityMatrix3D
C:\Users\ldebo\AppData\Local\Temp\cchOloIf.s:2390   .data:0000000000000000 fShaderStr
C:\Users\ldebo\AppData\Local\Temp\cchOloIf.s:2397   .data:0000000000000178 vShaderStr
                            *COM*:0000000000000004 __errno
C:\Users\ldebo\AppData\Local\Temp\cchOloIf.s:2365   .rodata:0000000000000000 $d
C:\Users\ldebo\AppData\Local\Temp\cchOloIf.s:2387   .data:0000000000000000 $d
C:\Users\ldebo\AppData\Local\Temp\cchOloIf.s:2401   .bss:0000000000000000 $d
C:\Users\ldebo\AppData\Local\Temp\cchOloIf.s:2405   .bss:0000000000000000 angle
C:\Users\ldebo\AppData\Local\Temp\cchOloIf.s:2408   .rodata.str1.8:0000000000000000 $d

UNDEFINED SYMBOLS
sdCreateFile
sdGetFileSize
sdReadFile
sdCloseHandle
printf
sscanf
strchr
timer_wait
sinf
cosf
AARCH64 GAS  C:\Users\ldebo\AppData\Local\Temp\cchOloIf.s 			page 49


memcpy
mailbox_tag_message
RPi_IO_Base_Addr
GPUaddrToARMaddr
