
kernel.elf:     file format elf64-littleaarch64


Disassembly of section .init:

0000000000080000 <_start>:
   80000:	1000000c 	adr	x12, 80000 <_start>
   80004:	58000fa1 	ldr	x1, 801f8 <secondary_spin+0x28>
   80008:	b900002c 	str	w12, [x1]
   8000c:	58000fa0 	ldr	x0, 80200 <secondary_spin+0x30>
   80010:	58000fc1 	ldr	x1, 80208 <secondary_spin+0x38>
   80014:	b9000020 	str	w0, [x1]
   80018:	58000fc0 	ldr	x0, 80210 <secondary_spin+0x40>
   8001c:	58000fe1 	ldr	x1, 80218 <secondary_spin+0x48>
   80020:	b9000020 	str	w0, [x1]
   80024:	d2800020 	mov	x0, #0x1                   	// #1
   80028:	58000fc1 	ldr	x1, 80220 <secondary_spin+0x50>
   8002c:	b9000020 	str	w0, [x1]
   80030:	d2801300 	mov	x0, #0x98                  	// #152
   80034:	58000fa1 	ldr	x1, 80228 <secondary_spin+0x58>
   80038:	b9000020 	str	w0, [x1]
   8003c:	d5380000 	mrs	x0, midr_el1
   80040:	58000f81 	ldr	x1, 80230 <secondary_spin+0x60>
   80044:	b9000020 	str	w0, [x1]
   80048:	d53ce100 	mrs	x0, cnthctl_el2
   8004c:	b2400400 	orr	x0, x0, #0x3
   80050:	d51ce100 	msr	cnthctl_el2, x0
   80054:	d51ce07f 	msr	cntvoff_el2, xzr
   80058:	d538e100 	mrs	x0, cntkctl_el1
   8005c:	b2400400 	orr	x0, x0, #0x3
   80060:	d518e100 	msr	cntkctl_el1, x0

0000000000080064 <multicore_start>:
   80064:	58000ea2 	ldr	x2, 80238 <secondary_spin+0x68>
   80068:	58000ec3 	ldr	x3, 80240 <secondary_spin+0x70>
   8006c:	58000ee4 	ldr	x4, 80248 <secondary_spin+0x78>
   80070:	d53800a6 	mrs	x6, mpidr_el1
   80074:	f24004c6 	ands	x6, x6, #0x3
   80078:	540001c0 	b.eq	800b0 <set_stacks>  // b.none
   8007c:	58000ea2 	ldr	x2, 80250 <secondary_spin+0x80>
   80080:	58000ec3 	ldr	x3, 80258 <secondary_spin+0x88>
   80084:	58000ee4 	ldr	x4, 80260 <secondary_spin+0x90>
   80088:	f10004df 	cmp	x6, #0x1
   8008c:	54000120 	b.eq	800b0 <set_stacks>  // b.none
   80090:	58000ec2 	ldr	x2, 80268 <secondary_spin+0x98>
   80094:	58000ee3 	ldr	x3, 80270 <secondary_spin+0xa0>
   80098:	58000f04 	ldr	x4, 80278 <secondary_spin+0xa8>
   8009c:	f10008df 	cmp	x6, #0x2
   800a0:	54000080 	b.eq	800b0 <set_stacks>  // b.none
   800a4:	58000ee2 	ldr	x2, 80280 <secondary_spin+0xb0>
   800a8:	58000f03 	ldr	x3, 80288 <secondary_spin+0xb8>
   800ac:	58000f24 	ldr	x4, 80290 <secondary_spin+0xc0>

00000000000800b0 <set_stacks>:
   800b0:	9100005f 	mov	sp, x2
   800b4:	d51c4103 	msr	sp_el1, x3
   800b8:	d5184104 	msr	sp_el0, x4
   800bc:	d5380000 	mrs	x0, midr_el1
   800c0:	d53800a1 	mrs	x1, mpidr_el1
   800c4:	d51c0000 	msr	vpidr_el2, x0
   800c8:	d51c00a1 	msr	vmpidr_el2, x1
   800cc:	d2867fe0 	mov	x0, #0x33ff                	// #13311
   800d0:	d51c1140 	msr	cptr_el2, x0
   800d4:	d51c117f 	msr	hstr_el2, xzr
   800d8:	d2a00600 	mov	x0, #0x300000              	// #3145728
   800dc:	d5181040 	msr	cpacr_el1, x0
   800e0:	d2b00000 	mov	x0, #0x80000000            	// #2147483648
   800e4:	d51c1100 	msr	hcr_el2, x0
   800e8:	d2810000 	mov	x0, #0x800                 	// #2048
   800ec:	f2a61a00 	movk	x0, #0x30d0, lsl #16
   800f0:	b27e0000 	orr	x0, x0, #0x4
   800f4:	b2740000 	orr	x0, x0, #0x1000
   800f8:	d5181000 	msr	sctlr_el1, x0
   800fc:	d28078a0 	mov	x0, #0x3c5                 	// #965
   80100:	d51c4000 	msr	spsr_el2, x0
   80104:	10000060 	adr	x0, 80110 <exit_el1>
   80108:	d51c4020 	msr	elr_el2, x0
   8010c:	d69f03e0 	eret

0000000000080110 <exit_el1>:
   80110:	d53800a6 	mrs	x6, mpidr_el1
   80114:	924004c6 	and	x6, x6, #0x3
   80118:	b40000c6 	cbz	x6, 80130 <cpu0_exit_multicore_park>
   8011c:	58000821 	ldr	x1, 80220 <secondary_spin+0x50>
   80120:	b9400020 	ldr	w0, [x1]
   80124:	11000400 	add	w0, w0, #0x1
   80128:	b9000020 	str	w0, [x1]
   8012c:	14000024 	b	801bc <StartSecondarySpin>

0000000000080130 <cpu0_exit_multicore_park>:
   80130:	58000b40 	ldr	x0, 80298 <secondary_spin+0xc8>
   80134:	d518c000 	msr	vbar_el1, x0
   80138:	58000b43 	ldr	x3, 802a0 <secondary_spin+0xd0>
   8013c:	58000b60 	ldr	x0, 802a8 <secondary_spin+0xd8>
   80140:	eb03001f 	cmp	x0, x3
   80144:	54000082 	b.cs	80154 <.bss_cleared>  // b.hs, b.nlast

0000000000080148 <.bss_zero_loop>:
   80148:	b800441f 	str	wzr, [x0], #4
   8014c:	eb00007f 	cmp	x3, x0
   80150:	54ffffc8 	b.hi	80148 <.bss_zero_loop>  // b.pmore

0000000000080154 <.bss_cleared>:
   80154:	d2801c01 	mov	x1, #0xe0                  	// #224
   80158:	58000ac2 	ldr	x2, 802b0 <secondary_spin+0xe0>
   8015c:	f9000022 	str	x2, [x1]
   80160:	d503209f 	sev
   80164:	580005e3 	ldr	x3, 80220 <secondary_spin+0x50>

0000000000080168 <.WaitCore1ACK>:
   80168:	b9400061 	ldr	w1, [x3]
   8016c:	7100083f 	cmp	w1, #0x2
   80170:	54ffffc1 	b.ne	80168 <.WaitCore1ACK>  // b.any
   80174:	d2801d01 	mov	x1, #0xe8                  	// #232
   80178:	580009c2 	ldr	x2, 802b0 <secondary_spin+0xe0>
   8017c:	f9000022 	str	x2, [x1]
   80180:	d503209f 	sev
   80184:	580004e3 	ldr	x3, 80220 <secondary_spin+0x50>

0000000000080188 <.WaitCore2ACK>:
   80188:	b9400061 	ldr	w1, [x3]
   8018c:	71000c3f 	cmp	w1, #0x3
   80190:	54ffffc1 	b.ne	80188 <.WaitCore2ACK>  // b.any
   80194:	d2801e01 	mov	x1, #0xf0                  	// #240
   80198:	580008c2 	ldr	x2, 802b0 <secondary_spin+0xe0>
   8019c:	f9000022 	str	x2, [x1]
   801a0:	d503209f 	sev
   801a4:	580003e3 	ldr	x3, 80220 <secondary_spin+0x50>

00000000000801a8 <.WaitCore3ACK>:
   801a8:	b9400061 	ldr	w1, [x3]
   801ac:	7100103f 	cmp	w1, #0x4
   801b0:	54ffffc1 	b.ne	801a8 <.WaitCore3ACK>  // b.any
   801b4:	1400119b 	b	84820 <kernel_main>

00000000000801b8 <hang>:
   801b8:	14000000 	b	801b8 <hang>

00000000000801bc <StartSecondarySpin>:
   801bc:	d53800a6 	mrs	x6, mpidr_el1
   801c0:	924004c6 	and	x6, x6, #0x3
   801c4:	d2801b05 	mov	x5, #0xd8                  	// #216
   801c8:	d2800001 	mov	x1, #0x0                   	// #0
   801cc:	f82678a1 	str	x1, [x5, x6, lsl #3]

00000000000801d0 <secondary_spin>:
   801d0:	d503205f 	wfe
   801d4:	f86678a4 	ldr	x4, [x5, x6, lsl #3]
   801d8:	b4ffffc4 	cbz	x4, 801d0 <secondary_spin>
   801dc:	d2800000 	mov	x0, #0x0                   	// #0
   801e0:	f82678a0 	str	x0, [x5, x6, lsl #3]
   801e4:	d2800001 	mov	x1, #0x0                   	// #0
   801e8:	d2800002 	mov	x2, #0x0                   	// #0
   801ec:	d2800003 	mov	x3, #0x0                   	// #0
   801f0:	d63f0080 	blr	x4
   801f4:	17fffff2 	b	801bc <StartSecondarySpin>
   801f8:	000880e8 	.word	0x000880e8
   801fc:	00000000 	.word	0x00000000
   80200:	3f000000 	.word	0x3f000000
   80204:	00000000 	.word	0x00000000
   80208:	000880e0 	.word	0x000880e0
   8020c:	00000000 	.word	0x00000000
   80210:	c0000000 	.word	0xc0000000
   80214:	00000000 	.word	0x00000000
   80218:	000880e4 	.word	0x000880e4
   8021c:	00000000 	.word	0x00000000
   80220:	000880ec 	.word	0x000880ec
   80224:	00000000 	.word	0x00000000
   80228:	000880f8 	.word	0x000880f8
   8022c:	00000000 	.word	0x00000000
   80230:	000880f4 	.word	0x000880f4
   80234:	00000000 	.word	0x00000000
   80238:	000903a0 	.word	0x000903a0
   8023c:	00000000 	.word	0x00000000
   80240:	000901a0 	.word	0x000901a0
   80244:	00000000 	.word	0x00000000
   80248:	0008c1a0 	.word	0x0008c1a0
   8024c:	00000000 	.word	0x00000000
   80250:	00090ba0 	.word	0x00090ba0
   80254:	00000000 	.word	0x00000000
   80258:	000909a0 	.word	0x000909a0
   8025c:	00000000 	.word	0x00000000
   80260:	000905a0 	.word	0x000905a0
   80264:	00000000 	.word	0x00000000
   80268:	000913a0 	.word	0x000913a0
   8026c:	00000000 	.word	0x00000000
   80270:	000911a0 	.word	0x000911a0
   80274:	00000000 	.word	0x00000000
   80278:	00090da0 	.word	0x00090da0
   8027c:	00000000 	.word	0x00000000
   80280:	00091ba0 	.word	0x00091ba0
   80284:	00000000 	.word	0x00000000
   80288:	000919a0 	.word	0x000919a0
   8028c:	00000000 	.word	0x00000000
   80290:	000915a0 	.word	0x000915a0
   80294:	00000000 	.word	0x00000000
   80298:	00081800 	.word	0x00081800
   8029c:	00000000 	.word	0x00000000
   802a0:	000881a0 	.word	0x000881a0
   802a4:	00000000 	.word	0x00000000
   802a8:	00088110 	.word	0x00088110
   802ac:	00000000 	.word	0x00000000
   802b0:	00080064 	.word	0x00080064
   802b4:	00000000 	.word	0x00000000

Disassembly of section .text:

0000000000080800 <EnableInterrupts>:
   80800:	d50342ff 	msr	daifclr, #0x2
   80804:	d65f03c0 	ret

0000000000080808 <DisableInterrupts>:
   80808:	d50342df 	msr	daifset, #0x2
   8080c:	d65f03c0 	ret

0000000000080810 <CoreExecute>:
   80810:	f2401c00 	ands	x0, x0, #0xff
   80814:	540001a0 	b.eq	80848 <CoreExecuteFail>  // b.none
   80818:	580001c3 	ldr	x3, 80850 <CoreExecuteFail+0x8>
   8081c:	b9400062 	ldr	w2, [x3]
   80820:	6b02001f 	cmp	w0, w2
   80824:	54000122 	b.cs	80848 <CoreExecuteFail>  // b.hs, b.nlast
   80828:	d2800006 	mov	x6, #0x0                   	// #0
   8082c:	2a0003e6 	mov	w6, w0
   80830:	d2801b05 	mov	x5, #0xd8                  	// #216
   80834:	f82678a1 	str	x1, [x5, x6, lsl #3]
   80838:	d5033f9f 	dsb	sy
   8083c:	d503209f 	sev
   80840:	d2800020 	mov	x0, #0x1                   	// #1
   80844:	d65f03c0 	ret

0000000000080848 <CoreExecuteFail>:
   80848:	d2800000 	mov	x0, #0x0                   	// #0
   8084c:	d65f03c0 	ret
   80850:	000880ec 	.word	0x000880ec
   80854:	00000000 	.word	0x00000000

0000000000080858 <PUT32>:
   80858:	b9000001 	str	w1, [x0]
   8085c:	d65f03c0 	ret

0000000000080860 <GET32>:
   80860:	b9400000 	ldr	w0, [x0]
   80864:	d65f03c0 	ret

0000000000080868 <ARMaddrToGPUaddr>:
   80868:	d2b80001 	mov	x1, #0xc0000000            	// #3221225472
   8086c:	aa010000 	orr	x0, x0, x1
   80870:	d65f03c0 	ret

0000000000080874 <GPUaddrToARMaddr>:
   80874:	d2b80001 	mov	x1, #0xc0000000            	// #3221225472
   80878:	8a210000 	bic	x0, x0, x1
   8087c:	d65f03c0 	ret
	...

0000000000081000 <setTimerIrqAddress>:
   81000:	d50342df 	msr	daifset, #0x2
   81004:	580000a1 	ldr	x1, 81018 <setTimerIrqAddress+0x18>
   81008:	f9400022 	ldr	x2, [x1]
   8100c:	f9000020 	str	x0, [x1]
   81010:	aa0203e0 	mov	x0, x2
   81014:	d65f03c0 	ret
   81018:	00088100 	.word	0x00088100
   8101c:	00000000 	.word	0x00000000

0000000000081020 <irq_handler_stub>:
   81020:	a9bf7bfd 	stp	x29, x30, [sp, #-16]!
   81024:	a9bf73fb 	stp	x27, x28, [sp, #-16]!
   81028:	a9bf6bf9 	stp	x25, x26, [sp, #-16]!
   8102c:	a9bf63f7 	stp	x23, x24, [sp, #-16]!
   81030:	a9bf5bf5 	stp	x21, x22, [sp, #-16]!
   81034:	a9bf53f3 	stp	x19, x20, [sp, #-16]!
   81038:	a9bf4bf1 	stp	x17, x18, [sp, #-16]!
   8103c:	a9bf43ef 	stp	x15, x16, [sp, #-16]!
   81040:	a9bf3bed 	stp	x13, x14, [sp, #-16]!
   81044:	a9bf33eb 	stp	x11, x12, [sp, #-16]!
   81048:	a9bf2be9 	stp	x9, x10, [sp, #-16]!
   8104c:	a9bf23e7 	stp	x7, x8, [sp, #-16]!
   81050:	a9bf1be5 	stp	x5, x6, [sp, #-16]!
   81054:	a9bf13e3 	stp	x3, x4, [sp, #-16]!
   81058:	a9bf0be1 	stp	x1, x2, [sp, #-16]!
   8105c:	f81f0fe0 	str	x0, [sp, #-16]!
   81060:	58007940 	ldr	x0, 81f88 <VectorTable+0x788>
   81064:	f9400000 	ldr	x0, [x0]
   81068:	b4000040 	cbz	x0, 81070 <no_irqset>
   8106c:	d63f0000 	blr	x0

0000000000081070 <no_irqset>:
   81070:	f84107e0 	ldr	x0, [sp], #16
   81074:	a8c10be1 	ldp	x1, x2, [sp], #16
   81078:	a8c113e3 	ldp	x3, x4, [sp], #16
   8107c:	a8c11be5 	ldp	x5, x6, [sp], #16
   81080:	a8c123e7 	ldp	x7, x8, [sp], #16
   81084:	a8c12be9 	ldp	x9, x10, [sp], #16
   81088:	a8c133eb 	ldp	x11, x12, [sp], #16
   8108c:	a8c13bed 	ldp	x13, x14, [sp], #16
   81090:	a8c143ef 	ldp	x15, x16, [sp], #16
   81094:	a8c14bf1 	ldp	x17, x18, [sp], #16
   81098:	a8c153f3 	ldp	x19, x20, [sp], #16
   8109c:	a8c15bf5 	ldp	x21, x22, [sp], #16
   810a0:	a8c163f7 	ldp	x23, x24, [sp], #16
   810a4:	a8c16bf9 	ldp	x25, x26, [sp], #16
   810a8:	a8c173fb 	ldp	x27, x28, [sp], #16
   810ac:	a8c17bfd 	ldp	x29, x30, [sp], #16
   810b0:	d69f03e0 	eret
   810b4:	d503201f 	nop
   810b8:	d503201f 	nop
   810bc:	d503201f 	nop
   810c0:	d503201f 	nop
   810c4:	d503201f 	nop
   810c8:	d503201f 	nop
   810cc:	d503201f 	nop
   810d0:	d503201f 	nop
   810d4:	d503201f 	nop
   810d8:	d503201f 	nop
   810dc:	d503201f 	nop
   810e0:	d503201f 	nop
   810e4:	d503201f 	nop
   810e8:	d503201f 	nop
   810ec:	d503201f 	nop
   810f0:	d503201f 	nop
   810f4:	d503201f 	nop
   810f8:	d503201f 	nop
   810fc:	d503201f 	nop
   81100:	d503201f 	nop
   81104:	d503201f 	nop
   81108:	d503201f 	nop
   8110c:	d503201f 	nop
   81110:	d503201f 	nop
   81114:	d503201f 	nop
   81118:	d503201f 	nop
   8111c:	d503201f 	nop
   81120:	d503201f 	nop
   81124:	d503201f 	nop
   81128:	d503201f 	nop
   8112c:	d503201f 	nop
   81130:	d503201f 	nop
   81134:	d503201f 	nop
   81138:	d503201f 	nop
   8113c:	d503201f 	nop
   81140:	d503201f 	nop
   81144:	d503201f 	nop
   81148:	d503201f 	nop
   8114c:	d503201f 	nop
   81150:	d503201f 	nop
   81154:	d503201f 	nop
   81158:	d503201f 	nop
   8115c:	d503201f 	nop
   81160:	d503201f 	nop
   81164:	d503201f 	nop
   81168:	d503201f 	nop
   8116c:	d503201f 	nop
   81170:	d503201f 	nop
   81174:	d503201f 	nop
   81178:	d503201f 	nop
   8117c:	d503201f 	nop
   81180:	d503201f 	nop
   81184:	d503201f 	nop
   81188:	d503201f 	nop
   8118c:	d503201f 	nop
   81190:	d503201f 	nop
   81194:	d503201f 	nop
   81198:	d503201f 	nop
   8119c:	d503201f 	nop
   811a0:	d503201f 	nop
   811a4:	d503201f 	nop
   811a8:	d503201f 	nop
   811ac:	d503201f 	nop
   811b0:	d503201f 	nop
   811b4:	d503201f 	nop
   811b8:	d503201f 	nop
   811bc:	d503201f 	nop
   811c0:	d503201f 	nop
   811c4:	d503201f 	nop
   811c8:	d503201f 	nop
   811cc:	d503201f 	nop
   811d0:	d503201f 	nop
   811d4:	d503201f 	nop
   811d8:	d503201f 	nop
   811dc:	d503201f 	nop
   811e0:	d503201f 	nop
   811e4:	d503201f 	nop
   811e8:	d503201f 	nop
   811ec:	d503201f 	nop
   811f0:	d503201f 	nop
   811f4:	d503201f 	nop
   811f8:	d503201f 	nop
   811fc:	d503201f 	nop
   81200:	d503201f 	nop
   81204:	d503201f 	nop
   81208:	d503201f 	nop
   8120c:	d503201f 	nop
   81210:	d503201f 	nop
   81214:	d503201f 	nop
   81218:	d503201f 	nop
   8121c:	d503201f 	nop
   81220:	d503201f 	nop
   81224:	d503201f 	nop
   81228:	d503201f 	nop
   8122c:	d503201f 	nop
   81230:	d503201f 	nop
   81234:	d503201f 	nop
   81238:	d503201f 	nop
   8123c:	d503201f 	nop
   81240:	d503201f 	nop
   81244:	d503201f 	nop
   81248:	d503201f 	nop
   8124c:	d503201f 	nop
   81250:	d503201f 	nop
   81254:	d503201f 	nop
   81258:	d503201f 	nop
   8125c:	d503201f 	nop
   81260:	d503201f 	nop
   81264:	d503201f 	nop
   81268:	d503201f 	nop
   8126c:	d503201f 	nop
   81270:	d503201f 	nop
   81274:	d503201f 	nop
   81278:	d503201f 	nop
   8127c:	d503201f 	nop
   81280:	d503201f 	nop
   81284:	d503201f 	nop
   81288:	d503201f 	nop
   8128c:	d503201f 	nop
   81290:	d503201f 	nop
   81294:	d503201f 	nop
   81298:	d503201f 	nop
   8129c:	d503201f 	nop
   812a0:	d503201f 	nop
   812a4:	d503201f 	nop
   812a8:	d503201f 	nop
   812ac:	d503201f 	nop
   812b0:	d503201f 	nop
   812b4:	d503201f 	nop
   812b8:	d503201f 	nop
   812bc:	d503201f 	nop
   812c0:	d503201f 	nop
   812c4:	d503201f 	nop
   812c8:	d503201f 	nop
   812cc:	d503201f 	nop
   812d0:	d503201f 	nop
   812d4:	d503201f 	nop
   812d8:	d503201f 	nop
   812dc:	d503201f 	nop
   812e0:	d503201f 	nop
   812e4:	d503201f 	nop
   812e8:	d503201f 	nop
   812ec:	d503201f 	nop
   812f0:	d503201f 	nop
   812f4:	d503201f 	nop
   812f8:	d503201f 	nop
   812fc:	d503201f 	nop
   81300:	d503201f 	nop
   81304:	d503201f 	nop
   81308:	d503201f 	nop
   8130c:	d503201f 	nop
   81310:	d503201f 	nop
   81314:	d503201f 	nop
   81318:	d503201f 	nop
   8131c:	d503201f 	nop
   81320:	d503201f 	nop
   81324:	d503201f 	nop
   81328:	d503201f 	nop
   8132c:	d503201f 	nop
   81330:	d503201f 	nop
   81334:	d503201f 	nop
   81338:	d503201f 	nop
   8133c:	d503201f 	nop
   81340:	d503201f 	nop
   81344:	d503201f 	nop
   81348:	d503201f 	nop
   8134c:	d503201f 	nop
   81350:	d503201f 	nop
   81354:	d503201f 	nop
   81358:	d503201f 	nop
   8135c:	d503201f 	nop
   81360:	d503201f 	nop
   81364:	d503201f 	nop
   81368:	d503201f 	nop
   8136c:	d503201f 	nop
   81370:	d503201f 	nop
   81374:	d503201f 	nop
   81378:	d503201f 	nop
   8137c:	d503201f 	nop
   81380:	d503201f 	nop
   81384:	d503201f 	nop
   81388:	d503201f 	nop
   8138c:	d503201f 	nop
   81390:	d503201f 	nop
   81394:	d503201f 	nop
   81398:	d503201f 	nop
   8139c:	d503201f 	nop
   813a0:	d503201f 	nop
   813a4:	d503201f 	nop
   813a8:	d503201f 	nop
   813ac:	d503201f 	nop
   813b0:	d503201f 	nop
   813b4:	d503201f 	nop
   813b8:	d503201f 	nop
   813bc:	d503201f 	nop
   813c0:	d503201f 	nop
   813c4:	d503201f 	nop
   813c8:	d503201f 	nop
   813cc:	d503201f 	nop
   813d0:	d503201f 	nop
   813d4:	d503201f 	nop
   813d8:	d503201f 	nop
   813dc:	d503201f 	nop
   813e0:	d503201f 	nop
   813e4:	d503201f 	nop
   813e8:	d503201f 	nop
   813ec:	d503201f 	nop
   813f0:	d503201f 	nop
   813f4:	d503201f 	nop
   813f8:	d503201f 	nop
   813fc:	d503201f 	nop
   81400:	d503201f 	nop
   81404:	d503201f 	nop
   81408:	d503201f 	nop
   8140c:	d503201f 	nop
   81410:	d503201f 	nop
   81414:	d503201f 	nop
   81418:	d503201f 	nop
   8141c:	d503201f 	nop
   81420:	d503201f 	nop
   81424:	d503201f 	nop
   81428:	d503201f 	nop
   8142c:	d503201f 	nop
   81430:	d503201f 	nop
   81434:	d503201f 	nop
   81438:	d503201f 	nop
   8143c:	d503201f 	nop
   81440:	d503201f 	nop
   81444:	d503201f 	nop
   81448:	d503201f 	nop
   8144c:	d503201f 	nop
   81450:	d503201f 	nop
   81454:	d503201f 	nop
   81458:	d503201f 	nop
   8145c:	d503201f 	nop
   81460:	d503201f 	nop
   81464:	d503201f 	nop
   81468:	d503201f 	nop
   8146c:	d503201f 	nop
   81470:	d503201f 	nop
   81474:	d503201f 	nop
   81478:	d503201f 	nop
   8147c:	d503201f 	nop
   81480:	d503201f 	nop
   81484:	d503201f 	nop
   81488:	d503201f 	nop
   8148c:	d503201f 	nop
   81490:	d503201f 	nop
   81494:	d503201f 	nop
   81498:	d503201f 	nop
   8149c:	d503201f 	nop
   814a0:	d503201f 	nop
   814a4:	d503201f 	nop
   814a8:	d503201f 	nop
   814ac:	d503201f 	nop
   814b0:	d503201f 	nop
   814b4:	d503201f 	nop
   814b8:	d503201f 	nop
   814bc:	d503201f 	nop
   814c0:	d503201f 	nop
   814c4:	d503201f 	nop
   814c8:	d503201f 	nop
   814cc:	d503201f 	nop
   814d0:	d503201f 	nop
   814d4:	d503201f 	nop
   814d8:	d503201f 	nop
   814dc:	d503201f 	nop
   814e0:	d503201f 	nop
   814e4:	d503201f 	nop
   814e8:	d503201f 	nop
   814ec:	d503201f 	nop
   814f0:	d503201f 	nop
   814f4:	d503201f 	nop
   814f8:	d503201f 	nop
   814fc:	d503201f 	nop
   81500:	d503201f 	nop
   81504:	d503201f 	nop
   81508:	d503201f 	nop
   8150c:	d503201f 	nop
   81510:	d503201f 	nop
   81514:	d503201f 	nop
   81518:	d503201f 	nop
   8151c:	d503201f 	nop
   81520:	d503201f 	nop
   81524:	d503201f 	nop
   81528:	d503201f 	nop
   8152c:	d503201f 	nop
   81530:	d503201f 	nop
   81534:	d503201f 	nop
   81538:	d503201f 	nop
   8153c:	d503201f 	nop
   81540:	d503201f 	nop
   81544:	d503201f 	nop
   81548:	d503201f 	nop
   8154c:	d503201f 	nop
   81550:	d503201f 	nop
   81554:	d503201f 	nop
   81558:	d503201f 	nop
   8155c:	d503201f 	nop
   81560:	d503201f 	nop
   81564:	d503201f 	nop
   81568:	d503201f 	nop
   8156c:	d503201f 	nop
   81570:	d503201f 	nop
   81574:	d503201f 	nop
   81578:	d503201f 	nop
   8157c:	d503201f 	nop
   81580:	d503201f 	nop
   81584:	d503201f 	nop
   81588:	d503201f 	nop
   8158c:	d503201f 	nop
   81590:	d503201f 	nop
   81594:	d503201f 	nop
   81598:	d503201f 	nop
   8159c:	d503201f 	nop
   815a0:	d503201f 	nop
   815a4:	d503201f 	nop
   815a8:	d503201f 	nop
   815ac:	d503201f 	nop
   815b0:	d503201f 	nop
   815b4:	d503201f 	nop
   815b8:	d503201f 	nop
   815bc:	d503201f 	nop
   815c0:	d503201f 	nop
   815c4:	d503201f 	nop
   815c8:	d503201f 	nop
   815cc:	d503201f 	nop
   815d0:	d503201f 	nop
   815d4:	d503201f 	nop
   815d8:	d503201f 	nop
   815dc:	d503201f 	nop
   815e0:	d503201f 	nop
   815e4:	d503201f 	nop
   815e8:	d503201f 	nop
   815ec:	d503201f 	nop
   815f0:	d503201f 	nop
   815f4:	d503201f 	nop
   815f8:	d503201f 	nop
   815fc:	d503201f 	nop
   81600:	d503201f 	nop
   81604:	d503201f 	nop
   81608:	d503201f 	nop
   8160c:	d503201f 	nop
   81610:	d503201f 	nop
   81614:	d503201f 	nop
   81618:	d503201f 	nop
   8161c:	d503201f 	nop
   81620:	d503201f 	nop
   81624:	d503201f 	nop
   81628:	d503201f 	nop
   8162c:	d503201f 	nop
   81630:	d503201f 	nop
   81634:	d503201f 	nop
   81638:	d503201f 	nop
   8163c:	d503201f 	nop
   81640:	d503201f 	nop
   81644:	d503201f 	nop
   81648:	d503201f 	nop
   8164c:	d503201f 	nop
   81650:	d503201f 	nop
   81654:	d503201f 	nop
   81658:	d503201f 	nop
   8165c:	d503201f 	nop
   81660:	d503201f 	nop
   81664:	d503201f 	nop
   81668:	d503201f 	nop
   8166c:	d503201f 	nop
   81670:	d503201f 	nop
   81674:	d503201f 	nop
   81678:	d503201f 	nop
   8167c:	d503201f 	nop
   81680:	d503201f 	nop
   81684:	d503201f 	nop
   81688:	d503201f 	nop
   8168c:	d503201f 	nop
   81690:	d503201f 	nop
   81694:	d503201f 	nop
   81698:	d503201f 	nop
   8169c:	d503201f 	nop
   816a0:	d503201f 	nop
   816a4:	d503201f 	nop
   816a8:	d503201f 	nop
   816ac:	d503201f 	nop
   816b0:	d503201f 	nop
   816b4:	d503201f 	nop
   816b8:	d503201f 	nop
   816bc:	d503201f 	nop
   816c0:	d503201f 	nop
   816c4:	d503201f 	nop
   816c8:	d503201f 	nop
   816cc:	d503201f 	nop
   816d0:	d503201f 	nop
   816d4:	d503201f 	nop
   816d8:	d503201f 	nop
   816dc:	d503201f 	nop
   816e0:	d503201f 	nop
   816e4:	d503201f 	nop
   816e8:	d503201f 	nop
   816ec:	d503201f 	nop
   816f0:	d503201f 	nop
   816f4:	d503201f 	nop
   816f8:	d503201f 	nop
   816fc:	d503201f 	nop
   81700:	d503201f 	nop
   81704:	d503201f 	nop
   81708:	d503201f 	nop
   8170c:	d503201f 	nop
   81710:	d503201f 	nop
   81714:	d503201f 	nop
   81718:	d503201f 	nop
   8171c:	d503201f 	nop
   81720:	d503201f 	nop
   81724:	d503201f 	nop
   81728:	d503201f 	nop
   8172c:	d503201f 	nop
   81730:	d503201f 	nop
   81734:	d503201f 	nop
   81738:	d503201f 	nop
   8173c:	d503201f 	nop
   81740:	d503201f 	nop
   81744:	d503201f 	nop
   81748:	d503201f 	nop
   8174c:	d503201f 	nop
   81750:	d503201f 	nop
   81754:	d503201f 	nop
   81758:	d503201f 	nop
   8175c:	d503201f 	nop
   81760:	d503201f 	nop
   81764:	d503201f 	nop
   81768:	d503201f 	nop
   8176c:	d503201f 	nop
   81770:	d503201f 	nop
   81774:	d503201f 	nop
   81778:	d503201f 	nop
   8177c:	d503201f 	nop
   81780:	d503201f 	nop
   81784:	d503201f 	nop
   81788:	d503201f 	nop
   8178c:	d503201f 	nop
   81790:	d503201f 	nop
   81794:	d503201f 	nop
   81798:	d503201f 	nop
   8179c:	d503201f 	nop
   817a0:	d503201f 	nop
   817a4:	d503201f 	nop
   817a8:	d503201f 	nop
   817ac:	d503201f 	nop
   817b0:	d503201f 	nop
   817b4:	d503201f 	nop
   817b8:	d503201f 	nop
   817bc:	d503201f 	nop
   817c0:	d503201f 	nop
   817c4:	d503201f 	nop
   817c8:	d503201f 	nop
   817cc:	d503201f 	nop
   817d0:	d503201f 	nop
   817d4:	d503201f 	nop
   817d8:	d503201f 	nop
   817dc:	d503201f 	nop
   817e0:	d503201f 	nop
   817e4:	d503201f 	nop
   817e8:	d503201f 	nop
   817ec:	d503201f 	nop
   817f0:	d503201f 	nop
   817f4:	d503201f 	nop
   817f8:	d503201f 	nop
   817fc:	d503201f 	nop

0000000000081800 <VectorTable>:
   81800:	17fffa00 	b	80000 <_start>
   81804:	d503201f 	nop
   81808:	d503201f 	nop
   8180c:	d503201f 	nop
   81810:	d503201f 	nop
   81814:	d503201f 	nop
   81818:	d503201f 	nop
   8181c:	d503201f 	nop
   81820:	d503201f 	nop
   81824:	d503201f 	nop
   81828:	d503201f 	nop
   8182c:	d503201f 	nop
   81830:	d503201f 	nop
   81834:	d503201f 	nop
   81838:	d503201f 	nop
   8183c:	d503201f 	nop
   81840:	d503201f 	nop
   81844:	d503201f 	nop
   81848:	d503201f 	nop
   8184c:	d503201f 	nop
   81850:	d503201f 	nop
   81854:	d503201f 	nop
   81858:	d503201f 	nop
   8185c:	d503201f 	nop
   81860:	d503201f 	nop
   81864:	d503201f 	nop
   81868:	d503201f 	nop
   8186c:	d503201f 	nop
   81870:	d503201f 	nop
   81874:	d503201f 	nop
   81878:	d503201f 	nop
   8187c:	d503201f 	nop
   81880:	17fffa4e 	b	801b8 <hang>
   81884:	d503201f 	nop
   81888:	d503201f 	nop
   8188c:	d503201f 	nop
   81890:	d503201f 	nop
   81894:	d503201f 	nop
   81898:	d503201f 	nop
   8189c:	d503201f 	nop
   818a0:	d503201f 	nop
   818a4:	d503201f 	nop
   818a8:	d503201f 	nop
   818ac:	d503201f 	nop
   818b0:	d503201f 	nop
   818b4:	d503201f 	nop
   818b8:	d503201f 	nop
   818bc:	d503201f 	nop
   818c0:	d503201f 	nop
   818c4:	d503201f 	nop
   818c8:	d503201f 	nop
   818cc:	d503201f 	nop
   818d0:	d503201f 	nop
   818d4:	d503201f 	nop
   818d8:	d503201f 	nop
   818dc:	d503201f 	nop
   818e0:	d503201f 	nop
   818e4:	d503201f 	nop
   818e8:	d503201f 	nop
   818ec:	d503201f 	nop
   818f0:	d503201f 	nop
   818f4:	d503201f 	nop
   818f8:	d503201f 	nop
   818fc:	d503201f 	nop
   81900:	17fffa2e 	b	801b8 <hang>
   81904:	d503201f 	nop
   81908:	d503201f 	nop
   8190c:	d503201f 	nop
   81910:	d503201f 	nop
   81914:	d503201f 	nop
   81918:	d503201f 	nop
   8191c:	d503201f 	nop
   81920:	d503201f 	nop
   81924:	d503201f 	nop
   81928:	d503201f 	nop
   8192c:	d503201f 	nop
   81930:	d503201f 	nop
   81934:	d503201f 	nop
   81938:	d503201f 	nop
   8193c:	d503201f 	nop
   81940:	d503201f 	nop
   81944:	d503201f 	nop
   81948:	d503201f 	nop
   8194c:	d503201f 	nop
   81950:	d503201f 	nop
   81954:	d503201f 	nop
   81958:	d503201f 	nop
   8195c:	d503201f 	nop
   81960:	d503201f 	nop
   81964:	d503201f 	nop
   81968:	d503201f 	nop
   8196c:	d503201f 	nop
   81970:	d503201f 	nop
   81974:	d503201f 	nop
   81978:	d503201f 	nop
   8197c:	d503201f 	nop
   81980:	17fffa0e 	b	801b8 <hang>
   81984:	d503201f 	nop
   81988:	d503201f 	nop
   8198c:	d503201f 	nop
   81990:	d503201f 	nop
   81994:	d503201f 	nop
   81998:	d503201f 	nop
   8199c:	d503201f 	nop
   819a0:	d503201f 	nop
   819a4:	d503201f 	nop
   819a8:	d503201f 	nop
   819ac:	d503201f 	nop
   819b0:	d503201f 	nop
   819b4:	d503201f 	nop
   819b8:	d503201f 	nop
   819bc:	d503201f 	nop
   819c0:	d503201f 	nop
   819c4:	d503201f 	nop
   819c8:	d503201f 	nop
   819cc:	d503201f 	nop
   819d0:	d503201f 	nop
   819d4:	d503201f 	nop
   819d8:	d503201f 	nop
   819dc:	d503201f 	nop
   819e0:	d503201f 	nop
   819e4:	d503201f 	nop
   819e8:	d503201f 	nop
   819ec:	d503201f 	nop
   819f0:	d503201f 	nop
   819f4:	d503201f 	nop
   819f8:	d503201f 	nop
   819fc:	d503201f 	nop
   81a00:	17fff9ee 	b	801b8 <hang>
   81a04:	d503201f 	nop
   81a08:	d503201f 	nop
   81a0c:	d503201f 	nop
   81a10:	d503201f 	nop
   81a14:	d503201f 	nop
   81a18:	d503201f 	nop
   81a1c:	d503201f 	nop
   81a20:	d503201f 	nop
   81a24:	d503201f 	nop
   81a28:	d503201f 	nop
   81a2c:	d503201f 	nop
   81a30:	d503201f 	nop
   81a34:	d503201f 	nop
   81a38:	d503201f 	nop
   81a3c:	d503201f 	nop
   81a40:	d503201f 	nop
   81a44:	d503201f 	nop
   81a48:	d503201f 	nop
   81a4c:	d503201f 	nop
   81a50:	d503201f 	nop
   81a54:	d503201f 	nop
   81a58:	d503201f 	nop
   81a5c:	d503201f 	nop
   81a60:	d503201f 	nop
   81a64:	d503201f 	nop
   81a68:	d503201f 	nop
   81a6c:	d503201f 	nop
   81a70:	d503201f 	nop
   81a74:	d503201f 	nop
   81a78:	d503201f 	nop
   81a7c:	d503201f 	nop
   81a80:	17fffd68 	b	81020 <irq_handler_stub>
   81a84:	d503201f 	nop
   81a88:	d503201f 	nop
   81a8c:	d503201f 	nop
   81a90:	d503201f 	nop
   81a94:	d503201f 	nop
   81a98:	d503201f 	nop
   81a9c:	d503201f 	nop
   81aa0:	d503201f 	nop
   81aa4:	d503201f 	nop
   81aa8:	d503201f 	nop
   81aac:	d503201f 	nop
   81ab0:	d503201f 	nop
   81ab4:	d503201f 	nop
   81ab8:	d503201f 	nop
   81abc:	d503201f 	nop
   81ac0:	d503201f 	nop
   81ac4:	d503201f 	nop
   81ac8:	d503201f 	nop
   81acc:	d503201f 	nop
   81ad0:	d503201f 	nop
   81ad4:	d503201f 	nop
   81ad8:	d503201f 	nop
   81adc:	d503201f 	nop
   81ae0:	d503201f 	nop
   81ae4:	d503201f 	nop
   81ae8:	d503201f 	nop
   81aec:	d503201f 	nop
   81af0:	d503201f 	nop
   81af4:	d503201f 	nop
   81af8:	d503201f 	nop
   81afc:	d503201f 	nop
   81b00:	17fff9ae 	b	801b8 <hang>
   81b04:	d503201f 	nop
   81b08:	d503201f 	nop
   81b0c:	d503201f 	nop
   81b10:	d503201f 	nop
   81b14:	d503201f 	nop
   81b18:	d503201f 	nop
   81b1c:	d503201f 	nop
   81b20:	d503201f 	nop
   81b24:	d503201f 	nop
   81b28:	d503201f 	nop
   81b2c:	d503201f 	nop
   81b30:	d503201f 	nop
   81b34:	d503201f 	nop
   81b38:	d503201f 	nop
   81b3c:	d503201f 	nop
   81b40:	d503201f 	nop
   81b44:	d503201f 	nop
   81b48:	d503201f 	nop
   81b4c:	d503201f 	nop
   81b50:	d503201f 	nop
   81b54:	d503201f 	nop
   81b58:	d503201f 	nop
   81b5c:	d503201f 	nop
   81b60:	d503201f 	nop
   81b64:	d503201f 	nop
   81b68:	d503201f 	nop
   81b6c:	d503201f 	nop
   81b70:	d503201f 	nop
   81b74:	d503201f 	nop
   81b78:	d503201f 	nop
   81b7c:	d503201f 	nop
   81b80:	17fff98e 	b	801b8 <hang>
   81b84:	d503201f 	nop
   81b88:	d503201f 	nop
   81b8c:	d503201f 	nop
   81b90:	d503201f 	nop
   81b94:	d503201f 	nop
   81b98:	d503201f 	nop
   81b9c:	d503201f 	nop
   81ba0:	d503201f 	nop
   81ba4:	d503201f 	nop
   81ba8:	d503201f 	nop
   81bac:	d503201f 	nop
   81bb0:	d503201f 	nop
   81bb4:	d503201f 	nop
   81bb8:	d503201f 	nop
   81bbc:	d503201f 	nop
   81bc0:	d503201f 	nop
   81bc4:	d503201f 	nop
   81bc8:	d503201f 	nop
   81bcc:	d503201f 	nop
   81bd0:	d503201f 	nop
   81bd4:	d503201f 	nop
   81bd8:	d503201f 	nop
   81bdc:	d503201f 	nop
   81be0:	d503201f 	nop
   81be4:	d503201f 	nop
   81be8:	d503201f 	nop
   81bec:	d503201f 	nop
   81bf0:	d503201f 	nop
   81bf4:	d503201f 	nop
   81bf8:	d503201f 	nop
   81bfc:	d503201f 	nop
   81c00:	17fff96e 	b	801b8 <hang>
   81c04:	d503201f 	nop
   81c08:	d503201f 	nop
   81c0c:	d503201f 	nop
   81c10:	d503201f 	nop
   81c14:	d503201f 	nop
   81c18:	d503201f 	nop
   81c1c:	d503201f 	nop
   81c20:	d503201f 	nop
   81c24:	d503201f 	nop
   81c28:	d503201f 	nop
   81c2c:	d503201f 	nop
   81c30:	d503201f 	nop
   81c34:	d503201f 	nop
   81c38:	d503201f 	nop
   81c3c:	d503201f 	nop
   81c40:	d503201f 	nop
   81c44:	d503201f 	nop
   81c48:	d503201f 	nop
   81c4c:	d503201f 	nop
   81c50:	d503201f 	nop
   81c54:	d503201f 	nop
   81c58:	d503201f 	nop
   81c5c:	d503201f 	nop
   81c60:	d503201f 	nop
   81c64:	d503201f 	nop
   81c68:	d503201f 	nop
   81c6c:	d503201f 	nop
   81c70:	d503201f 	nop
   81c74:	d503201f 	nop
   81c78:	d503201f 	nop
   81c7c:	d503201f 	nop
   81c80:	17fff94e 	b	801b8 <hang>
   81c84:	d503201f 	nop
   81c88:	d503201f 	nop
   81c8c:	d503201f 	nop
   81c90:	d503201f 	nop
   81c94:	d503201f 	nop
   81c98:	d503201f 	nop
   81c9c:	d503201f 	nop
   81ca0:	d503201f 	nop
   81ca4:	d503201f 	nop
   81ca8:	d503201f 	nop
   81cac:	d503201f 	nop
   81cb0:	d503201f 	nop
   81cb4:	d503201f 	nop
   81cb8:	d503201f 	nop
   81cbc:	d503201f 	nop
   81cc0:	d503201f 	nop
   81cc4:	d503201f 	nop
   81cc8:	d503201f 	nop
   81ccc:	d503201f 	nop
   81cd0:	d503201f 	nop
   81cd4:	d503201f 	nop
   81cd8:	d503201f 	nop
   81cdc:	d503201f 	nop
   81ce0:	d503201f 	nop
   81ce4:	d503201f 	nop
   81ce8:	d503201f 	nop
   81cec:	d503201f 	nop
   81cf0:	d503201f 	nop
   81cf4:	d503201f 	nop
   81cf8:	d503201f 	nop
   81cfc:	d503201f 	nop
   81d00:	17fff92e 	b	801b8 <hang>
   81d04:	d503201f 	nop
   81d08:	d503201f 	nop
   81d0c:	d503201f 	nop
   81d10:	d503201f 	nop
   81d14:	d503201f 	nop
   81d18:	d503201f 	nop
   81d1c:	d503201f 	nop
   81d20:	d503201f 	nop
   81d24:	d503201f 	nop
   81d28:	d503201f 	nop
   81d2c:	d503201f 	nop
   81d30:	d503201f 	nop
   81d34:	d503201f 	nop
   81d38:	d503201f 	nop
   81d3c:	d503201f 	nop
   81d40:	d503201f 	nop
   81d44:	d503201f 	nop
   81d48:	d503201f 	nop
   81d4c:	d503201f 	nop
   81d50:	d503201f 	nop
   81d54:	d503201f 	nop
   81d58:	d503201f 	nop
   81d5c:	d503201f 	nop
   81d60:	d503201f 	nop
   81d64:	d503201f 	nop
   81d68:	d503201f 	nop
   81d6c:	d503201f 	nop
   81d70:	d503201f 	nop
   81d74:	d503201f 	nop
   81d78:	d503201f 	nop
   81d7c:	d503201f 	nop
   81d80:	17fff90e 	b	801b8 <hang>
   81d84:	d503201f 	nop
   81d88:	d503201f 	nop
   81d8c:	d503201f 	nop
   81d90:	d503201f 	nop
   81d94:	d503201f 	nop
   81d98:	d503201f 	nop
   81d9c:	d503201f 	nop
   81da0:	d503201f 	nop
   81da4:	d503201f 	nop
   81da8:	d503201f 	nop
   81dac:	d503201f 	nop
   81db0:	d503201f 	nop
   81db4:	d503201f 	nop
   81db8:	d503201f 	nop
   81dbc:	d503201f 	nop
   81dc0:	d503201f 	nop
   81dc4:	d503201f 	nop
   81dc8:	d503201f 	nop
   81dcc:	d503201f 	nop
   81dd0:	d503201f 	nop
   81dd4:	d503201f 	nop
   81dd8:	d503201f 	nop
   81ddc:	d503201f 	nop
   81de0:	d503201f 	nop
   81de4:	d503201f 	nop
   81de8:	d503201f 	nop
   81dec:	d503201f 	nop
   81df0:	d503201f 	nop
   81df4:	d503201f 	nop
   81df8:	d503201f 	nop
   81dfc:	d503201f 	nop
   81e00:	17fff8ee 	b	801b8 <hang>
   81e04:	d503201f 	nop
   81e08:	d503201f 	nop
   81e0c:	d503201f 	nop
   81e10:	d503201f 	nop
   81e14:	d503201f 	nop
   81e18:	d503201f 	nop
   81e1c:	d503201f 	nop
   81e20:	d503201f 	nop
   81e24:	d503201f 	nop
   81e28:	d503201f 	nop
   81e2c:	d503201f 	nop
   81e30:	d503201f 	nop
   81e34:	d503201f 	nop
   81e38:	d503201f 	nop
   81e3c:	d503201f 	nop
   81e40:	d503201f 	nop
   81e44:	d503201f 	nop
   81e48:	d503201f 	nop
   81e4c:	d503201f 	nop
   81e50:	d503201f 	nop
   81e54:	d503201f 	nop
   81e58:	d503201f 	nop
   81e5c:	d503201f 	nop
   81e60:	d503201f 	nop
   81e64:	d503201f 	nop
   81e68:	d503201f 	nop
   81e6c:	d503201f 	nop
   81e70:	d503201f 	nop
   81e74:	d503201f 	nop
   81e78:	d503201f 	nop
   81e7c:	d503201f 	nop
   81e80:	17fff8ce 	b	801b8 <hang>
   81e84:	d503201f 	nop
   81e88:	d503201f 	nop
   81e8c:	d503201f 	nop
   81e90:	d503201f 	nop
   81e94:	d503201f 	nop
   81e98:	d503201f 	nop
   81e9c:	d503201f 	nop
   81ea0:	d503201f 	nop
   81ea4:	d503201f 	nop
   81ea8:	d503201f 	nop
   81eac:	d503201f 	nop
   81eb0:	d503201f 	nop
   81eb4:	d503201f 	nop
   81eb8:	d503201f 	nop
   81ebc:	d503201f 	nop
   81ec0:	d503201f 	nop
   81ec4:	d503201f 	nop
   81ec8:	d503201f 	nop
   81ecc:	d503201f 	nop
   81ed0:	d503201f 	nop
   81ed4:	d503201f 	nop
   81ed8:	d503201f 	nop
   81edc:	d503201f 	nop
   81ee0:	d503201f 	nop
   81ee4:	d503201f 	nop
   81ee8:	d503201f 	nop
   81eec:	d503201f 	nop
   81ef0:	d503201f 	nop
   81ef4:	d503201f 	nop
   81ef8:	d503201f 	nop
   81efc:	d503201f 	nop
   81f00:	17fff8ae 	b	801b8 <hang>
   81f04:	d503201f 	nop
   81f08:	d503201f 	nop
   81f0c:	d503201f 	nop
   81f10:	d503201f 	nop
   81f14:	d503201f 	nop
   81f18:	d503201f 	nop
   81f1c:	d503201f 	nop
   81f20:	d503201f 	nop
   81f24:	d503201f 	nop
   81f28:	d503201f 	nop
   81f2c:	d503201f 	nop
   81f30:	d503201f 	nop
   81f34:	d503201f 	nop
   81f38:	d503201f 	nop
   81f3c:	d503201f 	nop
   81f40:	d503201f 	nop
   81f44:	d503201f 	nop
   81f48:	d503201f 	nop
   81f4c:	d503201f 	nop
   81f50:	d503201f 	nop
   81f54:	d503201f 	nop
   81f58:	d503201f 	nop
   81f5c:	d503201f 	nop
   81f60:	d503201f 	nop
   81f64:	d503201f 	nop
   81f68:	d503201f 	nop
   81f6c:	d503201f 	nop
   81f70:	d503201f 	nop
   81f74:	d503201f 	nop
   81f78:	d503201f 	nop
   81f7c:	d503201f 	nop
   81f80:	17fff88e 	b	801b8 <hang>
   81f84:	00000000 	.inst	0x00000000 ; undefined
   81f88:	00088100 	.word	0x00088100
   81f8c:	00000000 	.word	0x00000000

0000000000081f90 <ClearArea16>:
   81f90:	29402408 	ldp	w8, w9, [x0]
   81f94:	0b020045 	add	w5, w2, w2
   81f98:	b940140c 	ldr	w12, [x0, #20]
   81f9c:	6b020084 	subs	w4, w4, w2
   81fa0:	3940c806 	ldrb	w6, [x0, #50]
   81fa4:	3940c402 	ldrb	w2, [x0, #49]
   81fa8:	aa098109 	orr	x9, x8, x9, lsl #32
   81fac:	3940c007 	ldrb	w7, [x0, #48]
   81fb0:	531f7820 	lsl	w0, w1, #1
   81fb4:	1b0c7ca5 	mul	w5, w5, w12
   81fb8:	8b000129 	add	x9, x9, x0
   81fbc:	53037cc6 	lsr	w6, w6, #3
   81fc0:	53027c40 	lsr	w0, w2, #2
   81fc4:	53037ce7 	lsr	w7, w7, #3
   81fc8:	8b050129 	add	x9, x9, x5
   81fcc:	54000360 	b.eq	82038 <ClearArea16+0xa8>  // b.none
   81fd0:	d37f7d8c 	ubfiz	x12, x12, #1, #32
   81fd4:	6b010063 	subs	w3, w3, w1
   81fd8:	54000300 	b.eq	82038 <ClearArea16+0xa8>  // b.none
   81fdc:	51000463 	sub	w3, w3, #0x1
   81fe0:	d280004b 	mov	x11, #0x2                   	// #2
   81fe4:	531b0808 	ubfiz	w8, w0, #5, #3
   81fe8:	5280000a 	mov	w10, #0x0                   	// #0
   81fec:	8b23456b 	add	x11, x11, w3, uxtw #1
   81ff0:	53037c03 	lsr	w3, w0, #3
   81ff4:	d503201f 	nop
   81ff8:	aa0903e1 	mov	x1, x9
   81ffc:	8b090165 	add	x5, x11, x9
   82000:	39400420 	ldrb	w0, [x1, #1]
   82004:	2a0800e2 	orr	w2, w7, w8
   82008:	91000821 	add	x1, x1, #0x2
   8200c:	381fe022 	sturb	w2, [x1, #-2]
   82010:	121d7000 	and	w0, w0, #0xfffffff8
   82014:	eb05003f 	cmp	x1, x5
   82018:	2a030000 	orr	w0, w0, w3
   8201c:	331d10c0 	bfi	w0, w6, #3, #5
   82020:	381ff020 	sturb	w0, [x1, #-1]
   82024:	54fffee1 	b.ne	82000 <ClearArea16+0x70>  // b.any
   82028:	1100054a 	add	w10, w10, #0x1
   8202c:	8b0c0129 	add	x9, x9, x12
   82030:	6b04015f 	cmp	w10, w4
   82034:	54fffe21 	b.ne	81ff8 <ClearArea16+0x68>  // b.any
   82038:	d65f03c0 	ret
   8203c:	d503201f 	nop

0000000000082040 <VertLine16>:
   82040:	29429005 	ldp	w5, w4, [x0, #20]
   82044:	29400c0a 	ldp	w10, w3, [x0]
   82048:	0b0500a9 	add	w9, w5, w5
   8204c:	b9401c0c 	ldr	w12, [x0, #28]
   82050:	0b040084 	add	w4, w4, w4
   82054:	3940a807 	ldrb	w7, [x0, #42]
   82058:	3940a406 	ldrb	w6, [x0, #41]
   8205c:	aa038143 	orr	x3, x10, x3, lsl #32
   82060:	3940a008 	ldrb	w8, [x0, #40]
   82064:	8b24c063 	add	x3, x3, w4, sxtw
   82068:	1b0c7d29 	mul	w9, w9, w12
   8206c:	53037ce7 	lsr	w7, w7, #3
   82070:	53027cc6 	lsr	w6, w6, #2
   82074:	53037d08 	lsr	w8, w8, #3
   82078:	8b090063 	add	x3, x3, x9
   8207c:	34000281 	cbz	w1, 820cc <VertLine16+0x8c>
   82080:	d37f7ca5 	ubfiz	x5, x5, #1, #32
   82084:	531b08cb 	ubfiz	w11, w6, #5, #3
   82088:	7100045f 	cmp	w2, #0x1
   8208c:	53037cc6 	lsr	w6, w6, #3
   82090:	cb0503ea 	neg	x10, x5
   82094:	54000220 	b.eq	820d8 <VertLine16+0x98>  // b.none
   82098:	52800005 	mov	w5, #0x0                   	// #0
   8209c:	d503201f 	nop
   820a0:	39400464 	ldrb	w4, [x3, #1]
   820a4:	2a0b0109 	orr	w9, w8, w11
   820a8:	39000069 	strb	w9, [x3]
   820ac:	110004a5 	add	w5, w5, #0x1
   820b0:	121d7084 	and	w4, w4, #0xfffffff8
   820b4:	6b05003f 	cmp	w1, w5
   820b8:	2a060084 	orr	w4, w4, w6
   820bc:	331d10e4 	bfi	w4, w7, #3, #5
   820c0:	39000464 	strb	w4, [x3, #1]
   820c4:	8b0a0063 	add	x3, x3, x10
   820c8:	54fffec1 	b.ne	820a0 <VertLine16+0x60>  // b.any
   820cc:	1b013041 	madd	w1, w2, w1, w12
   820d0:	b9001c01 	str	w1, [x0, #28]
   820d4:	d65f03c0 	ret
   820d8:	52800009 	mov	w9, #0x0                   	// #0
   820dc:	d503201f 	nop
   820e0:	39400464 	ldrb	w4, [x3, #1]
   820e4:	2a0b010a 	orr	w10, w8, w11
   820e8:	3900006a 	strb	w10, [x3]
   820ec:	11000529 	add	w9, w9, #0x1
   820f0:	121d7084 	and	w4, w4, #0xfffffff8
   820f4:	6b09003f 	cmp	w1, w9
   820f8:	2a060084 	orr	w4, w4, w6
   820fc:	331d10e4 	bfi	w4, w7, #3, #5
   82100:	39000464 	strb	w4, [x3, #1]
   82104:	8b050063 	add	x3, x3, x5
   82108:	54fffec1 	b.ne	820e0 <VertLine16+0xa0>  // b.any
   8210c:	1b013041 	madd	w1, w2, w1, w12
   82110:	b9001c01 	str	w1, [x0, #28]
   82114:	d65f03c0 	ret
   82118:	d503201f 	nop
   8211c:	d503201f 	nop

0000000000082120 <HorzLine16>:
   82120:	2942b004 	ldp	w4, w12, [x0, #20]
   82124:	29401406 	ldp	w6, w5, [x0]
   82128:	0b040084 	add	w4, w4, w4
   8212c:	b9401c0a 	ldr	w10, [x0, #28]
   82130:	0b0c0183 	add	w3, w12, w12
   82134:	3940a808 	ldrb	w8, [x0, #42]
   82138:	3940a407 	ldrb	w7, [x0, #41]
   8213c:	aa0580c5 	orr	x5, x6, x5, lsl #32
   82140:	3940a009 	ldrb	w9, [x0, #40]
   82144:	8b23c0a3 	add	x3, x5, w3, sxtw
   82148:	1b0a7c84 	mul	w4, w4, w10
   8214c:	53037d08 	lsr	w8, w8, #3
   82150:	53027ce7 	lsr	w7, w7, #2
   82154:	53037d29 	lsr	w9, w9, #3
   82158:	8b030084 	add	x4, x4, x3
   8215c:	34000201 	cbz	w1, 8219c <HorzLine16+0x7c>
   82160:	531b08ea 	ubfiz	w10, w7, #5, #3
   82164:	937f7c4b 	sbfiz	x11, x2, #1, #32
   82168:	53037ce7 	lsr	w7, w7, #3
   8216c:	52800005 	mov	w5, #0x0                   	// #0
   82170:	39400483 	ldrb	w3, [x4, #1]
   82174:	2a0a0126 	orr	w6, w9, w10
   82178:	39000086 	strb	w6, [x4]
   8217c:	110004a5 	add	w5, w5, #0x1
   82180:	121d7063 	and	w3, w3, #0xfffffff8
   82184:	6b05003f 	cmp	w1, w5
   82188:	2a070063 	orr	w3, w3, w7
   8218c:	331d1103 	bfi	w3, w8, #3, #5
   82190:	39000483 	strb	w3, [x4, #1]
   82194:	8b0b0084 	add	x4, x4, x11
   82198:	54fffec1 	b.ne	82170 <HorzLine16+0x50>  // b.any
   8219c:	1b013041 	madd	w1, w2, w1, w12
   821a0:	b9001801 	str	w1, [x0, #24]
   821a4:	d65f03c0 	ret
   821a8:	d503201f 	nop
   821ac:	d503201f 	nop

00000000000821b0 <DiagLine16>:
   821b0:	2942c005 	ldp	w5, w16, [x0, #20]
   821b4:	6b02003f 	cmp	w1, w2
   821b8:	29402009 	ldp	w9, w8, [x0]
   821bc:	0b0500a7 	add	w7, w5, w5
   821c0:	b9401c11 	ldr	w17, [x0, #28]
   821c4:	0b100206 	add	w6, w16, w16
   821c8:	3940a80c 	ldrb	w12, [x0, #42]
   821cc:	1a829022 	csel	w2, w1, w2, ls  // ls = plast
   821d0:	3940a40a 	ldrb	w10, [x0, #41]
   821d4:	aa088128 	orr	x8, x9, x8, lsl #32
   821d8:	3940a00d 	ldrb	w13, [x0, #40]
   821dc:	8b26c106 	add	x6, x8, w6, sxtw
   821e0:	1b117ce7 	mul	w7, w7, w17
   821e4:	53037d8c 	lsr	w12, w12, #3
   821e8:	53027d4a 	lsr	w10, w10, #2
   821ec:	53037dad 	lsr	w13, w13, #3
   821f0:	8b0700c6 	add	x6, x6, x7
   821f4:	34000321 	cbz	w1, 82258 <DiagLine16+0xa8>
   821f8:	1b047cab 	mul	w11, w5, w4
   821fc:	531b094e 	ubfiz	w14, w10, #5, #3
   82200:	937f7c6f 	sbfiz	x15, x3, #1, #32
   82204:	53037d4a 	lsr	w10, w10, #3
   82208:	8b0b016b 	add	x11, x11, x11
   8220c:	52800008 	mov	w8, #0x0                   	// #0
   82210:	52800007 	mov	w7, #0x0                   	// #0
   82214:	d503201f 	nop
   82218:	394004c5 	ldrb	w5, [x6, #1]
   8221c:	2a0e01a9 	orr	w9, w13, w14
   82220:	390000c9 	strb	w9, [x6]
   82224:	0b0200e7 	add	w7, w7, w2
   82228:	121d70a5 	and	w5, w5, #0xfffffff8
   8222c:	11000508 	add	w8, w8, #0x1
   82230:	2a0a00a5 	orr	w5, w5, w10
   82234:	6b07003f 	cmp	w1, w7
   82238:	331d1185 	bfi	w5, w12, #3, #5
   8223c:	390004c5 	strb	w5, [x6, #1]
   82240:	8b0f00c6 	add	x6, x6, x15
   82244:	54000068 	b.hi	82250 <DiagLine16+0xa0>  // b.pmore
   82248:	4b0100e7 	sub	w7, w7, w1
   8224c:	8b0b00c6 	add	x6, x6, x11
   82250:	6b08003f 	cmp	w1, w8
   82254:	54fffe21 	b.ne	82218 <DiagLine16+0x68>  // b.any
   82258:	1b014061 	madd	w1, w3, w1, w16
   8225c:	1b024482 	madd	w2, w4, w2, w17
   82260:	29030801 	stp	w1, w2, [x0, #24]
   82264:	d65f03c0 	ret
   82268:	d503201f 	nop
   8226c:	d503201f 	nop

0000000000082270 <WriteChar16>:
   82270:	a9be7bfd 	stp	x29, x30, [sp, #-32]!
   82274:	531e1c21 	ubfiz	w1, w1, #2, #8
   82278:	90000032 	adrp	x18, 86000 <_doprnt+0x30>
   8227c:	913d0252 	add	x18, x18, #0xf40
   82280:	910003fd 	mov	x29, sp
   82284:	2942f80b 	ldp	w11, w30, [x0, #20]
   82288:	f9000bf3 	str	x19, [sp, #16]
   8228c:	29401005 	ldp	w5, w4, [x0]
   82290:	0b0b0163 	add	w3, w11, w11
   82294:	b9401c06 	ldr	w6, [x0, #28]
   82298:	0b1e03c2 	add	w2, w30, w30
   8229c:	3940a811 	ldrb	w17, [x0, #42]
   822a0:	d37f7d6b 	ubfiz	x11, x11, #1, #32
   822a4:	3940a410 	ldrb	w16, [x0, #41]
   822a8:	aa0480a4 	orr	x4, x5, x4, lsl #32
   822ac:	3940a00f 	ldrb	w15, [x0, #40]
   822b0:	8b22c082 	add	x2, x4, w2, sxtw
   822b4:	3940b80e 	ldrb	w14, [x0, #46]
   822b8:	1b067c63 	mul	w3, w3, w6
   822bc:	3940b40d 	ldrb	w13, [x0, #45]
   822c0:	53037e31 	lsr	w17, w17, #3
   822c4:	3940b00c 	ldrb	w12, [x0, #44]
   822c8:	53027e10 	lsr	w16, w16, #2
   822cc:	53037def 	lsr	w15, w15, #3
   822d0:	53037dce 	lsr	w14, w14, #3
   822d4:	53027dad 	lsr	w13, w13, #2
   822d8:	8b020063 	add	x3, x3, x2
   822dc:	53037d8c 	lsr	w12, w12, #3
   822e0:	11001033 	add	w19, w1, #0x4
   822e4:	b8615a46 	ldr	w6, [x18, w1, uxtw #2]
   822e8:	52800005 	mov	w5, #0x0                   	// #0
   822ec:	d503201f 	nop
   822f0:	2a0d03e2 	mov	w2, w13
   822f4:	2a0e03ea 	mov	w10, w14
   822f8:	2a0c03e4 	mov	w4, w12
   822fc:	120008a9 	and	w9, w5, #0x7
   82300:	36f80086 	tbz	w6, #31, 82310 <WriteChar16+0xa0>
   82304:	2a1103ea 	mov	w10, w17
   82308:	2a1003e2 	mov	w2, w16
   8230c:	2a0f03e4 	mov	w4, w15
   82310:	d37f0928 	ubfiz	x8, x9, #1, #3
   82314:	2a021484 	orr	w4, w4, w2, lsl #5
   82318:	8b080067 	add	x7, x3, x8
   8231c:	71001d3f 	cmp	w9, #0x7
   82320:	110004a5 	add	w5, w5, #0x1
   82324:	8b0b0069 	add	x9, x3, x11
   82328:	38286864 	strb	w4, [x3, x8]
   8232c:	0b0600c6 	add	w6, w6, w6
   82330:	9a830123 	csel	x3, x9, x3, eq  // eq = none
   82334:	710080bf 	cmp	w5, #0x20
   82338:	394004e4 	ldrb	w4, [x7, #1]
   8233c:	121d7084 	and	w4, w4, #0xfffffff8
   82340:	2a420c82 	orr	w2, w4, w2, lsr #3
   82344:	331d1142 	bfi	w2, w10, #3, #5
   82348:	390004e2 	strb	w2, [x7, #1]
   8234c:	54fffd21 	b.ne	822f0 <WriteChar16+0x80>  // b.any
   82350:	11000421 	add	w1, w1, #0x1
   82354:	6b13003f 	cmp	w1, w19
   82358:	54fffc61 	b.ne	822e4 <WriteChar16+0x74>  // b.any
   8235c:	110023de 	add	w30, w30, #0x8
   82360:	f9400bf3 	ldr	x19, [sp, #16]
   82364:	b900181e 	str	w30, [x0, #24]
   82368:	a8c27bfd 	ldp	x29, x30, [sp], #32
   8236c:	d65f03c0 	ret

0000000000082370 <TransparentWriteChar16>:
   82370:	2942c00a 	ldp	w10, w16, [x0, #20]
   82374:	531e1c21 	ubfiz	w1, w1, #2, #8
   82378:	29400c05 	ldp	w5, w3, [x0]
   8237c:	0b0a0144 	add	w4, w10, w10
   82380:	b9401c06 	ldr	w6, [x0, #28]
   82384:	0b100202 	add	w2, w16, w16
   82388:	3940a40b 	ldrb	w11, [x0, #41]
   8238c:	9000002f 	adrp	x15, 86000 <_doprnt+0x30>
   82390:	913d01ef 	add	x15, x15, #0xf40
   82394:	3940a80d 	ldrb	w13, [x0, #42]
   82398:	aa0380a3 	orr	x3, x5, x3, lsl #32
   8239c:	3940a00c 	ldrb	w12, [x0, #40]
   823a0:	53027d6b 	lsr	w11, w11, #2
   823a4:	1b067c84 	mul	w4, w4, w6
   823a8:	8b22c062 	add	x2, x3, w2, sxtw
   823ac:	531b096e 	ubfiz	w14, w11, #5, #3
   823b0:	11001031 	add	w17, w1, #0x4
   823b4:	53037dad 	lsr	w13, w13, #3
   823b8:	53037d8c 	lsr	w12, w12, #3
   823bc:	53037d6b 	lsr	w11, w11, #3
   823c0:	8b020084 	add	x4, x4, x2
   823c4:	d37f7d4a 	ubfiz	x10, x10, #1, #32
   823c8:	b86159e3 	ldr	w3, [x15, w1, uxtw #2]
   823cc:	52800002 	mov	w2, #0x0                   	// #0
   823d0:	12000846 	and	w6, w2, #0x7
   823d4:	8b0a0087 	add	x7, x4, x10
   823d8:	11000442 	add	w2, w2, #0x1
   823dc:	36f80143 	tbz	w3, #31, 82404 <TransparentWriteChar16+0x94>
   823e0:	d37f08c5 	ubfiz	x5, x6, #1, #3
   823e4:	2a0e0188 	orr	w8, w12, w14
   823e8:	8b050089 	add	x9, x4, x5
   823ec:	38256888 	strb	w8, [x4, x5]
   823f0:	39400525 	ldrb	w5, [x9, #1]
   823f4:	121d70a5 	and	w5, w5, #0xfffffff8
   823f8:	2a0b00a5 	orr	w5, w5, w11
   823fc:	331d11a5 	bfi	w5, w13, #3, #5
   82400:	39000525 	strb	w5, [x9, #1]
   82404:	71001cdf 	cmp	w6, #0x7
   82408:	0b030063 	add	w3, w3, w3
   8240c:	9a8400e4 	csel	x4, x7, x4, eq  // eq = none
   82410:	7100805f 	cmp	w2, #0x20
   82414:	54fffde1 	b.ne	823d0 <TransparentWriteChar16+0x60>  // b.any
   82418:	11000421 	add	w1, w1, #0x1
   8241c:	6b01023f 	cmp	w17, w1
   82420:	54fffd41 	b.ne	823c8 <TransparentWriteChar16+0x58>  // b.any
   82424:	11002210 	add	w16, w16, #0x8
   82428:	b9001810 	str	w16, [x0, #24]
   8242c:	d65f03c0 	ret

0000000000082430 <PutImage16>:
   82430:	29429409 	ldp	w9, w5, [x0, #20]
   82434:	12001c84 	and	w4, w4, #0xff
   82438:	29401808 	ldp	w8, w6, [x0]
   8243c:	0b0500a5 	add	w5, w5, w5
   82440:	b9401c07 	ldr	w7, [x0, #28]
   82444:	0b090120 	add	w0, w9, w9
   82448:	aa068106 	orr	x6, x8, x6, lsl #32
   8244c:	8b25c0c5 	add	x5, x6, w5, sxtw
   82450:	1b077c00 	mul	w0, w0, w7
   82454:	8b0000a5 	add	x5, x5, x0
   82458:	34000362 	cbz	w2, 824c4 <PutImage16+0x94>
   8245c:	d37f7d29 	ubfiz	x9, x9, #1, #32
   82460:	cb0903ea 	neg	x10, x9
   82464:	34000301 	cbz	w1, 824c4 <PutImage16+0x94>
   82468:	51000427 	sub	w7, w1, #0x1
   8246c:	52800008 	mov	w8, #0x0                   	// #0
   82470:	910004e7 	add	x7, x7, #0x1
   82474:	8b0700e7 	add	x7, x7, x7
   82478:	d2800000 	mov	x0, #0x0                   	// #0
   8247c:	d503201f 	nop
   82480:	38606861 	ldrb	w1, [x3, x0]
   82484:	8b000066 	add	x6, x3, x0
   82488:	382068a1 	strb	w1, [x5, x0]
   8248c:	8b0000a1 	add	x1, x5, x0
   82490:	91000800 	add	x0, x0, #0x2
   82494:	394004c6 	ldrb	w6, [x6, #1]
   82498:	eb07001f 	cmp	x0, x7
   8249c:	39000426 	strb	w6, [x1, #1]
   824a0:	54ffff01 	b.ne	82480 <PutImage16+0x50>  // b.any
   824a4:	7100009f 	cmp	w4, #0x0
   824a8:	8b0a00a0 	add	x0, x5, x10
   824ac:	11000508 	add	w8, w8, #0x1
   824b0:	8b0900a5 	add	x5, x5, x9
   824b4:	9a8000a5 	csel	x5, x5, x0, eq  // eq = none
   824b8:	8b070063 	add	x3, x3, x7
   824bc:	6b08005f 	cmp	w2, w8
   824c0:	54fffdc1 	b.ne	82478 <PutImage16+0x48>  // b.any
   824c4:	d65f03c0 	ret
   824c8:	d503201f 	nop
   824cc:	d503201f 	nop

00000000000824d0 <ClearArea24>:
   824d0:	29401407 	ldp	w7, w5, [x0]
   824d4:	0b020446 	add	w6, w2, w2, lsl #1
   824d8:	b9401408 	ldr	w8, [x0, #20]
   824dc:	6b020084 	subs	w4, w4, w2
   824e0:	0b010422 	add	w2, w1, w1, lsl #1
   824e4:	aa0580e5 	orr	x5, x7, x5, lsl #32
   824e8:	8b0200a5 	add	x5, x5, x2
   824ec:	1b087cc6 	mul	w6, w6, w8
   824f0:	8b0600a5 	add	x5, x5, x6
   824f4:	54000340 	b.eq	8255c <ClearArea24+0x8c>  // b.none
   824f8:	52800067 	mov	w7, #0x3                   	// #3
   824fc:	6b010063 	subs	w3, w3, w1
   82500:	9ba77d08 	umull	x8, w8, w7
   82504:	540002c0 	b.eq	8255c <ClearArea24+0x8c>  // b.none
   82508:	51000463 	sub	w3, w3, #0x1
   8250c:	d2800062 	mov	x2, #0x3                   	// #3
   82510:	9100c001 	add	x1, x0, #0x30
   82514:	52800006 	mov	w6, #0x0                   	// #0
   82518:	9ba70867 	umaddl	x7, w3, w7, x2
   8251c:	d503201f 	nop
   82520:	aa0503e0 	mov	x0, x5
   82524:	8b0500e3 	add	x3, x7, x5
   82528:	91000c00 	add	x0, x0, #0x3
   8252c:	39400022 	ldrb	w2, [x1]
   82530:	eb03001f 	cmp	x0, x3
   82534:	381fd002 	sturb	w2, [x0, #-3]
   82538:	39400422 	ldrb	w2, [x1, #1]
   8253c:	381fe002 	sturb	w2, [x0, #-2]
   82540:	39400822 	ldrb	w2, [x1, #2]
   82544:	381ff002 	sturb	w2, [x0, #-1]
   82548:	54ffff01 	b.ne	82528 <ClearArea24+0x58>  // b.any
   8254c:	110004c6 	add	w6, w6, #0x1
   82550:	8b0800a5 	add	x5, x5, x8
   82554:	6b0400df 	cmp	w6, w4
   82558:	54fffe41 	b.ne	82520 <ClearArea24+0x50>  // b.any
   8255c:	d65f03c0 	ret

0000000000082560 <VertLine24>:
   82560:	29429005 	ldp	w5, w4, [x0, #20]
   82564:	29400c07 	ldp	w7, w3, [x0]
   82568:	b9401c08 	ldr	w8, [x0, #28]
   8256c:	0b0504a6 	add	w6, w5, w5, lsl #1
   82570:	0b040484 	add	w4, w4, w4, lsl #1
   82574:	aa0380e3 	orr	x3, x7, x3, lsl #32
   82578:	8b24c063 	add	x3, x3, w4, sxtw
   8257c:	1b087cc6 	mul	w6, w6, w8
   82580:	8b060063 	add	x3, x3, x6
   82584:	34000261 	cbz	w1, 825d0 <VertLine24+0x70>
   82588:	52800064 	mov	w4, #0x3                   	// #3
   8258c:	7100045f 	cmp	w2, #0x1
   82590:	9ba47ca5 	umull	x5, w5, w4
   82594:	9100a004 	add	x4, x0, #0x28
   82598:	cb0503e7 	neg	x7, x5
   8259c:	54000200 	b.eq	825dc <VertLine24+0x7c>  // b.none
   825a0:	52800005 	mov	w5, #0x0                   	// #0
   825a4:	d503201f 	nop
   825a8:	39400086 	ldrb	w6, [x4]
   825ac:	110004a5 	add	w5, w5, #0x1
   825b0:	39000066 	strb	w6, [x3]
   825b4:	6b05003f 	cmp	w1, w5
   825b8:	39400486 	ldrb	w6, [x4, #1]
   825bc:	39000466 	strb	w6, [x3, #1]
   825c0:	39400886 	ldrb	w6, [x4, #2]
   825c4:	39000866 	strb	w6, [x3, #2]
   825c8:	8b070063 	add	x3, x3, x7
   825cc:	54fffee1 	b.ne	825a8 <VertLine24+0x48>  // b.any
   825d0:	1b012041 	madd	w1, w2, w1, w8
   825d4:	b9001c01 	str	w1, [x0, #28]
   825d8:	d65f03c0 	ret
   825dc:	52800006 	mov	w6, #0x0                   	// #0
   825e0:	39400087 	ldrb	w7, [x4]
   825e4:	110004c6 	add	w6, w6, #0x1
   825e8:	39000067 	strb	w7, [x3]
   825ec:	6b06003f 	cmp	w1, w6
   825f0:	39400487 	ldrb	w7, [x4, #1]
   825f4:	39000467 	strb	w7, [x3, #1]
   825f8:	39400887 	ldrb	w7, [x4, #2]
   825fc:	39000867 	strb	w7, [x3, #2]
   82600:	8b050063 	add	x3, x3, x5
   82604:	54fffee1 	b.ne	825e0 <VertLine24+0x80>  // b.any
   82608:	1b012041 	madd	w1, w2, w1, w8
   8260c:	b9001c01 	str	w1, [x0, #28]
   82610:	d65f03c0 	ret
   82614:	d503201f 	nop
   82618:	d503201f 	nop
   8261c:	d503201f 	nop

0000000000082620 <HorzLine24>:
   82620:	2942a003 	ldp	w3, w8, [x0, #20]
   82624:	29401407 	ldp	w7, w5, [x0]
   82628:	b9401c06 	ldr	w6, [x0, #28]
   8262c:	0b030463 	add	w3, w3, w3, lsl #1
   82630:	0b080504 	add	w4, w8, w8, lsl #1
   82634:	aa0580e5 	orr	x5, x7, x5, lsl #32
   82638:	8b24c0a4 	add	x4, x5, w4, sxtw
   8263c:	1b067c63 	mul	w3, w3, w6
   82640:	8b040063 	add	x3, x3, x4
   82644:	340001e1 	cbz	w1, 82680 <HorzLine24+0x60>
   82648:	52800067 	mov	w7, #0x3                   	// #3
   8264c:	9100a005 	add	x5, x0, #0x28
   82650:	52800004 	mov	w4, #0x0                   	// #0
   82654:	9b277c47 	smull	x7, w2, w7
   82658:	394000a6 	ldrb	w6, [x5]
   8265c:	11000484 	add	w4, w4, #0x1
   82660:	39000066 	strb	w6, [x3]
   82664:	6b04003f 	cmp	w1, w4
   82668:	394004a6 	ldrb	w6, [x5, #1]
   8266c:	39000466 	strb	w6, [x3, #1]
   82670:	394008a6 	ldrb	w6, [x5, #2]
   82674:	39000866 	strb	w6, [x3, #2]
   82678:	8b070063 	add	x3, x3, x7
   8267c:	54fffee1 	b.ne	82658 <HorzLine24+0x38>  // b.any
   82680:	1b012041 	madd	w1, w2, w1, w8
   82684:	b9001801 	str	w1, [x0, #24]
   82688:	d65f03c0 	ret
   8268c:	d503201f 	nop

0000000000082690 <DiagLine24>:
   82690:	2942b006 	ldp	w6, w12, [x0, #20]
   82694:	6b02003f 	cmp	w1, w2
   82698:	29402009 	ldp	w9, w8, [x0]
   8269c:	1a829022 	csel	w2, w1, w2, ls  // ls = plast
   826a0:	b9401c0d 	ldr	w13, [x0, #28]
   826a4:	0b0604c7 	add	w7, w6, w6, lsl #1
   826a8:	0b0c0585 	add	w5, w12, w12, lsl #1
   826ac:	aa088128 	orr	x8, x9, x8, lsl #32
   826b0:	8b25c105 	add	x5, x8, w5, sxtw
   826b4:	1b0d7ce7 	mul	w7, w7, w13
   826b8:	8b0700a5 	add	x5, x5, x7
   826bc:	34000301 	cbz	w1, 8271c <DiagLine24+0x8c>
   826c0:	1b047cca 	mul	w10, w6, w4
   826c4:	52800069 	mov	w9, #0x3                   	// #3
   826c8:	9100a008 	add	x8, x0, #0x28
   826cc:	52800007 	mov	w7, #0x0                   	// #0
   826d0:	9b297c6b 	smull	x11, w3, w9
   826d4:	52800006 	mov	w6, #0x0                   	// #0
   826d8:	9ba97d4a 	umull	x10, w10, w9
   826dc:	d503201f 	nop
   826e0:	39400109 	ldrb	w9, [x8]
   826e4:	0b0200c6 	add	w6, w6, w2
   826e8:	390000a9 	strb	w9, [x5]
   826ec:	110004e7 	add	w7, w7, #0x1
   826f0:	6b06003f 	cmp	w1, w6
   826f4:	39400509 	ldrb	w9, [x8, #1]
   826f8:	390004a9 	strb	w9, [x5, #1]
   826fc:	39400909 	ldrb	w9, [x8, #2]
   82700:	390008a9 	strb	w9, [x5, #2]
   82704:	8b0b00a5 	add	x5, x5, x11
   82708:	54000068 	b.hi	82714 <DiagLine24+0x84>  // b.pmore
   8270c:	4b0100c6 	sub	w6, w6, w1
   82710:	8b0a00a5 	add	x5, x5, x10
   82714:	6b07003f 	cmp	w1, w7
   82718:	54fffe41 	b.ne	826e0 <DiagLine24+0x50>  // b.any
   8271c:	1b013061 	madd	w1, w3, w1, w12
   82720:	1b023482 	madd	w2, w4, w2, w13
   82724:	29030801 	stp	w1, w2, [x0, #24]
   82728:	d65f03c0 	ret
   8272c:	d503201f 	nop

0000000000082730 <WriteChar24>:
   82730:	2942b80b 	ldp	w11, w14, [x0, #20]
   82734:	5280006c 	mov	w12, #0x3                   	// #3
   82738:	29401006 	ldp	w6, w4, [x0]
   8273c:	531e1c21 	ubfiz	w1, w1, #2, #8
   82740:	b9401c05 	ldr	w5, [x0, #28]
   82744:	0b0b0563 	add	w3, w11, w11, lsl #1
   82748:	0b0e05c2 	add	w2, w14, w14, lsl #1
   8274c:	9bac7d6b 	umull	x11, w11, w12
   82750:	aa0480c4 	orr	x4, x6, x4, lsl #32
   82754:	9000002d 	adrp	x13, 86000 <_doprnt+0x30>
   82758:	913d01ad 	add	x13, x13, #0xf40
   8275c:	1b057c63 	mul	w3, w3, w5
   82760:	8b22c082 	add	x2, x4, w2, sxtw
   82764:	1100102f 	add	w15, w1, #0x4
   82768:	8b020063 	add	x3, x3, x2
   8276c:	b86159a5 	ldr	w5, [x13, w1, uxtw #2]
   82770:	52800004 	mov	w4, #0x0                   	// #0
   82774:	d503201f 	nop
   82778:	12000882 	and	w2, w4, #0x7
   8277c:	8b0b006a 	add	x10, x3, x11
   82780:	3940b009 	ldrb	w9, [x0, #44]
   82784:	11000484 	add	w4, w4, #0x1
   82788:	3940b408 	ldrb	w8, [x0, #45]
   8278c:	3940b807 	ldrb	w7, [x0, #46]
   82790:	36f80085 	tbz	w5, #31, 827a0 <WriteChar24+0x70>
   82794:	3940a009 	ldrb	w9, [x0, #40]
   82798:	3940a408 	ldrb	w8, [x0, #41]
   8279c:	3940a807 	ldrb	w7, [x0, #42]
   827a0:	71001c5f 	cmp	w2, #0x7
   827a4:	9b2c7c42 	smull	x2, w2, w12
   827a8:	0b0500a5 	add	w5, w5, w5
   827ac:	8b020066 	add	x6, x3, x2
   827b0:	38226869 	strb	w9, [x3, x2]
   827b4:	9a830143 	csel	x3, x10, x3, eq  // eq = none
   827b8:	390004c8 	strb	w8, [x6, #1]
   827bc:	7100809f 	cmp	w4, #0x20
   827c0:	390008c7 	strb	w7, [x6, #2]
   827c4:	54fffda1 	b.ne	82778 <WriteChar24+0x48>  // b.any
   827c8:	11000421 	add	w1, w1, #0x1
   827cc:	6b0f003f 	cmp	w1, w15
   827d0:	54fffce1 	b.ne	8276c <WriteChar24+0x3c>  // b.any
   827d4:	110021ce 	add	w14, w14, #0x8
   827d8:	b900180e 	str	w14, [x0, #24]
   827dc:	d65f03c0 	ret

00000000000827e0 <TransparentWriteChar24>:
   827e0:	2942b80a 	ldp	w10, w14, [x0, #20]
   827e4:	5280006c 	mov	w12, #0x3                   	// #3
   827e8:	29400c06 	ldp	w6, w3, [x0]
   827ec:	531e1c21 	ubfiz	w1, w1, #2, #8
   827f0:	b9401c05 	ldr	w5, [x0, #28]
   827f4:	0b0a0544 	add	w4, w10, w10, lsl #1
   827f8:	0b0e05c2 	add	w2, w14, w14, lsl #1
   827fc:	9bac7d4a 	umull	x10, w10, w12
   82800:	aa0380c3 	orr	x3, x6, x3, lsl #32
   82804:	9000002d 	adrp	x13, 86000 <_doprnt+0x30>
   82808:	913d01ad 	add	x13, x13, #0xf40
   8280c:	1b057c84 	mul	w4, w4, w5
   82810:	8b22c062 	add	x2, x3, w2, sxtw
   82814:	1100102f 	add	w15, w1, #0x4
   82818:	8b020084 	add	x4, x4, x2
   8281c:	b86159a3 	ldr	w3, [x13, w1, uxtw #2]
   82820:	52800002 	mov	w2, #0x0                   	// #0
   82824:	d503201f 	nop
   82828:	12000845 	and	w5, w2, #0x7
   8282c:	8b0a0086 	add	x6, x4, x10
   82830:	11000442 	add	w2, w2, #0x1
   82834:	36f80123 	tbz	w3, #31, 82858 <TransparentWriteChar24+0x78>
   82838:	9b2c7ca9 	smull	x9, w5, w12
   8283c:	3940a00b 	ldrb	w11, [x0, #40]
   82840:	8b090087 	add	x7, x4, x9
   82844:	3829688b 	strb	w11, [x4, x9]
   82848:	3940a409 	ldrb	w9, [x0, #41]
   8284c:	390004e9 	strb	w9, [x7, #1]
   82850:	3940a808 	ldrb	w8, [x0, #42]
   82854:	390008e8 	strb	w8, [x7, #2]
   82858:	71001cbf 	cmp	w5, #0x7
   8285c:	0b030063 	add	w3, w3, w3
   82860:	9a8400c4 	csel	x4, x6, x4, eq  // eq = none
   82864:	7100805f 	cmp	w2, #0x20
   82868:	54fffe01 	b.ne	82828 <TransparentWriteChar24+0x48>  // b.any
   8286c:	11000421 	add	w1, w1, #0x1
   82870:	6b0101ff 	cmp	w15, w1
   82874:	54fffd41 	b.ne	8281c <TransparentWriteChar24+0x3c>  // b.any
   82878:	110021ce 	add	w14, w14, #0x8
   8287c:	b900180e 	str	w14, [x0, #24]
   82880:	d65f03c0 	ret
   82884:	d503201f 	nop
   82888:	d503201f 	nop
   8288c:	d503201f 	nop

0000000000082890 <PutImage24>:
   82890:	2942940a 	ldp	w10, w5, [x0, #20]
   82894:	12001c84 	and	w4, w4, #0xff
   82898:	29401808 	ldp	w8, w6, [x0]
   8289c:	b9401c07 	ldr	w7, [x0, #28]
   828a0:	0b0a0540 	add	w0, w10, w10, lsl #1
   828a4:	0b0504a5 	add	w5, w5, w5, lsl #1
   828a8:	aa068106 	orr	x6, x8, x6, lsl #32
   828ac:	8b25c0c6 	add	x6, x6, w5, sxtw
   828b0:	1b077c00 	mul	w0, w0, w7
   828b4:	8b0000c6 	add	x6, x6, x0
   828b8:	340003e2 	cbz	w2, 82934 <PutImage24+0xa4>
   828bc:	52800060 	mov	w0, #0x3                   	// #3
   828c0:	9ba07d4a 	umull	x10, w10, w0
   828c4:	cb0a03eb 	neg	x11, x10
   828c8:	34000361 	cbz	w1, 82934 <PutImage24+0xa4>
   828cc:	51000428 	sub	w8, w1, #0x1
   828d0:	52800009 	mov	w9, #0x0                   	// #0
   828d4:	91000508 	add	x8, x8, #0x1
   828d8:	8b080508 	add	x8, x8, x8, lsl #1
   828dc:	d503201f 	nop
   828e0:	d2800000 	mov	x0, #0x0                   	// #0
   828e4:	d503201f 	nop
   828e8:	38606861 	ldrb	w1, [x3, x0]
   828ec:	8b000065 	add	x5, x3, x0
   828f0:	382068c1 	strb	w1, [x6, x0]
   828f4:	8b0000c1 	add	x1, x6, x0
   828f8:	91000c00 	add	x0, x0, #0x3
   828fc:	394004a7 	ldrb	w7, [x5, #1]
   82900:	eb08001f 	cmp	x0, x8
   82904:	39000427 	strb	w7, [x1, #1]
   82908:	394008a5 	ldrb	w5, [x5, #2]
   8290c:	39000825 	strb	w5, [x1, #2]
   82910:	54fffec1 	b.ne	828e8 <PutImage24+0x58>  // b.any
   82914:	7100009f 	cmp	w4, #0x0
   82918:	8b0b00c0 	add	x0, x6, x11
   8291c:	11000529 	add	w9, w9, #0x1
   82920:	8b0a00c6 	add	x6, x6, x10
   82924:	9a8000c6 	csel	x6, x6, x0, eq  // eq = none
   82928:	8b080063 	add	x3, x3, x8
   8292c:	6b09005f 	cmp	w2, w9
   82930:	54fffd81 	b.ne	828e0 <PutImage24+0x50>  // b.any
   82934:	d65f03c0 	ret
   82938:	d503201f 	nop
   8293c:	d503201f 	nop

0000000000082940 <ClearArea32>:
   82940:	b9401408 	ldr	w8, [x0, #20]
   82944:	531e7446 	lsl	w6, w2, #2
   82948:	6b020084 	subs	w4, w4, w2
   8294c:	29400807 	ldp	w7, w2, [x0]
   82950:	1b067d05 	mul	w5, w8, w6
   82954:	aa0280e2 	orr	x2, x7, x2, lsl #32
   82958:	8b264046 	add	x6, x2, w6, uxtw
   8295c:	8b2540c5 	add	x5, x6, w5, uxtw
   82960:	54000280 	b.eq	829b0 <ClearArea32+0x70>  // b.none
   82964:	d37e7d08 	ubfiz	x8, x8, #2, #32
   82968:	6b010063 	subs	w3, w3, w1
   8296c:	54000220 	b.eq	829b0 <ClearArea32+0x70>  // b.none
   82970:	51000463 	sub	w3, w3, #0x1
   82974:	d2800087 	mov	x7, #0x4                   	// #4
   82978:	9100c002 	add	x2, x0, #0x30
   8297c:	52800006 	mov	w6, #0x0                   	// #0
   82980:	8b2348e7 	add	x7, x7, w3, uxtw #2
   82984:	d503201f 	nop
   82988:	aa0503e0 	mov	x0, x5
   8298c:	8b0500e3 	add	x3, x7, x5
   82990:	b9400041 	ldr	w1, [x2]
   82994:	b8004401 	str	w1, [x0], #4
   82998:	eb03001f 	cmp	x0, x3
   8299c:	54ffffa1 	b.ne	82990 <ClearArea32+0x50>  // b.any
   829a0:	110004c6 	add	w6, w6, #0x1
   829a4:	8b0800a5 	add	x5, x5, x8
   829a8:	6b0400df 	cmp	w6, w4
   829ac:	54fffee1 	b.ne	82988 <ClearArea32+0x48>  // b.any
   829b0:	d65f03c0 	ret
   829b4:	d503201f 	nop
   829b8:	d503201f 	nop
   829bc:	d503201f 	nop

00000000000829c0 <VertLine32>:
   829c0:	29429404 	ldp	w4, w5, [x0, #20]
   829c4:	b9401c08 	ldr	w8, [x0, #28]
   829c8:	29401807 	ldp	w7, w6, [x0]
   829cc:	531e7483 	lsl	w3, w4, #2
   829d0:	531e74a5 	lsl	w5, w5, #2
   829d4:	1b087c63 	mul	w3, w3, w8
   829d8:	aa0680e6 	orr	x6, x7, x6, lsl #32
   829dc:	8b25c0c5 	add	x5, x6, w5, sxtw
   829e0:	8b2340a3 	add	x3, x5, w3, uxtw
   829e4:	340001a1 	cbz	w1, 82a18 <VertLine32+0x58>
   829e8:	d37e7c84 	ubfiz	x4, x4, #2, #32
   829ec:	9100a006 	add	x6, x0, #0x28
   829f0:	7100045f 	cmp	w2, #0x1
   829f4:	cb0403e7 	neg	x7, x4
   829f8:	54000160 	b.eq	82a24 <VertLine32+0x64>  // b.none
   829fc:	52800004 	mov	w4, #0x0                   	// #0
   82a00:	b94000c5 	ldr	w5, [x6]
   82a04:	11000484 	add	w4, w4, #0x1
   82a08:	b9000065 	str	w5, [x3]
   82a0c:	6b04003f 	cmp	w1, w4
   82a10:	8b070063 	add	x3, x3, x7
   82a14:	54ffff61 	b.ne	82a00 <VertLine32+0x40>  // b.any
   82a18:	1b012041 	madd	w1, w2, w1, w8
   82a1c:	b9001c01 	str	w1, [x0, #28]
   82a20:	d65f03c0 	ret
   82a24:	52800005 	mov	w5, #0x0                   	// #0
   82a28:	b94000c7 	ldr	w7, [x6]
   82a2c:	110004a5 	add	w5, w5, #0x1
   82a30:	b9000067 	str	w7, [x3]
   82a34:	6b05003f 	cmp	w1, w5
   82a38:	8b040063 	add	x3, x3, x4
   82a3c:	54ffff61 	b.ne	82a28 <VertLine32+0x68>  // b.any
   82a40:	1b012041 	madd	w1, w2, w1, w8
   82a44:	b9001c01 	str	w1, [x0, #28]
   82a48:	d65f03c0 	ret
   82a4c:	d503201f 	nop

0000000000082a50 <HorzLine32>:
   82a50:	2942a003 	ldp	w3, w8, [x0, #20]
   82a54:	b9401c06 	ldr	w6, [x0, #28]
   82a58:	29401407 	ldp	w7, w5, [x0]
   82a5c:	531e7463 	lsl	w3, w3, #2
   82a60:	531e7504 	lsl	w4, w8, #2
   82a64:	1b067c63 	mul	w3, w3, w6
   82a68:	aa0580e5 	orr	x5, x7, x5, lsl #32
   82a6c:	8b24c0a4 	add	x4, x5, w4, sxtw
   82a70:	8b234083 	add	x3, x4, w3, uxtw
   82a74:	34000161 	cbz	w1, 82aa0 <HorzLine32+0x50>
   82a78:	937e7c47 	sbfiz	x7, x2, #2, #32
   82a7c:	9100a006 	add	x6, x0, #0x28
   82a80:	52800004 	mov	w4, #0x0                   	// #0
   82a84:	d503201f 	nop
   82a88:	b94000c5 	ldr	w5, [x6]
   82a8c:	11000484 	add	w4, w4, #0x1
   82a90:	b9000065 	str	w5, [x3]
   82a94:	6b04003f 	cmp	w1, w4
   82a98:	8b070063 	add	x3, x3, x7
   82a9c:	54ffff61 	b.ne	82a88 <HorzLine32+0x38>  // b.any
   82aa0:	1b012041 	madd	w1, w2, w1, w8
   82aa4:	b9001801 	str	w1, [x0, #24]
   82aa8:	d65f03c0 	ret
   82aac:	d503201f 	nop

0000000000082ab0 <DiagLine32>:
   82ab0:	2942b409 	ldp	w9, w13, [x0, #20]
   82ab4:	6b02003f 	cmp	w1, w2
   82ab8:	b9401c0c 	ldr	w12, [x0, #28]
   82abc:	1a829022 	csel	w2, w1, w2, ls  // ls = plast
   82ac0:	29401c08 	ldp	w8, w7, [x0]
   82ac4:	531e7525 	lsl	w5, w9, #2
   82ac8:	531e75a6 	lsl	w6, w13, #2
   82acc:	1b0c7ca5 	mul	w5, w5, w12
   82ad0:	aa078107 	orr	x7, x8, x7, lsl #32
   82ad4:	8b26c0e6 	add	x6, x7, w6, sxtw
   82ad8:	8b2540c5 	add	x5, x6, w5, uxtw
   82adc:	34000241 	cbz	w1, 82b24 <DiagLine32+0x74>
   82ae0:	1b047d29 	mul	w9, w9, w4
   82ae4:	937e7c6b 	sbfiz	x11, x3, #2, #32
   82ae8:	9100a00a 	add	x10, x0, #0x28
   82aec:	52800007 	mov	w7, #0x0                   	// #0
   82af0:	52800006 	mov	w6, #0x0                   	// #0
   82af4:	d37ef529 	lsl	x9, x9, #2
   82af8:	b9400148 	ldr	w8, [x10]
   82afc:	0b0200c6 	add	w6, w6, w2
   82b00:	b90000a8 	str	w8, [x5]
   82b04:	110004e7 	add	w7, w7, #0x1
   82b08:	6b06003f 	cmp	w1, w6
   82b0c:	8b0b00a5 	add	x5, x5, x11
   82b10:	54000068 	b.hi	82b1c <DiagLine32+0x6c>  // b.pmore
   82b14:	4b0100c6 	sub	w6, w6, w1
   82b18:	8b0900a5 	add	x5, x5, x9
   82b1c:	6b07003f 	cmp	w1, w7
   82b20:	54fffec1 	b.ne	82af8 <DiagLine32+0x48>  // b.any
   82b24:	1b013461 	madd	w1, w3, w1, w13
   82b28:	1b023082 	madd	w2, w4, w2, w12
   82b2c:	29030801 	stp	w1, w2, [x0, #24]
   82b30:	d65f03c0 	ret
   82b34:	d503201f 	nop
   82b38:	d503201f 	nop
   82b3c:	d503201f 	nop

0000000000082b40 <WriteChar32>:
   82b40:	2942ac08 	ldp	w8, w11, [x0, #20]
   82b44:	531e1c21 	ubfiz	w1, w1, #2, #8
   82b48:	b9401c05 	ldr	w5, [x0, #28]
   82b4c:	90000029 	adrp	x9, 86000 <_doprnt+0x30>
   82b50:	913d0129 	add	x9, x9, #0xf40
   82b54:	531e7503 	lsl	w3, w8, #2
   82b58:	531e7562 	lsl	w2, w11, #2
   82b5c:	29401006 	ldp	w6, w4, [x0]
   82b60:	d10043ff 	sub	sp, sp, #0x10
   82b64:	1b057c63 	mul	w3, w3, w5
   82b68:	1100102a 	add	w10, w1, #0x4
   82b6c:	d37e7d08 	ubfiz	x8, x8, #2, #32
   82b70:	aa0480c4 	orr	x4, x6, x4, lsl #32
   82b74:	8b22c082 	add	x2, x4, w2, sxtw
   82b78:	8b234043 	add	x3, x2, w3, uxtw
   82b7c:	b8615925 	ldr	w5, [x9, w1, uxtw #2]
   82b80:	52800004 	mov	w4, #0x0                   	// #0
   82b84:	1400000c 	b	82bb4 <WriteChar32+0x74>
   82b88:	b9402c06 	ldr	w6, [x0, #44]
   82b8c:	b9000be6 	str	w6, [sp, #8]
   82b90:	b9400be7 	ldr	w7, [sp, #8]
   82b94:	71001c5f 	cmp	w2, #0x7
   82b98:	b8227867 	str	w7, [x3, x2, lsl #2]
   82b9c:	8b080066 	add	x6, x3, x8
   82ba0:	11000484 	add	w4, w4, #0x1
   82ba4:	9a8300c3 	csel	x3, x6, x3, eq  // eq = none
   82ba8:	0b0500a5 	add	w5, w5, w5
   82bac:	7100809f 	cmp	w4, #0x20
   82bb0:	540000c0 	b.eq	82bc8 <WriteChar32+0x88>  // b.none
   82bb4:	12000882 	and	w2, w4, #0x7
   82bb8:	36fffe85 	tbz	w5, #31, 82b88 <WriteChar32+0x48>
   82bbc:	b9402806 	ldr	w6, [x0, #40]
   82bc0:	b9000be6 	str	w6, [sp, #8]
   82bc4:	17fffff3 	b	82b90 <WriteChar32+0x50>
   82bc8:	11000421 	add	w1, w1, #0x1
   82bcc:	6b01015f 	cmp	w10, w1
   82bd0:	54fffd61 	b.ne	82b7c <WriteChar32+0x3c>  // b.any
   82bd4:	1100216b 	add	w11, w11, #0x8
   82bd8:	b900180b 	str	w11, [x0, #24]
   82bdc:	910043ff 	add	sp, sp, #0x10
   82be0:	d65f03c0 	ret
   82be4:	d503201f 	nop
   82be8:	d503201f 	nop
   82bec:	d503201f 	nop

0000000000082bf0 <TransparentWriteChar32>:
   82bf0:	2942b008 	ldp	w8, w12, [x0, #20]
   82bf4:	531e1c21 	ubfiz	w1, w1, #2, #8
   82bf8:	b9401c05 	ldr	w5, [x0, #28]
   82bfc:	9000002a 	adrp	x10, 86000 <_doprnt+0x30>
   82c00:	913d014a 	add	x10, x10, #0xf40
   82c04:	531e7504 	lsl	w4, w8, #2
   82c08:	531e7582 	lsl	w2, w12, #2
   82c0c:	29400c06 	ldp	w6, w3, [x0]
   82c10:	1100102b 	add	w11, w1, #0x4
   82c14:	1b057c84 	mul	w4, w4, w5
   82c18:	d37e7d08 	ubfiz	x8, x8, #2, #32
   82c1c:	aa0380c3 	orr	x3, x6, x3, lsl #32
   82c20:	8b22c062 	add	x2, x3, w2, sxtw
   82c24:	8b244044 	add	x4, x2, w4, uxtw
   82c28:	b8615943 	ldr	w3, [x10, w1, uxtw #2]
   82c2c:	52800002 	mov	w2, #0x0                   	// #0
   82c30:	12000845 	and	w5, w2, #0x7
   82c34:	8b080086 	add	x6, x4, x8
   82c38:	11000442 	add	w2, w2, #0x1
   82c3c:	36f80083 	tbz	w3, #31, 82c4c <TransparentWriteChar32+0x5c>
   82c40:	2a0503e7 	mov	w7, w5
   82c44:	b9402809 	ldr	w9, [x0, #40]
   82c48:	b8277889 	str	w9, [x4, x7, lsl #2]
   82c4c:	71001cbf 	cmp	w5, #0x7
   82c50:	0b030063 	add	w3, w3, w3
   82c54:	9a8400c4 	csel	x4, x6, x4, eq  // eq = none
   82c58:	7100805f 	cmp	w2, #0x20
   82c5c:	54fffea1 	b.ne	82c30 <TransparentWriteChar32+0x40>  // b.any
   82c60:	11000421 	add	w1, w1, #0x1
   82c64:	6b0b003f 	cmp	w1, w11
   82c68:	54fffe01 	b.ne	82c28 <TransparentWriteChar32+0x38>  // b.any
   82c6c:	1100218c 	add	w12, w12, #0x8
   82c70:	b900180c 	str	w12, [x0, #24]
   82c74:	d65f03c0 	ret
   82c78:	d503201f 	nop
   82c7c:	d503201f 	nop

0000000000082c80 <PutImage32>:
   82c80:	29429808 	ldp	w8, w6, [x0, #20]
   82c84:	12001c84 	and	w4, w4, #0xff
   82c88:	b9401c09 	ldr	w9, [x0, #28]
   82c8c:	29401c0a 	ldp	w10, w7, [x0]
   82c90:	531e7505 	lsl	w5, w8, #2
   82c94:	531e74c0 	lsl	w0, w6, #2
   82c98:	1b097ca5 	mul	w5, w5, w9
   82c9c:	aa078146 	orr	x6, x10, x7, lsl #32
   82ca0:	8b20c0c0 	add	x0, x6, w0, sxtw
   82ca4:	8b254005 	add	x5, x0, w5, uxtw
   82ca8:	340002e2 	cbz	w2, 82d04 <PutImage32+0x84>
   82cac:	d37e7d08 	ubfiz	x8, x8, #2, #32
   82cb0:	cb0803e9 	neg	x9, x8
   82cb4:	34000281 	cbz	w1, 82d04 <PutImage32+0x84>
   82cb8:	51000426 	sub	w6, w1, #0x1
   82cbc:	52800007 	mov	w7, #0x0                   	// #0
   82cc0:	910004c6 	add	x6, x6, #0x1
   82cc4:	d37ef4c6 	lsl	x6, x6, #2
   82cc8:	d2800000 	mov	x0, #0x0                   	// #0
   82ccc:	d503201f 	nop
   82cd0:	b8606861 	ldr	w1, [x3, x0]
   82cd4:	b82068a1 	str	w1, [x5, x0]
   82cd8:	91001000 	add	x0, x0, #0x4
   82cdc:	eb06001f 	cmp	x0, x6
   82ce0:	54ffff81 	b.ne	82cd0 <PutImage32+0x50>  // b.any
   82ce4:	7100009f 	cmp	w4, #0x0
   82ce8:	8b0900a0 	add	x0, x5, x9
   82cec:	110004e7 	add	w7, w7, #0x1
   82cf0:	8b0800a5 	add	x5, x5, x8
   82cf4:	9a8000a5 	csel	x5, x5, x0, eq  // eq = none
   82cf8:	8b060063 	add	x3, x3, x6
   82cfc:	6b07005f 	cmp	w2, w7
   82d00:	54fffe41 	b.ne	82cc8 <PutImage32+0x48>  // b.any
   82d04:	d65f03c0 	ret
   82d08:	d503201f 	nop
   82d0c:	d503201f 	nop

0000000000082d10 <mailbox_tag_message.constprop.4>:
   82d10:	a9b27bfd 	stp	x29, x30, [sp, #-224]!
   82d14:	d2800401 	mov	x1, #0x20                  	// #32
   82d18:	910003fd 	mov	x29, sp
   82d1c:	910383a0 	add	x0, x29, #0xe0
   82d20:	cb010007 	sub	x7, x0, x1
   82d24:	128001e0 	mov	w0, #0xfffffff0            	// #-16
   82d28:	a90b8fa2 	stp	x2, x3, [x29, #184]
   82d2c:	a90c97a4 	stp	x4, x5, [x29, #200]
   82d30:	9102c3a5 	add	x5, x29, #0xb0
   82d34:	f9006fa6 	str	x6, [x29, #216]
   82d38:	910383a6 	add	x6, x29, #0xe0
   82d3c:	b940cba3 	ldr	w3, [x29, #200]
   82d40:	b94000e4 	ldr	w4, [x7]
   82d44:	a9011ba6 	stp	x6, x6, [x29, #16]
   82d48:	f90013a5 	str	x5, [x29, #32]
   82d4c:	29057fa0 	stp	w0, wzr, [x29, #40]
   82d50:	f9001ba1 	str	x1, [x29, #48]
   82d54:	aa0603e1 	mov	x1, x6
   82d58:	b9003ba2 	str	w2, [x29, #56]
   82d5c:	aa0603e2 	mov	x2, x6
   82d60:	29078fa4 	stp	w4, w3, [x29, #60]
   82d64:	b9004fbf 	str	wzr, [x29, #76]
   82d68:	37f80480 	tbnz	w0, #31, 82df8 <mailbox_tag_message.constprop.4+0xe8>
   82d6c:	910020c1 	add	x1, x6, #0x8
   82d70:	f9000ba1 	str	x1, [x29, #16]
   82d74:	b9400042 	ldr	w2, [x2]
   82d78:	b90047a2 	str	w2, [x29, #68]
   82d7c:	36f800a0 	tbz	w0, #31, 82d90 <mailbox_tag_message.constprop.4+0x80>
   82d80:	31001c1f 	cmn	w0, #0x7
   82d84:	5400006a 	b.ge	82d90 <mailbox_tag_message.constprop.4+0x80>  // b.tcont
   82d88:	f9400fa1 	ldr	x1, [x29, #24]
   82d8c:	8b20c021 	add	x1, x1, w0, sxtw
   82d90:	b9400021 	ldr	w1, [x1]
   82d94:	9100c3a0 	add	x0, x29, #0x30
   82d98:	b9004ba1 	str	w1, [x29, #72]
   82d9c:	97fff6b3 	bl	80868 <ARMaddrToGPUaddr>
   82da0:	121c6c00 	and	w0, w0, #0xfffffff0
   82da4:	d0000021 	adrp	x1, 88000 <BitFontEnd+0xc0>
   82da8:	b940e021 	ldr	w1, [x1, #224]
   82dac:	321d0002 	orr	w2, w0, #0x8
   82db0:	52971000 	mov	w0, #0xb880                	// #47232
   82db4:	0b000021 	add	w1, w1, w0
   82db8:	b9403820 	ldr	w0, [x1, #56]
   82dbc:	37ffffe0 	tbnz	w0, #31, 82db8 <mailbox_tag_message.constprop.4+0xa8>
   82dc0:	b9002022 	str	w2, [x1, #32]
   82dc4:	d503201f 	nop
   82dc8:	b9401820 	ldr	w0, [x1, #24]
   82dcc:	37f7ffe0 	tbnz	w0, #30, 82dc8 <mailbox_tag_message.constprop.4+0xb8>
   82dd0:	b9400020 	ldr	w0, [x1]
   82dd4:	12000c00 	and	w0, w0, #0xf
   82dd8:	7100201f 	cmp	w0, #0x8
   82ddc:	54ffff61 	b.ne	82dc8 <mailbox_tag_message.constprop.4+0xb8>  // b.any
   82de0:	b94037a1 	ldr	w1, [x29, #52]
   82de4:	52b00000 	mov	w0, #0x80000000            	// #-2147483648
   82de8:	a8ce7bfd 	ldp	x29, x30, [sp], #224
   82dec:	6b00003f 	cmp	w1, w0
   82df0:	1a9f17e0 	cset	w0, eq  // eq = none
   82df4:	d65f03c0 	ret
   82df8:	11002003 	add	w3, w0, #0x8
   82dfc:	b9002ba3 	str	w3, [x29, #40]
   82e00:	7100007f 	cmp	w3, #0x0
   82e04:	540000ad 	b.le	82e18 <mailbox_tag_message.constprop.4+0x108>
   82e08:	910020c1 	add	x1, x6, #0x8
   82e0c:	2a0303e0 	mov	w0, w3
   82e10:	f9000ba1 	str	x1, [x29, #16]
   82e14:	17ffffd8 	b	82d74 <mailbox_tag_message.constprop.4+0x64>
   82e18:	f9400fa2 	ldr	x2, [x29, #24]
   82e1c:	8b20c042 	add	x2, x2, w0, sxtw
   82e20:	2a0303e0 	mov	w0, w3
   82e24:	17ffffd4 	b	82d74 <mailbox_tag_message.constprop.4+0x64>
   82e28:	d503201f 	nop
   82e2c:	d503201f 	nop

0000000000082e30 <mailbox_tag_message.constprop.7>:
   82e30:	a9b17bfd 	stp	x29, x30, [sp, #-240]!
   82e34:	d2800d08 	mov	x8, #0x68                  	// #104
   82e38:	128005e1 	mov	w1, #0xffffffd0            	// #-48
   82e3c:	2a0103ea 	mov	w10, w1
   82e40:	910003fd 	mov	x29, sp
   82e44:	a90153f3 	stp	x19, x20, [sp, #16]
   82e48:	910303b3 	add	x19, x29, #0xc0
   82e4c:	aa0003f4 	mov	x20, x0
   82e50:	9103c3ac 	add	x12, x29, #0xf0
   82e54:	910303ab 	add	x11, x29, #0xc0
   82e58:	a90233ac 	stp	x12, x12, [x29, #32]
   82e5c:	f8180e68 	str	x8, [x19, #-128]!
   82e60:	2a0103e8 	mov	w8, w1
   82e64:	f9001bab 	str	x11, [x29, #48]
   82e68:	91002260 	add	x0, x19, #0x8
   82e6c:	91019269 	add	x9, x19, #0x64
   82e70:	29077fa1 	stp	w1, wzr, [x29, #56]
   82e74:	b900a7bf 	str	wzr, [x29, #164]
   82e78:	a90c0fa2 	stp	x2, x3, [x29, #192]
   82e7c:	52800002 	mov	w2, #0x0                   	// #0
   82e80:	a90d17a4 	stp	x4, x5, [x29, #208]
   82e84:	a90e1fa6 	stp	x6, x7, [x29, #224]
   82e88:	37f80608 	tbnz	w8, #31, 82f48 <mailbox_tag_message.constprop.7+0x118>
   82e8c:	aa0c03e1 	mov	x1, x12
   82e90:	9100218c 	add	x12, x12, #0x8
   82e94:	b9400021 	ldr	w1, [x1]
   82e98:	b8004401 	str	w1, [x0], #4
   82e9c:	eb09001f 	cmp	x0, x9
   82ea0:	54ffff41 	b.ne	82e88 <mailbox_tag_message.constprop.7+0x58>  // b.any
   82ea4:	350004e2 	cbnz	w2, 82f40 <mailbox_tag_message.constprop.7+0x110>
   82ea8:	aa1303e0 	mov	x0, x19
   82eac:	97fff66f 	bl	80868 <ARMaddrToGPUaddr>
   82eb0:	d0000021 	adrp	x1, 88000 <BitFontEnd+0xc0>
   82eb4:	b940e021 	ldr	w1, [x1, #224]
   82eb8:	121c6c00 	and	w0, w0, #0xfffffff0
   82ebc:	321d0002 	orr	w2, w0, #0x8
   82ec0:	52971000 	mov	w0, #0xb880                	// #47232
   82ec4:	0b000021 	add	w1, w1, w0
   82ec8:	b9403820 	ldr	w0, [x1, #56]
   82ecc:	37ffffe0 	tbnz	w0, #31, 82ec8 <mailbox_tag_message.constprop.7+0x98>
   82ed0:	b9002022 	str	w2, [x1, #32]
   82ed4:	d503201f 	nop
   82ed8:	b9401820 	ldr	w0, [x1, #24]
   82edc:	37f7ffe0 	tbnz	w0, #30, 82ed8 <mailbox_tag_message.constprop.7+0xa8>
   82ee0:	b9400020 	ldr	w0, [x1]
   82ee4:	12000c00 	and	w0, w0, #0xf
   82ee8:	7100201f 	cmp	w0, #0x8
   82eec:	54ffff61 	b.ne	82ed8 <mailbox_tag_message.constprop.7+0xa8>  // b.any
   82ef0:	b94047a2 	ldr	w2, [x29, #68]
   82ef4:	52b00001 	mov	w1, #0x80000000            	// #-2147483648
   82ef8:	52800000 	mov	w0, #0x0                   	// #0
   82efc:	6b01005f 	cmp	w2, w1
   82f00:	54000080 	b.eq	82f10 <mailbox_tag_message.constprop.7+0xe0>  // b.none
   82f04:	a94153f3 	ldp	x19, x20, [sp, #16]
   82f08:	a8cf7bfd 	ldp	x29, x30, [sp], #240
   82f0c:	d65f03c0 	ret
   82f10:	d2800000 	mov	x0, #0x0                   	// #0
   82f14:	b40000f4 	cbz	x20, 82f30 <mailbox_tag_message.constprop.7+0x100>
   82f18:	8b000261 	add	x1, x19, x0
   82f1c:	b9400821 	ldr	w1, [x1, #8]
   82f20:	b8206a81 	str	w1, [x20, x0]
   82f24:	91001000 	add	x0, x0, #0x4
   82f28:	f101701f 	cmp	x0, #0x5c
   82f2c:	54ffff61 	b.ne	82f18 <mailbox_tag_message.constprop.7+0xe8>  // b.any
   82f30:	a94153f3 	ldp	x19, x20, [sp, #16]
   82f34:	52800020 	mov	w0, #0x1                   	// #1
   82f38:	a8cf7bfd 	ldp	x29, x30, [sp], #240
   82f3c:	d65f03c0 	ret
   82f40:	b9003baa 	str	w10, [x29, #56]
   82f44:	17ffffd9 	b	82ea8 <mailbox_tag_message.constprop.7+0x78>
   82f48:	1100210a 	add	w10, w8, #0x8
   82f4c:	7100015f 	cmp	w10, #0x0
   82f50:	540000cd 	b.le	82f68 <mailbox_tag_message.constprop.7+0x138>
   82f54:	aa0c03e1 	mov	x1, x12
   82f58:	2a0a03e8 	mov	w8, w10
   82f5c:	9100218c 	add	x12, x12, #0x8
   82f60:	52800022 	mov	w2, #0x1                   	// #1
   82f64:	17ffffcc 	b	82e94 <mailbox_tag_message.constprop.7+0x64>
   82f68:	9103c3a1 	add	x1, x29, #0xf0
   82f6c:	52800022 	mov	w2, #0x1                   	// #1
   82f70:	8b28c021 	add	x1, x1, w8, sxtw
   82f74:	2a0a03e8 	mov	w8, w10
   82f78:	17ffffc7 	b	82e94 <mailbox_tag_message.constprop.7+0x64>
   82f7c:	d503201f 	nop

0000000000082f80 <mailbox_tag_message.constprop.5>:
   82f80:	a9b17bfd 	stp	x29, x30, [sp, #-240]!
   82f84:	d2800407 	mov	x7, #0x20                  	// #32
   82f88:	910003fd 	mov	x29, sp
   82f8c:	9103c3a1 	add	x1, x29, #0xf0
   82f90:	cb070028 	sub	x8, x1, x7
   82f94:	128001e1 	mov	w1, #0xfffffff0            	// #-16
   82f98:	a90c8fa2 	stp	x2, x3, [x29, #200]
   82f9c:	a90d97a4 	stp	x4, x5, [x29, #216]
   82fa0:	910303a5 	add	x5, x29, #0xc0
   82fa4:	f90077a6 	str	x6, [x29, #232]
   82fa8:	9103c3a6 	add	x6, x29, #0xf0
   82fac:	b940dba3 	ldr	w3, [x29, #216]
   82fb0:	b9400104 	ldr	w4, [x8]
   82fb4:	a9021ba6 	stp	x6, x6, [x29, #32]
   82fb8:	f9000bf3 	str	x19, [sp, #16]
   82fbc:	aa0003f3 	mov	x19, x0
   82fc0:	f9001ba5 	str	x5, [x29, #48]
   82fc4:	2a0103e0 	mov	w0, w1
   82fc8:	29077fa1 	stp	w1, wzr, [x29, #56]
   82fcc:	aa0603e1 	mov	x1, x6
   82fd0:	f90023a7 	str	x7, [x29, #64]
   82fd4:	b9004ba2 	str	w2, [x29, #72]
   82fd8:	aa0603e2 	mov	x2, x6
   82fdc:	29098fa4 	stp	w4, w3, [x29, #76]
   82fe0:	b9005fbf 	str	wzr, [x29, #92]
   82fe4:	37f80640 	tbnz	w0, #31, 830ac <mailbox_tag_message.constprop.5+0x12c>
   82fe8:	910020c2 	add	x2, x6, #0x8
   82fec:	f90013a2 	str	x2, [x29, #32]
   82ff0:	b9400021 	ldr	w1, [x1]
   82ff4:	b90057a1 	str	w1, [x29, #84]
   82ff8:	36f800a0 	tbz	w0, #31, 8300c <mailbox_tag_message.constprop.5+0x8c>
   82ffc:	31001c1f 	cmn	w0, #0x7
   83000:	5400006a 	b.ge	8300c <mailbox_tag_message.constprop.5+0x8c>  // b.tcont
   83004:	f94017a2 	ldr	x2, [x29, #40]
   83008:	8b20c042 	add	x2, x2, w0, sxtw
   8300c:	b9400041 	ldr	w1, [x2]
   83010:	910103a0 	add	x0, x29, #0x40
   83014:	b9005ba1 	str	w1, [x29, #88]
   83018:	97fff614 	bl	80868 <ARMaddrToGPUaddr>
   8301c:	121c6c00 	and	w0, w0, #0xfffffff0
   83020:	b0000021 	adrp	x1, 88000 <BitFontEnd+0xc0>
   83024:	b940e021 	ldr	w1, [x1, #224]
   83028:	321d0002 	orr	w2, w0, #0x8
   8302c:	52971000 	mov	w0, #0xb880                	// #47232
   83030:	0b000021 	add	w1, w1, w0
   83034:	d503201f 	nop
   83038:	b9403820 	ldr	w0, [x1, #56]
   8303c:	37ffffe0 	tbnz	w0, #31, 83038 <mailbox_tag_message.constprop.5+0xb8>
   83040:	b9002022 	str	w2, [x1, #32]
   83044:	d503201f 	nop
   83048:	b9401820 	ldr	w0, [x1, #24]
   8304c:	37f7ffe0 	tbnz	w0, #30, 83048 <mailbox_tag_message.constprop.5+0xc8>
   83050:	b9400020 	ldr	w0, [x1]
   83054:	12000c00 	and	w0, w0, #0xf
   83058:	7100201f 	cmp	w0, #0x8
   8305c:	54ffff61 	b.ne	83048 <mailbox_tag_message.constprop.5+0xc8>  // b.any
   83060:	b94047a2 	ldr	w2, [x29, #68]
   83064:	52b00001 	mov	w1, #0x80000000            	// #-2147483648
   83068:	52800000 	mov	w0, #0x0                   	// #0
   8306c:	6b01005f 	cmp	w2, w1
   83070:	54000080 	b.eq	83080 <mailbox_tag_message.constprop.5+0x100>  // b.none
   83074:	f9400bf3 	ldr	x19, [sp, #16]
   83078:	a8cf7bfd 	ldp	x29, x30, [sp], #240
   8307c:	d65f03c0 	ret
   83080:	b40000f3 	cbz	x19, 8309c <mailbox_tag_message.constprop.5+0x11c>
   83084:	29490fa4 	ldp	w4, w3, [x29, #72]
   83088:	29000e64 	stp	w4, w3, [x19]
   8308c:	294a07a2 	ldp	w2, w1, [x29, #80]
   83090:	29010662 	stp	w2, w1, [x19, #8]
   83094:	b9405ba0 	ldr	w0, [x29, #88]
   83098:	b9001260 	str	w0, [x19, #16]
   8309c:	f9400bf3 	ldr	x19, [sp, #16]
   830a0:	52800020 	mov	w0, #0x1                   	// #1
   830a4:	a8cf7bfd 	ldp	x29, x30, [sp], #240
   830a8:	d65f03c0 	ret
   830ac:	11002003 	add	w3, w0, #0x8
   830b0:	b9003ba3 	str	w3, [x29, #56]
   830b4:	7100007f 	cmp	w3, #0x0
   830b8:	540000ad 	b.le	830cc <mailbox_tag_message.constprop.5+0x14c>
   830bc:	910020c2 	add	x2, x6, #0x8
   830c0:	2a0303e0 	mov	w0, w3
   830c4:	f90013a2 	str	x2, [x29, #32]
   830c8:	17ffffca 	b	82ff0 <mailbox_tag_message.constprop.5+0x70>
   830cc:	f94017a1 	ldr	x1, [x29, #40]
   830d0:	8b20c021 	add	x1, x1, w0, sxtw
   830d4:	2a0303e0 	mov	w0, w3
   830d8:	17ffffc6 	b	82ff0 <mailbox_tag_message.constprop.5+0x70>
   830dc:	d503201f 	nop

00000000000830e0 <mailbox_tag_message.constprop.6>:
   830e0:	a9b27bfd 	stp	x29, x30, [sp, #-224]!
   830e4:	128000e6 	mov	w6, #0xfffffff8            	// #-8
   830e8:	d2800381 	mov	x1, #0x1c                  	// #28
   830ec:	31001cdf 	cmn	w6, #0x7
   830f0:	910003fd 	mov	x29, sp
   830f4:	910303a7 	add	x7, x29, #0xc0
   830f8:	f9000bf3 	str	x19, [sp, #16]
   830fc:	aa0003f3 	mov	x19, x0
   83100:	f9001ba7 	str	x7, [x29, #48]
   83104:	29077fa6 	stp	w6, wzr, [x29, #56]
   83108:	f90023a1 	str	x1, [x29, #64]
   8310c:	29090fa2 	stp	w2, w3, [x29, #72]
   83110:	b90053a4 	str	w4, [x29, #80]
   83114:	b9005bbf 	str	wzr, [x29, #88]
   83118:	a90c0fa2 	stp	x2, x3, [x29, #192]
   8311c:	a90d17a4 	stp	x4, x5, [x29, #208]
   83120:	910383a5 	add	x5, x29, #0xe0
   83124:	a90217a5 	stp	x5, x5, [x29, #32]
   83128:	aa0503e0 	mov	x0, x5
   8312c:	5400004a 	b.ge	83134 <mailbox_tag_message.constprop.6+0x54>  // b.tcont
   83130:	8b26c0a0 	add	x0, x5, w6, sxtw
   83134:	b9400001 	ldr	w1, [x0]
   83138:	910103a0 	add	x0, x29, #0x40
   8313c:	b90057a1 	str	w1, [x29, #84]
   83140:	97fff5ca 	bl	80868 <ARMaddrToGPUaddr>
   83144:	121c6c00 	and	w0, w0, #0xfffffff0
   83148:	b0000021 	adrp	x1, 88000 <BitFontEnd+0xc0>
   8314c:	b940e021 	ldr	w1, [x1, #224]
   83150:	321d0002 	orr	w2, w0, #0x8
   83154:	52971000 	mov	w0, #0xb880                	// #47232
   83158:	0b000021 	add	w1, w1, w0
   8315c:	d503201f 	nop
   83160:	b9403820 	ldr	w0, [x1, #56]
   83164:	37ffffe0 	tbnz	w0, #31, 83160 <mailbox_tag_message.constprop.6+0x80>
   83168:	b9002022 	str	w2, [x1, #32]
   8316c:	d503201f 	nop
   83170:	b9401820 	ldr	w0, [x1, #24]
   83174:	37f7ffe0 	tbnz	w0, #30, 83170 <mailbox_tag_message.constprop.6+0x90>
   83178:	b9400020 	ldr	w0, [x1]
   8317c:	12000c00 	and	w0, w0, #0xf
   83180:	7100201f 	cmp	w0, #0x8
   83184:	54ffff61 	b.ne	83170 <mailbox_tag_message.constprop.6+0x90>  // b.any
   83188:	b94047a2 	ldr	w2, [x29, #68]
   8318c:	52b00001 	mov	w1, #0x80000000            	// #-2147483648
   83190:	52800000 	mov	w0, #0x0                   	// #0
   83194:	6b01005f 	cmp	w2, w1
   83198:	54000080 	b.eq	831a8 <mailbox_tag_message.constprop.6+0xc8>  // b.none
   8319c:	f9400bf3 	ldr	x19, [sp, #16]
   831a0:	a8ce7bfd 	ldp	x29, x30, [sp], #224
   831a4:	d65f03c0 	ret
   831a8:	52800020 	mov	w0, #0x1                   	// #1
   831ac:	b4ffff93 	cbz	x19, 8319c <mailbox_tag_message.constprop.6+0xbc>
   831b0:	29490fa4 	ldp	w4, w3, [x29, #72]
   831b4:	29000e64 	stp	w4, w3, [x19]
   831b8:	294a07a2 	ldp	w2, w1, [x29, #80]
   831bc:	29010662 	stp	w2, w1, [x19, #8]
   831c0:	f9400bf3 	ldr	x19, [sp, #16]
   831c4:	a8ce7bfd 	ldp	x29, x30, [sp], #224
   831c8:	d65f03c0 	ret
   831cc:	d503201f 	nop

00000000000831d0 <RPi_CpuIdString>:
   831d0:	b0000020 	adrp	x0, 88000 <BitFontEnd+0xc0>
   831d4:	7941e801 	ldrh	w1, [x0, #244]
   831d8:	d3443c21 	ubfx	x1, x1, #4, #12
   831dc:	71301c3f 	cmp	w1, #0xc07
   831e0:	54000140 	b.eq	83208 <RPi_CpuIdString+0x38>  // b.none
   831e4:	71340c3f 	cmp	w1, #0xd03
   831e8:	54000160 	b.eq	83214 <RPi_CpuIdString+0x44>  // b.none
   831ec:	90000020 	adrp	x0, 87000 <__text_end__+0xc0>
   831f0:	913de002 	add	x2, x0, #0xf78
   831f4:	712dd83f 	cmp	w1, #0xb76
   831f8:	90000020 	adrp	x0, 87000 <__text_end__+0xc0>
   831fc:	913d2000 	add	x0, x0, #0xf48
   83200:	9a820000 	csel	x0, x0, x2, eq  // eq = none
   83204:	d65f03c0 	ret
   83208:	90000020 	adrp	x0, 87000 <__text_end__+0xc0>
   8320c:	913d6000 	add	x0, x0, #0xf58
   83210:	d65f03c0 	ret
   83214:	90000020 	adrp	x0, 87000 <__text_end__+0xc0>
   83218:	913da000 	add	x0, x0, #0xf68
   8321c:	d65f03c0 	ret

0000000000083220 <gpio_setup>:
   83220:	7100d81f 	cmp	w0, #0x36
   83224:	52800003 	mov	w3, #0x0                   	// #0
   83228:	7a479822 	ccmp	w1, #0x7, #0x2, ls  // ls = plast
   8322c:	54000069 	b.ls	83238 <gpio_setup+0x18>  // b.plast
   83230:	2a0303e0 	mov	w0, w3
   83234:	d65f03c0 	ret
   83238:	529999a2 	mov	w2, #0xcccd                	// #52429
   8323c:	72b99982 	movk	w2, #0xcccc, lsl #16
   83240:	52800147 	mov	w7, #0xa                   	// #10
   83244:	b0000023 	adrp	x3, 88000 <BitFontEnd+0xc0>
   83248:	b940e065 	ldr	w5, [x3, #224]
   8324c:	52800023 	mov	w3, #0x1                   	// #1
   83250:	9ba27c02 	umull	x2, w0, w2
   83254:	528000e4 	mov	w4, #0x7                   	// #7
   83258:	114800a5 	add	w5, w5, #0x200, lsl #12
   8325c:	d363fc42 	lsr	x2, x2, #35
   83260:	2a0203e6 	mov	w6, w2
   83264:	1b078042 	msub	w2, w2, w7, w0
   83268:	b86678a7 	ldr	w7, [x5, x6, lsl #2]
   8326c:	0b020442 	add	w2, w2, w2, lsl #1
   83270:	1ac22080 	lsl	w0, w4, w2
   83274:	0a2000e0 	bic	w0, w7, w0
   83278:	1ac22021 	lsl	w1, w1, w2
   8327c:	2a000021 	orr	w1, w1, w0
   83280:	2a0303e0 	mov	w0, w3
   83284:	b82678a1 	str	w1, [x5, x6, lsl #2]
   83288:	d65f03c0 	ret
   8328c:	d503201f 	nop

0000000000083290 <gpio_output>:
   83290:	12001c21 	and	w1, w1, #0xff
   83294:	7100d41f 	cmp	w0, #0x35
   83298:	54000228 	b.hi	832dc <gpio_output+0x4c>  // b.pmore
   8329c:	53057c02 	lsr	w2, w0, #5
   832a0:	b0000023 	adrp	x3, 88000 <BitFontEnd+0xc0>
   832a4:	b940e063 	ldr	w3, [x3, #224]
   832a8:	91001c44 	add	x4, x2, #0x7
   832ac:	91002842 	add	x2, x2, #0xa
   832b0:	11480063 	add	w3, w3, #0x200, lsl #12
   832b4:	7100003f 	cmp	w1, #0x0
   832b8:	8b020862 	add	x2, x3, x2, lsl #2
   832bc:	8b040861 	add	x1, x3, x4, lsl #2
   832c0:	9a810042 	csel	x2, x2, x1, eq  // eq = none
   832c4:	12001001 	and	w1, w0, #0x1f
   832c8:	52800023 	mov	w3, #0x1                   	// #1
   832cc:	2a0303e0 	mov	w0, w3
   832d0:	1ac12061 	lsl	w1, w3, w1
   832d4:	b9000041 	str	w1, [x2]
   832d8:	d65f03c0 	ret
   832dc:	52800000 	mov	w0, #0x0                   	// #0
   832e0:	d65f03c0 	ret
   832e4:	d503201f 	nop
   832e8:	d503201f 	nop
   832ec:	d503201f 	nop

00000000000832f0 <gpio_input>:
   832f0:	7100d41f 	cmp	w0, #0x35
   832f4:	540001c8 	b.hi	8332c <gpio_input+0x3c>  // b.pmore
   832f8:	b0000021 	adrp	x1, 88000 <BitFontEnd+0xc0>
   832fc:	b940e023 	ldr	w3, [x1, #224]
   83300:	53057c01 	lsr	w1, w0, #5
   83304:	12001000 	and	w0, w0, #0x1f
   83308:	91003021 	add	x1, x1, #0xc
   8330c:	11480063 	add	w3, w3, #0x200, lsl #12
   83310:	52800022 	mov	w2, #0x1                   	// #1
   83314:	8b010861 	add	x1, x3, x1, lsl #2
   83318:	1ac02040 	lsl	w0, w2, w0
   8331c:	b9400421 	ldr	w1, [x1, #4]
   83320:	6a01001f 	tst	w0, w1
   83324:	1a9f07e0 	cset	w0, ne  // ne = any
   83328:	d65f03c0 	ret
   8332c:	52800000 	mov	w0, #0x0                   	// #0
   83330:	d65f03c0 	ret
   83334:	d503201f 	nop
   83338:	d503201f 	nop
   8333c:	d503201f 	nop

0000000000083340 <gpio_checkEvent>:
   83340:	7100d41f 	cmp	w0, #0x35
   83344:	540001a8 	b.hi	83378 <gpio_checkEvent+0x38>  // b.pmore
   83348:	b0000021 	adrp	x1, 88000 <BitFontEnd+0xc0>
   8334c:	b940e022 	ldr	w2, [x1, #224]
   83350:	53057c03 	lsr	w3, w0, #5
   83354:	12001000 	and	w0, w0, #0x1f
   83358:	11480042 	add	w2, w2, #0x200, lsl #12
   8335c:	91004063 	add	x3, x3, #0x10
   83360:	52800021 	mov	w1, #0x1                   	// #1
   83364:	1ac02020 	lsl	w0, w1, w0
   83368:	b8637841 	ldr	w1, [x2, x3, lsl #2]
   8336c:	6a01001f 	tst	w0, w1
   83370:	1a9f07e0 	cset	w0, ne  // ne = any
   83374:	d65f03c0 	ret
   83378:	52800000 	mov	w0, #0x0                   	// #0
   8337c:	d65f03c0 	ret

0000000000083380 <gpio_clearEvent>:
   83380:	7100d41f 	cmp	w0, #0x35
   83384:	54000188 	b.hi	833b4 <gpio_clearEvent+0x34>  // b.pmore
   83388:	b0000021 	adrp	x1, 88000 <BitFontEnd+0xc0>
   8338c:	b940e023 	ldr	w3, [x1, #224]
   83390:	53057c04 	lsr	w4, w0, #5
   83394:	12001001 	and	w1, w0, #0x1f
   83398:	11480063 	add	w3, w3, #0x200, lsl #12
   8339c:	91004084 	add	x4, x4, #0x10
   833a0:	52800022 	mov	w2, #0x1                   	// #1
   833a4:	2a0203e0 	mov	w0, w2
   833a8:	1ac12041 	lsl	w1, w2, w1
   833ac:	b8247861 	str	w1, [x3, x4, lsl #2]
   833b0:	d65f03c0 	ret
   833b4:	52800000 	mov	w0, #0x0                   	// #0
   833b8:	d65f03c0 	ret
   833bc:	d503201f 	nop

00000000000833c0 <gpio_edgeDetect>:
   833c0:	12001c21 	and	w1, w1, #0xff
   833c4:	12001c42 	and	w2, w2, #0xff
   833c8:	7100d41f 	cmp	w0, #0x35
   833cc:	54000308 	b.hi	8342c <gpio_edgeDetect+0x6c>  // b.pmore
   833d0:	12001005 	and	w5, w0, #0x1f
   833d4:	b0000023 	adrp	x3, 88000 <BitFontEnd+0xc0>
   833d8:	b940e064 	ldr	w4, [x3, #224]
   833dc:	53057c03 	lsr	w3, w0, #5
   833e0:	52800027 	mov	w7, #0x1                   	// #1
   833e4:	1ac520e6 	lsl	w6, w7, w5
   833e8:	11480080 	add	w0, w4, #0x200, lsl #12
   833ec:	34000101 	cbz	w1, 8340c <gpio_edgeDetect+0x4c>
   833f0:	d37e6863 	ubfiz	x3, x3, #2, #27
   833f4:	34000222 	cbz	w2, 83438 <gpio_edgeDetect+0x78>
   833f8:	9101c064 	add	x4, x3, #0x70
   833fc:	8b040004 	add	x4, x0, x4
   83400:	2a0203e0 	mov	w0, w2
   83404:	b9000c86 	str	w6, [x4, #12]
   83408:	d65f03c0 	ret
   8340c:	35000222 	cbnz	w2, 83450 <gpio_edgeDetect+0x90>
   83410:	d37e6863 	ubfiz	x3, x3, #2, #27
   83414:	2a0703e2 	mov	w2, w7
   83418:	91014063 	add	x3, x3, #0x50
   8341c:	8b030003 	add	x3, x0, x3
   83420:	2a0203e0 	mov	w0, w2
   83424:	b9000866 	str	w6, [x3, #8]
   83428:	d65f03c0 	ret
   8342c:	52800002 	mov	w2, #0x0                   	// #0
   83430:	2a0203e0 	mov	w0, w2
   83434:	d65f03c0 	ret
   83438:	2a0103e2 	mov	w2, w1
   8343c:	91010061 	add	x1, x3, #0x40
   83440:	8b010004 	add	x4, x0, x1
   83444:	2a0203e0 	mov	w0, w2
   83448:	b9000c86 	str	w6, [x4, #12]
   8344c:	d65f03c0 	ret
   83450:	d37e6865 	ubfiz	x5, x3, #2, #27
   83454:	910200a5 	add	x5, x5, #0x80
   83458:	8b050004 	add	x4, x0, x5
   8345c:	2a0203e0 	mov	w0, w2
   83460:	b9000886 	str	w6, [x4, #8]
   83464:	d65f03c0 	ret
   83468:	d503201f 	nop
   8346c:	d503201f 	nop

0000000000083470 <gpio_fixResistor>:
   83470:	7100d81f 	cmp	w0, #0x36
   83474:	7a429822 	ccmp	w1, #0x2, #0x2, ls  // ls = plast
   83478:	54000069 	b.ls	83484 <gpio_fixResistor+0x14>  // b.plast
   8347c:	52800000 	mov	w0, #0x0                   	// #0
   83480:	d65f03c0 	ret
   83484:	b0000022 	adrp	x2, 88000 <BitFontEnd+0xc0>
   83488:	b940e042 	ldr	w2, [x2, #224]
   8348c:	11480046 	add	w6, w2, #0x200, lsl #12
   83490:	11400c42 	add	w2, w2, #0x3, lsl #12
   83494:	b90094c1 	str	w1, [x6, #148]
   83498:	b9400841 	ldr	w1, [x2, #8]
   8349c:	b9400444 	ldr	w4, [x2, #4]
   834a0:	b9400843 	ldr	w3, [x2, #8]
   834a4:	6b03003f 	cmp	w1, w3
   834a8:	54ffff81 	b.ne	83498 <gpio_fixResistor+0x28>  // b.any
   834ac:	2a0403e4 	mov	w4, w4
   834b0:	aa018081 	orr	x1, x4, x1, lsl #32
   834b4:	91000825 	add	x5, x1, #0x2
   834b8:	b9400841 	ldr	w1, [x2, #8]
   834bc:	b9400444 	ldr	w4, [x2, #4]
   834c0:	b9400843 	ldr	w3, [x2, #8]
   834c4:	6b03003f 	cmp	w1, w3
   834c8:	54ffff81 	b.ne	834b8 <gpio_fixResistor+0x48>  // b.any
   834cc:	2a0403e4 	mov	w4, w4
   834d0:	aa018081 	orr	x1, x4, x1, lsl #32
   834d4:	eb0100bf 	cmp	x5, x1
   834d8:	54ffff08 	b.hi	834b8 <gpio_fixResistor+0x48>  // b.pmore
   834dc:	53057c05 	lsr	w5, w0, #5
   834e0:	12001000 	and	w0, w0, #0x1f
   834e4:	52800021 	mov	w1, #0x1                   	// #1
   834e8:	8b0508c5 	add	x5, x6, x5, lsl #2
   834ec:	1ac02020 	lsl	w0, w1, w0
   834f0:	b90098a0 	str	w0, [x5, #152]
   834f4:	d503201f 	nop
   834f8:	b9400840 	ldr	w0, [x2, #8]
   834fc:	b9400443 	ldr	w3, [x2, #4]
   83500:	b9400841 	ldr	w1, [x2, #8]
   83504:	6b01001f 	cmp	w0, w1
   83508:	54ffff81 	b.ne	834f8 <gpio_fixResistor+0x88>  // b.any
   8350c:	2a0303e3 	mov	w3, w3
   83510:	aa008060 	orr	x0, x3, x0, lsl #32
   83514:	91000804 	add	x4, x0, #0x2
   83518:	b9400840 	ldr	w0, [x2, #8]
   8351c:	b9400443 	ldr	w3, [x2, #4]
   83520:	b9400841 	ldr	w1, [x2, #8]
   83524:	6b01001f 	cmp	w0, w1
   83528:	54ffff81 	b.ne	83518 <gpio_fixResistor+0xa8>  // b.any
   8352c:	2a0303e3 	mov	w3, w3
   83530:	aa008060 	orr	x0, x3, x0, lsl #32
   83534:	eb00009f 	cmp	x4, x0
   83538:	54ffff08 	b.hi	83518 <gpio_fixResistor+0xa8>  // b.pmore
   8353c:	b90094df 	str	wzr, [x6, #148]
   83540:	52800020 	mov	w0, #0x1                   	// #1
   83544:	b90098bf 	str	wzr, [x5, #152]
   83548:	d65f03c0 	ret
   8354c:	d503201f 	nop

0000000000083550 <timer_getTickCount64>:
   83550:	b0000020 	adrp	x0, 88000 <BitFontEnd+0xc0>
   83554:	b940e001 	ldr	w1, [x0, #224]
   83558:	11400c21 	add	w1, w1, #0x3, lsl #12
   8355c:	d503201f 	nop
   83560:	b9400822 	ldr	w2, [x1, #8]
   83564:	b9400420 	ldr	w0, [x1, #4]
   83568:	b9400823 	ldr	w3, [x1, #8]
   8356c:	6b03005f 	cmp	w2, w3
   83570:	54ffff81 	b.ne	83560 <timer_getTickCount64+0x10>  // b.any
   83574:	2a0003e0 	mov	w0, w0
   83578:	aa028000 	orr	x0, x0, x2, lsl #32
   8357c:	d65f03c0 	ret

0000000000083580 <timer_wait>:
   83580:	b0000021 	adrp	x1, 88000 <BitFontEnd+0xc0>
   83584:	b940e021 	ldr	w1, [x1, #224]
   83588:	11400c21 	add	w1, w1, #0x3, lsl #12
   8358c:	d503201f 	nop
   83590:	b9400822 	ldr	w2, [x1, #8]
   83594:	b9400424 	ldr	w4, [x1, #4]
   83598:	b9400823 	ldr	w3, [x1, #8]
   8359c:	6b03005f 	cmp	w2, w3
   835a0:	54ffff81 	b.ne	83590 <timer_wait+0x10>  // b.any
   835a4:	2a0403e4 	mov	w4, w4
   835a8:	aa028082 	orr	x2, x4, x2, lsl #32
   835ac:	8b000044 	add	x4, x2, x0
   835b0:	b9400820 	ldr	w0, [x1, #8]
   835b4:	b9400423 	ldr	w3, [x1, #4]
   835b8:	b9400822 	ldr	w2, [x1, #8]
   835bc:	6b02001f 	cmp	w0, w2
   835c0:	54ffff81 	b.ne	835b0 <timer_wait+0x30>  // b.any
   835c4:	2a0303e3 	mov	w3, w3
   835c8:	aa008060 	orr	x0, x3, x0, lsl #32
   835cc:	eb00009f 	cmp	x4, x0
   835d0:	54ffff08 	b.hi	835b0 <timer_wait+0x30>  // b.pmore
   835d4:	d65f03c0 	ret
   835d8:	d503201f 	nop
   835dc:	d503201f 	nop

00000000000835e0 <tick_difference>:
   835e0:	cb000020 	sub	x0, x1, x0
   835e4:	d65f03c0 	ret
   835e8:	d503201f 	nop
   835ec:	d503201f 	nop

00000000000835f0 <mailbox_write>:
   835f0:	7100241f 	cmp	w0, #0x9
   835f4:	54000188 	b.hi	83624 <mailbox_write+0x34>  // b.pmore
   835f8:	b0000022 	adrp	x2, 88000 <BitFontEnd+0xc0>
   835fc:	b940e042 	ldr	w2, [x2, #224]
   83600:	121c6c21 	and	w1, w1, #0xfffffff0
   83604:	2a010000 	orr	w0, w0, w1
   83608:	52971001 	mov	w1, #0xb880                	// #47232
   8360c:	0b010042 	add	w2, w2, w1
   83610:	b9403841 	ldr	w1, [x2, #56]
   83614:	37ffffe1 	tbnz	w1, #31, 83610 <mailbox_write+0x20>
   83618:	b9002040 	str	w0, [x2, #32]
   8361c:	52800020 	mov	w0, #0x1                   	// #1
   83620:	d65f03c0 	ret
   83624:	52800000 	mov	w0, #0x0                   	// #0
   83628:	d65f03c0 	ret
   8362c:	d503201f 	nop

0000000000083630 <mailbox_read>:
   83630:	7100241f 	cmp	w0, #0x9
   83634:	540001a8 	b.hi	83668 <mailbox_read+0x38>  // b.pmore
   83638:	b0000021 	adrp	x1, 88000 <BitFontEnd+0xc0>
   8363c:	b940e022 	ldr	w2, [x1, #224]
   83640:	52971001 	mov	w1, #0xb880                	// #47232
   83644:	0b010042 	add	w2, w2, w1
   83648:	b9401841 	ldr	w1, [x2, #24]
   8364c:	37f7ffe1 	tbnz	w1, #30, 83648 <mailbox_read+0x18>
   83650:	b9400041 	ldr	w1, [x2]
   83654:	12000c23 	and	w3, w1, #0xf
   83658:	6b03001f 	cmp	w0, w3
   8365c:	54ffff61 	b.ne	83648 <mailbox_read+0x18>  // b.any
   83660:	121c6c20 	and	w0, w1, #0xfffffff0
   83664:	d65f03c0 	ret
   83668:	529bd5a0 	mov	w0, #0xdead                	// #57005
   8366c:	72bfdda0 	movk	w0, #0xfeed, lsl #16
   83670:	d65f03c0 	ret
   83674:	d503201f 	nop
   83678:	d503201f 	nop
   8367c:	d503201f 	nop

0000000000083680 <mailbox_tag_message>:
   83680:	a9b07bfd 	stp	x29, x30, [sp, #-256]!
   83684:	910003fd 	mov	x29, sp
   83688:	a90153f3 	stp	x19, x20, [sp, #16]
   8368c:	12001c34 	and	w20, w1, #0xff
   83690:	910343b3 	add	x19, x29, #0xd0
   83694:	11000a88 	add	w8, w20, #0x2
   83698:	11000e89 	add	w9, w20, #0x3
   8369c:	aa1303ea 	mov	x10, x19
   836a0:	93407d08 	sxtw	x8, w8
   836a4:	128005e1 	mov	w1, #0xffffffd0            	// #-48
   836a8:	531e7529 	lsl	w9, w9, #2
   836ac:	b8180e69 	str	w9, [x19, #-128]!
   836b0:	a90d0fa2 	stp	x2, x3, [x29, #208]
   836b4:	910403a2 	add	x2, x29, #0x100
   836b8:	f90073a4 	str	x4, [x29, #224]
   836bc:	b8287a7f 	str	wzr, [x19, x8, lsl #2]
   836c0:	f90013f5 	str	x21, [sp, #32]
   836c4:	aa0003f5 	mov	x21, x0
   836c8:	a9030ba2 	stp	x2, x2, [x29, #48]
   836cc:	f90023aa 	str	x10, [x29, #64]
   836d0:	29097fa1 	stp	w1, wzr, [x29, #72]
   836d4:	b90057bf 	str	wzr, [x29, #84]
   836d8:	a90e9ba5 	stp	x5, x6, [x29, #232]
   836dc:	f9007fa7 	str	x7, [x29, #248]
   836e0:	34000214 	cbz	w20, 83720 <mailbox_tag_message+0xa0>
   836e4:	51000682 	sub	w2, w20, #0x1
   836e8:	91003263 	add	x3, x19, #0xc
   836ec:	2a0103e4 	mov	w4, w1
   836f0:	910403a6 	add	x6, x29, #0x100
   836f4:	91002260 	add	x0, x19, #0x8
   836f8:	8b224863 	add	x3, x3, w2, uxtw #2
   836fc:	52800005 	mov	w5, #0x0                   	// #0
   83700:	37f806e1 	tbnz	w1, #31, 837dc <mailbox_tag_message+0x15c>
   83704:	aa0603e2 	mov	x2, x6
   83708:	910020c6 	add	x6, x6, #0x8
   8370c:	b9400042 	ldr	w2, [x2]
   83710:	b8004402 	str	w2, [x0], #4
   83714:	eb00007f 	cmp	x3, x0
   83718:	54ffff41 	b.ne	83700 <mailbox_tag_message+0x80>  // b.any
   8371c:	350005c5 	cbnz	w5, 837d4 <mailbox_tag_message+0x154>
   83720:	aa1303e0 	mov	x0, x19
   83724:	97fff451 	bl	80868 <ARMaddrToGPUaddr>
   83728:	b0000021 	adrp	x1, 88000 <BitFontEnd+0xc0>
   8372c:	b940e022 	ldr	w2, [x1, #224]
   83730:	121c6c00 	and	w0, w0, #0xfffffff0
   83734:	321d0001 	orr	w1, w0, #0x8
   83738:	52971000 	mov	w0, #0xb880                	// #47232
   8373c:	0b000042 	add	w2, w2, w0
   83740:	b9403840 	ldr	w0, [x2, #56]
   83744:	37ffffe0 	tbnz	w0, #31, 83740 <mailbox_tag_message+0xc0>
   83748:	b9002041 	str	w1, [x2, #32]
   8374c:	d503201f 	nop
   83750:	b9401840 	ldr	w0, [x2, #24]
   83754:	37f7ffe0 	tbnz	w0, #30, 83750 <mailbox_tag_message+0xd0>
   83758:	b9400040 	ldr	w0, [x2]
   8375c:	12000c00 	and	w0, w0, #0xf
   83760:	7100201f 	cmp	w0, #0x8
   83764:	54ffff61 	b.ne	83750 <mailbox_tag_message+0xd0>  // b.any
   83768:	b94057a2 	ldr	w2, [x29, #84]
   8376c:	52b00001 	mov	w1, #0x80000000            	// #-2147483648
   83770:	52800000 	mov	w0, #0x0                   	// #0
   83774:	6b01005f 	cmp	w2, w1
   83778:	540000a0 	b.eq	8378c <mailbox_tag_message+0x10c>  // b.none
   8377c:	a94153f3 	ldp	x19, x20, [sp, #16]
   83780:	f94013f5 	ldr	x21, [sp, #32]
   83784:	a8d07bfd 	ldp	x29, x30, [sp], #256
   83788:	d65f03c0 	ret
   8378c:	b40001b5 	cbz	x21, 837c0 <mailbox_tag_message+0x140>
   83790:	34000194 	cbz	w20, 837c0 <mailbox_tag_message+0x140>
   83794:	51000681 	sub	w1, w20, #0x1
   83798:	d2800000 	mov	x0, #0x0                   	// #0
   8379c:	91000421 	add	x1, x1, #0x1
   837a0:	d37ef421 	lsl	x1, x1, #2
   837a4:	d503201f 	nop
   837a8:	8b000262 	add	x2, x19, x0
   837ac:	b9400842 	ldr	w2, [x2, #8]
   837b0:	b8206aa2 	str	w2, [x21, x0]
   837b4:	91001000 	add	x0, x0, #0x4
   837b8:	eb00003f 	cmp	x1, x0
   837bc:	54ffff61 	b.ne	837a8 <mailbox_tag_message+0x128>  // b.any
   837c0:	a94153f3 	ldp	x19, x20, [sp, #16]
   837c4:	52800020 	mov	w0, #0x1                   	// #1
   837c8:	f94013f5 	ldr	x21, [sp, #32]
   837cc:	a8d07bfd 	ldp	x29, x30, [sp], #256
   837d0:	d65f03c0 	ret
   837d4:	b9004ba4 	str	w4, [x29, #72]
   837d8:	17ffffd2 	b	83720 <mailbox_tag_message+0xa0>
   837dc:	11002024 	add	w4, w1, #0x8
   837e0:	7100009f 	cmp	w4, #0x0
   837e4:	540000cd 	b.le	837fc <mailbox_tag_message+0x17c>
   837e8:	aa0603e2 	mov	x2, x6
   837ec:	2a0403e1 	mov	w1, w4
   837f0:	910020c6 	add	x6, x6, #0x8
   837f4:	52800025 	mov	w5, #0x1                   	// #1
   837f8:	17ffffc5 	b	8370c <mailbox_tag_message+0x8c>
   837fc:	910403a2 	add	x2, x29, #0x100
   83800:	52800025 	mov	w5, #0x1                   	// #1
   83804:	8b21c042 	add	x2, x2, w1, sxtw
   83808:	2a0403e1 	mov	w1, w4
   8380c:	17ffffc0 	b	8370c <mailbox_tag_message+0x8c>

0000000000083810 <ClearTimerIrq>:
   83810:	b0000020 	adrp	x0, 88000 <BitFontEnd+0xc0>
   83814:	b940e000 	ldr	w0, [x0, #224]
   83818:	52968002 	mov	w2, #0xb400                	// #46080
   8381c:	52800021 	mov	w1, #0x1                   	// #1
   83820:	0b020000 	add	w0, w0, w2
   83824:	b9000c01 	str	w1, [x0, #12]
   83828:	d65f03c0 	ret
   8382c:	d503201f 	nop

0000000000083830 <TimerIrqSetup>:
   83830:	a9bb7bfd 	stp	x29, x30, [sp, #-80]!
   83834:	52800104 	mov	w4, #0x8                   	// #8
   83838:	52800006 	mov	w6, #0x0                   	// #0
   8383c:	2a0403e3 	mov	w3, w4
   83840:	910003fd 	mov	x29, sp
   83844:	a9025bf5 	stp	x21, x22, [sp, #32]
   83848:	b0000035 	adrp	x21, 88000 <BitFontEnd+0xc0>
   8384c:	b940e2a2 	ldr	w2, [x21, #224]
   83850:	a90153f3 	stp	x19, x20, [sp, #16]
   83854:	52968014 	mov	w20, #0xb400                	// #46080
   83858:	0b140042 	add	w2, w2, w20
   8385c:	a903ffbf 	stp	xzr, xzr, [x29, #56]
   83860:	b9004bbf 	str	wzr, [x29, #72]
   83864:	2a0003f3 	mov	w19, w0
   83868:	aa0103f6 	mov	x22, x1
   8386c:	52800085 	mov	w5, #0x4                   	// #4
   83870:	b9400840 	ldr	w0, [x2, #8]
   83874:	528000a1 	mov	w1, #0x5                   	// #5
   83878:	12187800 	and	w0, w0, #0xffffff7f
   8387c:	b9000840 	str	w0, [x2, #8]
   83880:	9100e3a0 	add	x0, x29, #0x38
   83884:	52800042 	mov	w2, #0x2                   	// #2
   83888:	72a00062 	movk	w2, #0x3, lsl #16
   8388c:	97fffdbd 	bl	82f80 <mailbox_tag_message.constprop.5>
   83890:	b9404ba1 	ldr	w1, [x29, #72]
   83894:	5289ba62 	mov	w2, #0x4dd3                	// #19923
   83898:	72a20c42 	movk	w2, #0x1062, lsl #16
   8389c:	aa1603e0 	mov	x0, x22
   838a0:	9ba27c21 	umull	x1, w1, w2
   838a4:	d364fc21 	lsr	x1, x1, #36
   838a8:	b9004ba1 	str	w1, [x29, #72]
   838ac:	9bb37c33 	umull	x19, w1, w19
   838b0:	97fff5d4 	bl	81000 <setTimerIrqAddress>
   838b4:	b940e2a1 	ldr	w1, [x21, #224]
   838b8:	d2869b62 	mov	x2, #0x34db                	// #13531
   838bc:	f2baf6c2 	movk	x2, #0xd7b6, lsl #16
   838c0:	52964003 	mov	w3, #0xb200                	// #45568
   838c4:	0b030023 	add	w3, w1, w3
   838c8:	f2dbd042 	movk	x2, #0xde82, lsl #32
   838cc:	f2e86362 	movk	x2, #0x431b, lsl #48
   838d0:	0b140021 	add	w1, w1, w20
   838d4:	2a0003e0 	mov	w0, w0
   838d8:	9bc27e73 	umulh	x19, x19, x2
   838dc:	b9401862 	ldr	w2, [x3, #24]
   838e0:	32000042 	orr	w2, w2, #0x1
   838e4:	b9001862 	str	w2, [x3, #24]
   838e8:	d352fe73 	lsr	x19, x19, #18
   838ec:	b9000033 	str	w19, [x1]
   838f0:	b9400822 	ldr	w2, [x1, #8]
   838f4:	321f0042 	orr	w2, w2, #0x2
   838f8:	b9000822 	str	w2, [x1, #8]
   838fc:	b9400822 	ldr	w2, [x1, #8]
   83900:	121c7442 	and	w2, w2, #0xfffffff3
   83904:	b9000822 	str	w2, [x1, #8]
   83908:	b9400822 	ldr	w2, [x1, #8]
   8390c:	321b0042 	orr	w2, w2, #0x20
   83910:	b9000822 	str	w2, [x1, #8]
   83914:	b9400822 	ldr	w2, [x1, #8]
   83918:	32190042 	orr	w2, w2, #0x80
   8391c:	b9000822 	str	w2, [x1, #8]
   83920:	a94153f3 	ldp	x19, x20, [sp, #16]
   83924:	a9425bf5 	ldp	x21, x22, [sp, #32]
   83928:	a8c57bfd 	ldp	x29, x30, [sp], #80
   8392c:	d65f03c0 	ret

0000000000083930 <set_Activity_LED>:
   83930:	a9bc7bfd 	stp	x29, x30, [sp, #-64]!
   83934:	910003fd 	mov	x29, sp
   83938:	a90153f3 	stp	x19, x20, [sp, #16]
   8393c:	b0000021 	adrp	x1, 88000 <BitFontEnd+0xc0>
   83940:	91044033 	add	x19, x1, #0x110
   83944:	12001c14 	and	w20, w0, #0xff
   83948:	39444020 	ldrb	w0, [x1, #272]
   8394c:	34000580 	cbz	w0, 839fc <set_Activity_LED+0xcc>
   83950:	39400661 	ldrb	w1, [x19, #1]
   83954:	b0000022 	adrp	x2, 88000 <BitFontEnd+0xc0>
   83958:	b9410845 	ldr	w5, [x2, #264]
   8395c:	35000381 	cbnz	w1, 839cc <set_Activity_LED+0x9c>
   83960:	7100d4bf 	cmp	w5, #0x35
   83964:	540007e9 	b.ls	83a60 <set_Activity_LED+0x130>  // b.plast
   83968:	a94153f3 	ldp	x19, x20, [sp, #16]
   8396c:	a8c47bfd 	ldp	x29, x30, [sp], #64
   83970:	d65f03c0 	ret
   83974:	52841022 	mov	w2, #0x2081                	// #8321
   83978:	72a01402 	movk	w2, #0xa0, lsl #16
   8397c:	6b02001f 	cmp	w0, w2
   83980:	540009c9 	b.ls	83ab8 <set_Activity_LED+0x188>  // b.plast
   83984:	12bfe042 	mov	w2, #0xfdffff              	// #16646143
   83988:	0a020021 	and	w1, w1, w2
   8398c:	52841042 	mov	w2, #0x2082                	// #8322
   83990:	72a01402 	movk	w2, #0xa0, lsl #16
   83994:	6b02003f 	cmp	w1, w2
   83998:	52841401 	mov	w1, #0x20a0                	// #8352
   8399c:	72a01401 	movk	w1, #0xa0, lsl #16
   839a0:	7a411004 	ccmp	w0, w1, #0x4, ne  // ne = any
   839a4:	52841041 	mov	w1, #0x2082                	// #8322
   839a8:	72a01461 	movk	w1, #0xa3, lsl #16
   839ac:	7a411004 	ccmp	w0, w1, #0x4, ne  // ne = any
   839b0:	b0000021 	adrp	x1, 88000 <BitFontEnd+0xc0>
   839b4:	54000901 	b.ne	83ad4 <set_Activity_LED+0x1a4>  // b.any
   839b8:	39000675 	strb	w21, [x19, #1]
   839bc:	52801040 	mov	w0, #0x82                  	// #130
   839c0:	f94013b5 	ldr	x21, [x29, #32]
   839c4:	2a0003e5 	mov	w5, w0
   839c8:	b9010820 	str	w0, [x1, #264]
   839cc:	52800104 	mov	w4, #0x8                   	// #8
   839d0:	2a1403e6 	mov	w6, w20
   839d4:	2a0403e3 	mov	w3, w4
   839d8:	528000a1 	mov	w1, #0x5                   	// #5
   839dc:	52900822 	mov	w2, #0x8041                	// #32833
   839e0:	72a00062 	movk	w2, #0x3, lsl #16
   839e4:	d2800000 	mov	x0, #0x0                   	// #0
   839e8:	97fffcca 	bl	82d10 <mailbox_tag_message.constprop.4>
   839ec:	a94153f3 	ldp	x19, x20, [sp, #16]
   839f0:	12001c00 	and	w0, w0, #0xff
   839f4:	a8c47bfd 	ldp	x29, x30, [sp], #64
   839f8:	d65f03c0 	ret
   839fc:	52800083 	mov	w3, #0x4                   	// #4
   83a00:	f90013b5 	str	x21, [x29, #32]
   83a04:	52800005 	mov	w5, #0x0                   	// #0
   83a08:	52800004 	mov	w4, #0x0                   	// #0
   83a0c:	52800042 	mov	w2, #0x2                   	// #2
   83a10:	72a00022 	movk	w2, #0x1, lsl #16
   83a14:	9100c3a0 	add	x0, x29, #0x30
   83a18:	52800035 	mov	w21, #0x1                   	// #1
   83a1c:	39044035 	strb	w21, [x1, #272]
   83a20:	2a0303e1 	mov	w1, w3
   83a24:	97fffdaf 	bl	830e0 <mailbox_tag_message.constprop.6>
   83a28:	72001c00 	ands	w0, w0, #0xff
   83a2c:	540003e0 	b.eq	83aa8 <set_Activity_LED+0x178>  // b.none
   83a30:	b9403fa1 	ldr	w1, [x29, #60]
   83a34:	12005c20 	and	w0, w1, #0xffffff
   83a38:	b9003fa0 	str	w0, [x29, #60]
   83a3c:	51000802 	sub	w2, w0, #0x2
   83a40:	7100345f 	cmp	w2, #0xd
   83a44:	54fff988 	b.hi	83974 <set_Activity_LED+0x44>  // b.pmore
   83a48:	b0000021 	adrp	x1, 88000 <BitFontEnd+0xc0>
   83a4c:	f94013b5 	ldr	x21, [x29, #32]
   83a50:	52800200 	mov	w0, #0x10                  	// #16
   83a54:	2a0003e5 	mov	w5, w0
   83a58:	3900067f 	strb	wzr, [x19, #1]
   83a5c:	b9010820 	str	w0, [x1, #264]
   83a60:	53057ca0 	lsr	w0, w5, #5
   83a64:	b0000021 	adrp	x1, 88000 <BitFontEnd+0xc0>
   83a68:	b940e021 	ldr	w1, [x1, #224]
   83a6c:	91001c02 	add	x2, x0, #0x7
   83a70:	91002800 	add	x0, x0, #0xa
   83a74:	11480021 	add	w1, w1, #0x200, lsl #12
   83a78:	7100029f 	cmp	w20, #0x0
   83a7c:	8b020822 	add	x2, x1, x2, lsl #2
   83a80:	8b000821 	add	x1, x1, x0, lsl #2
   83a84:	9a820021 	csel	x1, x1, x2, eq  // eq = none
   83a88:	120010a5 	and	w5, w5, #0x1f
   83a8c:	52800022 	mov	w2, #0x1                   	// #1
   83a90:	2a0203e0 	mov	w0, w2
   83a94:	1ac52045 	lsl	w5, w2, w5
   83a98:	b9000025 	str	w5, [x1]
   83a9c:	a94153f3 	ldp	x19, x20, [sp, #16]
   83aa0:	a8c47bfd 	ldp	x29, x30, [sp], #64
   83aa4:	d65f03c0 	ret
   83aa8:	f94013b5 	ldr	x21, [x29, #32]
   83aac:	a94153f3 	ldp	x19, x20, [sp, #16]
   83ab0:	a8c47bfd 	ldp	x29, x30, [sp], #64
   83ab4:	d65f03c0 	ret
   83ab8:	b0000021 	adrp	x1, 88000 <BitFontEnd+0xc0>
   83abc:	528005e0 	mov	w0, #0x2f                  	// #47
   83ac0:	3900067f 	strb	wzr, [x19, #1]
   83ac4:	2a0003e5 	mov	w5, w0
   83ac8:	b9010820 	str	w0, [x1, #264]
   83acc:	f94013b5 	ldr	x21, [x29, #32]
   83ad0:	17ffffe4 	b	83a60 <set_Activity_LED+0x130>
   83ad4:	528003a0 	mov	w0, #0x1d                  	// #29
   83ad8:	3900067f 	strb	wzr, [x19, #1]
   83adc:	2a0003e5 	mov	w5, w0
   83ae0:	b9010820 	str	w0, [x1, #264]
   83ae4:	f94013b5 	ldr	x21, [x29, #32]
   83ae8:	17ffffde 	b	83a60 <set_Activity_LED+0x130>
   83aec:	d503201f 	nop

0000000000083af0 <ARM_setmaxspeed>:
   83af0:	a9bc7bfd 	stp	x29, x30, [sp, #-64]!
   83af4:	52800104 	mov	w4, #0x8                   	// #8
   83af8:	52800006 	mov	w6, #0x0                   	// #0
   83afc:	52800065 	mov	w5, #0x3                   	// #3
   83b00:	910003fd 	mov	x29, sp
   83b04:	a90153f3 	stp	x19, x20, [sp, #16]
   83b08:	2a0403e3 	mov	w3, w4
   83b0c:	aa0003f4 	mov	x20, x0
   83b10:	52800082 	mov	w2, #0x4                   	// #4
   83b14:	72a00062 	movk	w2, #0x3, lsl #16
   83b18:	528000a1 	mov	w1, #0x5                   	// #5
   83b1c:	9100a3a0 	add	x0, x29, #0x28
   83b20:	a902ffbf 	stp	xzr, xzr, [x29, #40]
   83b24:	b9003bbf 	str	wzr, [x29, #56]
   83b28:	97fffd16 	bl	82f80 <mailbox_tag_message.constprop.5>
   83b2c:	72001c1f 	tst	w0, #0xff
   83b30:	540000c1 	b.ne	83b48 <ARM_setmaxspeed+0x58>  // b.any
   83b34:	52800013 	mov	w19, #0x0                   	// #0
   83b38:	2a1303e0 	mov	w0, w19
   83b3c:	a94153f3 	ldp	x19, x20, [sp, #16]
   83b40:	a8c47bfd 	ldp	x29, x30, [sp], #64
   83b44:	d65f03c0 	ret
   83b48:	b9403ba6 	ldr	w6, [x29, #56]
   83b4c:	52800104 	mov	w4, #0x8                   	// #8
   83b50:	52800065 	mov	w5, #0x3                   	// #3
   83b54:	2a0403e3 	mov	w3, w4
   83b58:	52900042 	mov	w2, #0x8002                	// #32770
   83b5c:	72a00062 	movk	w2, #0x3, lsl #16
   83b60:	528000a1 	mov	w1, #0x5                   	// #5
   83b64:	9100a3a0 	add	x0, x29, #0x28
   83b68:	97fffd06 	bl	82f80 <mailbox_tag_message.constprop.5>
   83b6c:	72001c13 	ands	w19, w0, #0xff
   83b70:	54fffe20 	b.eq	83b34 <ARM_setmaxspeed+0x44>  // b.none
   83b74:	b4fffe34 	cbz	x20, 83b38 <ARM_setmaxspeed+0x48>
   83b78:	b9403ba1 	ldr	w1, [x29, #56]
   83b7c:	90000020 	adrp	x0, 87000 <__text_end__+0xc0>
   83b80:	913e2000 	add	x0, x0, #0xf88
   83b84:	d63f0280 	blr	x20
   83b88:	2a1303e0 	mov	w0, w19
   83b8c:	a94153f3 	ldp	x19, x20, [sp, #16]
   83b90:	a8c47bfd 	ldp	x29, x30, [sp], #64
   83b94:	d65f03c0 	ret
   83b98:	d503201f 	nop
   83b9c:	d503201f 	nop

0000000000083ba0 <displaySmartStart>:
   83ba0:	b40007a0 	cbz	x0, 83c94 <displaySmartStart+0xf4>
   83ba4:	a9be7bfd 	stp	x29, x30, [sp, #-32]!
   83ba8:	910003fd 	mov	x29, sp
   83bac:	f9000bf3 	str	x19, [sp, #16]
   83bb0:	aa0003f3 	mov	x19, x0
   83bb4:	b0000020 	adrp	x0, 88000 <BitFontEnd+0xc0>
   83bb8:	3943e006 	ldrb	w6, [x0, #248]
   83bbc:	b0000020 	adrp	x0, 88000 <BitFontEnd+0xc0>
   83bc0:	b940fc01 	ldr	w1, [x0, #252]
   83bc4:	12000cc4 	and	w4, w6, #0xf
   83bc8:	90000020 	adrp	x0, 87000 <__text_end__+0xc0>
   83bcc:	d34410c5 	ubfx	x5, x6, #4, #1
   83bd0:	12001c23 	and	w3, w1, #0xff
   83bd4:	110004a5 	add	w5, w5, #0x1
   83bd8:	d3483c22 	ubfx	x2, x1, #8, #8
   83bdc:	d3451cc6 	ubfx	x6, x6, #5, #3
   83be0:	53107c21 	lsr	w1, w1, #16
   83be4:	531b68a5 	lsl	w5, w5, #5
   83be8:	913ea000 	add	x0, x0, #0xfa8
   83bec:	d63f0260 	blr	x19
   83bf0:	b0000020 	adrp	x0, 88000 <BitFontEnd+0xc0>
   83bf4:	7941e802 	ldrh	w2, [x0, #244]
   83bf8:	d3443c42 	ubfx	x2, x2, #4, #12
   83bfc:	71301c5f 	cmp	w2, #0xc07
   83c00:	54000360 	b.eq	83c6c <displaySmartStart+0xcc>  // b.none
   83c04:	71340c5f 	cmp	w2, #0xd03
   83c08:	540001e0 	b.eq	83c44 <displaySmartStart+0xa4>  // b.none
   83c0c:	b0000023 	adrp	x3, 88000 <BitFontEnd+0xc0>
   83c10:	aa1303e4 	mov	x4, x19
   83c14:	f9400bf3 	ldr	x19, [sp, #16]
   83c18:	90000021 	adrp	x1, 87000 <__text_end__+0xc0>
   83c1c:	913de020 	add	x0, x1, #0xf78
   83c20:	90000021 	adrp	x1, 87000 <__text_end__+0xc0>
   83c24:	913d2021 	add	x1, x1, #0xf48
   83c28:	b940ec63 	ldr	w3, [x3, #236]
   83c2c:	712dd85f 	cmp	w2, #0xb76
   83c30:	a8c27bfd 	ldp	x29, x30, [sp], #32
   83c34:	9a800021 	csel	x1, x1, x0, eq  // eq = none
   83c38:	90000020 	adrp	x0, 87000 <__text_end__+0xc0>
   83c3c:	913fe000 	add	x0, x0, #0xff8
   83c40:	d61f0080 	br	x4
   83c44:	b0000023 	adrp	x3, 88000 <BitFontEnd+0xc0>
   83c48:	aa1303e4 	mov	x4, x19
   83c4c:	f9400bf3 	ldr	x19, [sp, #16]
   83c50:	90000021 	adrp	x1, 87000 <__text_end__+0xc0>
   83c54:	913da021 	add	x1, x1, #0xf68
   83c58:	b940ec63 	ldr	w3, [x3, #236]
   83c5c:	90000020 	adrp	x0, 87000 <__text_end__+0xc0>
   83c60:	a8c27bfd 	ldp	x29, x30, [sp], #32
   83c64:	913fe000 	add	x0, x0, #0xff8
   83c68:	d61f0080 	br	x4
   83c6c:	b0000023 	adrp	x3, 88000 <BitFontEnd+0xc0>
   83c70:	aa1303e4 	mov	x4, x19
   83c74:	f9400bf3 	ldr	x19, [sp, #16]
   83c78:	90000021 	adrp	x1, 87000 <__text_end__+0xc0>
   83c7c:	913d6021 	add	x1, x1, #0xf58
   83c80:	b940ec63 	ldr	w3, [x3, #236]
   83c84:	90000020 	adrp	x0, 87000 <__text_end__+0xc0>
   83c88:	a8c27bfd 	ldp	x29, x30, [sp], #32
   83c8c:	913fe000 	add	x0, x0, #0xff8
   83c90:	d61f0080 	br	x4
   83c94:	d65f03c0 	ret
   83c98:	d503201f 	nop
   83c9c:	d503201f 	nop

0000000000083ca0 <Embedded_Console_WriteChar>:
   83ca0:	12001c01 	and	w1, w0, #0xff
   83ca4:	7100283f 	cmp	w1, #0xa
   83ca8:	540004e0 	b.eq	83d44 <Embedded_Console_WriteChar+0xa4>  // b.none
   83cac:	7100343f 	cmp	w1, #0xd
   83cb0:	54000440 	b.eq	83d38 <Embedded_Console_WriteChar+0x98>  // b.none
   83cb4:	7100243f 	cmp	w1, #0x9
   83cb8:	540002a0 	b.eq	83d0c <Embedded_Console_WriteChar+0x6c>  // b.none
   83cbc:	a9be7bfd 	stp	x29, x30, [sp, #-32]!
   83cc0:	910003fd 	mov	x29, sp
   83cc4:	f9000bf3 	str	x19, [sp, #16]
   83cc8:	b0000033 	adrp	x19, 88000 <BitFontEnd+0xc0>
   83ccc:	91044273 	add	x19, x19, #0x110
   83cd0:	91001273 	add	x19, x19, #0x4
   83cd4:	aa1303e0 	mov	x0, x19
   83cd8:	29440e64 	ldp	w4, w3, [x19, #32]
   83cdc:	294a8a65 	ldp	w5, w2, [x19, #84]
   83ce0:	531d7084 	lsl	w4, w4, #3
   83ce4:	531c6c63 	lsl	w3, w3, #4
   83ce8:	29030e64 	stp	w4, w3, [x19, #24]
   83cec:	aa0280a2 	orr	x2, x5, x2, lsl #32
   83cf0:	d63f0040 	blr	x2
   83cf4:	b9402260 	ldr	w0, [x19, #32]
   83cf8:	11000400 	add	w0, w0, #0x1
   83cfc:	b9002260 	str	w0, [x19, #32]
   83d00:	f9400bf3 	ldr	x19, [sp, #16]
   83d04:	a8c27bfd 	ldp	x29, x30, [sp], #32
   83d08:	d65f03c0 	ret
   83d0c:	b0000021 	adrp	x1, 88000 <BitFontEnd+0xc0>
   83d10:	91044021 	add	x1, x1, #0x110
   83d14:	b9402420 	ldr	w0, [x1, #36]
   83d18:	11001400 	add	w0, w0, #0x5
   83d1c:	6b0003e2 	negs	w2, w0
   83d20:	12000403 	and	w3, w0, #0x3
   83d24:	12000442 	and	w2, w2, #0x3
   83d28:	5a824462 	csneg	w2, w3, w2, mi  // mi = first
   83d2c:	4b020000 	sub	w0, w0, w2
   83d30:	b9002420 	str	w0, [x1, #36]
   83d34:	d65f03c0 	ret
   83d38:	b0000020 	adrp	x0, 88000 <BitFontEnd+0xc0>
   83d3c:	b901341f 	str	wzr, [x0, #308]
   83d40:	d65f03c0 	ret
   83d44:	b0000020 	adrp	x0, 88000 <BitFontEnd+0xc0>
   83d48:	91044000 	add	x0, x0, #0x110
   83d4c:	b9402801 	ldr	w1, [x0, #40]
   83d50:	11000421 	add	w1, w1, #0x1
   83d54:	2904841f 	stp	wzr, w1, [x0, #36]
   83d58:	d65f03c0 	ret
   83d5c:	d503201f 	nop

0000000000083d60 <WriteText>:
   83d60:	b40007e2 	cbz	x2, 83e5c <WriteText+0xfc>
   83d64:	a9bd7bfd 	stp	x29, x30, [sp, #-48]!
   83d68:	2a0003e3 	mov	w3, w0
   83d6c:	aa0203e0 	mov	x0, x2
   83d70:	910003fd 	mov	x29, sp
   83d74:	f90013f5 	str	x21, [sp, #32]
   83d78:	b0000035 	adrp	x21, 88000 <BitFontEnd+0xc0>
   83d7c:	910442b5 	add	x21, x21, #0x110
   83d80:	f9000bf3 	str	x19, [sp, #16]
   83d84:	aa0203f3 	mov	x19, x2
   83d88:	290486a3 	stp	w3, w1, [x21, #36]
   83d8c:	94000c1d 	bl	86e00 <strlen>
   83d90:	b4000480 	cbz	x0, 83e20 <WriteText+0xc0>
   83d94:	f9000fb4 	str	x20, [x29, #24]
   83d98:	f90017b6 	str	x22, [x29, #40]
   83d9c:	8b000276 	add	x22, x19, x0
   83da0:	14000015 	b	83df4 <WriteText+0x94>
   83da4:	910012b4 	add	x20, x21, #0x4
   83da8:	2a0203e1 	mov	w1, w2
   83dac:	aa1403e0 	mov	x0, x20
   83db0:	7100345f 	cmp	w2, #0xd
   83db4:	54000500 	b.eq	83e54 <WriteText+0xf4>  // b.none
   83db8:	7100245f 	cmp	w2, #0x9
   83dbc:	540003a0 	b.eq	83e30 <WriteText+0xd0>  // b.none
   83dc0:	29440e84 	ldp	w4, w3, [x20, #32]
   83dc4:	294a8a85 	ldp	w5, w2, [x20, #84]
   83dc8:	531d7084 	lsl	w4, w4, #3
   83dcc:	531c6c63 	lsl	w3, w3, #4
   83dd0:	29030e84 	stp	w4, w3, [x20, #24]
   83dd4:	aa0280a2 	orr	x2, x5, x2, lsl #32
   83dd8:	d63f0040 	blr	x2
   83ddc:	b9402280 	ldr	w0, [x20, #32]
   83de0:	11000400 	add	w0, w0, #0x1
   83de4:	b9002280 	str	w0, [x20, #32]
   83de8:	91000673 	add	x19, x19, #0x1
   83dec:	eb1302df 	cmp	x22, x19
   83df0:	54000140 	b.eq	83e18 <WriteText+0xb8>  // b.none
   83df4:	39400262 	ldrb	w2, [x19]
   83df8:	7100285f 	cmp	w2, #0xa
   83dfc:	54fffd41 	b.ne	83da4 <WriteText+0x44>  // b.any
   83e00:	b9402aa1 	ldr	w1, [x21, #40]
   83e04:	91000673 	add	x19, x19, #0x1
   83e08:	eb1302df 	cmp	x22, x19
   83e0c:	11000421 	add	w1, w1, #0x1
   83e10:	290486bf 	stp	wzr, w1, [x21, #36]
   83e14:	54ffff01 	b.ne	83df4 <WriteText+0x94>  // b.any
   83e18:	f9400fb4 	ldr	x20, [x29, #24]
   83e1c:	f94017b6 	ldr	x22, [x29, #40]
   83e20:	f9400bf3 	ldr	x19, [sp, #16]
   83e24:	f94013f5 	ldr	x21, [sp, #32]
   83e28:	a8c37bfd 	ldp	x29, x30, [sp], #48
   83e2c:	d65f03c0 	ret
   83e30:	b94026a1 	ldr	w1, [x21, #36]
   83e34:	11001421 	add	w1, w1, #0x5
   83e38:	6b0103e0 	negs	w0, w1
   83e3c:	12000423 	and	w3, w1, #0x3
   83e40:	12000400 	and	w0, w0, #0x3
   83e44:	5a804460 	csneg	w0, w3, w0, mi  // mi = first
   83e48:	4b000021 	sub	w1, w1, w0
   83e4c:	b90026a1 	str	w1, [x21, #36]
   83e50:	17ffffe6 	b	83de8 <WriteText+0x88>
   83e54:	b90026bf 	str	wzr, [x21, #36]
   83e58:	17ffffe4 	b	83de8 <WriteText+0x88>
   83e5c:	d65f03c0 	ret

0000000000083e60 <SetDCPenColor>:
   83e60:	52800002 	mov	w2, #0x0                   	// #0
   83e64:	b4000060 	cbz	x0, 83e70 <SetDCPenColor+0x10>
   83e68:	b9402802 	ldr	w2, [x0, #40]
   83e6c:	b9002801 	str	w1, [x0, #40]
   83e70:	2a0203e0 	mov	w0, w2
   83e74:	d65f03c0 	ret
   83e78:	d503201f 	nop
   83e7c:	d503201f 	nop

0000000000083e80 <SetDCBrushColor>:
   83e80:	52800002 	mov	w2, #0x0                   	// #0
   83e84:	b4000060 	cbz	x0, 83e90 <SetDCBrushColor+0x10>
   83e88:	b9403002 	ldr	w2, [x0, #48]
   83e8c:	b9003001 	str	w1, [x0, #48]
   83e90:	2a0203e0 	mov	w0, w2
   83e94:	d65f03c0 	ret
   83e98:	d503201f 	nop
   83e9c:	d503201f 	nop

0000000000083ea0 <MoveToEx>:
   83ea0:	b4000120 	cbz	x0, 83ec4 <MoveToEx+0x24>
   83ea4:	b40000a3 	cbz	x3, 83eb8 <MoveToEx+0x18>
   83ea8:	b9401804 	ldr	w4, [x0, #24]
   83eac:	b9000064 	str	w4, [x3]
   83eb0:	b9401c04 	ldr	w4, [x0, #28]
   83eb4:	b9000464 	str	w4, [x3, #4]
   83eb8:	29030801 	stp	w1, w2, [x0, #24]
   83ebc:	52800020 	mov	w0, #0x1                   	// #1
   83ec0:	d65f03c0 	ret
   83ec4:	52800000 	mov	w0, #0x0                   	// #0
   83ec8:	d65f03c0 	ret
   83ecc:	d503201f 	nop

0000000000083ed0 <LineTo>:
   83ed0:	b4000380 	cbz	x0, 83f40 <LineTo+0x70>
   83ed4:	a9bf7bfd 	stp	x29, x30, [sp, #-16]!
   83ed8:	910003fd 	mov	x29, sp
   83edc:	b9401805 	ldr	w5, [x0, #24]
   83ee0:	6b0100bf 	cmp	w5, w1
   83ee4:	540001ec 	b.gt	83f20 <LineTo+0x50>
   83ee8:	4b050025 	sub	w5, w1, w5
   83eec:	b9401c01 	ldr	w1, [x0, #28]
   83ef0:	52800023 	mov	w3, #0x1                   	// #1
   83ef4:	6b02003f 	cmp	w1, w2
   83ef8:	540001ed 	b.le	83f34 <LineTo+0x64>
   83efc:	4b020021 	sub	w1, w1, w2
   83f00:	12800002 	mov	w2, #0xffffffff            	// #-1
   83f04:	35000225 	cbnz	w5, 83f48 <LineTo+0x78>
   83f08:	29478c04 	ldp	w4, w3, [x0, #60]
   83f0c:	aa038083 	orr	x3, x4, x3, lsl #32
   83f10:	d63f0060 	blr	x3
   83f14:	52800020 	mov	w0, #0x1                   	// #1
   83f18:	a8c17bfd 	ldp	x29, x30, [sp], #16
   83f1c:	d65f03c0 	ret
   83f20:	4b0100a5 	sub	w5, w5, w1
   83f24:	b9401c01 	ldr	w1, [x0, #28]
   83f28:	12800003 	mov	w3, #0xffffffff            	// #-1
   83f2c:	6b02003f 	cmp	w1, w2
   83f30:	54fffe6c 	b.gt	83efc <LineTo+0x2c>
   83f34:	4b010041 	sub	w1, w2, w1
   83f38:	52800022 	mov	w2, #0x1                   	// #1
   83f3c:	17fffff2 	b	83f04 <LineTo+0x34>
   83f40:	52800000 	mov	w0, #0x0                   	// #0
   83f44:	d65f03c0 	ret
   83f48:	34000121 	cbz	w1, 83f6c <LineTo+0x9c>
   83f4c:	29499807 	ldp	w7, w6, [x0, #76]
   83f50:	2a0203e4 	mov	w4, w2
   83f54:	2a0103e2 	mov	w2, w1
   83f58:	2a0503e1 	mov	w1, w5
   83f5c:	aa0680e5 	orr	x5, x7, x6, lsl #32
   83f60:	d63f00a0 	blr	x5
   83f64:	52800020 	mov	w0, #0x1                   	// #1
   83f68:	17ffffec 	b	83f18 <LineTo+0x48>
   83f6c:	29489006 	ldp	w6, w4, [x0, #68]
   83f70:	2a0303e2 	mov	w2, w3
   83f74:	2a0503e1 	mov	w1, w5
   83f78:	aa0480c3 	orr	x3, x6, x4, lsl #32
   83f7c:	d63f0060 	blr	x3
   83f80:	52800020 	mov	w0, #0x1                   	// #1
   83f84:	17ffffe5 	b	83f18 <LineTo+0x48>
   83f88:	d503201f 	nop
   83f8c:	d503201f 	nop

0000000000083f90 <TextOut>:
   83f90:	7100009f 	cmp	w4, #0x0
   83f94:	fa401864 	ccmp	x3, #0x0, #0x4, ne  // ne = any
   83f98:	54000420 	b.eq	8401c <TextOut+0x8c>  // b.none
   83f9c:	a9bc7bfd 	stp	x29, x30, [sp, #-64]!
   83fa0:	7100009f 	cmp	w4, #0x0
   83fa4:	910003fd 	mov	x29, sp
   83fa8:	a9025bf5 	stp	x21, x22, [sp, #32]
   83fac:	2a0103f5 	mov	w21, w1
   83fb0:	2a0203f6 	mov	w22, w2
   83fb4:	540002cd 	b.le	8400c <TextOut+0x7c>
   83fb8:	a90153b3 	stp	x19, x20, [x29, #16]
   83fbc:	51000484 	sub	w4, w4, #0x1
   83fc0:	b0000033 	adrp	x19, 88000 <BitFontEnd+0xc0>
   83fc4:	91044273 	add	x19, x19, #0x110
   83fc8:	f9001bb7 	str	x23, [x29, #48]
   83fcc:	91000477 	add	x23, x3, #0x1
   83fd0:	aa0303f4 	mov	x20, x3
   83fd4:	91001273 	add	x19, x19, #0x4
   83fd8:	8b0402f7 	add	x23, x23, x4
   83fdc:	d503201f 	nop
   83fe0:	29035a75 	stp	w21, w22, [x19, #24]
   83fe4:	aa1303e0 	mov	x0, x19
   83fe8:	294a8a63 	ldp	w3, w2, [x19, #84]
   83fec:	110022b5 	add	w21, w21, #0x8
   83ff0:	38401681 	ldrb	w1, [x20], #1
   83ff4:	aa028062 	orr	x2, x3, x2, lsl #32
   83ff8:	d63f0040 	blr	x2
   83ffc:	eb17029f 	cmp	x20, x23
   84000:	54ffff01 	b.ne	83fe0 <TextOut+0x50>  // b.any
   84004:	a94153b3 	ldp	x19, x20, [x29, #16]
   84008:	f9401bb7 	ldr	x23, [x29, #48]
   8400c:	52800020 	mov	w0, #0x1                   	// #1
   84010:	a9425bf5 	ldp	x21, x22, [sp, #32]
   84014:	a8c47bfd 	ldp	x29, x30, [sp], #64
   84018:	d65f03c0 	ret
   8401c:	52800000 	mov	w0, #0x0                   	// #0
   84020:	d65f03c0 	ret
   84024:	d503201f 	nop
   84028:	d503201f 	nop
   8402c:	d503201f 	nop

0000000000084030 <TransparentTextOut>:
   84030:	b4000382 	cbz	x2, 840a0 <TransparentTextOut+0x70>
   84034:	a9bd7bfd 	stp	x29, x30, [sp, #-48]!
   84038:	910003fd 	mov	x29, sp
   8403c:	a90153f3 	stp	x19, x20, [sp, #16]
   84040:	90000033 	adrp	x19, 88000 <BitFontEnd+0xc0>
   84044:	91044273 	add	x19, x19, #0x110
   84048:	a9025bf5 	stp	x21, x22, [sp, #32]
   8404c:	2a0003f5 	mov	w21, w0
   84050:	2a0103f6 	mov	w22, w1
   84054:	aa0203f4 	mov	x20, x2
   84058:	39400040 	ldrb	w0, [x2]
   8405c:	91001273 	add	x19, x19, #0x4
   84060:	34000160 	cbz	w0, 8408c <TransparentTextOut+0x5c>
   84064:	d503201f 	nop
   84068:	29035a75 	stp	w21, w22, [x19, #24]
   8406c:	aa1303e0 	mov	x0, x19
   84070:	294b8e62 	ldp	w2, w3, [x19, #92]
   84074:	110022b5 	add	w21, w21, #0x8
   84078:	38401681 	ldrb	w1, [x20], #1
   8407c:	aa038043 	orr	x3, x2, x3, lsl #32
   84080:	d63f0060 	blr	x3
   84084:	39400280 	ldrb	w0, [x20]
   84088:	35ffff00 	cbnz	w0, 84068 <TransparentTextOut+0x38>
   8408c:	52800020 	mov	w0, #0x1                   	// #1
   84090:	a94153f3 	ldp	x19, x20, [sp, #16]
   84094:	a9425bf5 	ldp	x21, x22, [sp, #32]
   84098:	a8c37bfd 	ldp	x29, x30, [sp], #48
   8409c:	d65f03c0 	ret
   840a0:	52800000 	mov	w0, #0x0                   	// #0
   840a4:	d65f03c0 	ret
   840a8:	d503201f 	nop
   840ac:	d503201f 	nop

00000000000840b0 <BmpOut>:
   840b0:	b4000220 	cbz	x0, 840f4 <BmpOut+0x44>
   840b4:	a9bf7bfd 	stp	x29, x30, [sp, #-16]!
   840b8:	0b040047 	add	w7, w2, w4
   840bc:	2a0303e9 	mov	w9, w3
   840c0:	aa0503e3 	mov	x3, x5
   840c4:	910003fd 	mov	x29, sp
   840c8:	294c9402 	ldp	w2, w5, [x0, #100]
   840cc:	2a0403e8 	mov	w8, w4
   840d0:	29031c01 	stp	w1, w7, [x0, #24]
   840d4:	52800024 	mov	w4, #0x1                   	// #1
   840d8:	2a0903e1 	mov	w1, w9
   840dc:	aa058045 	orr	x5, x2, x5, lsl #32
   840e0:	2a0803e2 	mov	w2, w8
   840e4:	d63f00a0 	blr	x5
   840e8:	52800020 	mov	w0, #0x1                   	// #1
   840ec:	a8c17bfd 	ldp	x29, x30, [sp], #16
   840f0:	d65f03c0 	ret
   840f4:	52800000 	mov	w0, #0x0                   	// #0
   840f8:	d65f03c0 	ret
   840fc:	d503201f 	nop

0000000000084100 <CvtBmpLine>:
   84100:	b4000680 	cbz	x0, 841d0 <CvtBmpLine+0xd0>
   84104:	d2820210 	mov	x16, #0x1010                	// #4112
   84108:	cb3063ff 	sub	sp, sp, x16
   8410c:	a9007bfd 	stp	x29, x30, [sp]
   84110:	910003fd 	mov	x29, sp
   84114:	b9401006 	ldr	w6, [x0, #16]
   84118:	29030801 	stp	w1, w2, [x0, #24]
   8411c:	6b0400df 	cmp	w6, w4
   84120:	54000400 	b.eq	841a0 <CvtBmpLine+0xa0>  // b.none
   84124:	710060df 	cmp	w6, #0x18
   84128:	54000800 	b.eq	84228 <CvtBmpLine+0x128>  // b.none
   8412c:	710080df 	cmp	w6, #0x20
   84130:	54000540 	b.eq	841d8 <CvtBmpLine+0xd8>  // b.none
   84134:	710040df 	cmp	w6, #0x10
   84138:	54000341 	b.ne	841a0 <CvtBmpLine+0xa0>  // b.any
   8413c:	7100609f 	cmp	w4, #0x18
   84140:	54000980 	b.eq	84270 <CvtBmpLine+0x170>  // b.none
   84144:	340002e3 	cbz	w3, 841a0 <CvtBmpLine+0xa0>
   84148:	51000468 	sub	w8, w3, #0x1
   8414c:	910043a1 	add	x1, x29, #0x10
   84150:	8b2848a8 	add	x8, x5, w8, uxtw #2
   84154:	91001108 	add	x8, x8, #0x4
   84158:	394008a2 	ldrb	w2, [x5, #2]
   8415c:	91000821 	add	x1, x1, #0x2
   84160:	394004a4 	ldrb	w4, [x5, #1]
   84164:	384044a6 	ldrb	w6, [x5], #4
   84168:	385fe027 	ldurb	w7, [x1, #-2]
   8416c:	53037c42 	lsr	w2, w2, #3
   84170:	53027c84 	lsr	w4, w4, #2
   84174:	eb05011f 	cmp	x8, x5
   84178:	53037cc6 	lsr	w6, w6, #3
   8417c:	330010c7 	bfxil	w7, w6, #0, #5
   84180:	381fe027 	sturb	w7, [x1, #-2]
   84184:	785fe026 	ldurh	w6, [x1, #-2]
   84188:	331b1486 	bfi	w6, w4, #5, #6
   8418c:	781fe026 	sturh	w6, [x1, #-2]
   84190:	385ff024 	ldurb	w4, [x1, #-1]
   84194:	331d1044 	bfi	w4, w2, #3, #5
   84198:	381ff024 	sturb	w4, [x1, #-1]
   8419c:	54fffde1 	b.ne	84158 <CvtBmpLine+0x58>  // b.any
   841a0:	294c9406 	ldp	w6, w5, [x0, #100]
   841a4:	2a0303e1 	mov	w1, w3
   841a8:	52800024 	mov	w4, #0x1                   	// #1
   841ac:	910043a3 	add	x3, x29, #0x10
   841b0:	52800022 	mov	w2, #0x1                   	// #1
   841b4:	aa0580c5 	orr	x5, x6, x5, lsl #32
   841b8:	d63f00a0 	blr	x5
   841bc:	a9407bfd 	ldp	x29, x30, [sp]
   841c0:	52800020 	mov	w0, #0x1                   	// #1
   841c4:	d2820210 	mov	x16, #0x1010                	// #4112
   841c8:	8b3063ff 	add	sp, sp, x16
   841cc:	d65f03c0 	ret
   841d0:	52800000 	mov	w0, #0x0                   	// #0
   841d4:	d65f03c0 	ret
   841d8:	7100409f 	cmp	w4, #0x10
   841dc:	54000b00 	b.eq	8433c <CvtBmpLine+0x23c>  // b.none
   841e0:	34fffe03 	cbz	w3, 841a0 <CvtBmpLine+0xa0>
   841e4:	51000464 	sub	w4, w3, #0x1
   841e8:	aa0503e1 	mov	x1, x5
   841ec:	91000484 	add	x4, x4, #0x1
   841f0:	910043a2 	add	x2, x29, #0x10
   841f4:	8b040484 	add	x4, x4, x4, lsl #1
   841f8:	8b0400a5 	add	x5, x5, x4
   841fc:	d503201f 	nop
   84200:	91000c21 	add	x1, x1, #0x3
   84204:	385fd024 	ldurb	w4, [x1, #-3]
   84208:	38004444 	strb	w4, [x2], #4
   8420c:	eb0100bf 	cmp	x5, x1
   84210:	385fe026 	ldurb	w6, [x1, #-2]
   84214:	385ff024 	ldurb	w4, [x1, #-1]
   84218:	381fd046 	sturb	w6, [x2, #-3]
   8421c:	381fe044 	sturb	w4, [x2, #-2]
   84220:	54ffff01 	b.ne	84200 <CvtBmpLine+0x100>  // b.any
   84224:	17ffffdf 	b	841a0 <CvtBmpLine+0xa0>
   84228:	7100409f 	cmp	w4, #0x10
   8422c:	540005a0 	b.eq	842e0 <CvtBmpLine+0x1e0>  // b.none
   84230:	34fffb83 	cbz	w3, 841a0 <CvtBmpLine+0xa0>
   84234:	51000462 	sub	w2, w3, #0x1
   84238:	910043a1 	add	x1, x29, #0x10
   8423c:	91000442 	add	x2, x2, #0x1
   84240:	8b020442 	add	x2, x2, x2, lsl #1
   84244:	8b020022 	add	x2, x1, x2
   84248:	910010a5 	add	x5, x5, #0x4
   8424c:	385fc0a4 	ldurb	w4, [x5, #-4]
   84250:	38003424 	strb	w4, [x1], #3
   84254:	385fd0a6 	ldurb	w6, [x5, #-3]
   84258:	385fe0a4 	ldurb	w4, [x5, #-2]
   8425c:	eb02003f 	cmp	x1, x2
   84260:	381fe026 	sturb	w6, [x1, #-2]
   84264:	381ff024 	sturb	w4, [x1, #-1]
   84268:	54ffff01 	b.ne	84248 <CvtBmpLine+0x148>  // b.any
   8426c:	17ffffcd 	b	841a0 <CvtBmpLine+0xa0>
   84270:	34fff983 	cbz	w3, 841a0 <CvtBmpLine+0xa0>
   84274:	51000464 	sub	w4, w3, #0x1
   84278:	aa0503e2 	mov	x2, x5
   8427c:	91000484 	add	x4, x4, #0x1
   84280:	910043a1 	add	x1, x29, #0x10
   84284:	8b040484 	add	x4, x4, x4, lsl #1
   84288:	8b0400a5 	add	x5, x5, x4
   8428c:	d503201f 	nop
   84290:	91000c42 	add	x2, x2, #0x3
   84294:	385fd047 	ldurb	w7, [x2, #-3]
   84298:	39400028 	ldrb	w8, [x1]
   8429c:	91000821 	add	x1, x1, #0x2
   842a0:	385fe046 	ldurb	w6, [x2, #-2]
   842a4:	eb05005f 	cmp	x2, x5
   842a8:	53037ce7 	lsr	w7, w7, #3
   842ac:	385ff044 	ldurb	w4, [x2, #-1]
   842b0:	330010e8 	bfxil	w8, w7, #0, #5
   842b4:	381fe028 	sturb	w8, [x1, #-2]
   842b8:	53027cc6 	lsr	w6, w6, #2
   842bc:	53037c84 	lsr	w4, w4, #3
   842c0:	785fe027 	ldurh	w7, [x1, #-2]
   842c4:	331b14c7 	bfi	w7, w6, #5, #6
   842c8:	781fe027 	sturh	w7, [x1, #-2]
   842cc:	385ff026 	ldurb	w6, [x1, #-1]
   842d0:	331d1086 	bfi	w6, w4, #3, #5
   842d4:	381ff026 	sturb	w6, [x1, #-1]
   842d8:	54fffdc1 	b.ne	84290 <CvtBmpLine+0x190>  // b.any
   842dc:	17ffffb1 	b	841a0 <CvtBmpLine+0xa0>
   842e0:	34fff603 	cbz	w3, 841a0 <CvtBmpLine+0xa0>
   842e4:	51000467 	sub	w7, w3, #0x1
   842e8:	910043a4 	add	x4, x29, #0x10
   842ec:	910004e7 	add	x7, x7, #0x1
   842f0:	8b0704e7 	add	x7, x7, x7, lsl #1
   842f4:	8b070087 	add	x7, x4, x7
   842f8:	394000a6 	ldrb	w6, [x5]
   842fc:	910008a5 	add	x5, x5, #0x2
   84300:	385ff0a1 	ldurb	w1, [x5, #-1]
   84304:	aa0103e2 	mov	x2, x1
   84308:	d3451cc8 	ubfx	x8, x6, #5, #3
   8430c:	d37d0821 	ubfiz	x1, x1, #3, #3
   84310:	531d10c6 	ubfiz	w6, w6, #3, #5
   84314:	d3431c42 	ubfx	x2, x2, #3, #5
   84318:	38003486 	strb	w6, [x4], #3
   8431c:	aa080021 	orr	x1, x1, x8
   84320:	531d1042 	ubfiz	w2, w2, #3, #5
   84324:	381ff082 	sturb	w2, [x4, #-1]
   84328:	531e1421 	ubfiz	w1, w1, #2, #6
   8432c:	381fe081 	sturb	w1, [x4, #-2]
   84330:	eb07009f 	cmp	x4, x7
   84334:	54fffe21 	b.ne	842f8 <CvtBmpLine+0x1f8>  // b.any
   84338:	17ffff9a 	b	841a0 <CvtBmpLine+0xa0>
   8433c:	34fff323 	cbz	w3, 841a0 <CvtBmpLine+0xa0>
   84340:	51000461 	sub	w1, w3, #0x1
   84344:	910053a8 	add	x8, x29, #0x14
   84348:	910043a2 	add	x2, x29, #0x10
   8434c:	8b214908 	add	x8, x8, w1, uxtw #2
   84350:	394000a6 	ldrb	w6, [x5]
   84354:	91001042 	add	x2, x2, #0x4
   84358:	394004a1 	ldrb	w1, [x5, #1]
   8435c:	eb02011f 	cmp	x8, x2
   84360:	910008a5 	add	x5, x5, #0x2
   84364:	aa0103e4 	mov	x4, x1
   84368:	d3451cc7 	ubfx	x7, x6, #5, #3
   8436c:	d37d0821 	ubfiz	x1, x1, #3, #3
   84370:	531d10c6 	ubfiz	w6, w6, #3, #5
   84374:	d3431c84 	ubfx	x4, x4, #3, #5
   84378:	aa070021 	orr	x1, x1, x7
   8437c:	381fc046 	sturb	w6, [x2, #-4]
   84380:	531d1084 	ubfiz	w4, w4, #3, #5
   84384:	531e1421 	ubfiz	w1, w1, #2, #6
   84388:	381fd041 	sturb	w1, [x2, #-3]
   8438c:	381fe044 	sturb	w4, [x2, #-2]
   84390:	54fffe01 	b.ne	84350 <CvtBmpLine+0x250>  // b.any
   84394:	17ffff83 	b	841a0 <CvtBmpLine+0xa0>
   84398:	d503201f 	nop
   8439c:	d503201f 	nop

00000000000843a0 <Rectangle>:
   843a0:	b4000120 	cbz	x0, 843c4 <Rectangle+0x24>
   843a4:	a9bf7bfd 	stp	x29, x30, [sp, #-16]!
   843a8:	910003fd 	mov	x29, sp
   843ac:	29469406 	ldp	w6, w5, [x0, #52]
   843b0:	aa0580c5 	orr	x5, x6, x5, lsl #32
   843b4:	d63f00a0 	blr	x5
   843b8:	52800020 	mov	w0, #0x1                   	// #1
   843bc:	a8c17bfd 	ldp	x29, x30, [sp], #16
   843c0:	d65f03c0 	ret
   843c4:	52800000 	mov	w0, #0x0                   	// #0
   843c8:	d65f03c0 	ret
   843cc:	d503201f 	nop

00000000000843d0 <PiConsole_Init>:
   843d0:	d104c3ff 	sub	sp, sp, #0x130
   843d4:	7100001f 	cmp	w0, #0x0
   843d8:	7a401824 	ccmp	w1, #0x0, #0x4, ne  // ne = any
   843dc:	a9097bfd 	stp	x29, x30, [sp, #144]
   843e0:	910243fd 	add	x29, sp, #0x90
   843e4:	a90a53f3 	stp	x19, x20, [sp, #160]
   843e8:	2a0003f3 	mov	w19, w0
   843ec:	a90b5bf5 	stp	x21, x22, [sp, #176]
   843f0:	2a0103f4 	mov	w20, w1
   843f4:	f90063f7 	str	x23, [sp, #192]
   843f8:	2a0203f5 	mov	w21, w2
   843fc:	aa0303f7 	mov	x23, x3
   84400:	54000760 	b.eq	844ec <PiConsole_Init+0x11c>  // b.none
   84404:	35000195 	cbnz	w21, 84434 <PiConsole_Init+0x64>
   84408:	52800084 	mov	w4, #0x4                   	// #4
   8440c:	52800005 	mov	w5, #0x0                   	// #0
   84410:	2a0403e3 	mov	w3, w4
   84414:	528000a2 	mov	w2, #0x5                   	// #5
   84418:	72a00082 	movk	w2, #0x4, lsl #16
   8441c:	2a0403e1 	mov	w1, w4
   84420:	910103a0 	add	x0, x29, #0x40
   84424:	97fffb2f 	bl	830e0 <mailbox_tag_message.constprop.6>
   84428:	72001c1f 	tst	w0, #0xff
   8442c:	54000500 	b.eq	844cc <PiConsole_Init+0xfc>  // b.none
   84430:	b9404fb5 	ldr	w21, [x29, #76]
   84434:	52800080 	mov	w0, #0x4                   	// #4
   84438:	52800202 	mov	w2, #0x10                  	// #16
   8443c:	52800104 	mov	w4, #0x8                   	// #8
   84440:	b9002be0 	str	w0, [sp, #40]
   84444:	b90033e0 	str	w0, [sp, #48]
   84448:	52800101 	mov	w1, #0x8                   	// #8
   8444c:	72a00081 	movk	w1, #0x4, lsl #16
   84450:	b9006be1 	str	w1, [sp, #104]
   84454:	b90003e4 	str	w4, [sp]
   84458:	52900087 	mov	w7, #0x8004                	// #32772
   8445c:	72a00087 	movk	w7, #0x4, lsl #16
   84460:	b9000be4 	str	w4, [sp, #8]
   84464:	2a1403e6 	mov	w6, w20
   84468:	b90013f3 	str	w19, [sp, #16]
   8446c:	2a1303e5 	mov	w5, w19
   84470:	b9001bf4 	str	w20, [sp, #24]
   84474:	2a0403e3 	mov	w3, w4
   84478:	b9003bf5 	str	w21, [sp, #56]
   8447c:	528002e1 	mov	w1, #0x17                  	// #23
   84480:	b9004be4 	str	w4, [sp, #72]
   84484:	b90053e0 	str	w0, [sp, #80]
   84488:	b9005be2 	str	w2, [sp, #88]
   8448c:	52800022 	mov	w2, #0x1                   	// #1
   84490:	72a00082 	movk	w2, #0x4, lsl #16
   84494:	b90043e2 	str	w2, [sp, #64]
   84498:	b90063ff 	str	wzr, [sp, #96]
   8449c:	52900062 	mov	w2, #0x8003                	// #32771
   844a0:	72a00082 	movk	w2, #0x4, lsl #16
   844a4:	b90073e0 	str	w0, [sp, #112]
   844a8:	529000a0 	mov	w0, #0x8005                	// #32773
   844ac:	72a00080 	movk	w0, #0x4, lsl #16
   844b0:	b90023e0 	str	w0, [sp, #32]
   844b4:	b9007bff 	str	wzr, [sp, #120]
   844b8:	910103a0 	add	x0, x29, #0x40
   844bc:	b90083ff 	str	wzr, [sp, #128]
   844c0:	97fffa5c 	bl	82e30 <mailbox_tag_message.constprop.7>
   844c4:	72001c16 	ands	w22, w0, #0xff
   844c8:	54000361 	b.ne	84534 <PiConsole_Init+0x164>  // b.any
   844cc:	52800016 	mov	w22, #0x0                   	// #0
   844d0:	2a1603e0 	mov	w0, w22
   844d4:	f94063f7 	ldr	x23, [sp, #192]
   844d8:	a9497bfd 	ldp	x29, x30, [sp, #144]
   844dc:	a94a53f3 	ldp	x19, x20, [sp, #160]
   844e0:	a94b5bf5 	ldp	x21, x22, [sp, #176]
   844e4:	9104c3ff 	add	sp, sp, #0x130
   844e8:	d65f03c0 	ret
   844ec:	52800006 	mov	w6, #0x0                   	// #0
   844f0:	52800005 	mov	w5, #0x0                   	// #0
   844f4:	52800004 	mov	w4, #0x0                   	// #0
   844f8:	52800103 	mov	w3, #0x8                   	// #8
   844fc:	52800062 	mov	w2, #0x3                   	// #3
   84500:	72a00082 	movk	w2, #0x4, lsl #16
   84504:	528000a1 	mov	w1, #0x5                   	// #5
   84508:	910103a0 	add	x0, x29, #0x40
   8450c:	97fffa9d 	bl	82f80 <mailbox_tag_message.constprop.5>
   84510:	72001c1f 	tst	w0, #0xff
   84514:	54fffdc0 	b.eq	844cc <PiConsole_Init+0xfc>  // b.none
   84518:	35000093 	cbnz	w19, 84528 <PiConsole_Init+0x158>
   8451c:	b9404fb3 	ldr	w19, [x29, #76]
   84520:	35fff734 	cbnz	w20, 84404 <PiConsole_Init+0x34>
   84524:	d503201f 	nop
   84528:	b94053b4 	ldr	w20, [x29, #80]
   8452c:	35fff855 	cbnz	w21, 84434 <PiConsole_Init+0x64>
   84530:	17ffffb6 	b	84408 <PiConsole_Init+0x38>
   84534:	b94087a0 	ldr	w0, [x29, #132]
   84538:	97fff0cf 	bl	80874 <GPUaddrToARMaddr>
   8453c:	2a0003e0 	mov	w0, w0
   84540:	90000022 	adrp	x2, 88000 <BitFontEnd+0xc0>
   84544:	91044042 	add	x2, x2, #0x110
   84548:	91001041 	add	x1, x2, #0x4
   8454c:	b9409ba4 	ldr	w4, [x29, #152]
   84550:	12800005 	mov	w5, #0xffffffff            	// #-1
   84554:	32089fe3 	mov	w3, #0xff00ff00            	// #-16711936
   84558:	b9000440 	str	w0, [x2, #4]
   8455c:	710062bf 	cmp	w21, #0x18
   84560:	2900cc3f 	stp	wzr, w19, [x1, #4]
   84564:	2901d434 	stp	w20, w21, [x1, #12]
   84568:	b9001424 	str	w4, [x1, #20]
   8456c:	29057c25 	stp	w5, wzr, [x1, #40]
   84570:	b9003023 	str	w3, [x1, #48]
   84574:	54000260 	b.eq	845c0 <PiConsole_Init+0x1f0>  // b.none
   84578:	710082bf 	cmp	w21, #0x20
   8457c:	54000aa0 	b.eq	846d0 <PiConsole_Init+0x300>  // b.none
   84580:	710042bf 	cmp	w21, #0x10
   84584:	54000660 	b.eq	84650 <PiConsole_Init+0x280>  // b.none
   84588:	b4fffa57 	cbz	x23, 844d0 <PiConsole_Init+0x100>
   8458c:	2a1503e3 	mov	w3, w21
   84590:	2a1403e2 	mov	w2, w20
   84594:	2a1303e1 	mov	w1, w19
   84598:	90000020 	adrp	x0, 88000 <BitFontEnd+0xc0>
   8459c:	9100e000 	add	x0, x0, #0x38
   845a0:	d63f02e0 	blr	x23
   845a4:	2a1603e0 	mov	w0, w22
   845a8:	f94063f7 	ldr	x23, [sp, #192]
   845ac:	a9497bfd 	ldp	x29, x30, [sp, #144]
   845b0:	a94a53f3 	ldp	x19, x20, [sp, #160]
   845b4:	a94b5bf5 	ldp	x21, x22, [sp, #176]
   845b8:	9104c3ff 	add	sp, sp, #0x130
   845bc:	d65f03c0 	ret
   845c0:	52955560 	mov	w0, #0xaaab                	// #43691
   845c4:	72b55540 	movk	w0, #0xaaaa, lsl #16
   845c8:	d0ffffe2 	adrp	x2, 82000 <ClearArea16+0x70>
   845cc:	91134042 	add	x2, x2, #0x4d0
   845d0:	9ba07c84 	umull	x4, w4, w0
   845d4:	d0ffffe8 	adrp	x8, 82000 <ClearArea16+0x70>
   845d8:	91188108 	add	x8, x8, #0x620
   845dc:	d0ffffe0 	adrp	x0, 82000 <ClearArea16+0x70>
   845e0:	91158000 	add	x0, x0, #0x560
   845e4:	d0ffffe7 	adrp	x7, 82000 <ClearArea16+0x70>
   845e8:	911a40e7 	add	x7, x7, #0x690
   845ec:	d0ffffe6 	adrp	x6, 82000 <ClearArea16+0x70>
   845f0:	911cc0c6 	add	x6, x6, #0x730
   845f4:	d0ffffe5 	adrp	x5, 82000 <ClearArea16+0x70>
   845f8:	911f80a5 	add	x5, x5, #0x7e0
   845fc:	d0ffffe3 	adrp	x3, 82000 <ClearArea16+0x70>
   84600:	91224063 	add	x3, x3, #0x890
   84604:	d360fd0d 	lsr	x13, x8, #32
   84608:	d360fcec 	lsr	x12, x7, #32
   8460c:	d360fccb 	lsr	x11, x6, #32
   84610:	d360fcaa 	lsr	x10, x5, #32
   84614:	d360fc69 	lsr	x9, x3, #32
   84618:	d361fc84 	lsr	x4, x4, #33
   8461c:	b9001424 	str	w4, [x1, #20]
   84620:	b9003422 	str	w2, [x1, #52]
   84624:	d360fc42 	lsr	x2, x2, #32
   84628:	b9003822 	str	w2, [x1, #56]
   8462c:	b9003c20 	str	w0, [x1, #60]
   84630:	d360fc00 	lsr	x0, x0, #32
   84634:	b9004020 	str	w0, [x1, #64]
   84638:	2908b428 	stp	w8, w13, [x1, #68]
   8463c:	2909b027 	stp	w7, w12, [x1, #76]
   84640:	290aac26 	stp	w6, w11, [x1, #84]
   84644:	290ba825 	stp	w5, w10, [x1, #92]
   84648:	290ca423 	stp	w3, w9, [x1, #100]
   8464c:	17ffffcf 	b	84588 <PiConsole_Init+0x1b8>
   84650:	b0ffffe8 	adrp	x8, 81000 <setTimerIrqAddress>
   84654:	913e4108 	add	x8, x8, #0xf90
   84658:	d0ffffe7 	adrp	x7, 82000 <ClearArea16+0x70>
   8465c:	910100e7 	add	x7, x7, #0x40
   84660:	d0ffffe6 	adrp	x6, 82000 <ClearArea16+0x70>
   84664:	910480c6 	add	x6, x6, #0x120
   84668:	d0ffffe5 	adrp	x5, 82000 <ClearArea16+0x70>
   8466c:	9106c0a5 	add	x5, x5, #0x1b0
   84670:	d0ffffe3 	adrp	x3, 82000 <ClearArea16+0x70>
   84674:	9109c063 	add	x3, x3, #0x270
   84678:	d0ffffe2 	adrp	x2, 82000 <ClearArea16+0x70>
   8467c:	910dc042 	add	x2, x2, #0x370
   84680:	d0ffffe0 	adrp	x0, 82000 <ClearArea16+0x70>
   84684:	9110c000 	add	x0, x0, #0x430
   84688:	d360fd0e 	lsr	x14, x8, #32
   8468c:	d360fced 	lsr	x13, x7, #32
   84690:	d360fccc 	lsr	x12, x6, #32
   84694:	d360fcab 	lsr	x11, x5, #32
   84698:	d360fc6a 	lsr	x10, x3, #32
   8469c:	d360fc49 	lsr	x9, x2, #32
   846a0:	53017c84 	lsr	w4, w4, #1
   846a4:	b9001424 	str	w4, [x1, #20]
   846a8:	2906b828 	stp	w8, w14, [x1, #52]
   846ac:	2907b427 	stp	w7, w13, [x1, #60]
   846b0:	d360fc07 	lsr	x7, x0, #32
   846b4:	2908b026 	stp	w6, w12, [x1, #68]
   846b8:	2909ac25 	stp	w5, w11, [x1, #76]
   846bc:	290aa823 	stp	w3, w10, [x1, #84]
   846c0:	290ba422 	stp	w2, w9, [x1, #92]
   846c4:	b9006420 	str	w0, [x1, #100]
   846c8:	b9006827 	str	w7, [x1, #104]
   846cc:	17ffffaf 	b	84588 <PiConsole_Init+0x1b8>
   846d0:	d0ffffe8 	adrp	x8, 82000 <ClearArea16+0x70>
   846d4:	91250108 	add	x8, x8, #0x940
   846d8:	d0ffffe7 	adrp	x7, 82000 <ClearArea16+0x70>
   846dc:	912700e7 	add	x7, x7, #0x9c0
   846e0:	d0ffffe6 	adrp	x6, 82000 <ClearArea16+0x70>
   846e4:	912940c6 	add	x6, x6, #0xa50
   846e8:	d0ffffe5 	adrp	x5, 82000 <ClearArea16+0x70>
   846ec:	912ac0a5 	add	x5, x5, #0xab0
   846f0:	d0ffffe3 	adrp	x3, 82000 <ClearArea16+0x70>
   846f4:	912d0063 	add	x3, x3, #0xb40
   846f8:	d0ffffe2 	adrp	x2, 82000 <ClearArea16+0x70>
   846fc:	912fc042 	add	x2, x2, #0xbf0
   84700:	d0ffffe0 	adrp	x0, 82000 <ClearArea16+0x70>
   84704:	91320000 	add	x0, x0, #0xc80
   84708:	d360fd0e 	lsr	x14, x8, #32
   8470c:	d360fced 	lsr	x13, x7, #32
   84710:	d360fccc 	lsr	x12, x6, #32
   84714:	d360fcab 	lsr	x11, x5, #32
   84718:	d360fc6a 	lsr	x10, x3, #32
   8471c:	d360fc49 	lsr	x9, x2, #32
   84720:	53027c84 	lsr	w4, w4, #2
   84724:	17ffffe0 	b	846a4 <PiConsole_Init+0x2d4>
   84728:	d503201f 	nop
   8472c:	d503201f 	nop

0000000000084730 <GetConsoleDC>:
   84730:	90000020 	adrp	x0, 88000 <BitFontEnd+0xc0>
   84734:	91044000 	add	x0, x0, #0x110
   84738:	91001000 	add	x0, x0, #0x4
   8473c:	d65f03c0 	ret

0000000000084740 <GetConsole_FrameBuffer>:
   84740:	90000020 	adrp	x0, 88000 <BitFontEnd+0xc0>
   84744:	b9411400 	ldr	w0, [x0, #276]
   84748:	d65f03c0 	ret
   8474c:	d503201f 	nop

0000000000084750 <GetConsole_Width>:
   84750:	90000020 	adrp	x0, 88000 <BitFontEnd+0xc0>
   84754:	b9411c00 	ldr	w0, [x0, #284]
   84758:	d65f03c0 	ret
   8475c:	d503201f 	nop

0000000000084760 <GetConsole_Height>:
   84760:	90000020 	adrp	x0, 88000 <BitFontEnd+0xc0>
   84764:	b9412000 	ldr	w0, [x0, #288]
   84768:	d65f03c0 	ret
   8476c:	d503201f 	nop

0000000000084770 <WhereXY>:
   84770:	b4000080 	cbz	x0, 84780 <WhereXY+0x10>
   84774:	90000022 	adrp	x2, 88000 <BitFontEnd+0xc0>
   84778:	b9413442 	ldr	w2, [x2, #308]
   8477c:	b9000002 	str	w2, [x0]
   84780:	b4000081 	cbz	x1, 84790 <WhereXY+0x20>
   84784:	90000020 	adrp	x0, 88000 <BitFontEnd+0xc0>
   84788:	b9413800 	ldr	w0, [x0, #312]
   8478c:	b9000020 	str	w0, [x1]
   84790:	d65f03c0 	ret
   84794:	d503201f 	nop
   84798:	d503201f 	nop
   8479c:	d503201f 	nop

00000000000847a0 <GotoXY>:
   847a0:	90000022 	adrp	x2, 88000 <BitFontEnd+0xc0>
   847a4:	91044042 	add	x2, x2, #0x110
   847a8:	29048440 	stp	w0, w1, [x2, #36]
   847ac:	d65f03c0 	ret

00000000000847b0 <_sbrk>:
   847b0:	90000022 	adrp	x2, 88000 <BitFontEnd+0xc0>
   847b4:	91044042 	add	x2, x2, #0x110
   847b8:	b00000a3 	adrp	x3, 99000 <__EL2_stack_core3+0x7460>
   847bc:	912e8063 	add	x3, x3, #0xba0
   847c0:	f9403841 	ldr	x1, [x2, #112]
   847c4:	f100003f 	cmp	x1, #0x0
   847c8:	9a810061 	csel	x1, x3, x1, eq  // eq = none
   847cc:	8b20c023 	add	x3, x1, w0, sxtw
   847d0:	aa0103e0 	mov	x0, x1
   847d4:	f9003843 	str	x3, [x2, #112]
   847d8:	d65f03c0 	ret
   847dc:	00000000 	.inst	0x00000000 ; undefined

00000000000847e0 <c_irq_handler>:
   847e0:	a9bf7bfd 	stp	x29, x30, [sp, #-16]!
   847e4:	910003fd 	mov	x29, sp
   847e8:	90000021 	adrp	x1, 88000 <BitFontEnd+0xc0>
   847ec:	39462020 	ldrb	w0, [x1, #392]
   847f0:	350000e0 	cbnz	w0, 8480c <c_irq_handler+0x2c>
   847f4:	52800022 	mov	w2, #0x1                   	// #1
   847f8:	52800020 	mov	w0, #0x1                   	// #1
   847fc:	39062022 	strb	w2, [x1, #392]
   84800:	97fffc4c 	bl	83930 <set_Activity_LED>
   84804:	a8c17bfd 	ldp	x29, x30, [sp], #16
   84808:	17fffc02 	b	83810 <ClearTimerIrq>
   8480c:	3906203f 	strb	wzr, [x1, #392]
   84810:	52800000 	mov	w0, #0x0                   	// #0
   84814:	97fffc47 	bl	83930 <set_Activity_LED>
   84818:	a8c17bfd 	ldp	x29, x30, [sp], #16
   8481c:	17fffbfd 	b	83810 <ClearTimerIrq>

0000000000084820 <kernel_main>:
   84820:	a9bb7bfd 	stp	x29, x30, [sp, #-80]!
   84824:	f0ffffe0 	adrp	x0, 83000 <mailbox_tag_message.constprop.5+0x80>
   84828:	91328000 	add	x0, x0, #0xca0
   8482c:	910003fd 	mov	x29, sp
   84830:	a90153f3 	stp	x19, x20, [sp, #16]
   84834:	d0000013 	adrp	x19, 86000 <_doprnt+0x30>
   84838:	912a4273 	add	x19, x19, #0xa90
   8483c:	f90013f5 	str	x21, [sp, #32]
   84840:	94000890 	bl	86a80 <Init_EmbStdio>
   84844:	aa1303e3 	mov	x3, x19
   84848:	52800002 	mov	w2, #0x0                   	// #0
   8484c:	52800001 	mov	w1, #0x0                   	// #0
   84850:	52800000 	mov	w0, #0x0                   	// #0
   84854:	97fffedf 	bl	843d0 <PiConsole_Init>
   84858:	90000034 	adrp	x20, 88000 <BitFontEnd+0xc0>
   8485c:	9101e294 	add	x20, x20, #0x78
   84860:	aa1303e0 	mov	x0, x19
   84864:	97fffccf 	bl	83ba0 <displaySmartStart>
   84868:	aa1303e0 	mov	x0, x19
   8486c:	97fffca1 	bl	83af0 <ARM_setmaxspeed>
   84870:	52800104 	mov	w4, #0x8                   	// #8
   84874:	52800006 	mov	w6, #0x0                   	// #0
   84878:	52800085 	mov	w5, #0x4                   	// #4
   8487c:	2a0403e3 	mov	w3, w4
   84880:	528000a1 	mov	w1, #0x5                   	// #5
   84884:	52800042 	mov	w2, #0x2                   	// #2
   84888:	72a00062 	movk	w2, #0x3, lsl #16
   8488c:	9100e3a0 	add	x0, x29, #0x38
   84890:	a903ffbf 	stp	xzr, xzr, [x29, #56]
   84894:	b9004bbf 	str	wzr, [x29, #72]
   84898:	97fffb7a 	bl	83680 <mailbox_tag_message>
   8489c:	b9404ba1 	ldr	w1, [x29, #72]
   848a0:	90000020 	adrp	x0, 88000 <BitFontEnd+0xc0>
   848a4:	91020000 	add	x0, x0, #0x80
   848a8:	90000035 	adrp	x21, 88000 <BitFontEnd+0xc0>
   848ac:	9102a2b5 	add	x21, x21, #0xa8
   848b0:	52800013 	mov	w19, #0x0                   	// #0
   848b4:	94000877 	bl	86a90 <printf>
   848b8:	90000001 	adrp	x1, 84000 <TextOut+0x70>
   848bc:	911f8021 	add	x1, x1, #0x7e0
   848c0:	52942400 	mov	w0, #0xa120                	// #41248
   848c4:	72a000e0 	movk	w0, #0x7, lsl #16
   848c8:	97fffbda 	bl	83830 <TimerIrqSetup>
   848cc:	97ffefcd 	bl	80800 <EnableInterrupts>
   848d0:	52800f81 	mov	w1, #0x7c                  	// #124
   848d4:	d503201f 	nop
   848d8:	11000673 	add	w19, w19, #0x1
   848dc:	aa1503e0 	mov	x0, x21
   848e0:	12000673 	and	w19, w19, #0x3
   848e4:	9400086b 	bl	86a90 <printf>
   848e8:	d2986a00 	mov	x0, #0xc350                	// #50000
   848ec:	97fffb25 	bl	83580 <timer_wait>
   848f0:	3873ca81 	ldrb	w1, [x20, w19, sxtw]
   848f4:	17fffff9 	b	848d8 <kernel_main+0xb8>
	...

0000000000084900 <prn_to_buf>:
   84900:	90000023 	adrp	x3, 88000 <BitFontEnd+0xc0>
   84904:	b9419062 	ldr	w2, [x3, #400]
   84908:	90000024 	adrp	x4, 88000 <BitFontEnd+0xc0>
   8490c:	b9410c84 	ldr	w4, [x4, #268]
   84910:	6b04005f 	cmp	w2, w4
   84914:	540000ca 	b.ge	8492c <prn_to_buf+0x2c>  // b.tcont
   84918:	f9400024 	ldr	x4, [x1]
   8491c:	11000442 	add	w2, w2, #0x1
   84920:	b9019062 	str	w2, [x3, #400]
   84924:	38001480 	strb	w0, [x4], #1
   84928:	f9000024 	str	x4, [x1]
   8492c:	d65f03c0 	ret

0000000000084930 <prn_to_func>:
   84930:	a9be7bfd 	stp	x29, x30, [sp, #-32]!
   84934:	90000023 	adrp	x3, 88000 <BitFontEnd+0xc0>
   84938:	910003fd 	mov	x29, sp
   8493c:	a90153f3 	stp	x19, x20, [sp, #16]
   84940:	90000033 	adrp	x19, 88000 <BitFontEnd+0xc0>
   84944:	2a0003f4 	mov	w20, w0
   84948:	b9410c60 	ldr	w0, [x3, #268]
   8494c:	b9419262 	ldr	w2, [x19, #400]
   84950:	6b00005f 	cmp	w2, w0
   84954:	540000ca 	b.ge	8496c <prn_to_func+0x3c>  // b.tcont
   84958:	2a1403e0 	mov	w0, w20
   8495c:	d63f0020 	blr	x1
   84960:	b9419260 	ldr	w0, [x19, #400]
   84964:	11000400 	add	w0, w0, #0x1
   84968:	b9019260 	str	w0, [x19, #400]
   8496c:	2a1403e0 	mov	w0, w20
   84970:	a94153f3 	ldp	x19, x20, [sp, #16]
   84974:	a8c27bfd 	ldp	x29, x30, [sp], #32
   84978:	d65f03c0 	ret
   8497c:	d503201f 	nop

0000000000084980 <_doprnt.constprop.1>:
   84980:	a9ae7bfd 	stp	x29, x30, [sp, #-288]!
   84984:	910003fd 	mov	x29, sp
   84988:	a9046bf9 	stp	x25, x26, [sp, #64]
   8498c:	90000039 	adrp	x25, 88000 <BitFontEnd+0xc0>
   84990:	9102e339 	add	x25, x25, #0xb8
   84994:	a90153f3 	stp	x19, x20, [sp, #16]
   84998:	91004325 	add	x5, x25, #0x10
   8499c:	a9025bf5 	stp	x21, x22, [sp, #32]
   849a0:	aa0003f3 	mov	x19, x0
   849a4:	a90573fb 	stp	x27, x28, [sp, #80]
   849a8:	90000035 	adrp	x21, 88000 <BitFontEnd+0xc0>
   849ac:	910642b5 	add	x21, x21, #0x190
   849b0:	aa0203f6 	mov	x22, x2
   849b4:	52800014 	mov	w20, #0x0                   	// #0
   849b8:	b940183b 	ldr	w27, [x1, #24]
   849bc:	a940703a 	ldp	x26, x28, [x1]
   849c0:	1400000d 	b	849f4 <_doprnt.constprop.1+0x74>
   849c4:	90000023 	adrp	x3, 88000 <BitFontEnd+0xc0>
   849c8:	b9410c63 	ldr	w3, [x3, #268]
   849cc:	b94002a1 	ldr	w1, [x21]
   849d0:	6b03003f 	cmp	w1, w3
   849d4:	540000ca 	b.ge	849ec <_doprnt.constprop.1+0x6c>  // b.tcont
   849d8:	f94002c3 	ldr	x3, [x22]
   849dc:	11000421 	add	w1, w1, #0x1
   849e0:	b90002a1 	str	w1, [x21]
   849e4:	38001460 	strb	w0, [x3], #1
   849e8:	f90002c3 	str	x3, [x22]
   849ec:	11000694 	add	w20, w20, #0x1
   849f0:	aa0403f3 	mov	x19, x4
   849f4:	39400260 	ldrb	w0, [x19]
   849f8:	34000120 	cbz	w0, 84a1c <_doprnt.constprop.1+0x9c>
   849fc:	91000664 	add	x4, x19, #0x1
   84a00:	7100941f 	cmp	w0, #0x25
   84a04:	54fffe01 	b.ne	849c4 <_doprnt.constprop.1+0x44>  // b.any
   84a08:	39400661 	ldrb	w1, [x19, #1]
   84a0c:	7100943f 	cmp	w1, #0x25
   84a10:	54000141 	b.ne	84a38 <_doprnt.constprop.1+0xb8>  // b.any
   84a14:	91000a64 	add	x4, x19, #0x2
   84a18:	17ffffeb 	b	849c4 <_doprnt.constprop.1+0x44>
   84a1c:	2a1403e0 	mov	w0, w20
   84a20:	a94153f3 	ldp	x19, x20, [sp, #16]
   84a24:	a9425bf5 	ldp	x21, x22, [sp, #32]
   84a28:	a9446bf9 	ldp	x25, x26, [sp, #64]
   84a2c:	a94573fb 	ldp	x27, x28, [sp, #80]
   84a30:	a8d27bfd 	ldp	x29, x30, [sp], #288
   84a34:	d65f03c0 	ret
   84a38:	aa0403f3 	mov	x19, x4
   84a3c:	a90363b7 	stp	x23, x24, [x29, #48]
   84a40:	52800406 	mov	w6, #0x20                  	// #32
   84a44:	52800009 	mov	w9, #0x0                   	// #0
   84a48:	52800007 	mov	w7, #0x0                   	// #0
   84a4c:	7100b43f 	cmp	w1, #0x2d
   84a50:	54000280 	b.eq	84aa0 <_doprnt.constprop.1+0x120>  // b.none
   84a54:	7100c03f 	cmp	w1, #0x30
   84a58:	54000300 	b.eq	84ab8 <_doprnt.constprop.1+0x138>  // b.none
   84a5c:	71008c3f 	cmp	w1, #0x23
   84a60:	54000260 	b.eq	84aac <_doprnt.constprop.1+0x12c>  // b.none
   84a64:	7100a83f 	cmp	w1, #0x2a
   84a68:	540002e1 	b.ne	84ac4 <_doprnt.constprop.1+0x144>  // b.any
   84a6c:	37f84b9b 	tbnz	w27, #31, 853dc <_doprnt.constprop.1+0xa5c>
   84a70:	91002f42 	add	x2, x26, #0xb
   84a74:	aa1a03e1 	mov	x1, x26
   84a78:	927df05a 	and	x26, x2, #0xfffffffffffffff8
   84a7c:	b9400038 	ldr	w24, [x1]
   84a80:	91000673 	add	x19, x19, #0x1
   84a84:	39400261 	ldrb	w1, [x19]
   84a88:	36f80398 	tbz	w24, #31, 84af8 <_doprnt.constprop.1+0x178>
   84a8c:	4b1803f8 	neg	w24, w24
   84a90:	52800017 	mov	w23, #0x0                   	// #0
   84a94:	52800027 	mov	w7, #0x1                   	// #1
   84a98:	52800406 	mov	w6, #0x20                  	// #32
   84a9c:	1400001b 	b	84b08 <_doprnt.constprop.1+0x188>
   84aa0:	52800027 	mov	w7, #0x1                   	// #1
   84aa4:	38401e61 	ldrb	w1, [x19, #1]!
   84aa8:	17ffffe9 	b	84a4c <_doprnt.constprop.1+0xcc>
   84aac:	52800029 	mov	w9, #0x1                   	// #1
   84ab0:	38401e61 	ldrb	w1, [x19, #1]!
   84ab4:	17ffffe6 	b	84a4c <_doprnt.constprop.1+0xcc>
   84ab8:	2a0103e6 	mov	w6, w1
   84abc:	38401e61 	ldrb	w1, [x19, #1]!
   84ac0:	17ffffe3 	b	84a4c <_doprnt.constprop.1+0xcc>
   84ac4:	5100c022 	sub	w2, w1, #0x30
   84ac8:	52800018 	mov	w24, #0x0                   	// #0
   84acc:	12001c43 	and	w3, w2, #0xff
   84ad0:	52800148 	mov	w8, #0xa                   	// #10
   84ad4:	7100247f 	cmp	w3, #0x9
   84ad8:	54000108 	b.hi	84af8 <_doprnt.constprop.1+0x178>  // b.pmore
   84adc:	d503201f 	nop
   84ae0:	38401e61 	ldrb	w1, [x19, #1]!
   84ae4:	1b080b18 	madd	w24, w24, w8, w2
   84ae8:	5100c022 	sub	w2, w1, #0x30
   84aec:	12001c43 	and	w3, w2, #0xff
   84af0:	7100247f 	cmp	w3, #0x9
   84af4:	54ffff69 	b.ls	84ae0 <_doprnt.constprop.1+0x160>  // b.plast
   84af8:	710000ff 	cmp	w7, #0x0
   84afc:	52800402 	mov	w2, #0x20                  	// #32
   84b00:	520000f7 	eor	w23, w7, #0x1
   84b04:	1a8200c6 	csel	w6, w6, w2, eq  // eq = none
   84b08:	12800008 	mov	w8, #0xffffffff            	// #-1
   84b0c:	7100b83f 	cmp	w1, #0x2e
   84b10:	54001540 	b.eq	84db8 <_doprnt.constprop.1+0x438>  // b.none
   84b14:	7101b03f 	cmp	w1, #0x6c
   84b18:	540012a0 	b.eq	84d6c <_doprnt.constprop.1+0x3ec>  // b.none
   84b1c:	52800042 	mov	w2, #0x2                   	// #2
   84b20:	7101a03f 	cmp	w1, #0x68
   84b24:	540015a0 	b.eq	84dd8 <_doprnt.constprop.1+0x458>  // b.none
   84b28:	7101a43f 	cmp	w1, #0x69
   84b2c:	54002a00 	b.eq	8506c <_doprnt.constprop.1+0x6ec>  // b.none
   84b30:	540001a9 	b.ls	84b64 <_doprnt.constprop.1+0x1e4>  // b.plast
   84b34:	7101cc3f 	cmp	w1, #0x73
   84b38:	54003500 	b.eq	851d8 <_doprnt.constprop.1+0x858>  // b.none
   84b3c:	54001788 	b.hi	84e2c <_doprnt.constprop.1+0x4ac>  // b.pmore
   84b40:	7101bc3f 	cmp	w1, #0x6f
   84b44:	540012c0 	b.eq	84d9c <_doprnt.constprop.1+0x41c>  // b.none
   84b48:	7101c03f 	cmp	w1, #0x70
   84b4c:	540024a1 	b.ne	84fe0 <_doprnt.constprop.1+0x660>  // b.any
   84b50:	37f8429b 	tbnz	w27, #31, 853a0 <_doprnt.constprop.1+0xa20>
   84b54:	91003f41 	add	x1, x26, #0xf
   84b58:	aa1a03e0 	mov	x0, x26
   84b5c:	927df03a 	and	x26, x1, #0xfffffffffffffff8
   84b60:	14000217 	b	853bc <_doprnt.constprop.1+0xa3c>
   84b64:	7101883f 	cmp	w1, #0x62
   84b68:	540022e0 	b.eq	84fc4 <_doprnt.constprop.1+0x644>  // b.none
   84b6c:	54002369 	b.ls	84fd8 <_doprnt.constprop.1+0x658>  // b.plast
   84b70:	71018c3f 	cmp	w1, #0x63
   84b74:	54002781 	b.ne	85064 <_doprnt.constprop.1+0x6e4>  // b.any
   84b78:	37f83efb 	tbnz	w27, #31, 85354 <_doprnt.constprop.1+0x9d4>
   84b7c:	91002f41 	add	x1, x26, #0xb
   84b80:	aa1a03e0 	mov	x0, x26
   84b84:	927df03a 	and	x26, x1, #0xfffffffffffffff8
   84b88:	b9400000 	ldr	w0, [x0]
   84b8c:	910243ab 	add	x11, x29, #0x90
   84b90:	390243a0 	strb	w0, [x29, #144]
   84b94:	390247bf 	strb	wzr, [x29, #145]
   84b98:	aa0b03e0 	mov	x0, x11
   84b9c:	f9003ba5 	str	x5, [x29, #112]
   84ba0:	290f9fa6 	stp	w6, w7, [x29, #124]
   84ba4:	91000673 	add	x19, x19, #0x1
   84ba8:	b90087a8 	str	w8, [x29, #132]
   84bac:	f90047ab 	str	x11, [x29, #136]
   84bb0:	94000894 	bl	86e00 <strlen>
   84bb4:	294f9fa6 	ldp	w6, w7, [x29, #124]
   84bb8:	2a0003ec 	mov	w12, w0
   84bbc:	b94087a8 	ldr	w8, [x29, #132]
   84bc0:	7100c0df 	cmp	w6, #0x30
   84bc4:	f9403ba5 	ldr	x5, [x29, #112]
   84bc8:	1a9f02f7 	csel	w23, w23, wzr, eq  // eq = none
   84bcc:	f94047ab 	ldr	x11, [x29, #136]
   84bd0:	37f82dc8 	tbnz	w8, #31, 85188 <_doprnt.constprop.1+0x808>
   84bd4:	6b08001f 	cmp	w0, w8
   84bd8:	52800004 	mov	w4, #0x0                   	// #0
   84bdc:	1a88d00c 	csel	w12, w0, w8, le
   84be0:	5280000a 	mov	w10, #0x0                   	// #0
   84be4:	52800009 	mov	w9, #0x0                   	// #0
   84be8:	52800008 	mov	w8, #0x0                   	// #0
   84bec:	0b080180 	add	w0, w12, w8
   84bf0:	0b040004 	add	w4, w0, w4
   84bf4:	4b040301 	sub	w1, w24, w4
   84bf8:	6b18009f 	cmp	w4, w24
   84bfc:	1a9fb021 	csel	w1, w1, wzr, lt  // lt = tstop
   84c00:	35002877 	cbnz	w23, 8510c <_doprnt.constprop.1+0x78c>
   84c04:	2a0103ee 	mov	w14, w1
   84c08:	34002fca 	cbz	w10, 85200 <_doprnt.constprop.1+0x880>
   84c0c:	90000022 	adrp	x2, 88000 <BitFontEnd+0xc0>
   84c10:	b9410c43 	ldr	w3, [x2, #268]
   84c14:	b94002a0 	ldr	w0, [x21]
   84c18:	2a0803e1 	mov	w1, w8
   84c1c:	1100068d 	add	w13, w20, #0x1
   84c20:	6b03001f 	cmp	w0, w3
   84c24:	5400286a 	b.ge	85130 <_doprnt.constprop.1+0x7b0>  // b.tcont
   84c28:	f94002c2 	ldr	x2, [x22]
   84c2c:	7100095f 	cmp	w10, #0x2
   84c30:	5280060a 	mov	w10, #0x30                  	// #48
   84c34:	11000408 	add	w8, w0, #0x1
   84c38:	aa0203e4 	mov	x4, x2
   84c3c:	b90002a8 	str	w8, [x21]
   84c40:	3800148a 	strb	w10, [x4], #1
   84c44:	f90002c4 	str	x4, [x22]
   84c48:	54000141 	b.ne	84c70 <_doprnt.constprop.1+0x2f0>  // b.any
   84c4c:	6b03011f 	cmp	w8, w3
   84c50:	540000ea 	b.ge	84c6c <_doprnt.constprop.1+0x2ec>  // b.tcont
   84c54:	52800f03 	mov	w3, #0x78                  	// #120
   84c58:	39000443 	strb	w3, [x2, #1]
   84c5c:	11000800 	add	w0, w0, #0x2
   84c60:	91000842 	add	x2, x2, #0x2
   84c64:	b90002a0 	str	w0, [x21]
   84c68:	f90002c2 	str	x2, [x22]
   84c6c:	11000a8d 	add	w13, w20, #0x2
   84c70:	34001cc7 	cbz	w7, 85008 <_doprnt.constprop.1+0x688>
   84c74:	34000189 	cbz	w9, 84ca4 <_doprnt.constprop.1+0x324>
   84c78:	90000022 	adrp	x2, 88000 <BitFontEnd+0xc0>
   84c7c:	b9410c42 	ldr	w2, [x2, #268]
   84c80:	b94002a0 	ldr	w0, [x21]
   84c84:	6b02001f 	cmp	w0, w2
   84c88:	540000ca 	b.ge	84ca0 <_doprnt.constprop.1+0x320>  // b.tcont
   84c8c:	f94002c2 	ldr	x2, [x22]
   84c90:	11000400 	add	w0, w0, #0x1
   84c94:	b90002a0 	str	w0, [x21]
   84c98:	38001449 	strb	w9, [x2], #1
   84c9c:	f90002c2 	str	x2, [x22]
   84ca0:	110005ad 	add	w13, w13, #0x1
   84ca4:	7100003f 	cmp	w1, #0x0
   84ca8:	540002ad 	b.le	84cfc <_doprnt.constprop.1+0x37c>
   84cac:	b94002a2 	ldr	w2, [x21]
   84cb0:	90000020 	adrp	x0, 88000 <BitFontEnd+0xc0>
   84cb4:	b9410c08 	ldr	w8, [x0, #268]
   84cb8:	52800000 	mov	w0, #0x0                   	// #0
   84cbc:	f94002c3 	ldr	x3, [x22]
   84cc0:	52800009 	mov	w9, #0x0                   	// #0
   84cc4:	5280060a 	mov	w10, #0x30                  	// #48
   84cc8:	91000464 	add	x4, x3, #0x1
   84ccc:	11000400 	add	w0, w0, #0x1
   84cd0:	6b08005f 	cmp	w2, w8
   84cd4:	540000ca 	b.ge	84cec <_doprnt.constprop.1+0x36c>  // b.tcont
   84cd8:	3900006a 	strb	w10, [x3]
   84cdc:	11000442 	add	w2, w2, #0x1
   84ce0:	aa0403e3 	mov	x3, x4
   84ce4:	52800029 	mov	w9, #0x1                   	// #1
   84ce8:	f90002c4 	str	x4, [x22]
   84cec:	6b01001f 	cmp	w0, w1
   84cf0:	54fffec1 	b.ne	84cc8 <_doprnt.constprop.1+0x348>  // b.any
   84cf4:	0b0d000d 	add	w13, w0, w13
   84cf8:	350029c9 	cbnz	w9, 85230 <_doprnt.constprop.1+0x8b0>
   84cfc:	7100019f 	cmp	w12, #0x0
   84d00:	5400292d 	b.le	85224 <_doprnt.constprop.1+0x8a4>
   84d04:	90000021 	adrp	x1, 88000 <BitFontEnd+0xc0>
   84d08:	b9410c28 	ldr	w8, [x1, #268]
   84d0c:	51000584 	sub	w4, w12, #0x1
   84d10:	91000563 	add	x3, x11, #0x1
   84d14:	b94002a1 	ldr	w1, [x21]
   84d18:	aa0b03e0 	mov	x0, x11
   84d1c:	f94002c2 	ldr	x2, [x22]
   84d20:	8b030084 	add	x4, x4, x3
   84d24:	52800009 	mov	w9, #0x0                   	// #0
   84d28:	91000443 	add	x3, x2, #0x1
   84d2c:	6b08003f 	cmp	w1, w8
   84d30:	540000ea 	b.ge	84d4c <_doprnt.constprop.1+0x3cc>  // b.tcont
   84d34:	39400009 	ldrb	w9, [x0]
   84d38:	11000421 	add	w1, w1, #0x1
   84d3c:	39000049 	strb	w9, [x2]
   84d40:	aa0303e2 	mov	x2, x3
   84d44:	52800029 	mov	w9, #0x1                   	// #1
   84d48:	f90002c3 	str	x3, [x22]
   84d4c:	91000400 	add	x0, x0, #0x1
   84d50:	eb04001f 	cmp	x0, x4
   84d54:	54fffea1 	b.ne	84d28 <_doprnt.constprop.1+0x3a8>  // b.any
   84d58:	0b0c01b4 	add	w20, w13, w12
   84d5c:	35002e69 	cbnz	w9, 85328 <_doprnt.constprop.1+0x9a8>
   84d60:	350019c7 	cbnz	w7, 85098 <_doprnt.constprop.1+0x718>
   84d64:	a94363b7 	ldp	x23, x24, [x29, #48]
   84d68:	17ffff23 	b	849f4 <_doprnt.constprop.1+0x74>
   84d6c:	39400661 	ldrb	w1, [x19, #1]
   84d70:	91000663 	add	x3, x19, #0x1
   84d74:	7101a43f 	cmp	w1, #0x69
   84d78:	540009e0 	b.eq	84eb4 <_doprnt.constprop.1+0x534>  // b.none
   84d7c:	540008c9 	b.ls	84e94 <_doprnt.constprop.1+0x514>  // b.plast
   84d80:	7101cc3f 	cmp	w1, #0x73
   84d84:	54002280 	b.eq	851d4 <_doprnt.constprop.1+0x854>  // b.none
   84d88:	54001308 	b.hi	84fe8 <_doprnt.constprop.1+0x668>  // b.pmore
   84d8c:	aa0303f3 	mov	x19, x3
   84d90:	7101bc3f 	cmp	w1, #0x6f
   84d94:	54ffeda1 	b.ne	84b48 <_doprnt.constprop.1+0x1c8>  // b.any
   84d98:	52800062 	mov	w2, #0x3                   	// #3
   84d9c:	7100053f 	cmp	w9, #0x1
   84da0:	54001aa0 	b.eq	850f4 <_doprnt.constprop.1+0x774>  // b.none
   84da4:	5280006e 	mov	w14, #0x3                   	// #3
   84da8:	52800001 	mov	w1, #0x0                   	// #0
   84dac:	d280010b 	mov	x11, #0x8                   	// #8
   84db0:	52800003 	mov	w3, #0x0                   	// #0
   84db4:	14000030 	b	84e74 <_doprnt.constprop.1+0x4f4>
   84db8:	39400661 	ldrb	w1, [x19, #1]
   84dbc:	7100a83f 	cmp	w1, #0x2a
   84dc0:	54000181 	b.ne	84df0 <_doprnt.constprop.1+0x470>  // b.any
   84dc4:	37f82d9b 	tbnz	w27, #31, 85374 <_doprnt.constprop.1+0x9f4>
   84dc8:	91002f41 	add	x1, x26, #0xb
   84dcc:	aa1a03e2 	mov	x2, x26
   84dd0:	927df03a 	and	x26, x1, #0xfffffffffffffff8
   84dd4:	1400016f 	b	85390 <_doprnt.constprop.1+0xa10>
   84dd8:	39400661 	ldrb	w1, [x19, #1]
   84ddc:	7101a03f 	cmp	w1, #0x68
   84de0:	54001f20 	b.eq	851c4 <_doprnt.constprop.1+0x844>  // b.none
   84de4:	91000673 	add	x19, x19, #0x1
   84de8:	52800022 	mov	w2, #0x1                   	// #1
   84dec:	17ffff4f 	b	84b28 <_doprnt.constprop.1+0x1a8>
   84df0:	5100c022 	sub	w2, w1, #0x30
   84df4:	91000673 	add	x19, x19, #0x1
   84df8:	12001c43 	and	w3, w2, #0xff
   84dfc:	52800008 	mov	w8, #0x0                   	// #0
   84e00:	7100247f 	cmp	w3, #0x9
   84e04:	5280014a 	mov	w10, #0xa                   	// #10
   84e08:	54ffe868 	b.hi	84b14 <_doprnt.constprop.1+0x194>  // b.pmore
   84e0c:	d503201f 	nop
   84e10:	38401e61 	ldrb	w1, [x19, #1]!
   84e14:	1b0a0908 	madd	w8, w8, w10, w2
   84e18:	5100c022 	sub	w2, w1, #0x30
   84e1c:	12001c43 	and	w3, w2, #0xff
   84e20:	7100247f 	cmp	w3, #0x9
   84e24:	54ffff69 	b.ls	84e10 <_doprnt.constprop.1+0x490>  // b.plast
   84e28:	17ffff3b 	b	84b14 <_doprnt.constprop.1+0x194>
   84e2c:	7101d43f 	cmp	w1, #0x75
   84e30:	540001a0 	b.eq	84e64 <_doprnt.constprop.1+0x4e4>  // b.none
   84e34:	52800003 	mov	w3, #0x0                   	// #0
   84e38:	7101e03f 	cmp	w1, #0x78
   84e3c:	54000d21 	b.ne	84fe0 <_doprnt.constprop.1+0x660>  // b.any
   84e40:	5280008e 	mov	w14, #0x4                   	// #4
   84e44:	52800001 	mov	w1, #0x0                   	// #0
   84e48:	d280020b 	mov	x11, #0x10                  	// #16
   84e4c:	7100053f 	cmp	w9, #0x1
   84e50:	54000121 	b.ne	84e74 <_doprnt.constprop.1+0x4f4>  // b.any
   84e54:	52800069 	mov	w9, #0x3                   	// #3
   84e58:	14000007 	b	84e74 <_doprnt.constprop.1+0x4f4>
   84e5c:	aa0303f3 	mov	x19, x3
   84e60:	52800062 	mov	w2, #0x3                   	// #3
   84e64:	5280000e 	mov	w14, #0x0                   	// #0
   84e68:	52800001 	mov	w1, #0x0                   	// #0
   84e6c:	d280014b 	mov	x11, #0xa                   	// #10
   84e70:	52800003 	mov	w3, #0x0                   	// #0
   84e74:	71000c5f 	cmp	w2, #0x3
   84e78:	54001e00 	b.eq	85238 <_doprnt.constprop.1+0x8b8>  // b.none
   84e7c:	37f823db 	tbnz	w27, #31, 852f4 <_doprnt.constprop.1+0x974>
   84e80:	aa1a03e0 	mov	x0, x26
   84e84:	91002f42 	add	x2, x26, #0xb
   84e88:	927df05a 	and	x26, x2, #0xfffffffffffffff8
   84e8c:	b9400000 	ldr	w0, [x0]
   84e90:	140000ef 	b	8524c <_doprnt.constprop.1+0x8cc>
   84e94:	aa0303f3 	mov	x19, x3
   84e98:	7101883f 	cmp	w1, #0x62
   84e9c:	54000920 	b.eq	84fc0 <_doprnt.constprop.1+0x640>  // b.none
   84ea0:	54000f29 	b.ls	85084 <_doprnt.constprop.1+0x704>  // b.plast
   84ea4:	71018c3f 	cmp	w1, #0x63
   84ea8:	54ffe680 	b.eq	84b78 <_doprnt.constprop.1+0x1f8>  // b.none
   84eac:	7101903f 	cmp	w1, #0x64
   84eb0:	54000981 	b.ne	84fe0 <_doprnt.constprop.1+0x660>  // b.any
   84eb4:	37f81fdb 	tbnz	w27, #31, 852ac <_doprnt.constprop.1+0x92c>
   84eb8:	91003f41 	add	x1, x26, #0xf
   84ebc:	aa1a03e0 	mov	x0, x26
   84ec0:	927df03a 	and	x26, x1, #0xfffffffffffffff8
   84ec4:	f9400000 	ldr	x0, [x0]
   84ec8:	aa0303f3 	mov	x19, x3
   84ecc:	52800004 	mov	w4, #0x0                   	// #0
   84ed0:	52800009 	mov	w9, #0x0                   	// #0
   84ed4:	b6f80080 	tbz	x0, #63, 84ee4 <_doprnt.constprop.1+0x564>
   84ed8:	cb0003e0 	neg	x0, x0
   84edc:	52800024 	mov	w4, #0x1                   	// #1
   84ee0:	528005a9 	mov	w9, #0x2d                  	// #45
   84ee4:	91000673 	add	x19, x19, #0x1
   84ee8:	5280000e 	mov	w14, #0x0                   	// #0
   84eec:	d280014b 	mov	x11, #0xa                   	// #10
   84ef0:	5280000a 	mov	w10, #0x0                   	// #0
   84ef4:	aa0503ed 	mov	x13, x5
   84ef8:	390363bf 	strb	wzr, [x29, #216]
   84efc:	3500122e 	cbnz	w14, 85140 <_doprnt.constprop.1+0x7c0>
   84f00:	9acb0802 	udiv	x2, x0, x11
   84f04:	9b0b8040 	msub	x0, x2, x11, x0
   84f08:	386069a0 	ldrb	w0, [x13, x0]
   84f0c:	390367a0 	strb	w0, [x29, #217]
   84f10:	b4001802 	cbz	x2, 85210 <_doprnt.constprop.1+0x890>
   84f14:	910363ac 	add	x12, x29, #0xd8
   84f18:	d2800043 	mov	x3, #0x2                   	// #2
   84f1c:	d503201f 	nop
   84f20:	9acb0840 	udiv	x0, x2, x11
   84f24:	9b0b8801 	msub	x1, x0, x11, x2
   84f28:	aa0003e2 	mov	x2, x0
   84f2c:	386169a0 	ldrb	w0, [x13, x1]
   84f30:	2a0303e1 	mov	w1, w3
   84f34:	38236980 	strb	w0, [x12, x3]
   84f38:	91000463 	add	x3, x3, #0x1
   84f3c:	b5ffff22 	cbnz	x2, 84f20 <_doprnt.constprop.1+0x5a0>
   84f40:	51000423 	sub	w3, w1, #0x1
   84f44:	93407c22 	sxtw	x2, w1
   84f48:	91000442 	add	x2, x2, #0x1
   84f4c:	910243a1 	add	x1, x29, #0x90
   84f50:	8b23c183 	add	x3, x12, w3, sxtw
   84f54:	8b020022 	add	x2, x1, x2
   84f58:	14000002 	b	84f60 <_doprnt.constprop.1+0x5e0>
   84f5c:	385ff460 	ldrb	w0, [x3], #-1
   84f60:	38001420 	strb	w0, [x1], #1
   84f64:	eb02003f 	cmp	x1, x2
   84f68:	54ffffa1 	b.ne	84f5c <_doprnt.constprop.1+0x5dc>  // b.any
   84f6c:	f90037a5 	str	x5, [x29, #104]
   84f70:	910243a0 	add	x0, x29, #0x90
   84f74:	b90073a9 	str	w9, [x29, #112]
   84f78:	290f2ba4 	stp	w4, w10, [x29, #120]
   84f7c:	29101fa6 	stp	w6, w7, [x29, #128]
   84f80:	b9008ba8 	str	w8, [x29, #136]
   84f84:	9400079f 	bl	86e00 <strlen>
   84f88:	b9408ba8 	ldr	w8, [x29, #136]
   84f8c:	2a0003ec 	mov	w12, w0
   84f90:	b94073a9 	ldr	w9, [x29, #112]
   84f94:	294f2ba4 	ldp	w4, w10, [x29, #120]
   84f98:	29501fa6 	ldp	w6, w7, [x29, #128]
   84f9c:	f94037a5 	ldr	x5, [x29, #104]
   84fa0:	37f80fe8 	tbnz	w8, #31, 8519c <_doprnt.constprop.1+0x81c>
   84fa4:	6b08001f 	cmp	w0, w8
   84fa8:	5400104a 	b.ge	851b0 <_doprnt.constprop.1+0x830>  // b.tcont
   84fac:	4b000108 	sub	w8, w8, w0
   84fb0:	52800017 	mov	w23, #0x0                   	// #0
   84fb4:	910243ab 	add	x11, x29, #0x90
   84fb8:	52800406 	mov	w6, #0x20                  	// #32
   84fbc:	17ffff0c 	b	84bec <_doprnt.constprop.1+0x26c>
   84fc0:	52800062 	mov	w2, #0x3                   	// #3
   84fc4:	5280002e 	mov	w14, #0x1                   	// #1
   84fc8:	52800001 	mov	w1, #0x0                   	// #0
   84fcc:	d280004b 	mov	x11, #0x2                   	// #2
   84fd0:	52800003 	mov	w3, #0x0                   	// #0
   84fd4:	17ffffa8 	b	84e74 <_doprnt.constprop.1+0x4f4>
   84fd8:	7101603f 	cmp	w1, #0x58
   84fdc:	540005a0 	b.eq	85090 <_doprnt.constprop.1+0x710>  // b.none
   84fe0:	a94363b7 	ldp	x23, x24, [x29, #48]
   84fe4:	17fffe78 	b	849c4 <_doprnt.constprop.1+0x44>
   84fe8:	7101d43f 	cmp	w1, #0x75
   84fec:	54fff380 	b.eq	84e5c <_doprnt.constprop.1+0x4dc>  // b.none
   84ff0:	7101e03f 	cmp	w1, #0x78
   84ff4:	54ffff61 	b.ne	84fe0 <_doprnt.constprop.1+0x660>  // b.any
   84ff8:	aa0303f3 	mov	x19, x3
   84ffc:	52800062 	mov	w2, #0x3                   	// #3
   85000:	52800003 	mov	w3, #0x0                   	// #0
   85004:	17ffff8f 	b	84e40 <_doprnt.constprop.1+0x4c0>
   85008:	34ffe36e 	cbz	w14, 84c74 <_doprnt.constprop.1+0x2f4>
   8500c:	b94002a2 	ldr	w2, [x21]
   85010:	f0000000 	adrp	x0, 88000 <BitFontEnd+0xc0>
   85014:	b9410c08 	ldr	w8, [x0, #268]
   85018:	52800000 	mov	w0, #0x0                   	// #0
   8501c:	f94002c3 	ldr	x3, [x22]
   85020:	5280000a 	mov	w10, #0x0                   	// #0
   85024:	d503201f 	nop
   85028:	91000464 	add	x4, x3, #0x1
   8502c:	11000400 	add	w0, w0, #0x1
   85030:	6b02011f 	cmp	w8, w2
   85034:	540000cd 	b.le	8504c <_doprnt.constprop.1+0x6cc>
   85038:	39000066 	strb	w6, [x3]
   8503c:	11000442 	add	w2, w2, #0x1
   85040:	aa0403e3 	mov	x3, x4
   85044:	5280002a 	mov	w10, #0x1                   	// #1
   85048:	f90002c4 	str	x4, [x22]
   8504c:	6b0e001f 	cmp	w0, w14
   85050:	54fffec1 	b.ne	85028 <_doprnt.constprop.1+0x6a8>  // b.any
   85054:	0b0d000d 	add	w13, w0, w13
   85058:	35001d2a 	cbnz	w10, 853fc <_doprnt.constprop.1+0xa7c>
   8505c:	2a0003ee 	mov	w14, w0
   85060:	17ffff05 	b	84c74 <_doprnt.constprop.1+0x2f4>
   85064:	7101903f 	cmp	w1, #0x64
   85068:	54fffbc1 	b.ne	84fe0 <_doprnt.constprop.1+0x660>  // b.any
   8506c:	37f81d5b 	tbnz	w27, #31, 85414 <_doprnt.constprop.1+0xa94>
   85070:	aa1a03e0 	mov	x0, x26
   85074:	91002f41 	add	x1, x26, #0xb
   85078:	927df03a 	and	x26, x1, #0xfffffffffffffff8
   8507c:	b9800000 	ldrsw	x0, [x0]
   85080:	17ffff93 	b	84ecc <_doprnt.constprop.1+0x54c>
   85084:	52800062 	mov	w2, #0x3                   	// #3
   85088:	7101603f 	cmp	w1, #0x58
   8508c:	54fffaa1 	b.ne	84fe0 <_doprnt.constprop.1+0x660>  // b.any
   85090:	52800023 	mov	w3, #0x1                   	// #1
   85094:	17ffff6b 	b	84e40 <_doprnt.constprop.1+0x4c0>
   85098:	34ffe66e 	cbz	w14, 84d64 <_doprnt.constprop.1+0x3e4>
   8509c:	b94002a1 	ldr	w1, [x21]
   850a0:	f0000000 	adrp	x0, 88000 <BitFontEnd+0xc0>
   850a4:	b9410c04 	ldr	w4, [x0, #268]
   850a8:	52800000 	mov	w0, #0x0                   	// #0
   850ac:	f94002c2 	ldr	x2, [x22]
   850b0:	52800008 	mov	w8, #0x0                   	// #0
   850b4:	91000443 	add	x3, x2, #0x1
   850b8:	11000400 	add	w0, w0, #0x1
   850bc:	6b04003f 	cmp	w1, w4
   850c0:	540000ca 	b.ge	850d8 <_doprnt.constprop.1+0x758>  // b.tcont
   850c4:	39000046 	strb	w6, [x2]
   850c8:	11000421 	add	w1, w1, #0x1
   850cc:	aa0303e2 	mov	x2, x3
   850d0:	2a0703e8 	mov	w8, w7
   850d4:	f90002c3 	str	x3, [x22]
   850d8:	6b0e001f 	cmp	w0, w14
   850dc:	54fffec1 	b.ne	850b4 <_doprnt.constprop.1+0x734>  // b.any
   850e0:	0b000294 	add	w20, w20, w0
   850e4:	34ffe408 	cbz	w8, 84d64 <_doprnt.constprop.1+0x3e4>
   850e8:	a94363b7 	ldp	x23, x24, [x29, #48]
   850ec:	b90002a1 	str	w1, [x21]
   850f0:	17fffe41 	b	849f4 <_doprnt.constprop.1+0x74>
   850f4:	2a0903e1 	mov	w1, w9
   850f8:	5280006e 	mov	w14, #0x3                   	// #3
   850fc:	d280010b 	mov	x11, #0x8                   	// #8
   85100:	52800003 	mov	w3, #0x0                   	// #0
   85104:	52800049 	mov	w9, #0x2                   	// #2
   85108:	17ffff5b 	b	84e74 <_doprnt.constprop.1+0x4f4>
   8510c:	5280000e 	mov	w14, #0x0                   	// #0
   85110:	2a1403ed 	mov	w13, w20
   85114:	34ffdb0a 	cbz	w10, 84c74 <_doprnt.constprop.1+0x2f4>
   85118:	f0000002 	adrp	x2, 88000 <BitFontEnd+0xc0>
   8511c:	b9410c43 	ldr	w3, [x2, #268]
   85120:	b94002a0 	ldr	w0, [x21]
   85124:	1100068d 	add	w13, w20, #0x1
   85128:	6b03001f 	cmp	w0, w3
   8512c:	54ffd7eb 	b.lt	84c28 <_doprnt.constprop.1+0x2a8>  // b.tstop
   85130:	7100095f 	cmp	w10, #0x2
   85134:	54ffd9e1 	b.ne	84c70 <_doprnt.constprop.1+0x2f0>  // b.any
   85138:	11000a8d 	add	w13, w20, #0x2
   8513c:	17fffecd 	b	84c70 <_doprnt.constprop.1+0x2f0>
   85140:	9280000b 	mov	x11, #0xffffffffffffffff    	// #-1
   85144:	9ace2402 	lsr	x2, x0, x14
   85148:	9ace216b 	lsl	x11, x11, x14
   8514c:	aa2b03eb 	mvn	x11, x11
   85150:	8a000161 	and	x1, x11, x0
   85154:	910363ac 	add	x12, x29, #0xd8
   85158:	386169a0 	ldrb	w0, [x13, x1]
   8515c:	390367a0 	strb	w0, [x29, #217]
   85160:	b40005e2 	cbz	x2, 8521c <_doprnt.constprop.1+0x89c>
   85164:	d2800043 	mov	x3, #0x2                   	// #2
   85168:	8a020160 	and	x0, x11, x2
   8516c:	2a0303e1 	mov	w1, w3
   85170:	9ace2442 	lsr	x2, x2, x14
   85174:	386069a0 	ldrb	w0, [x13, x0]
   85178:	38236980 	strb	w0, [x12, x3]
   8517c:	91000463 	add	x3, x3, #0x1
   85180:	b5ffff42 	cbnz	x2, 85168 <_doprnt.constprop.1+0x7e8>
   85184:	17ffff6f 	b	84f40 <_doprnt.constprop.1+0x5c0>
   85188:	52800004 	mov	w4, #0x0                   	// #0
   8518c:	5280000a 	mov	w10, #0x0                   	// #0
   85190:	52800009 	mov	w9, #0x0                   	// #0
   85194:	52800008 	mov	w8, #0x0                   	// #0
   85198:	17fffe95 	b	84bec <_doprnt.constprop.1+0x26c>
   8519c:	7100c0df 	cmp	w6, #0x30
   851a0:	910243ab 	add	x11, x29, #0x90
   851a4:	1a9f02f7 	csel	w23, w23, wzr, eq  // eq = none
   851a8:	52800008 	mov	w8, #0x0                   	// #0
   851ac:	17fffe90 	b	84bec <_doprnt.constprop.1+0x26c>
   851b0:	910243ab 	add	x11, x29, #0x90
   851b4:	52800017 	mov	w23, #0x0                   	// #0
   851b8:	52800008 	mov	w8, #0x0                   	// #0
   851bc:	52800406 	mov	w6, #0x20                  	// #32
   851c0:	17fffe8b 	b	84bec <_doprnt.constprop.1+0x26c>
   851c4:	39400a61 	ldrb	w1, [x19, #2]
   851c8:	52800002 	mov	w2, #0x0                   	// #0
   851cc:	91000a73 	add	x19, x19, #0x2
   851d0:	17fffe56 	b	84b28 <_doprnt.constprop.1+0x1a8>
   851d4:	aa0303f3 	mov	x19, x3
   851d8:	37f80afb 	tbnz	w27, #31, 85334 <_doprnt.constprop.1+0x9b4>
   851dc:	91003f41 	add	x1, x26, #0xf
   851e0:	aa1a03e0 	mov	x0, x26
   851e4:	927df03a 	and	x26, x1, #0xfffffffffffffff8
   851e8:	f940000b 	ldr	x11, [x0]
   851ec:	f0000000 	adrp	x0, 88000 <BitFontEnd+0xc0>
   851f0:	91036000 	add	x0, x0, #0xd8
   851f4:	f100017f 	cmp	x11, #0x0
   851f8:	9a8b000b 	csel	x11, x0, x11, eq  // eq = none
   851fc:	17fffe67 	b	84b98 <_doprnt.constprop.1+0x218>
   85200:	2a1403ed 	mov	w13, w20
   85204:	2a0803e1 	mov	w1, w8
   85208:	35ffd367 	cbnz	w7, 84c74 <_doprnt.constprop.1+0x2f4>
   8520c:	17ffff7f 	b	85008 <_doprnt.constprop.1+0x688>
   85210:	52800021 	mov	w1, #0x1                   	// #1
   85214:	910363ac 	add	x12, x29, #0xd8
   85218:	17ffff4a 	b	84f40 <_doprnt.constprop.1+0x5c0>
   8521c:	52800021 	mov	w1, #0x1                   	// #1
   85220:	17ffff48 	b	84f40 <_doprnt.constprop.1+0x5c0>
   85224:	2a0d03f4 	mov	w20, w13
   85228:	34ffd9e7 	cbz	w7, 84d64 <_doprnt.constprop.1+0x3e4>
   8522c:	17ffff9b 	b	85098 <_doprnt.constprop.1+0x718>
   85230:	b90002a2 	str	w2, [x21]
   85234:	17fffeb2 	b	84cfc <_doprnt.constprop.1+0x37c>
   85238:	37f802bb 	tbnz	w27, #31, 8528c <_doprnt.constprop.1+0x90c>
   8523c:	91003f42 	add	x2, x26, #0xf
   85240:	aa1a03e0 	mov	x0, x26
   85244:	927df05a 	and	x26, x2, #0xfffffffffffffff8
   85248:	f9400000 	ldr	x0, [x0]
   8524c:	f100001f 	cmp	x0, #0x0
   85250:	91000673 	add	x19, x19, #0x1
   85254:	7a401824 	ccmp	w1, #0x0, #0x4, ne  // ne = any
   85258:	540000e0 	b.eq	85274 <_doprnt.constprop.1+0x8f4>  // b.none
   8525c:	52800004 	mov	w4, #0x0                   	// #0
   85260:	52800009 	mov	w9, #0x0                   	// #0
   85264:	5280002a 	mov	w10, #0x1                   	// #1
   85268:	aa1903ed 	mov	x13, x25
   8526c:	35ffe463 	cbnz	w3, 84ef8 <_doprnt.constprop.1+0x578>
   85270:	17ffff21 	b	84ef4 <_doprnt.constprop.1+0x574>
   85274:	71000d3f 	cmp	w9, #0x3
   85278:	540002a1 	b.ne	852cc <_doprnt.constprop.1+0x94c>  // b.any
   8527c:	52800004 	mov	w4, #0x0                   	// #0
   85280:	52800009 	mov	w9, #0x0                   	// #0
   85284:	5280004a 	mov	w10, #0x2                   	// #2
   85288:	17fffff8 	b	85268 <_doprnt.constprop.1+0x8e8>
   8528c:	11002362 	add	w2, w27, #0x8
   85290:	7100005f 	cmp	w2, #0x0
   85294:	5400024d 	b.le	852dc <_doprnt.constprop.1+0x95c>
   85298:	91003f44 	add	x4, x26, #0xf
   8529c:	aa1a03e0 	mov	x0, x26
   852a0:	2a0203fb 	mov	w27, w2
   852a4:	927df09a 	and	x26, x4, #0xfffffffffffffff8
   852a8:	17ffffe8 	b	85248 <_doprnt.constprop.1+0x8c8>
   852ac:	11002361 	add	w1, w27, #0x8
   852b0:	7100003f 	cmp	w1, #0x0
   852b4:	540001ad 	b.le	852e8 <_doprnt.constprop.1+0x968>
   852b8:	91003f42 	add	x2, x26, #0xf
   852bc:	aa1a03e0 	mov	x0, x26
   852c0:	2a0103fb 	mov	w27, w1
   852c4:	927df05a 	and	x26, x2, #0xfffffffffffffff8
   852c8:	17fffeff 	b	84ec4 <_doprnt.constprop.1+0x544>
   852cc:	52800004 	mov	w4, #0x0                   	// #0
   852d0:	52800009 	mov	w9, #0x0                   	// #0
   852d4:	5280000a 	mov	w10, #0x0                   	// #0
   852d8:	17ffffe4 	b	85268 <_doprnt.constprop.1+0x8e8>
   852dc:	8b3bc380 	add	x0, x28, w27, sxtw
   852e0:	2a0203fb 	mov	w27, w2
   852e4:	17ffffd9 	b	85248 <_doprnt.constprop.1+0x8c8>
   852e8:	8b3bc380 	add	x0, x28, w27, sxtw
   852ec:	2a0103fb 	mov	w27, w1
   852f0:	17fffef5 	b	84ec4 <_doprnt.constprop.1+0x544>
   852f4:	11002362 	add	w2, w27, #0x8
   852f8:	7100005f 	cmp	w2, #0x0
   852fc:	540000ed 	b.le	85318 <_doprnt.constprop.1+0x998>
   85300:	aa1a03e0 	mov	x0, x26
   85304:	91002f44 	add	x4, x26, #0xb
   85308:	2a0203fb 	mov	w27, w2
   8530c:	927df09a 	and	x26, x4, #0xfffffffffffffff8
   85310:	b9400000 	ldr	w0, [x0]
   85314:	17ffffce 	b	8524c <_doprnt.constprop.1+0x8cc>
   85318:	8b3bc380 	add	x0, x28, w27, sxtw
   8531c:	2a0203fb 	mov	w27, w2
   85320:	b9400000 	ldr	w0, [x0]
   85324:	17ffffca 	b	8524c <_doprnt.constprop.1+0x8cc>
   85328:	b90002a1 	str	w1, [x21]
   8532c:	34ffd1c7 	cbz	w7, 84d64 <_doprnt.constprop.1+0x3e4>
   85330:	17ffff5a 	b	85098 <_doprnt.constprop.1+0x718>
   85334:	11002361 	add	w1, w27, #0x8
   85338:	7100003f 	cmp	w1, #0x0
   8533c:	5400092d 	b.le	85460 <_doprnt.constprop.1+0xae0>
   85340:	91003f42 	add	x2, x26, #0xf
   85344:	aa1a03e0 	mov	x0, x26
   85348:	2a0103fb 	mov	w27, w1
   8534c:	927df05a 	and	x26, x2, #0xfffffffffffffff8
   85350:	17ffffa6 	b	851e8 <_doprnt.constprop.1+0x868>
   85354:	11002361 	add	w1, w27, #0x8
   85358:	7100003f 	cmp	w1, #0x0
   8535c:	5400056d 	b.le	85408 <_doprnt.constprop.1+0xa88>
   85360:	91002f42 	add	x2, x26, #0xb
   85364:	aa1a03e0 	mov	x0, x26
   85368:	2a0103fb 	mov	w27, w1
   8536c:	927df05a 	and	x26, x2, #0xfffffffffffffff8
   85370:	17fffe06 	b	84b88 <_doprnt.constprop.1+0x208>
   85374:	11002361 	add	w1, w27, #0x8
   85378:	7100003f 	cmp	w1, #0x0
   8537c:	540006cd 	b.le	85454 <_doprnt.constprop.1+0xad4>
   85380:	91002f43 	add	x3, x26, #0xb
   85384:	aa1a03e2 	mov	x2, x26
   85388:	2a0103fb 	mov	w27, w1
   8538c:	927df07a 	and	x26, x3, #0xfffffffffffffff8
   85390:	39400a61 	ldrb	w1, [x19, #2]
   85394:	91000a73 	add	x19, x19, #0x2
   85398:	b9400048 	ldr	w8, [x2]
   8539c:	17fffdde 	b	84b14 <_doprnt.constprop.1+0x194>
   853a0:	11002361 	add	w1, w27, #0x8
   853a4:	7100003f 	cmp	w1, #0x0
   853a8:	5400048d 	b.le	85438 <_doprnt.constprop.1+0xab8>
   853ac:	91003f42 	add	x2, x26, #0xf
   853b0:	aa1a03e0 	mov	x0, x26
   853b4:	2a0103fb 	mov	w27, w1
   853b8:	927df05a 	and	x26, x2, #0xfffffffffffffff8
   853bc:	91000673 	add	x19, x19, #0x1
   853c0:	5280008e 	mov	w14, #0x4                   	// #4
   853c4:	d280020b 	mov	x11, #0x10                  	// #16
   853c8:	52800003 	mov	w3, #0x0                   	// #0
   853cc:	52800118 	mov	w24, #0x8                   	// #8
   853d0:	52800606 	mov	w6, #0x30                  	// #48
   853d4:	f9400000 	ldr	x0, [x0]
   853d8:	17ffffa9 	b	8527c <_doprnt.constprop.1+0x8fc>
   853dc:	11002362 	add	w2, w27, #0x8
   853e0:	7100005f 	cmp	w2, #0x0
   853e4:	5400044d 	b.le	8546c <_doprnt.constprop.1+0xaec>
   853e8:	91002f43 	add	x3, x26, #0xb
   853ec:	aa1a03e1 	mov	x1, x26
   853f0:	2a0203fb 	mov	w27, w2
   853f4:	927df07a 	and	x26, x3, #0xfffffffffffffff8
   853f8:	17fffda1 	b	84a7c <_doprnt.constprop.1+0xfc>
   853fc:	b90002a2 	str	w2, [x21]
   85400:	2a0003ee 	mov	w14, w0
   85404:	17fffe1c 	b	84c74 <_doprnt.constprop.1+0x2f4>
   85408:	8b3bc380 	add	x0, x28, w27, sxtw
   8540c:	2a0103fb 	mov	w27, w1
   85410:	17fffdde 	b	84b88 <_doprnt.constprop.1+0x208>
   85414:	11002361 	add	w1, w27, #0x8
   85418:	7100003f 	cmp	w1, #0x0
   8541c:	5400014d 	b.le	85444 <_doprnt.constprop.1+0xac4>
   85420:	aa1a03e0 	mov	x0, x26
   85424:	91002f42 	add	x2, x26, #0xb
   85428:	2a0103fb 	mov	w27, w1
   8542c:	927df05a 	and	x26, x2, #0xfffffffffffffff8
   85430:	b9800000 	ldrsw	x0, [x0]
   85434:	17fffea6 	b	84ecc <_doprnt.constprop.1+0x54c>
   85438:	8b3bc380 	add	x0, x28, w27, sxtw
   8543c:	2a0103fb 	mov	w27, w1
   85440:	17ffffdf 	b	853bc <_doprnt.constprop.1+0xa3c>
   85444:	8b3bc380 	add	x0, x28, w27, sxtw
   85448:	2a0103fb 	mov	w27, w1
   8544c:	b9800000 	ldrsw	x0, [x0]
   85450:	17fffe9f 	b	84ecc <_doprnt.constprop.1+0x54c>
   85454:	8b3bc382 	add	x2, x28, w27, sxtw
   85458:	2a0103fb 	mov	w27, w1
   8545c:	17ffffcd 	b	85390 <_doprnt.constprop.1+0xa10>
   85460:	8b3bc380 	add	x0, x28, w27, sxtw
   85464:	2a0103fb 	mov	w27, w1
   85468:	17ffff60 	b	851e8 <_doprnt.constprop.1+0x868>
   8546c:	8b3bc381 	add	x1, x28, w27, sxtw
   85470:	2a0203fb 	mov	w27, w2
   85474:	17fffd82 	b	84a7c <_doprnt.constprop.1+0xfc>
   85478:	d503201f 	nop
   8547c:	d503201f 	nop

0000000000085480 <_doprnt.constprop.0>:
   85480:	a9ad7bfd 	stp	x29, x30, [sp, #-304]!
   85484:	910003fd 	mov	x29, sp
   85488:	f9002ffc 	str	x28, [sp, #88]
   8548c:	aa0003fc 	mov	x28, x0
   85490:	f9400020 	ldr	x0, [x1]
   85494:	f90043a0 	str	x0, [x29, #128]
   85498:	f9400420 	ldr	x0, [x1, #8]
   8549c:	f9003ba0 	str	x0, [x29, #112]
   854a0:	b9401820 	ldr	w0, [x1, #24]
   854a4:	a90153f3 	stp	x19, x20, [sp, #16]
   854a8:	aa0203f4 	mov	x20, x2
   854ac:	52800013 	mov	w19, #0x0                   	// #0
   854b0:	f90013f5 	str	x21, [sp, #32]
   854b4:	a904effa 	stp	x26, x27, [sp, #72]
   854b8:	f0000004 	adrp	x4, 88000 <BitFontEnd+0xc0>
   854bc:	9106409a 	add	x26, x4, #0x190
   854c0:	f0000005 	adrp	x5, 88000 <BitFontEnd+0xc0>
   854c4:	910430bb 	add	x27, x5, #0x10c
   854c8:	b9008ba0 	str	w0, [x29, #136]
   854cc:	1400000b 	b	854f8 <_doprnt.constprop.0+0x78>
   854d0:	b9400342 	ldr	w2, [x26]
   854d4:	b9400361 	ldr	w1, [x27]
   854d8:	6b01005f 	cmp	w2, w1
   854dc:	540000aa 	b.ge	854f0 <_doprnt.constprop.0+0x70>  // b.tcont
   854e0:	d63f0280 	blr	x20
   854e4:	b9400340 	ldr	w0, [x26]
   854e8:	11000400 	add	w0, w0, #0x1
   854ec:	b9000340 	str	w0, [x26]
   854f0:	11000673 	add	w19, w19, #0x1
   854f4:	aa1503fc 	mov	x28, x21
   854f8:	39400380 	ldrb	w0, [x28]
   854fc:	34000120 	cbz	w0, 85520 <_doprnt.constprop.0+0xa0>
   85500:	91000795 	add	x21, x28, #0x1
   85504:	7100941f 	cmp	w0, #0x25
   85508:	54fffe41 	b.ne	854d0 <_doprnt.constprop.0+0x50>  // b.any
   8550c:	39400781 	ldrb	w1, [x28, #1]
   85510:	7100943f 	cmp	w1, #0x25
   85514:	54000141 	b.ne	8553c <_doprnt.constprop.0+0xbc>  // b.any
   85518:	91000b95 	add	x21, x28, #0x2
   8551c:	17ffffed 	b	854d0 <_doprnt.constprop.0+0x50>
   85520:	2a1303e0 	mov	w0, w19
   85524:	f94013f5 	ldr	x21, [sp, #32]
   85528:	a94153f3 	ldp	x19, x20, [sp, #16]
   8552c:	a944effa 	ldp	x26, x27, [sp, #72]
   85530:	f9402ffc 	ldr	x28, [sp, #88]
   85534:	a8d37bfd 	ldp	x29, x30, [sp], #304
   85538:	d65f03c0 	ret
   8553c:	aa1503e3 	mov	x3, x21
   85540:	a902dfb6 	stp	x22, x23, [x29, #40]
   85544:	f9001fb8 	str	x24, [x29, #56]
   85548:	52800008 	mov	w8, #0x0                   	// #0
   8554c:	b9008fbf 	str	wzr, [x29, #140]
   85550:	52800418 	mov	w24, #0x20                  	// #32
   85554:	7100b43f 	cmp	w1, #0x2d
   85558:	540002e0 	b.eq	855b4 <_doprnt.constprop.0+0x134>  // b.none
   8555c:	7100c03f 	cmp	w1, #0x30
   85560:	54000380 	b.eq	855d0 <_doprnt.constprop.0+0x150>  // b.none
   85564:	71008c3f 	cmp	w1, #0x23
   85568:	540002e0 	b.eq	855c4 <_doprnt.constprop.0+0x144>  // b.none
   8556c:	7100a83f 	cmp	w1, #0x2a
   85570:	54000361 	b.ne	855dc <_doprnt.constprop.0+0x15c>  // b.any
   85574:	b9408ba1 	ldr	w1, [x29, #136]
   85578:	37f844a1 	tbnz	w1, #31, 85e0c <_doprnt.constprop.0+0x98c>
   8557c:	f94043a1 	ldr	x1, [x29, #128]
   85580:	91002c22 	add	x2, x1, #0xb
   85584:	927df042 	and	x2, x2, #0xfffffffffffffff8
   85588:	f90043a2 	str	x2, [x29, #128]
   8558c:	b9400037 	ldr	w23, [x1]
   85590:	91000463 	add	x3, x3, #0x1
   85594:	39400061 	ldrb	w1, [x3]
   85598:	36f803d7 	tbz	w23, #31, 85610 <_doprnt.constprop.0+0x190>
   8559c:	52800022 	mov	w2, #0x1                   	// #1
   855a0:	4b1703f7 	neg	w23, w23
   855a4:	52800016 	mov	w22, #0x0                   	// #0
   855a8:	52800418 	mov	w24, #0x20                  	// #32
   855ac:	b9008fa2 	str	w2, [x29, #140]
   855b0:	1400001d 	b	85624 <_doprnt.constprop.0+0x1a4>
   855b4:	52800021 	mov	w1, #0x1                   	// #1
   855b8:	b9008fa1 	str	w1, [x29, #140]
   855bc:	38401c61 	ldrb	w1, [x3, #1]!
   855c0:	17ffffe5 	b	85554 <_doprnt.constprop.0+0xd4>
   855c4:	52800028 	mov	w8, #0x1                   	// #1
   855c8:	38401c61 	ldrb	w1, [x3, #1]!
   855cc:	17ffffe2 	b	85554 <_doprnt.constprop.0+0xd4>
   855d0:	2a0103f8 	mov	w24, w1
   855d4:	38401c61 	ldrb	w1, [x3, #1]!
   855d8:	17ffffdf 	b	85554 <_doprnt.constprop.0+0xd4>
   855dc:	5100c022 	sub	w2, w1, #0x30
   855e0:	52800017 	mov	w23, #0x0                   	// #0
   855e4:	12001c46 	and	w6, w2, #0xff
   855e8:	52800147 	mov	w7, #0xa                   	// #10
   855ec:	710024df 	cmp	w6, #0x9
   855f0:	54000108 	b.hi	85610 <_doprnt.constprop.0+0x190>  // b.pmore
   855f4:	d503201f 	nop
   855f8:	38401c61 	ldrb	w1, [x3, #1]!
   855fc:	1b070af7 	madd	w23, w23, w7, w2
   85600:	5100c022 	sub	w2, w1, #0x30
   85604:	12001c46 	and	w6, w2, #0xff
   85608:	710024df 	cmp	w6, #0x9
   8560c:	54ffff69 	b.ls	855f8 <_doprnt.constprop.0+0x178>  // b.plast
   85610:	b9408fa4 	ldr	w4, [x29, #140]
   85614:	52800402 	mov	w2, #0x20                  	// #32
   85618:	7100009f 	cmp	w4, #0x0
   8561c:	52000096 	eor	w22, w4, #0x1
   85620:	1a820318 	csel	w24, w24, w2, eq  // eq = none
   85624:	12800006 	mov	w6, #0xffffffff            	// #-1
   85628:	7100b83f 	cmp	w1, #0x2e
   8562c:	54001380 	b.eq	8589c <_doprnt.constprop.0+0x41c>  // b.none
   85630:	7101b03f 	cmp	w1, #0x6c
   85634:	540010e0 	b.eq	85850 <_doprnt.constprop.0+0x3d0>  // b.none
   85638:	52800042 	mov	w2, #0x2                   	// #2
   8563c:	7101a03f 	cmp	w1, #0x68
   85640:	54001420 	b.eq	858c4 <_doprnt.constprop.0+0x444>  // b.none
   85644:	7101a43f 	cmp	w1, #0x69
   85648:	540029c0 	b.eq	85b80 <_doprnt.constprop.0+0x700>  // b.none
   8564c:	540001e9 	b.ls	85688 <_doprnt.constprop.0+0x208>  // b.plast
   85650:	7101cc3f 	cmp	w1, #0x73
   85654:	54003180 	b.eq	85c84 <_doprnt.constprop.0+0x804>  // b.none
   85658:	540015e8 	b.hi	85914 <_doprnt.constprop.0+0x494>  // b.pmore
   8565c:	7101bc3f 	cmp	w1, #0x6f
   85660:	54001100 	b.eq	85880 <_doprnt.constprop.0+0x400>  // b.none
   85664:	7101c03f 	cmp	w1, #0x70
   85668:	54002721 	b.ne	85b4c <_doprnt.constprop.0+0x6cc>  // b.any
   8566c:	b9408ba0 	ldr	w0, [x29, #136]
   85670:	37f83980 	tbnz	w0, #31, 85da0 <_doprnt.constprop.0+0x920>
   85674:	f94043a0 	ldr	x0, [x29, #128]
   85678:	91003c01 	add	x1, x0, #0xf
   8567c:	927df021 	and	x1, x1, #0xfffffffffffffff8
   85680:	f90043a1 	str	x1, [x29, #128]
   85684:	140001d0 	b	85dc4 <_doprnt.constprop.0+0x944>
   85688:	7101883f 	cmp	w1, #0x62
   8568c:	54002520 	b.eq	85b30 <_doprnt.constprop.0+0x6b0>  // b.none
   85690:	540025a9 	b.ls	85b44 <_doprnt.constprop.0+0x6c4>  // b.plast
   85694:	71018c3f 	cmp	w1, #0x63
   85698:	54002701 	b.ne	85b78 <_doprnt.constprop.0+0x6f8>  // b.any
   8569c:	b9408ba0 	ldr	w0, [x29, #136]
   856a0:	37f83440 	tbnz	w0, #31, 85d28 <_doprnt.constprop.0+0x8a8>
   856a4:	f94043a0 	ldr	x0, [x29, #128]
   856a8:	91002c01 	add	x1, x0, #0xb
   856ac:	927df021 	and	x1, x1, #0xfffffffffffffff8
   856b0:	f90043a1 	str	x1, [x29, #128]
   856b4:	b9400000 	ldr	w0, [x0]
   856b8:	390283a0 	strb	w0, [x29, #160]
   856bc:	910283a0 	add	x0, x29, #0xa0
   856c0:	f90033a0 	str	x0, [x29, #96]
   856c4:	390287bf 	strb	wzr, [x29, #161]
   856c8:	b9007ba6 	str	w6, [x29, #120]
   856cc:	9100047c 	add	x28, x3, #0x1
   856d0:	940005cc 	bl	86e00 <strlen>
   856d4:	b9007fa0 	str	w0, [x29, #124]
   856d8:	b9407ba6 	ldr	w6, [x29, #120]
   856dc:	7100c31f 	cmp	w24, #0x30
   856e0:	1a9f02d6 	csel	w22, w22, wzr, eq  // eq = none
   856e4:	37f827e6 	tbnz	w6, #31, 85be0 <_doprnt.constprop.0+0x760>
   856e8:	6b06001f 	cmp	w0, w6
   856ec:	52800008 	mov	w8, #0x0                   	// #0
   856f0:	1a86d000 	csel	w0, w0, w6, le
   856f4:	52800015 	mov	w21, #0x0                   	// #0
   856f8:	52800006 	mov	w6, #0x0                   	// #0
   856fc:	b9006fbf 	str	wzr, [x29, #108]
   85700:	b9007fa0 	str	w0, [x29, #124]
   85704:	b9407fa0 	ldr	w0, [x29, #124]
   85708:	0b060000 	add	w0, w0, w6
   8570c:	0b080008 	add	w8, w0, w8
   85710:	4b0802e0 	sub	w0, w23, w8
   85714:	6b17011f 	cmp	w8, w23
   85718:	1a9fb017 	csel	w23, w0, wzr, lt  // lt = tstop
   8571c:	34002596 	cbz	w22, 85bcc <_doprnt.constprop.0+0x74c>
   85720:	b9007bbf 	str	wzr, [x29, #120]
   85724:	34000295 	cbz	w21, 85774 <_doprnt.constprop.0+0x2f4>
   85728:	f90023b9 	str	x25, [x29, #64]
   8572c:	b9400341 	ldr	w1, [x26]
   85730:	910263b6 	add	x22, x29, #0x98
   85734:	d2800019 	mov	x25, #0x0                   	// #0
   85738:	b9400366 	ldr	w6, [x27]
   8573c:	38796ac0 	ldrb	w0, [x22, x25]
   85740:	91000739 	add	x25, x25, #0x1
   85744:	6b0100df 	cmp	w6, w1
   85748:	540000ad 	b.le	8575c <_doprnt.constprop.0+0x2dc>
   8574c:	d63f0280 	blr	x20
   85750:	b9400341 	ldr	w1, [x26]
   85754:	11000421 	add	w1, w1, #0x1
   85758:	b9000341 	str	w1, [x26]
   8575c:	6b1902bf 	cmp	w21, w25
   85760:	54fffecc 	b.gt	85738 <_doprnt.constprop.0+0x2b8>
   85764:	f94023b9 	ldr	x25, [x29, #64]
   85768:	0b1302b3 	add	w19, w21, w19
   8576c:	b9408fa0 	ldr	w0, [x29, #140]
   85770:	340024e0 	cbz	w0, 85c0c <_doprnt.constprop.0+0x78c>
   85774:	b9406fa2 	ldr	w2, [x29, #108]
   85778:	34000162 	cbz	w2, 857a4 <_doprnt.constprop.0+0x324>
   8577c:	b9400341 	ldr	w1, [x26]
   85780:	b9400360 	ldr	w0, [x27]
   85784:	6b00003f 	cmp	w1, w0
   85788:	540000ca 	b.ge	857a0 <_doprnt.constprop.0+0x320>  // b.tcont
   8578c:	2a0203e0 	mov	w0, w2
   85790:	d63f0280 	blr	x20
   85794:	b9400340 	ldr	w0, [x26]
   85798:	11000400 	add	w0, w0, #0x1
   8579c:	b9000340 	str	w0, [x26]
   857a0:	11000673 	add	w19, w19, #0x1
   857a4:	710002ff 	cmp	w23, #0x0
   857a8:	5400020d 	b.le	857e8 <_doprnt.constprop.0+0x368>
   857ac:	b9400341 	ldr	w1, [x26]
   857b0:	52800015 	mov	w21, #0x0                   	// #0
   857b4:	d503201f 	nop
   857b8:	b9400362 	ldr	w2, [x27]
   857bc:	52800600 	mov	w0, #0x30                  	// #48
   857c0:	110006b5 	add	w21, w21, #0x1
   857c4:	6b01005f 	cmp	w2, w1
   857c8:	540000ad 	b.le	857dc <_doprnt.constprop.0+0x35c>
   857cc:	d63f0280 	blr	x20
   857d0:	b9400341 	ldr	w1, [x26]
   857d4:	11000421 	add	w1, w1, #0x1
   857d8:	b9000341 	str	w1, [x26]
   857dc:	6b1702bf 	cmp	w21, w23
   857e0:	54fffec1 	b.ne	857b8 <_doprnt.constprop.0+0x338>  // b.any
   857e4:	0b150273 	add	w19, w19, w21
   857e8:	b9407fa0 	ldr	w0, [x29, #124]
   857ec:	7100001f 	cmp	w0, #0x0
   857f0:	5400026d 	b.le	8583c <_doprnt.constprop.0+0x3bc>
   857f4:	f94033b6 	ldr	x22, [x29, #96]
   857f8:	51000400 	sub	w0, w0, #0x1
   857fc:	b9400341 	ldr	w1, [x26]
   85800:	910006d5 	add	x21, x22, #0x1
   85804:	8b0002b5 	add	x21, x21, x0
   85808:	b9400362 	ldr	w2, [x27]
   8580c:	910006d6 	add	x22, x22, #0x1
   85810:	385ff2c0 	ldurb	w0, [x22, #-1]
   85814:	6b01005f 	cmp	w2, w1
   85818:	540000ad 	b.le	8582c <_doprnt.constprop.0+0x3ac>
   8581c:	d63f0280 	blr	x20
   85820:	b9400341 	ldr	w1, [x26]
   85824:	11000421 	add	w1, w1, #0x1
   85828:	b9000341 	str	w1, [x26]
   8582c:	eb1602bf 	cmp	x21, x22
   85830:	54fffec1 	b.ne	85808 <_doprnt.constprop.0+0x388>  // b.any
   85834:	b9407fa0 	ldr	w0, [x29, #124]
   85838:	0b000273 	add	w19, w19, w0
   8583c:	b9408fa0 	ldr	w0, [x29, #140]
   85840:	350023c0 	cbnz	w0, 85cb8 <_doprnt.constprop.0+0x838>
   85844:	a942dfb6 	ldp	x22, x23, [x29, #40]
   85848:	f9401fb8 	ldr	x24, [x29, #56]
   8584c:	17ffff2b 	b	854f8 <_doprnt.constprop.0+0x78>
   85850:	39400461 	ldrb	w1, [x3, #1]
   85854:	91000467 	add	x7, x3, #0x1
   85858:	7101a43f 	cmp	w1, #0x69
   8585c:	54001160 	b.eq	85a88 <_doprnt.constprop.0+0x608>  // b.none
   85860:	54001049 	b.ls	85a68 <_doprnt.constprop.0+0x5e8>  // b.plast
   85864:	7101cc3f 	cmp	w1, #0x73
   85868:	540020c0 	b.eq	85c80 <_doprnt.constprop.0+0x800>  // b.none
   8586c:	54001768 	b.hi	85b58 <_doprnt.constprop.0+0x6d8>  // b.pmore
   85870:	aa0703e3 	mov	x3, x7
   85874:	7101bc3f 	cmp	w1, #0x6f
   85878:	54ffef61 	b.ne	85664 <_doprnt.constprop.0+0x1e4>  // b.any
   8587c:	52800062 	mov	w2, #0x3                   	// #3
   85880:	7100051f 	cmp	w8, #0x1
   85884:	54001980 	b.eq	85bb4 <_doprnt.constprop.0+0x734>  // b.none
   85888:	5280006c 	mov	w12, #0x3                   	// #3
   8588c:	52800001 	mov	w1, #0x0                   	// #0
   85890:	d280010a 	mov	x10, #0x8                   	// #8
   85894:	52800007 	mov	w7, #0x0                   	// #0
   85898:	14000031 	b	8595c <_doprnt.constprop.0+0x4dc>
   8589c:	39400461 	ldrb	w1, [x3, #1]
   858a0:	7100a83f 	cmp	w1, #0x2a
   858a4:	540001c1 	b.ne	858dc <_doprnt.constprop.0+0x45c>  // b.any
   858a8:	b9408ba1 	ldr	w1, [x29, #136]
   858ac:	37f83681 	tbnz	w1, #31, 85f7c <_doprnt.constprop.0+0xafc>
   858b0:	f94043a2 	ldr	x2, [x29, #128]
   858b4:	91002c41 	add	x1, x2, #0xb
   858b8:	927df021 	and	x1, x1, #0xfffffffffffffff8
   858bc:	f90043a1 	str	x1, [x29, #128]
   858c0:	140001b8 	b	85fa0 <_doprnt.constprop.0+0xb20>
   858c4:	39400461 	ldrb	w1, [x3, #1]
   858c8:	7101a03f 	cmp	w1, #0x68
   858cc:	54001d20 	b.eq	85c70 <_doprnt.constprop.0+0x7f0>  // b.none
   858d0:	91000463 	add	x3, x3, #0x1
   858d4:	52800022 	mov	w2, #0x1                   	// #1
   858d8:	17ffff5b 	b	85644 <_doprnt.constprop.0+0x1c4>
   858dc:	5100c022 	sub	w2, w1, #0x30
   858e0:	91000463 	add	x3, x3, #0x1
   858e4:	12001c47 	and	w7, w2, #0xff
   858e8:	52800006 	mov	w6, #0x0                   	// #0
   858ec:	52800149 	mov	w9, #0xa                   	// #10
   858f0:	710024ff 	cmp	w7, #0x9
   858f4:	54ffe9e8 	b.hi	85630 <_doprnt.constprop.0+0x1b0>  // b.pmore
   858f8:	38401c61 	ldrb	w1, [x3, #1]!
   858fc:	1b0908c6 	madd	w6, w6, w9, w2
   85900:	5100c022 	sub	w2, w1, #0x30
   85904:	12001c47 	and	w7, w2, #0xff
   85908:	710024ff 	cmp	w7, #0x9
   8590c:	54ffff69 	b.ls	858f8 <_doprnt.constprop.0+0x478>  // b.plast
   85910:	17ffff48 	b	85630 <_doprnt.constprop.0+0x1b0>
   85914:	7101d43f 	cmp	w1, #0x75
   85918:	540001a0 	b.eq	8594c <_doprnt.constprop.0+0x4cc>  // b.none
   8591c:	52800007 	mov	w7, #0x0                   	// #0
   85920:	7101e03f 	cmp	w1, #0x78
   85924:	54001141 	b.ne	85b4c <_doprnt.constprop.0+0x6cc>  // b.any
   85928:	5280008c 	mov	w12, #0x4                   	// #4
   8592c:	52800001 	mov	w1, #0x0                   	// #0
   85930:	d280020a 	mov	x10, #0x10                  	// #16
   85934:	7100051f 	cmp	w8, #0x1
   85938:	54000121 	b.ne	8595c <_doprnt.constprop.0+0x4dc>  // b.any
   8593c:	52800068 	mov	w8, #0x3                   	// #3
   85940:	14000007 	b	8595c <_doprnt.constprop.0+0x4dc>
   85944:	aa0703e3 	mov	x3, x7
   85948:	52800062 	mov	w2, #0x3                   	// #3
   8594c:	5280000c 	mov	w12, #0x0                   	// #0
   85950:	52800001 	mov	w1, #0x0                   	// #0
   85954:	d280014a 	mov	x10, #0xa                   	// #10
   85958:	52800007 	mov	w7, #0x0                   	// #0
   8595c:	71000c5f 	cmp	w2, #0x3
   85960:	b9408ba0 	ldr	w0, [x29, #136]
   85964:	54002d00 	b.eq	85f04 <_doprnt.constprop.0+0xa84>  // b.none
   85968:	37f828e0 	tbnz	w0, #31, 85e84 <_doprnt.constprop.0+0xa04>
   8596c:	f94043a0 	ldr	x0, [x29, #128]
   85970:	91002c02 	add	x2, x0, #0xb
   85974:	927df042 	and	x2, x2, #0xfffffffffffffff8
   85978:	f90043a2 	str	x2, [x29, #128]
   8597c:	b9400000 	ldr	w0, [x0]
   85980:	f100001f 	cmp	x0, #0x0
   85984:	9100047c 	add	x28, x3, #0x1
   85988:	7a401824 	ccmp	w1, #0x0, #0x4, ne  // ne = any
   8598c:	54002900 	b.eq	85eac <_doprnt.constprop.0+0xa2c>  // b.none
   85990:	52800601 	mov	w1, #0x30                  	// #48
   85994:	52800008 	mov	w8, #0x0                   	// #0
   85998:	390263a1 	strb	w1, [x29, #152]
   8599c:	52800035 	mov	w21, #0x1                   	// #1
   859a0:	b9006fbf 	str	wzr, [x29, #108]
   859a4:	34000987 	cbz	w7, 85ad4 <_doprnt.constprop.0+0x654>
   859a8:	3903a3bf 	strb	wzr, [x29, #232]
   859ac:	f0000009 	adrp	x9, 88000 <BitFontEnd+0xc0>
   859b0:	9102e129 	add	x9, x9, #0xb8
   859b4:	340009ac 	cbz	w12, 85ae8 <_doprnt.constprop.0+0x668>
   859b8:	9280000a 	mov	x10, #0xffffffffffffffff    	// #-1
   859bc:	9acc2402 	lsr	x2, x0, x12
   859c0:	9acc214a 	lsl	x10, x10, x12
   859c4:	aa2a03ea 	mvn	x10, x10
   859c8:	8a000141 	and	x1, x10, x0
   859cc:	9103a3ab 	add	x11, x29, #0xe8
   859d0:	38616920 	ldrb	w0, [x9, x1]
   859d4:	3903a7a0 	strb	w0, [x29, #233]
   859d8:	b4001982 	cbz	x2, 85d08 <_doprnt.constprop.0+0x888>
   859dc:	d2800047 	mov	x7, #0x2                   	// #2
   859e0:	8a020140 	and	x0, x10, x2
   859e4:	2a0703e1 	mov	w1, w7
   859e8:	9acc2442 	lsr	x2, x2, x12
   859ec:	38606920 	ldrb	w0, [x9, x0]
   859f0:	38276960 	strb	w0, [x11, x7]
   859f4:	910004e7 	add	x7, x7, #0x1
   859f8:	b5ffff42 	cbnz	x2, 859e0 <_doprnt.constprop.0+0x560>
   859fc:	51000427 	sub	w7, w1, #0x1
   85a00:	93407c22 	sxtw	x2, w1
   85a04:	91000442 	add	x2, x2, #0x1
   85a08:	910283a1 	add	x1, x29, #0xa0
   85a0c:	8b27c167 	add	x7, x11, w7, sxtw
   85a10:	8b020022 	add	x2, x1, x2
   85a14:	14000002 	b	85a1c <_doprnt.constprop.0+0x59c>
   85a18:	385ff4e0 	ldrb	w0, [x7], #-1
   85a1c:	38001420 	strb	w0, [x1], #1
   85a20:	eb02003f 	cmp	x1, x2
   85a24:	54ffffa1 	b.ne	85a18 <_doprnt.constprop.0+0x598>  // b.any
   85a28:	b90063a8 	str	w8, [x29, #96]
   85a2c:	910283a0 	add	x0, x29, #0xa0
   85a30:	b9007ba6 	str	w6, [x29, #120]
   85a34:	940004f3 	bl	86e00 <strlen>
   85a38:	b9407ba6 	ldr	w6, [x29, #120]
   85a3c:	b9007fa0 	str	w0, [x29, #124]
   85a40:	b94063a8 	ldr	w8, [x29, #96]
   85a44:	37f80d86 	tbnz	w6, #31, 85bf4 <_doprnt.constprop.0+0x774>
   85a48:	6b06001f 	cmp	w0, w6
   85a4c:	5400106a 	b.ge	85c58 <_doprnt.constprop.0+0x7d8>  // b.tcont
   85a50:	4b0000c6 	sub	w6, w6, w0
   85a54:	52800016 	mov	w22, #0x0                   	// #0
   85a58:	910283a0 	add	x0, x29, #0xa0
   85a5c:	52800418 	mov	w24, #0x20                  	// #32
   85a60:	f90033a0 	str	x0, [x29, #96]
   85a64:	17ffff28 	b	85704 <_doprnt.constprop.0+0x284>
   85a68:	aa0703e3 	mov	x3, x7
   85a6c:	7101883f 	cmp	w1, #0x62
   85a70:	540005e0 	b.eq	85b2c <_doprnt.constprop.0+0x6ac>  // b.none
   85a74:	54000969 	b.ls	85ba0 <_doprnt.constprop.0+0x720>  // b.plast
   85a78:	71018c3f 	cmp	w1, #0x63
   85a7c:	54ffe100 	b.eq	8569c <_doprnt.constprop.0+0x21c>  // b.none
   85a80:	7101903f 	cmp	w1, #0x64
   85a84:	54000641 	b.ne	85b4c <_doprnt.constprop.0+0x6cc>  // b.any
   85a88:	b9408ba0 	ldr	w0, [x29, #136]
   85a8c:	37f81620 	tbnz	w0, #31, 85d50 <_doprnt.constprop.0+0x8d0>
   85a90:	f94043a0 	ldr	x0, [x29, #128]
   85a94:	91003c01 	add	x1, x0, #0xf
   85a98:	927df021 	and	x1, x1, #0xfffffffffffffff8
   85a9c:	f90043a1 	str	x1, [x29, #128]
   85aa0:	f9400000 	ldr	x0, [x0]
   85aa4:	aa0703e3 	mov	x3, x7
   85aa8:	b9006fbf 	str	wzr, [x29, #108]
   85aac:	52800008 	mov	w8, #0x0                   	// #0
   85ab0:	b6f800a0 	tbz	x0, #63, 85ac4 <_doprnt.constprop.0+0x644>
   85ab4:	cb0003e0 	neg	x0, x0
   85ab8:	528005a1 	mov	w1, #0x2d                  	// #45
   85abc:	52800028 	mov	w8, #0x1                   	// #1
   85ac0:	b9006fa1 	str	w1, [x29, #108]
   85ac4:	9100047c 	add	x28, x3, #0x1
   85ac8:	5280000c 	mov	w12, #0x0                   	// #0
   85acc:	d280014a 	mov	x10, #0xa                   	// #10
   85ad0:	52800015 	mov	w21, #0x0                   	// #0
   85ad4:	3903a3bf 	strb	wzr, [x29, #232]
   85ad8:	f0000009 	adrp	x9, 88000 <BitFontEnd+0xc0>
   85adc:	9102e129 	add	x9, x9, #0xb8
   85ae0:	91004129 	add	x9, x9, #0x10
   85ae4:	35fff6ac 	cbnz	w12, 859b8 <_doprnt.constprop.0+0x538>
   85ae8:	9aca0802 	udiv	x2, x0, x10
   85aec:	9b0a8040 	msub	x0, x2, x10, x0
   85af0:	38606920 	ldrb	w0, [x9, x0]
   85af4:	3903a7a0 	strb	w0, [x29, #233]
   85af8:	b40010c2 	cbz	x2, 85d10 <_doprnt.constprop.0+0x890>
   85afc:	9103a3ab 	add	x11, x29, #0xe8
   85b00:	d2800047 	mov	x7, #0x2                   	// #2
   85b04:	d503201f 	nop
   85b08:	9aca0840 	udiv	x0, x2, x10
   85b0c:	9b0a8801 	msub	x1, x0, x10, x2
   85b10:	aa0003e2 	mov	x2, x0
   85b14:	38616920 	ldrb	w0, [x9, x1]
   85b18:	2a0703e1 	mov	w1, w7
   85b1c:	38276960 	strb	w0, [x11, x7]
   85b20:	910004e7 	add	x7, x7, #0x1
   85b24:	b5ffff22 	cbnz	x2, 85b08 <_doprnt.constprop.0+0x688>
   85b28:	17ffffb5 	b	859fc <_doprnt.constprop.0+0x57c>
   85b2c:	52800062 	mov	w2, #0x3                   	// #3
   85b30:	5280002c 	mov	w12, #0x1                   	// #1
   85b34:	52800001 	mov	w1, #0x0                   	// #0
   85b38:	d280004a 	mov	x10, #0x2                   	// #2
   85b3c:	52800007 	mov	w7, #0x0                   	// #0
   85b40:	17ffff87 	b	8595c <_doprnt.constprop.0+0x4dc>
   85b44:	7101603f 	cmp	w1, #0x58
   85b48:	54000320 	b.eq	85bac <_doprnt.constprop.0+0x72c>  // b.none
   85b4c:	a942dfb6 	ldp	x22, x23, [x29, #40]
   85b50:	f9401fb8 	ldr	x24, [x29, #56]
   85b54:	17fffe5f 	b	854d0 <_doprnt.constprop.0+0x50>
   85b58:	7101d43f 	cmp	w1, #0x75
   85b5c:	54ffef40 	b.eq	85944 <_doprnt.constprop.0+0x4c4>  // b.none
   85b60:	7101e03f 	cmp	w1, #0x78
   85b64:	54ffff41 	b.ne	85b4c <_doprnt.constprop.0+0x6cc>  // b.any
   85b68:	aa0703e3 	mov	x3, x7
   85b6c:	52800062 	mov	w2, #0x3                   	// #3
   85b70:	52800007 	mov	w7, #0x0                   	// #0
   85b74:	17ffff6d 	b	85928 <_doprnt.constprop.0+0x4a8>
   85b78:	7101903f 	cmp	w1, #0x64
   85b7c:	54fffe81 	b.ne	85b4c <_doprnt.constprop.0+0x6cc>  // b.any
   85b80:	b9408ba0 	ldr	w0, [x29, #136]
   85b84:	37f81aa0 	tbnz	w0, #31, 85ed8 <_doprnt.constprop.0+0xa58>
   85b88:	f94043a0 	ldr	x0, [x29, #128]
   85b8c:	91002c01 	add	x1, x0, #0xb
   85b90:	927df021 	and	x1, x1, #0xfffffffffffffff8
   85b94:	b9800000 	ldrsw	x0, [x0]
   85b98:	f90043a1 	str	x1, [x29, #128]
   85b9c:	17ffffc3 	b	85aa8 <_doprnt.constprop.0+0x628>
   85ba0:	52800062 	mov	w2, #0x3                   	// #3
   85ba4:	7101603f 	cmp	w1, #0x58
   85ba8:	54fffd21 	b.ne	85b4c <_doprnt.constprop.0+0x6cc>  // b.any
   85bac:	52800027 	mov	w7, #0x1                   	// #1
   85bb0:	17ffff5e 	b	85928 <_doprnt.constprop.0+0x4a8>
   85bb4:	2a0803e1 	mov	w1, w8
   85bb8:	5280006c 	mov	w12, #0x3                   	// #3
   85bbc:	d280010a 	mov	x10, #0x8                   	// #8
   85bc0:	52800007 	mov	w7, #0x0                   	// #0
   85bc4:	52800048 	mov	w8, #0x2                   	// #2
   85bc8:	17ffff65 	b	8595c <_doprnt.constprop.0+0x4dc>
   85bcc:	34000a95 	cbz	w21, 85d1c <_doprnt.constprop.0+0x89c>
   85bd0:	f90023b9 	str	x25, [x29, #64]
   85bd4:	b9007bb7 	str	w23, [x29, #120]
   85bd8:	2a0603f7 	mov	w23, w6
   85bdc:	17fffed4 	b	8572c <_doprnt.constprop.0+0x2ac>
   85be0:	52800008 	mov	w8, #0x0                   	// #0
   85be4:	52800015 	mov	w21, #0x0                   	// #0
   85be8:	52800006 	mov	w6, #0x0                   	// #0
   85bec:	b9006fbf 	str	wzr, [x29, #108]
   85bf0:	17fffec5 	b	85704 <_doprnt.constprop.0+0x284>
   85bf4:	7100c31f 	cmp	w24, #0x30
   85bf8:	910283a0 	add	x0, x29, #0xa0
   85bfc:	1a9f02d6 	csel	w22, w22, wzr, eq  // eq = none
   85c00:	52800006 	mov	w6, #0x0                   	// #0
   85c04:	f90033a0 	str	x0, [x29, #96]
   85c08:	17fffebf 	b	85704 <_doprnt.constprop.0+0x284>
   85c0c:	b9407ba0 	ldr	w0, [x29, #120]
   85c10:	34ffdb20 	cbz	w0, 85774 <_doprnt.constprop.0+0x2f4>
   85c14:	b9400341 	ldr	w1, [x26]
   85c18:	52800015 	mov	w21, #0x0                   	// #0
   85c1c:	d503201f 	nop
   85c20:	b9400362 	ldr	w2, [x27]
   85c24:	2a1803e0 	mov	w0, w24
   85c28:	110006b5 	add	w21, w21, #0x1
   85c2c:	6b01005f 	cmp	w2, w1
   85c30:	540000ad 	b.le	85c44 <_doprnt.constprop.0+0x7c4>
   85c34:	d63f0280 	blr	x20
   85c38:	b9400341 	ldr	w1, [x26]
   85c3c:	11000421 	add	w1, w1, #0x1
   85c40:	b9000341 	str	w1, [x26]
   85c44:	b9407ba0 	ldr	w0, [x29, #120]
   85c48:	6b15001f 	cmp	w0, w21
   85c4c:	54fffea1 	b.ne	85c20 <_doprnt.constprop.0+0x7a0>  // b.any
   85c50:	0b000273 	add	w19, w19, w0
   85c54:	17fffec8 	b	85774 <_doprnt.constprop.0+0x2f4>
   85c58:	910283a0 	add	x0, x29, #0xa0
   85c5c:	52800016 	mov	w22, #0x0                   	// #0
   85c60:	52800006 	mov	w6, #0x0                   	// #0
   85c64:	52800418 	mov	w24, #0x20                  	// #32
   85c68:	f90033a0 	str	x0, [x29, #96]
   85c6c:	17fffea6 	b	85704 <_doprnt.constprop.0+0x284>
   85c70:	39400861 	ldrb	w1, [x3, #2]
   85c74:	52800002 	mov	w2, #0x0                   	// #0
   85c78:	91000863 	add	x3, x3, #0x2
   85c7c:	17fffe72 	b	85644 <_doprnt.constprop.0+0x1c4>
   85c80:	aa0703e3 	mov	x3, x7
   85c84:	b9408ba0 	ldr	w0, [x29, #136]
   85c88:	37f80d60 	tbnz	w0, #31, 85e34 <_doprnt.constprop.0+0x9b4>
   85c8c:	f94043a0 	ldr	x0, [x29, #128]
   85c90:	91003c01 	add	x1, x0, #0xf
   85c94:	927df021 	and	x1, x1, #0xfffffffffffffff8
   85c98:	f90043a1 	str	x1, [x29, #128]
   85c9c:	f9400001 	ldr	x1, [x0]
   85ca0:	f0000000 	adrp	x0, 88000 <BitFontEnd+0xc0>
   85ca4:	91036000 	add	x0, x0, #0xd8
   85ca8:	f100003f 	cmp	x1, #0x0
   85cac:	9a810000 	csel	x0, x0, x1, eq  // eq = none
   85cb0:	f90033a0 	str	x0, [x29, #96]
   85cb4:	17fffe85 	b	856c8 <_doprnt.constprop.0+0x248>
   85cb8:	b9407ba0 	ldr	w0, [x29, #120]
   85cbc:	34ffdc40 	cbz	w0, 85844 <_doprnt.constprop.0+0x3c4>
   85cc0:	b9400341 	ldr	w1, [x26]
   85cc4:	52800015 	mov	w21, #0x0                   	// #0
   85cc8:	b9400362 	ldr	w2, [x27]
   85ccc:	2a1803e0 	mov	w0, w24
   85cd0:	110006b5 	add	w21, w21, #0x1
   85cd4:	6b01005f 	cmp	w2, w1
   85cd8:	540000ad 	b.le	85cec <_doprnt.constprop.0+0x86c>
   85cdc:	d63f0280 	blr	x20
   85ce0:	b9400341 	ldr	w1, [x26]
   85ce4:	11000421 	add	w1, w1, #0x1
   85ce8:	b9000341 	str	w1, [x26]
   85cec:	b9407ba0 	ldr	w0, [x29, #120]
   85cf0:	6b0002bf 	cmp	w21, w0
   85cf4:	54fffea1 	b.ne	85cc8 <_doprnt.constprop.0+0x848>  // b.any
   85cf8:	0b150273 	add	w19, w19, w21
   85cfc:	f9401fb8 	ldr	x24, [x29, #56]
   85d00:	a942dfb6 	ldp	x22, x23, [x29, #40]
   85d04:	17fffdfd 	b	854f8 <_doprnt.constprop.0+0x78>
   85d08:	52800021 	mov	w1, #0x1                   	// #1
   85d0c:	17ffff3c 	b	859fc <_doprnt.constprop.0+0x57c>
   85d10:	52800021 	mov	w1, #0x1                   	// #1
   85d14:	9103a3ab 	add	x11, x29, #0xe8
   85d18:	17ffff39 	b	859fc <_doprnt.constprop.0+0x57c>
   85d1c:	b9007bb7 	str	w23, [x29, #120]
   85d20:	2a0603f7 	mov	w23, w6
   85d24:	17fffe92 	b	8576c <_doprnt.constprop.0+0x2ec>
   85d28:	b9408ba0 	ldr	w0, [x29, #136]
   85d2c:	11002001 	add	w1, w0, #0x8
   85d30:	7100003f 	cmp	w1, #0x0
   85d34:	5400022d 	b.le	85d78 <_doprnt.constprop.0+0x8f8>
   85d38:	f94043a0 	ldr	x0, [x29, #128]
   85d3c:	b9008ba1 	str	w1, [x29, #136]
   85d40:	91002c02 	add	x2, x0, #0xb
   85d44:	927df041 	and	x1, x2, #0xfffffffffffffff8
   85d48:	f90043a1 	str	x1, [x29, #128]
   85d4c:	17fffe5a 	b	856b4 <_doprnt.constprop.0+0x234>
   85d50:	b9408ba0 	ldr	w0, [x29, #136]
   85d54:	11002001 	add	w1, w0, #0x8
   85d58:	7100003f 	cmp	w1, #0x0
   85d5c:	5400018d 	b.le	85d8c <_doprnt.constprop.0+0x90c>
   85d60:	f94043a0 	ldr	x0, [x29, #128]
   85d64:	b9008ba1 	str	w1, [x29, #136]
   85d68:	91003c02 	add	x2, x0, #0xf
   85d6c:	927df041 	and	x1, x2, #0xfffffffffffffff8
   85d70:	f90043a1 	str	x1, [x29, #128]
   85d74:	17ffff4b 	b	85aa0 <_doprnt.constprop.0+0x620>
   85d78:	b9408ba0 	ldr	w0, [x29, #136]
   85d7c:	f9403ba2 	ldr	x2, [x29, #112]
   85d80:	b9008ba1 	str	w1, [x29, #136]
   85d84:	8b20c040 	add	x0, x2, w0, sxtw
   85d88:	17fffe4b 	b	856b4 <_doprnt.constprop.0+0x234>
   85d8c:	b9408ba0 	ldr	w0, [x29, #136]
   85d90:	f9403ba2 	ldr	x2, [x29, #112]
   85d94:	b9008ba1 	str	w1, [x29, #136]
   85d98:	8b20c040 	add	x0, x2, w0, sxtw
   85d9c:	17ffff41 	b	85aa0 <_doprnt.constprop.0+0x620>
   85da0:	b9408ba0 	ldr	w0, [x29, #136]
   85da4:	11002001 	add	w1, w0, #0x8
   85da8:	7100003f 	cmp	w1, #0x0
   85dac:	5400026d 	b.le	85df8 <_doprnt.constprop.0+0x978>
   85db0:	f94043a0 	ldr	x0, [x29, #128]
   85db4:	b9008ba1 	str	w1, [x29, #136]
   85db8:	91003c02 	add	x2, x0, #0xf
   85dbc:	927df041 	and	x1, x2, #0xfffffffffffffff8
   85dc0:	f90043a1 	str	x1, [x29, #128]
   85dc4:	f9400000 	ldr	x0, [x0]
   85dc8:	9100047c 	add	x28, x3, #0x1
   85dcc:	5280008c 	mov	w12, #0x4                   	// #4
   85dd0:	d280020a 	mov	x10, #0x10                  	// #16
   85dd4:	52800007 	mov	w7, #0x0                   	// #0
   85dd8:	52800117 	mov	w23, #0x8                   	// #8
   85ddc:	52800618 	mov	w24, #0x30                  	// #48
   85de0:	528f0601 	mov	w1, #0x7830                	// #30768
   85de4:	52800008 	mov	w8, #0x0                   	// #0
   85de8:	790133a1 	strh	w1, [x29, #152]
   85dec:	52800055 	mov	w21, #0x2                   	// #2
   85df0:	b9006fbf 	str	wzr, [x29, #108]
   85df4:	17fffeec 	b	859a4 <_doprnt.constprop.0+0x524>
   85df8:	b9408ba0 	ldr	w0, [x29, #136]
   85dfc:	f9403ba2 	ldr	x2, [x29, #112]
   85e00:	b9008ba1 	str	w1, [x29, #136]
   85e04:	8b20c040 	add	x0, x2, w0, sxtw
   85e08:	17ffffef 	b	85dc4 <_doprnt.constprop.0+0x944>
   85e0c:	b9408ba1 	ldr	w1, [x29, #136]
   85e10:	11002022 	add	w2, w1, #0x8
   85e14:	7100005f 	cmp	w2, #0x0
   85e18:	5400022d 	b.le	85e5c <_doprnt.constprop.0+0x9dc>
   85e1c:	f94043a1 	ldr	x1, [x29, #128]
   85e20:	b9008ba2 	str	w2, [x29, #136]
   85e24:	91002c26 	add	x6, x1, #0xb
   85e28:	927df0c2 	and	x2, x6, #0xfffffffffffffff8
   85e2c:	f90043a2 	str	x2, [x29, #128]
   85e30:	17fffdd7 	b	8558c <_doprnt.constprop.0+0x10c>
   85e34:	b9408ba0 	ldr	w0, [x29, #136]
   85e38:	11002001 	add	w1, w0, #0x8
   85e3c:	7100003f 	cmp	w1, #0x0
   85e40:	5400018d 	b.le	85e70 <_doprnt.constprop.0+0x9f0>
   85e44:	f94043a0 	ldr	x0, [x29, #128]
   85e48:	b9008ba1 	str	w1, [x29, #136]
   85e4c:	91003c02 	add	x2, x0, #0xf
   85e50:	927df041 	and	x1, x2, #0xfffffffffffffff8
   85e54:	f90043a1 	str	x1, [x29, #128]
   85e58:	17ffff91 	b	85c9c <_doprnt.constprop.0+0x81c>
   85e5c:	b9408ba1 	ldr	w1, [x29, #136]
   85e60:	f9403ba4 	ldr	x4, [x29, #112]
   85e64:	b9008ba2 	str	w2, [x29, #136]
   85e68:	8b21c081 	add	x1, x4, w1, sxtw
   85e6c:	17fffdc8 	b	8558c <_doprnt.constprop.0+0x10c>
   85e70:	b9408ba0 	ldr	w0, [x29, #136]
   85e74:	f9403ba2 	ldr	x2, [x29, #112]
   85e78:	b9008ba1 	str	w1, [x29, #136]
   85e7c:	8b20c040 	add	x0, x2, w0, sxtw
   85e80:	17ffff87 	b	85c9c <_doprnt.constprop.0+0x81c>
   85e84:	b9408ba0 	ldr	w0, [x29, #136]
   85e88:	11002002 	add	w2, w0, #0x8
   85e8c:	7100005f 	cmp	w2, #0x0
   85e90:	540001ad 	b.le	85ec4 <_doprnt.constprop.0+0xa44>
   85e94:	f94043a0 	ldr	x0, [x29, #128]
   85e98:	b9008ba2 	str	w2, [x29, #136]
   85e9c:	91002c09 	add	x9, x0, #0xb
   85ea0:	927df122 	and	x2, x9, #0xfffffffffffffff8
   85ea4:	f90043a2 	str	x2, [x29, #128]
   85ea8:	17fffeb5 	b	8597c <_doprnt.constprop.0+0x4fc>
   85eac:	71000d1f 	cmp	w8, #0x3
   85eb0:	54fff980 	b.eq	85de0 <_doprnt.constprop.0+0x960>  // b.none
   85eb4:	52800008 	mov	w8, #0x0                   	// #0
   85eb8:	52800015 	mov	w21, #0x0                   	// #0
   85ebc:	b9006fbf 	str	wzr, [x29, #108]
   85ec0:	17fffeb9 	b	859a4 <_doprnt.constprop.0+0x524>
   85ec4:	b9408ba0 	ldr	w0, [x29, #136]
   85ec8:	f9403ba4 	ldr	x4, [x29, #112]
   85ecc:	b9008ba2 	str	w2, [x29, #136]
   85ed0:	8b20c080 	add	x0, x4, w0, sxtw
   85ed4:	17fffeaa 	b	8597c <_doprnt.constprop.0+0x4fc>
   85ed8:	b9408ba0 	ldr	w0, [x29, #136]
   85edc:	11002001 	add	w1, w0, #0x8
   85ee0:	7100003f 	cmp	w1, #0x0
   85ee4:	5400034d 	b.le	85f4c <_doprnt.constprop.0+0xacc>
   85ee8:	f94043a0 	ldr	x0, [x29, #128]
   85eec:	b9008ba1 	str	w1, [x29, #136]
   85ef0:	91002c02 	add	x2, x0, #0xb
   85ef4:	927df041 	and	x1, x2, #0xfffffffffffffff8
   85ef8:	b9800000 	ldrsw	x0, [x0]
   85efc:	f90043a1 	str	x1, [x29, #128]
   85f00:	17fffeea 	b	85aa8 <_doprnt.constprop.0+0x628>
   85f04:	37f800e0 	tbnz	w0, #31, 85f20 <_doprnt.constprop.0+0xaa0>
   85f08:	f94043a0 	ldr	x0, [x29, #128]
   85f0c:	91003c02 	add	x2, x0, #0xf
   85f10:	927df042 	and	x2, x2, #0xfffffffffffffff8
   85f14:	f9400000 	ldr	x0, [x0]
   85f18:	f90043a2 	str	x2, [x29, #128]
   85f1c:	17fffe99 	b	85980 <_doprnt.constprop.0+0x500>
   85f20:	b9408ba0 	ldr	w0, [x29, #136]
   85f24:	11002002 	add	w2, w0, #0x8
   85f28:	7100005f 	cmp	w2, #0x0
   85f2c:	540001cd 	b.le	85f64 <_doprnt.constprop.0+0xae4>
   85f30:	f94043a0 	ldr	x0, [x29, #128]
   85f34:	b9008ba2 	str	w2, [x29, #136]
   85f38:	91003c09 	add	x9, x0, #0xf
   85f3c:	927df122 	and	x2, x9, #0xfffffffffffffff8
   85f40:	f9400000 	ldr	x0, [x0]
   85f44:	f90043a2 	str	x2, [x29, #128]
   85f48:	17fffe8e 	b	85980 <_doprnt.constprop.0+0x500>
   85f4c:	b9408ba0 	ldr	w0, [x29, #136]
   85f50:	f9403ba2 	ldr	x2, [x29, #112]
   85f54:	b9008ba1 	str	w1, [x29, #136]
   85f58:	8b20c040 	add	x0, x2, w0, sxtw
   85f5c:	b9800000 	ldrsw	x0, [x0]
   85f60:	17fffed2 	b	85aa8 <_doprnt.constprop.0+0x628>
   85f64:	b9408ba0 	ldr	w0, [x29, #136]
   85f68:	f9403ba4 	ldr	x4, [x29, #112]
   85f6c:	b9008ba2 	str	w2, [x29, #136]
   85f70:	8b20c080 	add	x0, x4, w0, sxtw
   85f74:	f9400000 	ldr	x0, [x0]
   85f78:	17fffe82 	b	85980 <_doprnt.constprop.0+0x500>
   85f7c:	b9408ba1 	ldr	w1, [x29, #136]
   85f80:	11002021 	add	w1, w1, #0x8
   85f84:	7100003f 	cmp	w1, #0x0
   85f88:	5400014d 	b.le	85fb0 <_doprnt.constprop.0+0xb30>
   85f8c:	f94043a2 	ldr	x2, [x29, #128]
   85f90:	b9008ba1 	str	w1, [x29, #136]
   85f94:	91002c46 	add	x6, x2, #0xb
   85f98:	927df0c1 	and	x1, x6, #0xfffffffffffffff8
   85f9c:	f90043a1 	str	x1, [x29, #128]
   85fa0:	39400861 	ldrb	w1, [x3, #2]
   85fa4:	91000863 	add	x3, x3, #0x2
   85fa8:	b9400046 	ldr	w6, [x2]
   85fac:	17fffda1 	b	85630 <_doprnt.constprop.0+0x1b0>
   85fb0:	b9408ba2 	ldr	w2, [x29, #136]
   85fb4:	f9403ba4 	ldr	x4, [x29, #112]
   85fb8:	b9008ba1 	str	w1, [x29, #136]
   85fbc:	8b22c082 	add	x2, x4, w2, sxtw
   85fc0:	17fffff8 	b	85fa0 <_doprnt.constprop.0+0xb20>
   85fc4:	d503201f 	nop
   85fc8:	d503201f 	nop
   85fcc:	d503201f 	nop

0000000000085fd0 <_doprnt>:
   85fd0:	a9ac7bfd 	stp	x29, x30, [sp, #-320]!
   85fd4:	910003fd 	mov	x29, sp
   85fd8:	f9002ffc 	str	x28, [sp, #88]
   85fdc:	aa0003fc 	mov	x28, x0
   85fe0:	f9400020 	ldr	x0, [x1]
   85fe4:	f9004ba0 	str	x0, [x29, #144]
   85fe8:	f9400420 	ldr	x0, [x1, #8]
   85fec:	a9025bf5 	stp	x21, x22, [sp, #32]
   85ff0:	f0000016 	adrp	x22, 88000 <BitFontEnd+0xc0>
   85ff4:	9102e2c4 	add	x4, x22, #0xb8
   85ff8:	f9003fa4 	str	x4, [x29, #120]
   85ffc:	f90043a0 	str	x0, [x29, #128]
   86000:	aa0203f5 	mov	x21, x2
   86004:	b9401820 	ldr	w0, [x1, #24]
   86008:	a90153f3 	stp	x19, x20, [sp, #16]
   8600c:	aa0303f4 	mov	x20, x3
   86010:	b9009fa0 	str	w0, [x29, #156]
   86014:	52800013 	mov	w19, #0x0                   	// #0
   86018:	91004080 	add	x0, x4, #0x10
   8601c:	f9003ba0 	str	x0, [x29, #112]
   86020:	14000007 	b	8603c <_doprnt+0x6c>
   86024:	aa1403e1 	mov	x1, x20
   86028:	d63f02a0 	blr	x21
   8602c:	3100041f 	cmn	w0, #0x1
   86030:	54000f80 	b.eq	86220 <_doprnt+0x250>  // b.none
   86034:	11000673 	add	w19, w19, #0x1
   86038:	9100079c 	add	x28, x28, #0x1
   8603c:	39400380 	ldrb	w0, [x28]
   86040:	34000f20 	cbz	w0, 86224 <_doprnt+0x254>
   86044:	7100941f 	cmp	w0, #0x25
   86048:	54fffee1 	b.ne	86024 <_doprnt+0x54>  // b.any
   8604c:	39400781 	ldrb	w1, [x28, #1]
   86050:	91000782 	add	x2, x28, #0x1
   86054:	7100943f 	cmp	w1, #0x25
   86058:	54000f20 	b.eq	8623c <_doprnt+0x26c>  // b.none
   8605c:	a90363b7 	stp	x23, x24, [x29, #48]
   86060:	52800007 	mov	w7, #0x0                   	// #0
   86064:	a9046bb9 	stp	x25, x26, [x29, #64]
   86068:	5280041a 	mov	w26, #0x20                  	// #32
   8606c:	f9002bbb 	str	x27, [x29, #80]
   86070:	5280001b 	mov	w27, #0x0                   	// #0
   86074:	7100b43f 	cmp	w1, #0x2d
   86078:	54000e60 	b.eq	86244 <_doprnt+0x274>  // b.none
   8607c:	7100c03f 	cmp	w1, #0x30
   86080:	54000ee0 	b.eq	8625c <_doprnt+0x28c>  // b.none
   86084:	71008c3f 	cmp	w1, #0x23
   86088:	54000e40 	b.eq	86250 <_doprnt+0x280>  // b.none
   8608c:	7100a83f 	cmp	w1, #0x2a
   86090:	54000201 	b.ne	860d0 <_doprnt+0x100>  // b.any
   86094:	b9409fa1 	ldr	w1, [x29, #156]
   86098:	37f83f81 	tbnz	w1, #31, 86888 <_doprnt+0x8b8>
   8609c:	f9404ba1 	ldr	x1, [x29, #144]
   860a0:	91002c23 	add	x3, x1, #0xb
   860a4:	927df063 	and	x3, x3, #0xfffffffffffffff8
   860a8:	f9004ba3 	str	x3, [x29, #144]
   860ac:	b9400039 	ldr	w25, [x1]
   860b0:	91000442 	add	x2, x2, #0x1
   860b4:	39400041 	ldrb	w1, [x2]
   860b8:	36f80259 	tbz	w25, #31, 86100 <_doprnt+0x130>
   860bc:	4b1903f9 	neg	w25, w25
   860c0:	52800018 	mov	w24, #0x0                   	// #0
   860c4:	5280003b 	mov	w27, #0x1                   	// #1
   860c8:	5280041a 	mov	w26, #0x20                  	// #32
   860cc:	14000011 	b	86110 <_doprnt+0x140>
   860d0:	5100c023 	sub	w3, w1, #0x30
   860d4:	52800019 	mov	w25, #0x0                   	// #0
   860d8:	12001c65 	and	w5, w3, #0xff
   860dc:	52800146 	mov	w6, #0xa                   	// #10
   860e0:	710024bf 	cmp	w5, #0x9
   860e4:	540000e8 	b.hi	86100 <_doprnt+0x130>  // b.pmore
   860e8:	38401c41 	ldrb	w1, [x2, #1]!
   860ec:	1b060f39 	madd	w25, w25, w6, w3
   860f0:	5100c023 	sub	w3, w1, #0x30
   860f4:	12001c65 	and	w5, w3, #0xff
   860f8:	710024bf 	cmp	w5, #0x9
   860fc:	54ffff69 	b.ls	860e8 <_doprnt+0x118>  // b.plast
   86100:	7100037f 	cmp	w27, #0x0
   86104:	52800403 	mov	w3, #0x20                  	// #32
   86108:	1a9f17f8 	cset	w24, eq  // eq = none
   8610c:	1a83035a 	csel	w26, w26, w3, eq  // eq = none
   86110:	12800005 	mov	w5, #0xffffffff            	// #-1
   86114:	7100b83f 	cmp	w1, #0x2e
   86118:	54000f80 	b.eq	86308 <_doprnt+0x338>  // b.none
   8611c:	7101b03f 	cmp	w1, #0x6c
   86120:	54000ce0 	b.eq	862bc <_doprnt+0x2ec>  // b.none
   86124:	52800043 	mov	w3, #0x2                   	// #2
   86128:	7101a03f 	cmp	w1, #0x68
   8612c:	54001080 	b.eq	8633c <_doprnt+0x36c>  // b.none
   86130:	7101a43f 	cmp	w1, #0x69
   86134:	540024e0 	b.eq	865d0 <_doprnt+0x600>  // b.none
   86138:	54000988 	b.hi	86268 <_doprnt+0x298>  // b.pmore
   8613c:	7101883f 	cmp	w1, #0x62
   86140:	54003200 	b.eq	86780 <_doprnt+0x7b0>  // b.none
   86144:	540021c9 	b.ls	8657c <_doprnt+0x5ac>  // b.plast
   86148:	71018c3f 	cmp	w1, #0x63
   8614c:	540023e1 	b.ne	865c8 <_doprnt+0x5f8>  // b.any
   86150:	b9409fa0 	ldr	w0, [x29, #156]
   86154:	37f83860 	tbnz	w0, #31, 86860 <_doprnt+0x890>
   86158:	f9404ba0 	ldr	x0, [x29, #144]
   8615c:	91002c01 	add	x1, x0, #0xb
   86160:	927df021 	and	x1, x1, #0xfffffffffffffff8
   86164:	f9004ba1 	str	x1, [x29, #144]
   86168:	b9400000 	ldr	w0, [x0]
   8616c:	3902c3a0 	strb	w0, [x29, #176]
   86170:	9102c3a0 	add	x0, x29, #0xb0
   86174:	f90037a0 	str	x0, [x29, #104]
   86178:	3902c7bf 	strb	wzr, [x29, #177]
   8617c:	b9008fa5 	str	w5, [x29, #140]
   86180:	9100045c 	add	x28, x2, #0x1
   86184:	9400031f 	bl	86e00 <strlen>
   86188:	b9009ba0 	str	w0, [x29, #152]
   8618c:	b9408fa5 	ldr	w5, [x29, #140]
   86190:	7100c35f 	cmp	w26, #0x30
   86194:	1a9f0318 	csel	w24, w24, wzr, eq  // eq = none
   86198:	37f829e5 	tbnz	w5, #31, 866d4 <_doprnt+0x704>
   8619c:	6b05001f 	cmp	w0, w5
   861a0:	52800006 	mov	w6, #0x0                   	// #0
   861a4:	1a85d000 	csel	w0, w0, w5, le
   861a8:	52800017 	mov	w23, #0x0                   	// #0
   861ac:	52800005 	mov	w5, #0x0                   	// #0
   861b0:	b9008bbf 	str	wzr, [x29, #136]
   861b4:	b9009ba0 	str	w0, [x29, #152]
   861b8:	b9409ba0 	ldr	w0, [x29, #152]
   861bc:	0b050000 	add	w0, w0, w5
   861c0:	0b060000 	add	w0, w0, w6
   861c4:	6b19001f 	cmp	w0, w25
   861c8:	4b000339 	sub	w25, w25, w0
   861cc:	1a9fb320 	csel	w0, w25, wzr, lt  // lt = tstop
   861d0:	b9008fa0 	str	w0, [x29, #140]
   861d4:	34002258 	cbz	w24, 8661c <_doprnt+0x64c>
   861d8:	b90067bf 	str	wzr, [x29, #100]
   861dc:	340022d7 	cbz	w23, 86634 <_doprnt+0x664>
   861e0:	9102a3b9 	add	x25, x29, #0xa8
   861e4:	11000678 	add	w24, w19, #0x1
   861e8:	d2800016 	mov	x22, #0x0                   	// #0
   861ec:	14000003 	b	861f8 <_doprnt+0x228>
   861f0:	6b1602ff 	cmp	w23, w22
   861f4:	540021ed 	b.le	86630 <_doprnt+0x660>
   861f8:	38766b20 	ldrb	w0, [x25, x22]
   861fc:	0b160313 	add	w19, w24, w22
   86200:	aa1403e1 	mov	x1, x20
   86204:	910006d6 	add	x22, x22, #0x1
   86208:	d63f02a0 	blr	x21
   8620c:	3100041f 	cmn	w0, #0x1
   86210:	54ffff01 	b.ne	861f0 <_doprnt+0x220>  // b.any
   86214:	a94363b7 	ldp	x23, x24, [x29, #48]
   86218:	a9446bb9 	ldp	x25, x26, [x29, #64]
   8621c:	f9402bbb 	ldr	x27, [x29, #80]
   86220:	12800013 	mov	w19, #0xffffffff            	// #-1
   86224:	2a1303e0 	mov	w0, w19
   86228:	f9402ffc 	ldr	x28, [sp, #88]
   8622c:	a94153f3 	ldp	x19, x20, [sp, #16]
   86230:	a9425bf5 	ldp	x21, x22, [sp, #32]
   86234:	a8d47bfd 	ldp	x29, x30, [sp], #320
   86238:	d65f03c0 	ret
   8623c:	aa0203fc 	mov	x28, x2
   86240:	17ffff79 	b	86024 <_doprnt+0x54>
   86244:	5280003b 	mov	w27, #0x1                   	// #1
   86248:	38401c41 	ldrb	w1, [x2, #1]!
   8624c:	17ffff8a 	b	86074 <_doprnt+0xa4>
   86250:	52800027 	mov	w7, #0x1                   	// #1
   86254:	38401c41 	ldrb	w1, [x2, #1]!
   86258:	17ffff87 	b	86074 <_doprnt+0xa4>
   8625c:	2a0103fa 	mov	w26, w1
   86260:	38401c41 	ldrb	w1, [x2, #1]!
   86264:	17ffff84 	b	86074 <_doprnt+0xa4>
   86268:	7101cc3f 	cmp	w1, #0x73
   8626c:	54002d00 	b.eq	8680c <_doprnt+0x83c>  // b.none
   86270:	540008e8 	b.hi	8638c <_doprnt+0x3bc>  // b.pmore
   86274:	7101bc3f 	cmp	w1, #0x6f
   86278:	540003a0 	b.eq	862ec <_doprnt+0x31c>  // b.none
   8627c:	7101c03f 	cmp	w1, #0x70
   86280:	54001821 	b.ne	86584 <_doprnt+0x5b4>  // b.any
   86284:	b9409fa0 	ldr	w0, [x29, #156]
   86288:	37f83ce0 	tbnz	w0, #31, 86a24 <_doprnt+0xa54>
   8628c:	f9404ba0 	ldr	x0, [x29, #144]
   86290:	91003c01 	add	x1, x0, #0xf
   86294:	927df021 	and	x1, x1, #0xfffffffffffffff8
   86298:	f9004ba1 	str	x1, [x29, #144]
   8629c:	9100045c 	add	x28, x2, #0x1
   862a0:	5280008a 	mov	w10, #0x4                   	// #4
   862a4:	d2800208 	mov	x8, #0x10                  	// #16
   862a8:	52800001 	mov	w1, #0x0                   	// #0
   862ac:	52800119 	mov	w25, #0x8                   	// #8
   862b0:	5280061a 	mov	w26, #0x30                  	// #48
   862b4:	f9400000 	ldr	x0, [x0]
   862b8:	14000164 	b	86848 <_doprnt+0x878>
   862bc:	39400441 	ldrb	w1, [x2, #1]
   862c0:	91000443 	add	x3, x2, #0x1
   862c4:	7101a43f 	cmp	w1, #0x69
   862c8:	540010c0 	b.eq	864e0 <_doprnt+0x510>  // b.none
   862cc:	54000fa9 	b.ls	864c0 <_doprnt+0x4f0>  // b.plast
   862d0:	7101cc3f 	cmp	w1, #0x73
   862d4:	540029a0 	b.eq	86808 <_doprnt+0x838>  // b.none
   862d8:	540015e8 	b.hi	86594 <_doprnt+0x5c4>  // b.pmore
   862dc:	aa0303e2 	mov	x2, x3
   862e0:	7101bc3f 	cmp	w1, #0x6f
   862e4:	54fffcc1 	b.ne	8627c <_doprnt+0x2ac>  // b.any
   862e8:	52800063 	mov	w3, #0x3                   	// #3
   862ec:	710004ff 	cmp	w7, #0x1
   862f0:	540018a0 	b.eq	86604 <_doprnt+0x634>  // b.none
   862f4:	5280006a 	mov	w10, #0x3                   	// #3
   862f8:	52800004 	mov	w4, #0x0                   	// #0
   862fc:	d2800108 	mov	x8, #0x8                   	// #8
   86300:	52800001 	mov	w1, #0x0                   	// #0
   86304:	1400002d 	b	863b8 <_doprnt+0x3e8>
   86308:	39400441 	ldrb	w1, [x2, #1]
   8630c:	7100a83f 	cmp	w1, #0x2a
   86310:	54000221 	b.ne	86354 <_doprnt+0x384>  // b.any
   86314:	b9409fa1 	ldr	w1, [x29, #156]
   86318:	37f83021 	tbnz	w1, #31, 8691c <_doprnt+0x94c>
   8631c:	f9404ba3 	ldr	x3, [x29, #144]
   86320:	91002c61 	add	x1, x3, #0xb
   86324:	927df021 	and	x1, x1, #0xfffffffffffffff8
   86328:	f9004ba1 	str	x1, [x29, #144]
   8632c:	39400841 	ldrb	w1, [x2, #2]
   86330:	91000842 	add	x2, x2, #0x2
   86334:	b9400065 	ldr	w5, [x3]
   86338:	17ffff79 	b	8611c <_doprnt+0x14c>
   8633c:	39400441 	ldrb	w1, [x2, #1]
   86340:	7101a03f 	cmp	w1, #0x68
   86344:	54002100 	b.eq	86764 <_doprnt+0x794>  // b.none
   86348:	91000442 	add	x2, x2, #0x1
   8634c:	52800023 	mov	w3, #0x1                   	// #1
   86350:	17ffff78 	b	86130 <_doprnt+0x160>
   86354:	5100c023 	sub	w3, w1, #0x30
   86358:	91000442 	add	x2, x2, #0x1
   8635c:	12001c65 	and	w5, w3, #0xff
   86360:	52800148 	mov	w8, #0xa                   	// #10
   86364:	710024bf 	cmp	w5, #0x9
   86368:	52800005 	mov	w5, #0x0                   	// #0
   8636c:	54ffed88 	b.hi	8611c <_doprnt+0x14c>  // b.pmore
   86370:	38401c41 	ldrb	w1, [x2, #1]!
   86374:	1b080ca5 	madd	w5, w5, w8, w3
   86378:	5100c023 	sub	w3, w1, #0x30
   8637c:	12001c66 	and	w6, w3, #0xff
   86380:	710024df 	cmp	w6, #0x9
   86384:	54ffff69 	b.ls	86370 <_doprnt+0x3a0>  // b.plast
   86388:	17ffff65 	b	8611c <_doprnt+0x14c>
   8638c:	7101d43f 	cmp	w1, #0x75
   86390:	54001120 	b.eq	865b4 <_doprnt+0x5e4>  // b.none
   86394:	7101e03f 	cmp	w1, #0x78
   86398:	52800001 	mov	w1, #0x0                   	// #0
   8639c:	54000f41 	b.ne	86584 <_doprnt+0x5b4>  // b.any
   863a0:	5280008a 	mov	w10, #0x4                   	// #4
   863a4:	52800004 	mov	w4, #0x0                   	// #0
   863a8:	d2800208 	mov	x8, #0x10                  	// #16
   863ac:	710004ff 	cmp	w7, #0x1
   863b0:	54000041 	b.ne	863b8 <_doprnt+0x3e8>  // b.any
   863b4:	52800067 	mov	w7, #0x3                   	// #3
   863b8:	71000c7f 	cmp	w3, #0x3
   863bc:	54001f20 	b.eq	867a0 <_doprnt+0x7d0>  // b.none
   863c0:	b9409fa0 	ldr	w0, [x29, #156]
   863c4:	37f82fc0 	tbnz	w0, #31, 869bc <_doprnt+0x9ec>
   863c8:	f9404ba0 	ldr	x0, [x29, #144]
   863cc:	91002c03 	add	x3, x0, #0xb
   863d0:	927df063 	and	x3, x3, #0xfffffffffffffff8
   863d4:	f9004ba3 	str	x3, [x29, #144]
   863d8:	b9400000 	ldr	w0, [x0]
   863dc:	f100001f 	cmp	x0, #0x0
   863e0:	9100045c 	add	x28, x2, #0x1
   863e4:	7a401884 	ccmp	w4, #0x0, #0x4, ne  // ne = any
   863e8:	540022c0 	b.eq	86840 <_doprnt+0x870>  // b.none
   863ec:	52800602 	mov	w2, #0x30                  	// #48
   863f0:	52800006 	mov	w6, #0x0                   	// #0
   863f4:	3902a3a2 	strb	w2, [x29, #168]
   863f8:	52800037 	mov	w23, #0x1                   	// #1
   863fc:	b9008bbf 	str	wzr, [x29, #136]
   86400:	34000961 	cbz	w1, 8652c <_doprnt+0x55c>
   86404:	3903e3bf 	strb	wzr, [x29, #248]
   86408:	f9403fa9 	ldr	x9, [x29, #120]
   8640c:	3400096a 	cbz	w10, 86538 <_doprnt+0x568>
   86410:	92800008 	mov	x8, #0xffffffffffffffff    	// #-1
   86414:	9aca2402 	lsr	x2, x0, x10
   86418:	9aca2108 	lsl	x8, x8, x10
   8641c:	aa2803e8 	mvn	x8, x8
   86420:	8a000101 	and	x1, x8, x0
   86424:	38616920 	ldrb	w0, [x9, x1]
   86428:	3903e7a0 	strb	w0, [x29, #249]
   8642c:	b4001a42 	cbz	x2, 86774 <_doprnt+0x7a4>
   86430:	9103e3a7 	add	x7, x29, #0xf8
   86434:	d2800043 	mov	x3, #0x2                   	// #2
   86438:	8a020100 	and	x0, x8, x2
   8643c:	2a0303e1 	mov	w1, w3
   86440:	9aca2442 	lsr	x2, x2, x10
   86444:	38606920 	ldrb	w0, [x9, x0]
   86448:	382368e0 	strb	w0, [x7, x3]
   8644c:	91000463 	add	x3, x3, #0x1
   86450:	b5ffff42 	cbnz	x2, 86438 <_doprnt+0x468>
   86454:	51000423 	sub	w3, w1, #0x1
   86458:	93407c22 	sxtw	x2, w1
   8645c:	91000442 	add	x2, x2, #0x1
   86460:	9102c3a1 	add	x1, x29, #0xb0
   86464:	8b23c0e3 	add	x3, x7, w3, sxtw
   86468:	8b020022 	add	x2, x1, x2
   8646c:	14000002 	b	86474 <_doprnt+0x4a4>
   86470:	385ff460 	ldrb	w0, [x3], #-1
   86474:	38001420 	strb	w0, [x1], #1
   86478:	eb02003f 	cmp	x1, x2
   8647c:	54ffffa1 	b.ne	86470 <_doprnt+0x4a0>  // b.any
   86480:	b9006ba6 	str	w6, [x29, #104]
   86484:	9102c3a0 	add	x0, x29, #0xb0
   86488:	b9008fa5 	str	w5, [x29, #140]
   8648c:	9400025d 	bl	86e00 <strlen>
   86490:	b9408fa5 	ldr	w5, [x29, #140]
   86494:	b9009ba0 	str	w0, [x29, #152]
   86498:	b9406ba6 	ldr	w6, [x29, #104]
   8649c:	37f81265 	tbnz	w5, #31, 866e8 <_doprnt+0x718>
   864a0:	6b0000bf 	cmp	w5, w0
   864a4:	5400148d 	b.le	86734 <_doprnt+0x764>
   864a8:	4b0000a5 	sub	w5, w5, w0
   864ac:	52800018 	mov	w24, #0x0                   	// #0
   864b0:	9102c3a0 	add	x0, x29, #0xb0
   864b4:	5280041a 	mov	w26, #0x20                  	// #32
   864b8:	f90037a0 	str	x0, [x29, #104]
   864bc:	17ffff3f 	b	861b8 <_doprnt+0x1e8>
   864c0:	aa0303e2 	mov	x2, x3
   864c4:	7101883f 	cmp	w1, #0x62
   864c8:	540017c0 	b.eq	867c0 <_doprnt+0x7f0>  // b.none
   864cc:	54000929 	b.ls	865f0 <_doprnt+0x620>  // b.plast
   864d0:	71018c3f 	cmp	w1, #0x63
   864d4:	54ffe3e0 	b.eq	86150 <_doprnt+0x180>  // b.none
   864d8:	7101903f 	cmp	w1, #0x64
   864dc:	54000541 	b.ne	86584 <_doprnt+0x5b4>  // b.any
   864e0:	b9409fa0 	ldr	w0, [x29, #156]
   864e4:	37f82780 	tbnz	w0, #31, 869d4 <_doprnt+0xa04>
   864e8:	f9404ba0 	ldr	x0, [x29, #144]
   864ec:	91003c01 	add	x1, x0, #0xf
   864f0:	927df021 	and	x1, x1, #0xfffffffffffffff8
   864f4:	f9004ba1 	str	x1, [x29, #144]
   864f8:	f9400000 	ldr	x0, [x0]
   864fc:	aa0303e2 	mov	x2, x3
   86500:	b9008bbf 	str	wzr, [x29, #136]
   86504:	52800006 	mov	w6, #0x0                   	// #0
   86508:	b6f800a0 	tbz	x0, #63, 8651c <_doprnt+0x54c>
   8650c:	cb0003e0 	neg	x0, x0
   86510:	528005a1 	mov	w1, #0x2d                  	// #45
   86514:	52800026 	mov	w6, #0x1                   	// #1
   86518:	b9008ba1 	str	w1, [x29, #136]
   8651c:	9100045c 	add	x28, x2, #0x1
   86520:	5280000a 	mov	w10, #0x0                   	// #0
   86524:	d2800148 	mov	x8, #0xa                   	// #10
   86528:	52800017 	mov	w23, #0x0                   	// #0
   8652c:	3903e3bf 	strb	wzr, [x29, #248]
   86530:	f9403ba9 	ldr	x9, [x29, #112]
   86534:	35fff6ea 	cbnz	w10, 86410 <_doprnt+0x440>
   86538:	9ac80802 	udiv	x2, x0, x8
   8653c:	9b088040 	msub	x0, x2, x8, x0
   86540:	38606920 	ldrb	w0, [x9, x0]
   86544:	3903e7a0 	strb	w0, [x29, #249]
   86548:	b4001162 	cbz	x2, 86774 <_doprnt+0x7a4>
   8654c:	9103e3a7 	add	x7, x29, #0xf8
   86550:	d2800043 	mov	x3, #0x2                   	// #2
   86554:	d503201f 	nop
   86558:	9ac80840 	udiv	x0, x2, x8
   8655c:	9b088801 	msub	x1, x0, x8, x2
   86560:	aa0003e2 	mov	x2, x0
   86564:	38616920 	ldrb	w0, [x9, x1]
   86568:	2a0303e1 	mov	w1, w3
   8656c:	382368e0 	strb	w0, [x7, x3]
   86570:	91000463 	add	x3, x3, #0x1
   86574:	b5ffff22 	cbnz	x2, 86558 <_doprnt+0x588>
   86578:	17ffffb7 	b	86454 <_doprnt+0x484>
   8657c:	7101603f 	cmp	w1, #0x58
   86580:	540003e0 	b.eq	865fc <_doprnt+0x62c>  // b.none
   86584:	a94363b7 	ldp	x23, x24, [x29, #48]
   86588:	a9446bb9 	ldp	x25, x26, [x29, #64]
   8658c:	f9402bbb 	ldr	x27, [x29, #80]
   86590:	17fffea5 	b	86024 <_doprnt+0x54>
   86594:	7101d43f 	cmp	w1, #0x75
   86598:	54000fa0 	b.eq	8678c <_doprnt+0x7bc>  // b.none
   8659c:	7101e03f 	cmp	w1, #0x78
   865a0:	54ffff21 	b.ne	86584 <_doprnt+0x5b4>  // b.any
   865a4:	aa0303e2 	mov	x2, x3
   865a8:	52800001 	mov	w1, #0x0                   	// #0
   865ac:	52800063 	mov	w3, #0x3                   	// #3
   865b0:	17ffff7c 	b	863a0 <_doprnt+0x3d0>
   865b4:	5280000a 	mov	w10, #0x0                   	// #0
   865b8:	d2800148 	mov	x8, #0xa                   	// #10
   865bc:	52800004 	mov	w4, #0x0                   	// #0
   865c0:	52800001 	mov	w1, #0x0                   	// #0
   865c4:	17ffff7f 	b	863c0 <_doprnt+0x3f0>
   865c8:	7101903f 	cmp	w1, #0x64
   865cc:	54fffdc1 	b.ne	86584 <_doprnt+0x5b4>  // b.any
   865d0:	b9409fa0 	ldr	w0, [x29, #156]
   865d4:	37f818e0 	tbnz	w0, #31, 868f0 <_doprnt+0x920>
   865d8:	f9404ba0 	ldr	x0, [x29, #144]
   865dc:	91002c01 	add	x1, x0, #0xb
   865e0:	927df021 	and	x1, x1, #0xfffffffffffffff8
   865e4:	b9800000 	ldrsw	x0, [x0]
   865e8:	f9004ba1 	str	x1, [x29, #144]
   865ec:	17ffffc5 	b	86500 <_doprnt+0x530>
   865f0:	52800063 	mov	w3, #0x3                   	// #3
   865f4:	7101603f 	cmp	w1, #0x58
   865f8:	54fffc61 	b.ne	86584 <_doprnt+0x5b4>  // b.any
   865fc:	52800021 	mov	w1, #0x1                   	// #1
   86600:	17ffff68 	b	863a0 <_doprnt+0x3d0>
   86604:	2a0703e4 	mov	w4, w7
   86608:	5280006a 	mov	w10, #0x3                   	// #3
   8660c:	d2800108 	mov	x8, #0x8                   	// #8
   86610:	52800001 	mov	w1, #0x0                   	// #0
   86614:	52800047 	mov	w7, #0x2                   	// #2
   86618:	17ffff68 	b	863b8 <_doprnt+0x3e8>
   8661c:	b9408fa0 	ldr	w0, [x29, #140]
   86620:	b90067a0 	str	w0, [x29, #100]
   86624:	b9008fa5 	str	w5, [x29, #140]
   86628:	35ffddd7 	cbnz	w23, 861e0 <_doprnt+0x210>
   8662c:	d503201f 	nop
   86630:	3400069b 	cbz	w27, 86700 <_doprnt+0x730>
   86634:	b9408ba0 	ldr	w0, [x29, #136]
   86638:	340000c0 	cbz	w0, 86650 <_doprnt+0x680>
   8663c:	aa1403e1 	mov	x1, x20
   86640:	d63f02a0 	blr	x21
   86644:	3100041f 	cmn	w0, #0x1
   86648:	54ffde60 	b.eq	86214 <_doprnt+0x244>  // b.none
   8664c:	11000673 	add	w19, w19, #0x1
   86650:	b9408fa0 	ldr	w0, [x29, #140]
   86654:	0b000277 	add	w23, w19, w0
   86658:	35000080 	cbnz	w0, 86668 <_doprnt+0x698>
   8665c:	1400000d 	b	86690 <_doprnt+0x6c0>
   86660:	6b17027f 	cmp	w19, w23
   86664:	54000180 	b.eq	86694 <_doprnt+0x6c4>  // b.none
   86668:	aa1403e1 	mov	x1, x20
   8666c:	52800600 	mov	w0, #0x30                  	// #48
   86670:	11000673 	add	w19, w19, #0x1
   86674:	d63f02a0 	blr	x21
   86678:	3100041f 	cmn	w0, #0x1
   8667c:	54ffff21 	b.ne	86660 <_doprnt+0x690>  // b.any
   86680:	a94363b7 	ldp	x23, x24, [x29, #48]
   86684:	a9446bb9 	ldp	x25, x26, [x29, #64]
   86688:	f9402bbb 	ldr	x27, [x29, #80]
   8668c:	17fffee5 	b	86220 <_doprnt+0x250>
   86690:	2a1303f7 	mov	w23, w19
   86694:	b9409ba0 	ldr	w0, [x29, #152]
   86698:	7100001f 	cmp	w0, #0x0
   8669c:	5400058d 	b.le	8674c <_doprnt+0x77c>
   866a0:	0b0002f3 	add	w19, w23, w0
   866a4:	f94037b8 	ldr	x24, [x29, #104]
   866a8:	14000003 	b	866b4 <_doprnt+0x6e4>
   866ac:	6b1302ff 	cmp	w23, w19
   866b0:	54000500 	b.eq	86750 <_doprnt+0x780>  // b.none
   866b4:	39400300 	ldrb	w0, [x24]
   866b8:	aa1403e1 	mov	x1, x20
   866bc:	110006f7 	add	w23, w23, #0x1
   866c0:	91000718 	add	x24, x24, #0x1
   866c4:	d63f02a0 	blr	x21
   866c8:	3100041f 	cmn	w0, #0x1
   866cc:	54ffff01 	b.ne	866ac <_doprnt+0x6dc>  // b.any
   866d0:	17fffed1 	b	86214 <_doprnt+0x244>
   866d4:	52800006 	mov	w6, #0x0                   	// #0
   866d8:	52800017 	mov	w23, #0x0                   	// #0
   866dc:	52800005 	mov	w5, #0x0                   	// #0
   866e0:	b9008bbf 	str	wzr, [x29, #136]
   866e4:	17fffeb5 	b	861b8 <_doprnt+0x1e8>
   866e8:	7100c35f 	cmp	w26, #0x30
   866ec:	9102c3a0 	add	x0, x29, #0xb0
   866f0:	1a9f0318 	csel	w24, w24, wzr, eq  // eq = none
   866f4:	52800005 	mov	w5, #0x0                   	// #0
   866f8:	f90037a0 	str	x0, [x29, #104]
   866fc:	17fffeaf 	b	861b8 <_doprnt+0x1e8>
   86700:	b94067a0 	ldr	w0, [x29, #100]
   86704:	34fff980 	cbz	w0, 86634 <_doprnt+0x664>
   86708:	0b000277 	add	w23, w19, w0
   8670c:	14000003 	b	86718 <_doprnt+0x748>
   86710:	6b17027f 	cmp	w19, w23
   86714:	54fff900 	b.eq	86634 <_doprnt+0x664>  // b.none
   86718:	aa1403e1 	mov	x1, x20
   8671c:	2a1a03e0 	mov	w0, w26
   86720:	11000673 	add	w19, w19, #0x1
   86724:	d63f02a0 	blr	x21
   86728:	3100041f 	cmn	w0, #0x1
   8672c:	54ffff21 	b.ne	86710 <_doprnt+0x740>  // b.any
   86730:	17fffeb9 	b	86214 <_doprnt+0x244>
   86734:	9102c3a0 	add	x0, x29, #0xb0
   86738:	52800018 	mov	w24, #0x0                   	// #0
   8673c:	52800005 	mov	w5, #0x0                   	// #0
   86740:	5280041a 	mov	w26, #0x20                  	// #32
   86744:	f90037a0 	str	x0, [x29, #104]
   86748:	17fffe9c 	b	861b8 <_doprnt+0x1e8>
   8674c:	2a1703f3 	mov	w19, w23
   86750:	3500043b 	cbnz	w27, 867d4 <_doprnt+0x804>
   86754:	a94363b7 	ldp	x23, x24, [x29, #48]
   86758:	a9446bb9 	ldp	x25, x26, [x29, #64]
   8675c:	f9402bbb 	ldr	x27, [x29, #80]
   86760:	17fffe37 	b	8603c <_doprnt+0x6c>
   86764:	39400841 	ldrb	w1, [x2, #2]
   86768:	52800003 	mov	w3, #0x0                   	// #0
   8676c:	91000842 	add	x2, x2, #0x2
   86770:	17fffe70 	b	86130 <_doprnt+0x160>
   86774:	52800021 	mov	w1, #0x1                   	// #1
   86778:	9103e3a7 	add	x7, x29, #0xf8
   8677c:	17ffff36 	b	86454 <_doprnt+0x484>
   86780:	5280002a 	mov	w10, #0x1                   	// #1
   86784:	d2800048 	mov	x8, #0x2                   	// #2
   86788:	17ffff8d 	b	865bc <_doprnt+0x5ec>
   8678c:	aa0303e2 	mov	x2, x3
   86790:	5280000a 	mov	w10, #0x0                   	// #0
   86794:	52800004 	mov	w4, #0x0                   	// #0
   86798:	d2800148 	mov	x8, #0xa                   	// #10
   8679c:	52800001 	mov	w1, #0x0                   	// #0
   867a0:	b9409fa0 	ldr	w0, [x29, #156]
   867a4:	37f809a0 	tbnz	w0, #31, 868d8 <_doprnt+0x908>
   867a8:	f9404ba0 	ldr	x0, [x29, #144]
   867ac:	91003c03 	add	x3, x0, #0xf
   867b0:	927df063 	and	x3, x3, #0xfffffffffffffff8
   867b4:	f9400000 	ldr	x0, [x0]
   867b8:	f9004ba3 	str	x3, [x29, #144]
   867bc:	17ffff08 	b	863dc <_doprnt+0x40c>
   867c0:	5280002a 	mov	w10, #0x1                   	// #1
   867c4:	52800004 	mov	w4, #0x0                   	// #0
   867c8:	d2800048 	mov	x8, #0x2                   	// #2
   867cc:	52800001 	mov	w1, #0x0                   	// #0
   867d0:	17fffff4 	b	867a0 <_doprnt+0x7d0>
   867d4:	b94067a0 	ldr	w0, [x29, #100]
   867d8:	34fffbe0 	cbz	w0, 86754 <_doprnt+0x784>
   867dc:	0b130017 	add	w23, w0, w19
   867e0:	14000003 	b	867ec <_doprnt+0x81c>
   867e4:	6b17027f 	cmp	w19, w23
   867e8:	54fffb60 	b.eq	86754 <_doprnt+0x784>  // b.none
   867ec:	aa1403e1 	mov	x1, x20
   867f0:	2a1a03e0 	mov	w0, w26
   867f4:	11000673 	add	w19, w19, #0x1
   867f8:	d63f02a0 	blr	x21
   867fc:	3100041f 	cmn	w0, #0x1
   86800:	54ffff21 	b.ne	867e4 <_doprnt+0x814>  // b.any
   86804:	17fffe84 	b	86214 <_doprnt+0x244>
   86808:	aa0303e2 	mov	x2, x3
   8680c:	b9409fa0 	ldr	w0, [x29, #156]
   86810:	37f80ac0 	tbnz	w0, #31, 86968 <_doprnt+0x998>
   86814:	f9404ba0 	ldr	x0, [x29, #144]
   86818:	91003c01 	add	x1, x0, #0xf
   8681c:	927df021 	and	x1, x1, #0xfffffffffffffff8
   86820:	f9004ba1 	str	x1, [x29, #144]
   86824:	f9400001 	ldr	x1, [x0]
   86828:	d0000000 	adrp	x0, 88000 <BitFontEnd+0xc0>
   8682c:	91036000 	add	x0, x0, #0xd8
   86830:	f100003f 	cmp	x1, #0x0
   86834:	9a810000 	csel	x0, x0, x1, eq  // eq = none
   86838:	f90037a0 	str	x0, [x29, #104]
   8683c:	17fffe50 	b	8617c <_doprnt+0x1ac>
   86840:	71000cff 	cmp	w7, #0x3
   86844:	54000801 	b.ne	86944 <_doprnt+0x974>  // b.any
   86848:	528f0602 	mov	w2, #0x7830                	// #30768
   8684c:	52800006 	mov	w6, #0x0                   	// #0
   86850:	790153a2 	strh	w2, [x29, #168]
   86854:	52800057 	mov	w23, #0x2                   	// #2
   86858:	b9008bbf 	str	wzr, [x29, #136]
   8685c:	17fffee9 	b	86400 <_doprnt+0x430>
   86860:	b9409fa0 	ldr	w0, [x29, #156]
   86864:	11002001 	add	w1, w0, #0x8
   86868:	7100003f 	cmp	w1, #0x0
   8686c:	5400022d 	b.le	868b0 <_doprnt+0x8e0>
   86870:	f9404ba0 	ldr	x0, [x29, #144]
   86874:	b9009fa1 	str	w1, [x29, #156]
   86878:	91002c03 	add	x3, x0, #0xb
   8687c:	927df061 	and	x1, x3, #0xfffffffffffffff8
   86880:	f9004ba1 	str	x1, [x29, #144]
   86884:	17fffe39 	b	86168 <_doprnt+0x198>
   86888:	b9409fa1 	ldr	w1, [x29, #156]
   8688c:	11002023 	add	w3, w1, #0x8
   86890:	7100007f 	cmp	w3, #0x0
   86894:	5400018d 	b.le	868c4 <_doprnt+0x8f4>
   86898:	f9404ba1 	ldr	x1, [x29, #144]
   8689c:	b9009fa3 	str	w3, [x29, #156]
   868a0:	91002c25 	add	x5, x1, #0xb
   868a4:	927df0a3 	and	x3, x5, #0xfffffffffffffff8
   868a8:	f9004ba3 	str	x3, [x29, #144]
   868ac:	17fffe00 	b	860ac <_doprnt+0xdc>
   868b0:	b9409fa0 	ldr	w0, [x29, #156]
   868b4:	f94043a3 	ldr	x3, [x29, #128]
   868b8:	b9009fa1 	str	w1, [x29, #156]
   868bc:	8b20c060 	add	x0, x3, w0, sxtw
   868c0:	17fffe2a 	b	86168 <_doprnt+0x198>
   868c4:	b9409fa1 	ldr	w1, [x29, #156]
   868c8:	f94043a4 	ldr	x4, [x29, #128]
   868cc:	b9009fa3 	str	w3, [x29, #156]
   868d0:	8b21c081 	add	x1, x4, w1, sxtw
   868d4:	17fffdf6 	b	860ac <_doprnt+0xdc>
   868d8:	b9409fa0 	ldr	w0, [x29, #156]
   868dc:	11002003 	add	w3, w0, #0x8
   868e0:	7100007f 	cmp	w3, #0x0
   868e4:	5400056d 	b.le	86990 <_doprnt+0x9c0>
   868e8:	b9009fa3 	str	w3, [x29, #156]
   868ec:	17ffffaf 	b	867a8 <_doprnt+0x7d8>
   868f0:	b9409fa0 	ldr	w0, [x29, #156]
   868f4:	11002001 	add	w1, w0, #0x8
   868f8:	7100003f 	cmp	w1, #0x0
   868fc:	54000a8d 	b.le	86a4c <_doprnt+0xa7c>
   86900:	f9404ba0 	ldr	x0, [x29, #144]
   86904:	b9009fa1 	str	w1, [x29, #156]
   86908:	91002c03 	add	x3, x0, #0xb
   8690c:	927df061 	and	x1, x3, #0xfffffffffffffff8
   86910:	b9800000 	ldrsw	x0, [x0]
   86914:	f9004ba1 	str	x1, [x29, #144]
   86918:	17fffefa 	b	86500 <_doprnt+0x530>
   8691c:	b9409fa1 	ldr	w1, [x29, #156]
   86920:	11002021 	add	w1, w1, #0x8
   86924:	7100003f 	cmp	w1, #0x0
   86928:	5400016d 	b.le	86954 <_doprnt+0x984>
   8692c:	f9404ba3 	ldr	x3, [x29, #144]
   86930:	b9009fa1 	str	w1, [x29, #156]
   86934:	91002c65 	add	x5, x3, #0xb
   86938:	927df0a1 	and	x1, x5, #0xfffffffffffffff8
   8693c:	f9004ba1 	str	x1, [x29, #144]
   86940:	17fffe7b 	b	8632c <_doprnt+0x35c>
   86944:	52800006 	mov	w6, #0x0                   	// #0
   86948:	52800017 	mov	w23, #0x0                   	// #0
   8694c:	b9008bbf 	str	wzr, [x29, #136]
   86950:	17fffeac 	b	86400 <_doprnt+0x430>
   86954:	b9409fa3 	ldr	w3, [x29, #156]
   86958:	f94043a4 	ldr	x4, [x29, #128]
   8695c:	b9009fa1 	str	w1, [x29, #156]
   86960:	8b23c083 	add	x3, x4, w3, sxtw
   86964:	17fffe72 	b	8632c <_doprnt+0x35c>
   86968:	b9409fa0 	ldr	w0, [x29, #156]
   8696c:	11002001 	add	w1, w0, #0x8
   86970:	7100003f 	cmp	w1, #0x0
   86974:	540001ad 	b.le	869a8 <_doprnt+0x9d8>
   86978:	f9404ba0 	ldr	x0, [x29, #144]
   8697c:	b9009fa1 	str	w1, [x29, #156]
   86980:	91003c03 	add	x3, x0, #0xf
   86984:	927df061 	and	x1, x3, #0xfffffffffffffff8
   86988:	f9004ba1 	str	x1, [x29, #144]
   8698c:	17ffffa6 	b	86824 <_doprnt+0x854>
   86990:	b9409fa0 	ldr	w0, [x29, #156]
   86994:	f94043a6 	ldr	x6, [x29, #128]
   86998:	b9009fa3 	str	w3, [x29, #156]
   8699c:	8b20c0c0 	add	x0, x6, w0, sxtw
   869a0:	f9400000 	ldr	x0, [x0]
   869a4:	17fffe8e 	b	863dc <_doprnt+0x40c>
   869a8:	b9409fa0 	ldr	w0, [x29, #156]
   869ac:	f94043a3 	ldr	x3, [x29, #128]
   869b0:	b9009fa1 	str	w1, [x29, #156]
   869b4:	8b20c060 	add	x0, x3, w0, sxtw
   869b8:	17ffff9b 	b	86824 <_doprnt+0x854>
   869bc:	b9409fa0 	ldr	w0, [x29, #156]
   869c0:	11002003 	add	w3, w0, #0x8
   869c4:	7100007f 	cmp	w3, #0x0
   869c8:	540001ad 	b.le	869fc <_doprnt+0xa2c>
   869cc:	b9009fa3 	str	w3, [x29, #156]
   869d0:	17fffe7e 	b	863c8 <_doprnt+0x3f8>
   869d4:	b9409fa0 	ldr	w0, [x29, #156]
   869d8:	11002001 	add	w1, w0, #0x8
   869dc:	7100003f 	cmp	w1, #0x0
   869e0:	5400018d 	b.le	86a10 <_doprnt+0xa40>
   869e4:	f9404ba0 	ldr	x0, [x29, #144]
   869e8:	b9009fa1 	str	w1, [x29, #156]
   869ec:	91003c02 	add	x2, x0, #0xf
   869f0:	927df041 	and	x1, x2, #0xfffffffffffffff8
   869f4:	f9004ba1 	str	x1, [x29, #144]
   869f8:	17fffec0 	b	864f8 <_doprnt+0x528>
   869fc:	b9409fa0 	ldr	w0, [x29, #156]
   86a00:	f94043a6 	ldr	x6, [x29, #128]
   86a04:	b9009fa3 	str	w3, [x29, #156]
   86a08:	8b20c0c0 	add	x0, x6, w0, sxtw
   86a0c:	17fffe73 	b	863d8 <_doprnt+0x408>
   86a10:	b9409fa0 	ldr	w0, [x29, #156]
   86a14:	f94043a2 	ldr	x2, [x29, #128]
   86a18:	b9009fa1 	str	w1, [x29, #156]
   86a1c:	8b20c040 	add	x0, x2, w0, sxtw
   86a20:	17fffeb6 	b	864f8 <_doprnt+0x528>
   86a24:	b9409fa0 	ldr	w0, [x29, #156]
   86a28:	11002001 	add	w1, w0, #0x8
   86a2c:	7100003f 	cmp	w1, #0x0
   86a30:	540001ad 	b.le	86a64 <_doprnt+0xa94>
   86a34:	f9404ba0 	ldr	x0, [x29, #144]
   86a38:	b9009fa1 	str	w1, [x29, #156]
   86a3c:	91003c03 	add	x3, x0, #0xf
   86a40:	927df061 	and	x1, x3, #0xfffffffffffffff8
   86a44:	f9004ba1 	str	x1, [x29, #144]
   86a48:	17fffe15 	b	8629c <_doprnt+0x2cc>
   86a4c:	b9409fa0 	ldr	w0, [x29, #156]
   86a50:	f94043a3 	ldr	x3, [x29, #128]
   86a54:	b9009fa1 	str	w1, [x29, #156]
   86a58:	8b20c060 	add	x0, x3, w0, sxtw
   86a5c:	b9800000 	ldrsw	x0, [x0]
   86a60:	17fffea8 	b	86500 <_doprnt+0x530>
   86a64:	b9409fa0 	ldr	w0, [x29, #156]
   86a68:	f94043a3 	ldr	x3, [x29, #128]
   86a6c:	b9009fa1 	str	w1, [x29, #156]
   86a70:	8b20c060 	add	x0, x3, w0, sxtw
   86a74:	17fffe0a 	b	8629c <_doprnt+0x2cc>
   86a78:	d503201f 	nop
   86a7c:	d503201f 	nop

0000000000086a80 <Init_EmbStdio>:
   86a80:	d0000001 	adrp	x1, 88000 <BitFontEnd+0xc0>
   86a84:	f900cc20 	str	x0, [x1, #408]
   86a88:	d65f03c0 	ret
   86a8c:	d503201f 	nop

0000000000086a90 <printf>:
   86a90:	a9af7bfd 	stp	x29, x30, [sp, #-272]!
   86a94:	d0000008 	adrp	x8, 88000 <BitFontEnd+0xc0>
   86a98:	91064109 	add	x9, x8, #0x190
   86a9c:	910003fd 	mov	x29, sp
   86aa0:	a90d8ba1 	stp	x1, x2, [x29, #216]
   86aa4:	f9400522 	ldr	x2, [x9, #8]
   86aa8:	a90e93a3 	stp	x3, x4, [x29, #232]
   86aac:	a90f9ba5 	stp	x5, x6, [x29, #248]
   86ab0:	f90087a7 	str	x7, [x29, #264]
   86ab4:	3d8017a0 	str	q0, [x29, #80]
   86ab8:	3d801ba1 	str	q1, [x29, #96]
   86abc:	3d801fa2 	str	q2, [x29, #112]
   86ac0:	3d8023a3 	str	q3, [x29, #128]
   86ac4:	3d8027a4 	str	q4, [x29, #144]
   86ac8:	3d802ba5 	str	q5, [x29, #160]
   86acc:	3d802fa6 	str	q6, [x29, #176]
   86ad0:	3d8033a7 	str	q7, [x29, #192]
   86ad4:	b40002a2 	cbz	x2, 86b28 <printf+0x98>
   86ad8:	910443a1 	add	x1, x29, #0x110
   86adc:	a90307a1 	stp	x1, x1, [x29, #48]
   86ae0:	128006e1 	mov	w1, #0xffffffc8            	// #-56
   86ae4:	910343a3 	add	x3, x29, #0xd0
   86ae8:	f90023a3 	str	x3, [x29, #64]
   86aec:	12b00003 	mov	w3, #0x7fffffff            	// #2147483647
   86af0:	b9004ba1 	str	w1, [x29, #72]
   86af4:	12800fe1 	mov	w1, #0xffffff80            	// #-128
   86af8:	b9004fa1 	str	w1, [x29, #76]
   86afc:	d0000001 	adrp	x1, 88000 <BitFontEnd+0xc0>
   86b00:	a9431fa6 	ldp	x6, x7, [x29, #48]
   86b04:	b9010c23 	str	w3, [x1, #268]
   86b08:	a94417a4 	ldp	x4, x5, [x29, #64]
   86b0c:	b901911f 	str	wzr, [x8, #400]
   86b10:	a9011fa6 	stp	x6, x7, [x29, #16]
   86b14:	910043a1 	add	x1, x29, #0x10
   86b18:	a90217a4 	stp	x4, x5, [x29, #32]
   86b1c:	97fffa59 	bl	85480 <_doprnt.constprop.0>
   86b20:	a8d17bfd 	ldp	x29, x30, [sp], #272
   86b24:	d65f03c0 	ret
   86b28:	12800000 	mov	w0, #0xffffffff            	// #-1
   86b2c:	17fffffd 	b	86b20 <printf+0x90>

0000000000086b30 <sprintf>:
   86b30:	a9ae7bfd 	stp	x29, x30, [sp, #-288]!
   86b34:	d000000e 	adrp	x14, 88000 <BitFontEnd+0xc0>
   86b38:	910003fd 	mov	x29, sp
   86b3c:	910483a8 	add	x8, x29, #0x120
   86b40:	9103c3a9 	add	x9, x29, #0xf0
   86b44:	f9000bf3 	str	x19, [sp, #16]
   86b48:	aa0003f3 	mov	x19, x0
   86b4c:	a90523a8 	stp	x8, x8, [x29, #80]
   86b50:	128005e8 	mov	w8, #0xffffffd0            	// #-48
   86b54:	f90033a9 	str	x9, [x29, #96]
   86b58:	d0000009 	adrp	x9, 88000 <BitFontEnd+0xc0>
   86b5c:	b9006ba8 	str	w8, [x29, #104]
   86b60:	12800fe8 	mov	w8, #0xffffff80            	// #-128
   86b64:	b9006fa8 	str	w8, [x29, #108]
   86b68:	aa0103e8 	mov	x8, x1
   86b6c:	a94537ac 	ldp	x12, x13, [x29, #80]
   86b70:	12b00000 	mov	w0, #0x7fffffff            	// #2147483647
   86b74:	a9462faa 	ldp	x10, x11, [x29, #96]
   86b78:	a90237ac 	stp	x12, x13, [x29, #32]
   86b7c:	a9032faa 	stp	x10, x11, [x29, #48]
   86b80:	910083a1 	add	x1, x29, #0x20
   86b84:	f90027b3 	str	x19, [x29, #72]
   86b88:	3d801fa0 	str	q0, [x29, #112]
   86b8c:	3d8023a1 	str	q1, [x29, #128]
   86b90:	3d8027a2 	str	q2, [x29, #144]
   86b94:	3d802ba3 	str	q3, [x29, #160]
   86b98:	3d802fa4 	str	q4, [x29, #176]
   86b9c:	3d8033a5 	str	q5, [x29, #192]
   86ba0:	3d8037a6 	str	q6, [x29, #208]
   86ba4:	3d803ba7 	str	q7, [x29, #224]
   86ba8:	a90f0fa2 	stp	x2, x3, [x29, #240]
   86bac:	910123a2 	add	x2, x29, #0x48
   86bb0:	a91017a4 	stp	x4, x5, [x29, #256]
   86bb4:	a9111fa6 	stp	x6, x7, [x29, #272]
   86bb8:	b9010d20 	str	w0, [x9, #268]
   86bbc:	aa0803e0 	mov	x0, x8
   86bc0:	b90191df 	str	wzr, [x14, #400]
   86bc4:	97fff76f 	bl	84980 <_doprnt.constprop.1>
   86bc8:	f94027a0 	ldr	x0, [x29, #72]
   86bcc:	3900001f 	strb	wzr, [x0]
   86bd0:	f94027a0 	ldr	x0, [x29, #72]
   86bd4:	4b130000 	sub	w0, w0, w19
   86bd8:	f9400bf3 	ldr	x19, [sp, #16]
   86bdc:	a8d27bfd 	ldp	x29, x30, [sp], #288
   86be0:	d65f03c0 	ret
   86be4:	d503201f 	nop
   86be8:	d503201f 	nop
   86bec:	d503201f 	nop

0000000000086bf0 <snprintf>:
   86bf0:	a9ae7bfd 	stp	x29, x30, [sp, #-288]!
   86bf4:	f100003f 	cmp	x1, #0x0
   86bf8:	aa0203ec 	mov	x12, x2
   86bfc:	d000000e 	adrp	x14, 88000 <BitFontEnd+0xc0>
   86c00:	910003fd 	mov	x29, sp
   86c04:	910483a8 	add	x8, x29, #0x120
   86c08:	9103c3a9 	add	x9, x29, #0xf0
   86c0c:	d000000d 	adrp	x13, 88000 <BitFontEnd+0xc0>
   86c10:	51000421 	sub	w1, w1, #0x1
   86c14:	a90523a8 	stp	x8, x8, [x29, #80]
   86c18:	128004e8 	mov	w8, #0xffffffd8            	// #-40
   86c1c:	f90033a9 	str	x9, [x29, #96]
   86c20:	1a9f1021 	csel	w1, w1, wzr, ne  // ne = any
   86c24:	b9006ba8 	str	w8, [x29, #104]
   86c28:	12800fe8 	mov	w8, #0xffffff80            	// #-128
   86c2c:	b9006fa8 	str	w8, [x29, #108]
   86c30:	910123a2 	add	x2, x29, #0x48
   86c34:	a9452faa 	ldp	x10, x11, [x29, #80]
   86c38:	f9000bf3 	str	x19, [sp, #16]
   86c3c:	a94627a8 	ldp	x8, x9, [x29, #96]
   86c40:	aa0003f3 	mov	x19, x0
   86c44:	3d801fa0 	str	q0, [x29, #112]
   86c48:	aa0c03e0 	mov	x0, x12
   86c4c:	3d8023a1 	str	q1, [x29, #128]
   86c50:	a9022faa 	stp	x10, x11, [x29, #32]
   86c54:	a90327a8 	stp	x8, x9, [x29, #48]
   86c58:	f90027b3 	str	x19, [x29, #72]
   86c5c:	3d8027a2 	str	q2, [x29, #144]
   86c60:	3d802ba3 	str	q3, [x29, #160]
   86c64:	3d802fa4 	str	q4, [x29, #176]
   86c68:	3d8033a5 	str	q5, [x29, #192]
   86c6c:	3d8037a6 	str	q6, [x29, #208]
   86c70:	3d803ba7 	str	q7, [x29, #224]
   86c74:	b9010da1 	str	w1, [x13, #268]
   86c78:	910083a1 	add	x1, x29, #0x20
   86c7c:	a90f93a3 	stp	x3, x4, [x29, #248]
   86c80:	a9109ba5 	stp	x5, x6, [x29, #264]
   86c84:	f9008fa7 	str	x7, [x29, #280]
   86c88:	b90191df 	str	wzr, [x14, #400]
   86c8c:	97fff73d 	bl	84980 <_doprnt.constprop.1>
   86c90:	f94027a0 	ldr	x0, [x29, #72]
   86c94:	3900001f 	strb	wzr, [x0]
   86c98:	f94027a0 	ldr	x0, [x29, #72]
   86c9c:	4b130000 	sub	w0, w0, w19
   86ca0:	f9400bf3 	ldr	x19, [sp, #16]
   86ca4:	a8d27bfd 	ldp	x29, x30, [sp], #288
   86ca8:	d65f03c0 	ret
   86cac:	d503201f 	nop

0000000000086cb0 <vprintf>:
   86cb0:	d0000003 	adrp	x3, 88000 <BitFontEnd+0xc0>
   86cb4:	91064062 	add	x2, x3, #0x190
   86cb8:	f9400442 	ldr	x2, [x2, #8]
   86cbc:	b40001e2 	cbz	x2, 86cf8 <vprintf+0x48>
   86cc0:	a9bd7bfd 	stp	x29, x30, [sp, #-48]!
   86cc4:	d0000006 	adrp	x6, 88000 <BitFontEnd+0xc0>
   86cc8:	910003fd 	mov	x29, sp
   86ccc:	a9401427 	ldp	x7, x5, [x1]
   86cd0:	b901907f 	str	wzr, [x3, #400]
   86cd4:	a9410424 	ldp	x4, x1, [x1, #16]
   86cd8:	12b00003 	mov	w3, #0x7fffffff            	// #2147483647
   86cdc:	a90117a7 	stp	x7, x5, [x29, #16]
   86ce0:	a90207a4 	stp	x4, x1, [x29, #32]
   86ce4:	910043a1 	add	x1, x29, #0x10
   86ce8:	b9010cc3 	str	w3, [x6, #268]
   86cec:	97fff9e5 	bl	85480 <_doprnt.constprop.0>
   86cf0:	a8c37bfd 	ldp	x29, x30, [sp], #48
   86cf4:	d65f03c0 	ret
   86cf8:	12800000 	mov	w0, #0xffffffff            	// #-1
   86cfc:	d65f03c0 	ret

0000000000086d00 <vsprintf>:
   86d00:	a9bb7bfd 	stp	x29, x30, [sp, #-80]!
   86d04:	d0000005 	adrp	x5, 88000 <BitFontEnd+0xc0>
   86d08:	aa0103e3 	mov	x3, x1
   86d0c:	d0000004 	adrp	x4, 88000 <BitFontEnd+0xc0>
   86d10:	910003fd 	mov	x29, sp
   86d14:	b90190bf 	str	wzr, [x5, #400]
   86d18:	a9401847 	ldp	x7, x6, [x2]
   86d1c:	a9410445 	ldp	x5, x1, [x2, #16]
   86d20:	f9000bf3 	str	x19, [sp, #16]
   86d24:	aa0003f3 	mov	x19, x0
   86d28:	12b00000 	mov	w0, #0x7fffffff            	// #2147483647
   86d2c:	910123a2 	add	x2, x29, #0x48
   86d30:	a9021ba7 	stp	x7, x6, [x29, #32]
   86d34:	a90307a5 	stp	x5, x1, [x29, #48]
   86d38:	910083a1 	add	x1, x29, #0x20
   86d3c:	b9010c80 	str	w0, [x4, #268]
   86d40:	aa0303e0 	mov	x0, x3
   86d44:	f90027b3 	str	x19, [x29, #72]
   86d48:	97fff70e 	bl	84980 <_doprnt.constprop.1>
   86d4c:	f94027a0 	ldr	x0, [x29, #72]
   86d50:	3900001f 	strb	wzr, [x0]
   86d54:	f94027a0 	ldr	x0, [x29, #72]
   86d58:	4b130000 	sub	w0, w0, w19
   86d5c:	f9400bf3 	ldr	x19, [sp, #16]
   86d60:	a8c57bfd 	ldp	x29, x30, [sp], #80
   86d64:	d65f03c0 	ret
   86d68:	d503201f 	nop
   86d6c:	d503201f 	nop

0000000000086d70 <vsnprintf>:
   86d70:	a9bb7bfd 	stp	x29, x30, [sp, #-80]!
   86d74:	aa0203e4 	mov	x4, x2
   86d78:	f100003f 	cmp	x1, #0x0
   86d7c:	d0000009 	adrp	x9, 88000 <BitFontEnd+0xc0>
   86d80:	910003fd 	mov	x29, sp
   86d84:	a9401c68 	ldp	x8, x7, [x3]
   86d88:	d0000005 	adrp	x5, 88000 <BitFontEnd+0xc0>
   86d8c:	a9410866 	ldp	x6, x2, [x3, #16]
   86d90:	51000421 	sub	w1, w1, #0x1
   86d94:	1a9f1021 	csel	w1, w1, wzr, ne  // ne = any
   86d98:	f9000bf3 	str	x19, [sp, #16]
   86d9c:	b9010ca1 	str	w1, [x5, #268]
   86da0:	aa0003f3 	mov	x19, x0
   86da4:	910083a1 	add	x1, x29, #0x20
   86da8:	a9021fa8 	stp	x8, x7, [x29, #32]
   86dac:	a9030ba6 	stp	x6, x2, [x29, #48]
   86db0:	aa0403e0 	mov	x0, x4
   86db4:	910123a2 	add	x2, x29, #0x48
   86db8:	f90027b3 	str	x19, [x29, #72]
   86dbc:	b901913f 	str	wzr, [x9, #400]
   86dc0:	97fff6f0 	bl	84980 <_doprnt.constprop.1>
   86dc4:	f94027a0 	ldr	x0, [x29, #72]
   86dc8:	3900001f 	strb	wzr, [x0]
   86dcc:	f94027a0 	ldr	x0, [x29, #72]
   86dd0:	4b130000 	sub	w0, w0, w19
   86dd4:	f9400bf3 	ldr	x19, [sp, #16]
   86dd8:	a8c57bfd 	ldp	x29, x30, [sp], #80
   86ddc:	d65f03c0 	ret
	...

0000000000086e00 <strlen>:
   86e00:	92402c04 	and	x4, x0, #0xfff
   86e04:	b200c3e8 	mov	x8, #0x101010101010101     	// #72340172838076673
   86e08:	f13fc09f 	cmp	x4, #0xff0
   86e0c:	5400082c 	b.gt	86f10 <strlen+0x110>
   86e10:	a9400c02 	ldp	x2, x3, [x0]
   86e14:	cb080044 	sub	x4, x2, x8
   86e18:	b200d845 	orr	x5, x2, #0x7f7f7f7f7f7f7f7f
   86e1c:	cb080066 	sub	x6, x3, x8
   86e20:	b200d867 	orr	x7, x3, #0x7f7f7f7f7f7f7f7f
   86e24:	ea250084 	bics	x4, x4, x5
   86e28:	8a2700c5 	bic	x5, x6, x7
   86e2c:	fa4008a0 	ccmp	x5, #0x0, #0x0, eq  // eq = none
   86e30:	54000100 	b.eq	86e50 <strlen+0x50>  // b.none
   86e34:	9a853084 	csel	x4, x4, x5, cc  // cc = lo, ul, last
   86e38:	d2800100 	mov	x0, #0x8                   	// #8
   86e3c:	dac00c84 	rev	x4, x4
   86e40:	dac01084 	clz	x4, x4
   86e44:	9a8033e0 	csel	x0, xzr, x0, cc  // cc = lo, ul, last
   86e48:	8b440c00 	add	x0, x0, x4, lsr #3
   86e4c:	d65f03c0 	ret
   86e50:	927cec01 	and	x1, x0, #0xfffffffffffffff0
   86e54:	d1004021 	sub	x1, x1, #0x10
   86e58:	a9c20c22 	ldp	x2, x3, [x1, #32]!
   86e5c:	cb080044 	sub	x4, x2, x8
   86e60:	cb080066 	sub	x6, x3, x8
   86e64:	aa060085 	orr	x5, x4, x6
   86e68:	ea081cbf 	tst	x5, x8, lsl #7
   86e6c:	54000101 	b.ne	86e8c <strlen+0x8c>  // b.any
   86e70:	a9410c22 	ldp	x2, x3, [x1, #16]
   86e74:	cb080044 	sub	x4, x2, x8
   86e78:	cb080066 	sub	x6, x3, x8
   86e7c:	aa060085 	orr	x5, x4, x6
   86e80:	ea081cbf 	tst	x5, x8, lsl #7
   86e84:	54fffea0 	b.eq	86e58 <strlen+0x58>  // b.none
   86e88:	91004021 	add	x1, x1, #0x10
   86e8c:	b200d845 	orr	x5, x2, #0x7f7f7f7f7f7f7f7f
   86e90:	b200d867 	orr	x7, x3, #0x7f7f7f7f7f7f7f7f
   86e94:	ea250084 	bics	x4, x4, x5
   86e98:	8a2700c5 	bic	x5, x6, x7
   86e9c:	fa4008a0 	ccmp	x5, #0x0, #0x0, eq  // eq = none
   86ea0:	54000120 	b.eq	86ec4 <strlen+0xc4>  // b.none
   86ea4:	9a853084 	csel	x4, x4, x5, cc  // cc = lo, ul, last
   86ea8:	cb000020 	sub	x0, x1, x0
   86eac:	dac00c84 	rev	x4, x4
   86eb0:	91002005 	add	x5, x0, #0x8
   86eb4:	dac01084 	clz	x4, x4
   86eb8:	9a853000 	csel	x0, x0, x5, cc  // cc = lo, ul, last
   86ebc:	8b440c00 	add	x0, x0, x4, lsr #3
   86ec0:	d65f03c0 	ret
   86ec4:	a9c10c22 	ldp	x2, x3, [x1, #16]!
   86ec8:	cb080044 	sub	x4, x2, x8
   86ecc:	b200d845 	orr	x5, x2, #0x7f7f7f7f7f7f7f7f
   86ed0:	cb080066 	sub	x6, x3, x8
   86ed4:	b200d867 	orr	x7, x3, #0x7f7f7f7f7f7f7f7f
   86ed8:	ea250084 	bics	x4, x4, x5
   86edc:	8a2700c5 	bic	x5, x6, x7
   86ee0:	fa4008a0 	ccmp	x5, #0x0, #0x0, eq  // eq = none
   86ee4:	54fffe01 	b.ne	86ea4 <strlen+0xa4>  // b.any
   86ee8:	a9c10c22 	ldp	x2, x3, [x1, #16]!
   86eec:	cb080044 	sub	x4, x2, x8
   86ef0:	b200d845 	orr	x5, x2, #0x7f7f7f7f7f7f7f7f
   86ef4:	cb080066 	sub	x6, x3, x8
   86ef8:	b200d867 	orr	x7, x3, #0x7f7f7f7f7f7f7f7f
   86efc:	ea250084 	bics	x4, x4, x5
   86f00:	8a2700c5 	bic	x5, x6, x7
   86f04:	fa4008a0 	ccmp	x5, #0x0, #0x0, eq  // eq = none
   86f08:	54fffde0 	b.eq	86ec4 <strlen+0xc4>  // b.none
   86f0c:	17ffffe6 	b	86ea4 <strlen+0xa4>
   86f10:	927cec01 	and	x1, x0, #0xfffffffffffffff0
   86f14:	a9400c22 	ldp	x2, x3, [x1]
   86f18:	d37df004 	lsl	x4, x0, #3
   86f1c:	92800007 	mov	x7, #0xffffffffffffffff    	// #-1
   86f20:	9ac420e4 	lsl	x4, x7, x4
   86f24:	b201c084 	orr	x4, x4, #0x8080808080808080
   86f28:	aa240042 	orn	x2, x2, x4
   86f2c:	aa240065 	orn	x5, x3, x4
   86f30:	f27d001f 	tst	x0, #0x8
   86f34:	9a870042 	csel	x2, x2, x7, eq  // eq = none
   86f38:	9a850063 	csel	x3, x3, x5, eq  // eq = none
   86f3c:	17ffffc8 	b	86e5c <strlen+0x5c>
