ARM GAS  C:\Users\ldebo\AppData\Local\Temp\cc0w9t1b.s 			page 1


   1              		.arch armv6zk
   2              		.eabi_attribute 28, 1
   3              		.eabi_attribute 20, 1
   4              		.eabi_attribute 21, 1
   5              		.eabi_attribute 23, 3
   6              		.eabi_attribute 24, 1
   7              		.eabi_attribute 25, 1
   8              		.eabi_attribute 26, 1
   9              		.eabi_attribute 30, 2
  10              		.eabi_attribute 34, 1
  11              		.eabi_attribute 18, 4
  12              		.file	"main.c"
  13              		.text
  14              		.align	2
  15              		.global	c_irq_handler
  16              		.syntax unified
  17              		.arm
  18              		.fpu vfp
  19              		.type	c_irq_handler, %function
  20              	c_irq_handler:
  21              		@ args = 0, pretend = 0, frame = 0
  22              		@ frame_needed = 0, uses_anonymous_args = 0
  23              		@ link register save eliminated.
  24 0000 10209FE5 		ldr	r2, .L2
  25 0004 0030D2E5 		ldrb	r3, [r2]	@ zero_extendqisi2
  26 0008 013023E2 		eor	r3, r3, #1
  27 000c 0300A0E1 		mov	r0, r3
  28 0010 0030C2E5 		strb	r3, [r2]
  29 0014 FEFFFFEA 		b	set_Activity_LED
  30              	.L3:
  31              		.align	2
  32              	.L2:
  33 0018 00000000 		.word	.LANCHOR0
  34              		.size	c_irq_handler, .-c_irq_handler
  35              		.align	2
  36              		.global	c_irq_identify_and_clear_source
  37              		.syntax unified
  38              		.arm
  39              		.fpu vfp
  40              		.type	c_irq_identify_and_clear_source, %function
  41              	c_irq_identify_and_clear_source:
  42              		@ args = 0, pretend = 0, frame = 0
  43              		@ frame_needed = 0, uses_anonymous_args = 0
  44              		@ link register save eliminated.
  45 001c 0110A0E3 		mov	r1, #1
  46 0020 1C309FE5 		ldr	r3, .L5
  47 0024 003093E5 		ldr	r3, [r3]
  48 0028 2D2B83E2 		add	r2, r3, #46080
  49 002c 0C1082E5 		str	r1, [r2, #12]
  50 0030 B23C83E2 		add	r3, r3, #45568
  51 0034 042093E5 		ldr	r2, [r3, #4]
  52 0038 0120C2E3 		bic	r2, r2, #1
  53 003c 042083E5 		str	r2, [r3, #4]
  54 0040 1EFF2FE1 		bx	lr
  55              	.L6:
  56              		.align	2
  57              	.L5:
ARM GAS  C:\Users\ldebo\AppData\Local\Temp\cc0w9t1b.s 			page 2


  58 0044 00000000 		.word	RPi_IO_Base_Addr
  59              		.size	c_irq_identify_and_clear_source, .-c_irq_identify_and_clear_source
  60              		.align	2
  61              		.global	LineIntersect2D
  62              		.syntax unified
  63              		.arm
  64              		.fpu vfp
  65              		.type	LineIntersect2D, %function
  66              	LineIntersect2D:
  67              		@ args = 28, pretend = 0, frame = 0
  68              		@ frame_needed = 0, uses_anonymous_args = 0
  69 0048 F0412DE9 		push	{r4, r5, r6, r7, r8, lr}
  70 004c 1C409DE5 		ldr	r4, [sp, #28]
  71 0050 24E09DE5 		ldr	lr, [sp, #36]
  72 0054 18809DE5 		ldr	r8, [sp, #24]
  73 0058 20C09DE5 		ldr	ip, [sp, #32]
  74 005c 002042E0 		sub	r2, r2, r0
  75 0060 013043E0 		sub	r3, r3, r1
  76 0064 04E04EE0 		sub	lr, lr, r4
  77 0068 08C04CE0 		sub	ip, ip, r8
  78 006c 9E0206E0 		mul	r6, lr, r2
  79 0070 930C05E0 		mul	r5, r3, ip
  80 0074 055056E0 		subs	r5, r6, r5
  81 0078 3070DDE5 		ldrb	r7, [sp, #48]	@ zero_extendqisi2
  82 007c 3500000A 		beq	.L15
  83 0080 086040E0 		sub	r6, r0, r8
  84 0084 044041E0 		sub	r4, r1, r4
  85 0088 960E0EE0 		mul	lr, r6, lr
  86 008c 940C0CE0 		mul	ip, r4, ip
  87 0090 0EC04CE0 		sub	ip, ip, lr
  88 0094 90CA07EE 		vmov	s15, ip	@ int
  89 0098 905A06EE 		vmov	s13, r5	@ int
  90 009c E77BB8EE 		vcvt.f64.s32	d7, s15
  91 00a0 E64BB8EE 		vcvt.f64.s32	d4, s13
  92 00a4 000057E3 		cmp	r7, #0
  93 00a8 045B87EE 		vdiv.f64	d5, d7, d4
  94 00ac 1500001A 		bne	.L25
  95              	.L9:
  96 00b0 28C09DE5 		ldr	ip, [sp, #40]
  97 00b4 00005CE3 		cmp	ip, #0
  98 00b8 0600000A 		beq	.L10
  99 00bc 902A07EE 		vmov	s15, r2	@ int
 100 00c0 E76BB8EE 		vcvt.f64.s32	d6, s15
 101 00c4 056B26EE 		vmul.f64	d6, d6, d5
 102 00c8 C66BBDEE 		vcvt.s32.f64	s12, d6
 103 00cc 102A16EE 		vmov	r2, s12	@ int
 104 00d0 000082E0 		add	r0, r2, r0
 105 00d4 00008CE5 		str	r0, [ip]
 106              	.L10:
 107 00d8 2C209DE5 		ldr	r2, [sp, #44]
 108 00dc 000052E3 		cmp	r2, #0
 109 00e0 1E00000A 		beq	.L16
 110 00e4 903A07EE 		vmov	s15, r3	@ int
 111 00e8 E77BB8EE 		vcvt.f64.s32	d7, s15
 112 00ec 057B27EE 		vmul.f64	d7, d7, d5
 113 00f0 C77BBDEE 		vcvt.s32.f64	s14, d7
 114 00f4 103A17EE 		vmov	r3, s14	@ int
ARM GAS  C:\Users\ldebo\AppData\Local\Temp\cc0w9t1b.s 			page 3


 115 00f8 011083E0 		add	r1, r3, r1
 116 00fc 001082E5 		str	r1, [r2]
 117 0100 0100A0E3 		mov	r0, #1
 118 0104 F081BDE8 		pop	{r4, r5, r6, r7, r8, pc}
 119              	.L25:
 120 0108 167B9FED 		vldr.64	d7, .L26
 121 010c C75BB4EE 		vcmpe.f64	d5, d7
 122 0110 10FAF1EE 		vmrs	APSR_nzcv, FPSCR
 123 0114 0F00004A 		bmi	.L15
 124 0118 143B9FED 		vldr.64	d3, .L26+8
 125 011c C35BB4EE 		vcmpe.f64	d5, d3
 126 0120 10FAF1EE 		vmrs	APSR_nzcv, FPSCR
 127 0124 0B0000CA 		bgt	.L15
 128 0128 940204E0 		mul	r4, r4, r2
 129 012c 960306E0 		mul	r6, r6, r3
 130 0130 064044E0 		sub	r4, r4, r6
 131 0134 904A06EE 		vmov	s13, r4	@ int
 132 0138 E66BB8EE 		vcvt.f64.s32	d6, s13
 133 013c 042B86EE 		vdiv.f64	d2, d6, d4
 134 0140 C72BB4EE 		vcmpe.f64	d2, d7
 135 0144 10FAF1EE 		vmrs	APSR_nzcv, FPSCR
 136 0148 0200004A 		bmi	.L15
 137 014c C32BB4EE 		vcmpe.f64	d2, d3
 138 0150 10FAF1EE 		vmrs	APSR_nzcv, FPSCR
 139 0154 D5FFFFDA 		ble	.L9
 140              	.L15:
 141 0158 0000A0E3 		mov	r0, #0
 142 015c F081BDE8 		pop	{r4, r5, r6, r7, r8, pc}
 143              	.L16:
 144 0160 0100A0E3 		mov	r0, #1
 145 0164 F081BDE8 		pop	{r4, r5, r6, r7, r8, pc}
 146              	.L27:
 147              		.align	3
 148              	.L26:
 149 0168 00000000 		.word	0
 150 016c 00000000 		.word	0
 151 0170 00000000 		.word	0
 152 0174 0000F03F 		.word	1072693248
 153              		.size	LineIntersect2D, .-LineIntersect2D
 154              		.align	2
 155              		.global	kernel_main
 156              		.syntax unified
 157              		.arm
 158              		.fpu vfp
 159              		.type	kernel_main, %function
 160              	kernel_main:
 161              		@ args = 0, pretend = 0, frame = 32
 162              		@ frame_needed = 0, uses_anonymous_args = 0
 163 0178 F04F2DE9 		push	{r4, r5, r6, r7, r8, r9, r10, fp, lr}
 164 017c 108B2DED 		vpush.64	{d8, d9, d10, d11, d12, d13, d14, d15}
 165 0180 24D04DE2 		sub	sp, sp, #36
 166 0184 FEFFFFEB 		bl	SetMaxCPUSpeed
 167 0188 000050E3 		cmp	r0, #0
 168 018c 0000001A 		bne	.L29
 169 0190 FEFFFFEB 		bl	DeadLoop
 170              	.L29:
 171 0194 94439FE5 		ldr	r4, .L67+40
ARM GAS  C:\Users\ldebo\AppData\Local\Temp\cc0w9t1b.s 			page 4


 172 0198 2020A0E3 		mov	r2, #32
 173 019c 001094E5 		ldr	r1, [r4]
 174 01a0 040094E5 		ldr	r0, [r4, #4]
 175 01a4 FEFFFFEB 		bl	PiConsole_Init
 176 01a8 84339FE5 		ldr	r3, .L67+44
 177 01ac 84039FE5 		ldr	r0, .L67+48
 178 01b0 0010D3E5 		ldrb	r1, [r3]	@ zero_extendqisi2
 179 01b4 0020D3E5 		ldrb	r2, [r3]	@ zero_extendqisi2
 180 01b8 003093E5 		ldr	r3, [r3]
 181 01bc 2222A0E1 		lsr	r2, r2, #4
 182 01c0 012002E2 		and	r2, r2, #1
 183 01c4 012082E2 		add	r2, r2, #1
 184 01c8 A332A0E1 		lsr	r3, r3, #5
 185 01cc 0F1001E2 		and	r1, r1, #15
 186 01d0 8222A0E1 		lsl	r2, r2, #5
 187 01d4 073003E2 		and	r3, r3, #7
 188 01d8 FEFFFFEB 		bl	printf
 189 01dc C97B9FED 		vldr.64	d7, .L67
 190 01e0 010BA0E3 		mov	r0, #1024
 191 01e4 027B8DED 		vstr.64	d7, [sp, #8]
 192 01e8 007B8DED 		vstr.64	d7, [sp]
 193 01ec C7BB9FED 		vldr.64	d11, .L67+8
 194 01f0 C87B9FED 		vldr.64	d7, .L67+16
 195 01f4 40339FE5 		ldr	r3, .L67+52
 196 01f8 047B8DED 		vstr.64	d7, [sp, #16]
 197 01fc 003093E5 		ldr	r3, [r3]
 198 0200 4B9BB0EE 		vmov.f64	d9, d11
 199 0204 B21C83E2 		add	r1, r3, #45568
 200 0208 1820D1E5 		ldrb	r2, [r1, #24]	@ zero_extendqisi2
 201 020c 2D3B83E2 		add	r3, r3, #46080
 202 0210 012082E3 		orr	r2, r2, #1
 203 0214 1820C1E5 		strb	r2, [r1, #24]
 204 0218 000083E5 		str	r0, [r3]
 205 021c 0820D3E5 		ldrb	r2, [r3, #8]	@ zero_extendqisi2
 206 0220 BE8B9FED 		vldr.64	d8, .L67+24
 207 0224 022082E3 		orr	r2, r2, #2
 208 0228 0820C3E5 		strb	r2, [r3, #8]
 209 022c 0820D3E5 		ldrb	r2, [r3, #8]	@ zero_extendqisi2
 210 0230 0050A0E3 		mov	r5, #0
 211 0234 0420C2E3 		bic	r2, r2, #4
 212 0238 082082E3 		orr	r2, r2, #8
 213 023c 0820C3E5 		strb	r2, [r3, #8]
 214 0240 0820D3E5 		ldrb	r2, [r3, #8]	@ zero_extendqisi2
 215 0244 0160A0E3 		mov	r6, #1
 216 0248 202082E3 		orr	r2, r2, #32
 217 024c 0820C3E5 		strb	r2, [r3, #8]
 218 0250 0820D3E5 		ldrb	r2, [r3, #8]	@ zero_extendqisi2
 219 0254 0090E0E3 		mvn	r9, #0
 220 0258 802082E3 		orr	r2, r2, #128
 221 025c 0820C3E5 		strb	r2, [r3, #8]
 222 0260 FEFFFFEB 		bl	EnableInterrupts
 223 0264 D4829FE5 		ldr	r8, .L67+56
 224              	.L31:
 225 0268 043094E5 		ldr	r3, [r4, #4]
 226 026c 000053E3 		cmp	r3, #0
 227 0270 0070A013 		movne	r7, #0
 228 0274 6E00000A 		beq	.L52
ARM GAS  C:\Users\ldebo\AppData\Local\Temp\cc0w9t1b.s 			page 5


 229              	.L51:
 230 0278 8720A0E1 		lsl	r2, r7, #1
 231 027c 102A05EE 		vmov	s10, r2	@ int
 232 0280 903A07EE 		vmov	s15, r3	@ int
 233 0284 455BB8EE 		vcvt.f64.u32	d5, s10
 234 0288 E77BB8EE 		vcvt.f64.s32	d7, s15
 235 028c 076B85EE 		vdiv.f64	d6, d5, d7
 236 0290 00EB9DED 		vldr.64	d14, [sp]
 237 0294 486B36EE 		vsub.f64	d6, d6, d8
 238 0298 047B9DED 		vldr.64	d7, [sp, #16]
 239 029c 02FB9DED 		vldr.64	d15, [sp, #8]
 240 02a0 06EB0BEE 		vmla.f64	d14, d11, d6
 241 02a4 06FB07EE 		vmla.f64	d15, d7, d6
 242 02a8 0EAB2EEE 		vmul.f64	d10, d14, d14
 243 02ac 0FCB2FEE 		vmul.f64	d12, d15, d15
 244 02b0 0A0B8CEE 		vdiv.f64	d0, d12, d10
 245 02b4 080B30EE 		vadd.f64	d0, d0, d8
 246 02b8 FEFFFFEB 		bl	sqrt
 247 02bc 40DBB0EE 		vmov.f64	d13, d0
 248 02c0 0C0B8AEE 		vdiv.f64	d0, d10, d12
 249 02c4 080B30EE 		vadd.f64	d0, d0, d8
 250 02c8 FEFFFFEB 		bl	sqrt
 251 02cc C9EBB4EE 		vcmpe.f64	d14, d9
 252 02d0 10FAF1EE 		vmrs	APSR_nzcv, FPSCR
 253 02d4 C9FBB4EE 		vcmpe.f64	d15, d9
 254 02d8 097B2D4E 		vmulmi.f64	d7, d13, d9
 255 02dc 06C0A041 		movmi	ip, r6
 256 02e0 0900A041 		movmi	r0, r9
 257 02e4 4D7BB05E 		vmovpl.f64	d7, d13
 258 02e8 05C0A051 		movpl	ip, r5
 259 02ec 0600A051 		movpl	r0, r6
 260 02f0 10FAF1EE 		vmrs	APSR_nzcv, FPSCR
 261 02f4 1020A0E3 		mov	r2, #16
 262 02f8 096B204E 		vmulmi.f64	d6, d0, d9
 263 02fc 06E0A041 		movmi	lr, r6
 264 0300 09A0A041 		movmi	r10, r9
 265 0304 406BB05E 		vmovpl.f64	d6, d0
 266 0308 05E0A051 		movpl	lr, r5
 267 030c 06A0A051 		movpl	r10, r6
 268 0310 0C30A0E3 		mov	r3, #12
 269              	.L36:
 270 0314 C67BB4EE 		vcmpe.f64	d7, d6
 271 0318 10FAF1EE 		vmrs	APSR_nzcv, FPSCR
 272 031c 831083E0 		add	r1, r3, r3, lsl #1
 273 0320 6100005A 		bpl	.L65
 274 0324 003083E0 		add	r3, r3, r0
 275 0328 831083E0 		add	r1, r3, r3, lsl #1
 276 032c 811182E0 		add	r1, r2, r1, lsl #3
 277 0330 011184E0 		add	r1, r4, r1, lsl #2
 278 0334 081091E5 		ldr	r1, [r1, #8]
 279 0338 0D7B37EE 		vadd.f64	d7, d7, d13
 280 033c 000051E3 		cmp	r1, #0
 281 0340 F3FFFFDA 		ble	.L36
 282 0344 0C3043E2 		sub	r3, r3, #12
 283 0348 0C3083E0 		add	r3, r3, ip
 284 034c 903A07EE 		vmov	s15, r3	@ int
 285 0350 E77BB8EE 		vcvt.f64.s32	d7, s15
ARM GAS  C:\Users\ldebo\AppData\Local\Temp\cc0w9t1b.s 			page 6


 286 0354 002094E5 		ldr	r2, [r4]
 287 0358 0E6B87EE 		vdiv.f64	d6, d7, d14
 288 035c 902A07EE 		vmov	s15, r2	@ int
 289 0360 E75BB8EE 		vcvt.f64.s32	d5, s15
 290 0364 067B85EE 		vdiv.f64	d7, d5, d6
 291 0368 0500A0E1 		mov	r0, r5
 292 036c C77BBDEE 		vcvt.s32.f64	s14, d7
 293              	.L53:
 294 0370 103A17EE 		vmov	r3, s14	@ int
 295 0374 A2AF82E0 		add	r10, r2, r2, lsr #31
 296 0378 CAA0A0E1 		asr	r10, r10, #1
 297 037c A33F83E0 		add	r3, r3, r3, lsr #31
 298 0380 C3B08AE0 		add	fp, r10, r3, asr #1
 299 0384 02005BE1 		cmp	fp, r2
 300 0388 C3A04AE0 		sub	r10, r10, r3, asr #1
 301 038c 011041E2 		sub	r1, r1, #1
 302 0390 CAAFCAE1 		bic	r10, r10, r10, asr #31
 303 0394 01B042A2 		subge	fp, r2, #1
 304 0398 030051E3 		cmp	r1, #3
 305 039c 01F19F97 		ldrls	pc, [pc, r1, asl #2]
 306 03a0 540000EA 		b	.L43
 307              	.L45:
 308 03a4 A0040000 		.word	.L44
 309 03a8 94040000 		.word	.L46
 310 03ac 88040000 		.word	.L47
 311 03b0 B4030000 		.word	.L48
 312              	.L48:
 313 03b4 0C3098E5 		ldr	r3, [r8, #12]
 314 03b8 1C308DE5 		str	r3, [sp, #28]
 315              	.L49:
 316 03bc 000050E3 		cmp	r0, #0
 317 03c0 0800000A 		beq	.L50
 318 03c4 1E10DDE5 		ldrb	r1, [sp, #30]	@ zero_extendqisi2
 319 03c8 1D20DDE5 		ldrb	r2, [sp, #29]	@ zero_extendqisi2
 320 03cc 1C30DDE5 		ldrb	r3, [sp, #28]	@ zero_extendqisi2
 321 03d0 A110A0E1 		lsr	r1, r1, #1
 322 03d4 A220A0E1 		lsr	r2, r2, #1
 323 03d8 A330A0E1 		lsr	r3, r3, #1
 324 03dc 1E10CDE5 		strb	r1, [sp, #30]
 325 03e0 1D20CDE5 		strb	r2, [sp, #29]
 326 03e4 1C30CDE5 		strb	r3, [sp, #28]
 327              	.L50:
 328 03e8 0700A0E1 		mov	r0, r7
 329 03ec 0530A0E1 		mov	r3, r5
 330 03f0 0A20A0E1 		mov	r2, r10
 331 03f4 0010A0E3 		mov	r1, #0
 332 03f8 FEFFFFEB 		bl	PiConsole_VertLine
 333 03fc 0700A0E1 		mov	r0, r7
 334 0400 0A10A0E1 		mov	r1, r10
 335 0404 1C309DE5 		ldr	r3, [sp, #28]
 336 0408 0B20A0E1 		mov	r2, fp
 337 040c FEFFFFEB 		bl	PiConsole_VertLine
 338 0410 0530A0E1 		mov	r3, r5
 339 0414 0700A0E1 		mov	r0, r7
 340 0418 0B10A0E1 		mov	r1, fp
 341 041c 002094E5 		ldr	r2, [r4]
 342 0420 FEFFFFEB 		bl	PiConsole_VertLine
ARM GAS  C:\Users\ldebo\AppData\Local\Temp\cc0w9t1b.s 			page 7


 343 0424 043094E5 		ldr	r3, [r4, #4]
 344 0428 017087E2 		add	r7, r7, #1
 345 042c 070053E1 		cmp	r3, r7
 346 0430 90FFFF8A 		bhi	.L51
 347              	.L52:
 348 0434 3B0B9FED 		vldr.64	d0, .L67+32
 349 0438 FEFFFFEB 		bl	cos
 350 043c 40DBB0EE 		vmov.f64	d13, d0
 351 0440 380B9FED 		vldr.64	d0, .L67+32
 352 0444 FEFFFFEB 		bl	sin
 353 0448 024B9DED 		vldr.64	d4, [sp, #8]
 354 044c 003B9DED 		vldr.64	d3, [sp]
 355 0450 042B9DED 		vldr.64	d2, [sp, #16]
 356 0454 006B24EE 		vmul.f64	d6, d4, d0
 357 0458 005B23EE 		vmul.f64	d5, d3, d0
 358 045c 007B22EE 		vmul.f64	d7, d2, d0
 359 0460 000B2BEE 		vmul.f64	d0, d11, d0
 360 0464 0D5B04EE 		vmla.f64	d5, d4, d13
 361 0468 0D6B13EE 		vnmls.f64	d6, d3, d13
 362 046c 0D0B02EE 		vmla.f64	d0, d2, d13
 363 0470 0D7B1BEE 		vnmls.f64	d7, d11, d13
 364 0474 025B8DED 		vstr.64	d5, [sp, #8]
 365 0478 006B8DED 		vstr.64	d6, [sp]
 366 047c 040B8DED 		vstr.64	d0, [sp, #16]
 367 0480 47BBB0EE 		vmov.f64	d11, d7
 368 0484 77FFFFEA 		b	.L31
 369              	.L47:
 370 0488 083098E5 		ldr	r3, [r8, #8]
 371 048c 1C308DE5 		str	r3, [sp, #28]
 372 0490 C9FFFFEA 		b	.L49
 373              	.L46:
 374 0494 043098E5 		ldr	r3, [r8, #4]
 375 0498 1C308DE5 		str	r3, [sp, #28]
 376 049c C6FFFFEA 		b	.L49
 377              	.L44:
 378 04a0 003098E5 		ldr	r3, [r8]
 379 04a4 1C308DE5 		str	r3, [sp, #28]
 380 04a8 C3FFFFEA 		b	.L49
 381              	.L65:
 382 04ac 0A2082E0 		add	r2, r2, r10
 383 04b0 811182E0 		add	r1, r2, r1, lsl #3
 384 04b4 011184E0 		add	r1, r4, r1, lsl #2
 385 04b8 081091E5 		ldr	r1, [r1, #8]
 386 04bc 006B36EE 		vadd.f64	d6, d6, d0
 387 04c0 000051E3 		cmp	r1, #0
 388 04c4 92FFFFDA 		ble	.L36
 389 04c8 102042E2 		sub	r2, r2, #16
 390 04cc 0E2082E0 		add	r2, r2, lr
 391 04d0 902A07EE 		vmov	s15, r2	@ int
 392 04d4 E77BB8EE 		vcvt.f64.s32	d7, s15
 393 04d8 002094E5 		ldr	r2, [r4]
 394 04dc 0F6B87EE 		vdiv.f64	d6, d7, d15
 395 04e0 902A07EE 		vmov	s15, r2	@ int
 396 04e4 E75BB8EE 		vcvt.f64.s32	d5, s15
 397 04e8 067B85EE 		vdiv.f64	d7, d5, d6
 398 04ec 0600A0E1 		mov	r0, r6
 399 04f0 C77BBDEE 		vcvt.s32.f64	s14, d7
ARM GAS  C:\Users\ldebo\AppData\Local\Temp\cc0w9t1b.s 			page 8


 400 04f4 9DFFFFEA 		b	.L53
 401              	.L43:
 402 04f8 103098E5 		ldr	r3, [r8, #16]
 403 04fc 1C308DE5 		str	r3, [sp, #28]
 404 0500 ADFFFFEA 		b	.L49
 405              	.L68:
 406 0504 00F020E3 		.align	3
 407              	.L67:
 408 0508 00000000 		.word	0
 409 050c 0000F0BF 		.word	-1074790400
 410 0510 00000000 		.word	0
 411 0514 00000000 		.word	0
 412 0518 1F85EB51 		.word	1374389535
 413 051c B81EE53F 		.word	1071980216
 414 0520 00000000 		.word	0
 415 0524 0000F03F 		.word	1072693248
 416 0528 7B14AE47 		.word	1202590843
 417 052c E17A94BF 		.word	-1080788255
 418 0530 00000000 		.word	.LANCHOR1
 419 0534 00000000 		.word	RPi_CompileMode
 420 0538 00000000 		.word	.LC5
 421 053c 00000000 		.word	RPi_IO_Base_Addr
 422 0540 00000000 		.word	.LANCHOR2
 423              		.size	kernel_main, .-kernel_main
 424              		.global	grHt
 425              		.global	grWth
 426              		.global	Level
 427              		.global	Box
 428              		.global	InnerBox
 429              		.global	InBox1
 430              		.global	worldMap
 431              		.section	.rodata
 432              		.align	2
 433              		.set	.LANCHOR2,. + 0
 434              	.LC0:
 435 0000 00       		.byte	0
 436 0001 00       		.byte	0
 437 0002 7F       		.byte	127
 438 0003 FF       		.byte	-1
 439              	.LC1:
 440 0004 00       		.byte	0
 441 0005 7F       		.byte	127
 442 0006 00       		.byte	0
 443 0007 FF       		.byte	-1
 444              	.LC2:
 445 0008 7F       		.byte	127
 446 0009 00       		.byte	0
 447 000a 00       		.byte	0
 448 000b FF       		.byte	-1
 449              	.LC3:
 450 000c FF       		.byte	-1
 451 000d FF       		.byte	-1
 452 000e FF       		.byte	-1
 453 000f FF       		.byte	-1
 454              	.LC4:
 455 0010 00       		.byte	0
 456 0011 FF       		.byte	-1
ARM GAS  C:\Users\ldebo\AppData\Local\Temp\cc0w9t1b.s 			page 9


 457 0012 FF       		.byte	-1
 458 0013 FF       		.byte	-1
 459              		.data
 460              		.align	2
 461              		.set	.LANCHOR1,. + 0
 462              		.type	grHt, %object
 463              		.size	grHt, 4
 464              	grHt:
 465 0000 00040000 		.word	1024
 466              		.type	grWth, %object
 467              		.size	grWth, 4
 468              	grWth:
 469 0004 00050000 		.word	1280
 470              		.type	worldMap, %object
 471              		.size	worldMap, 2304
 472              	worldMap:
 473 0008 01000000 		.word	1
 474 000c 01000000 		.word	1
 475 0010 01000000 		.word	1
 476 0014 01000000 		.word	1
 477 0018 01000000 		.word	1
 478 001c 01000000 		.word	1
 479 0020 01000000 		.word	1
 480 0024 01000000 		.word	1
 481 0028 01000000 		.word	1
 482 002c 01000000 		.word	1
 483 0030 01000000 		.word	1
 484 0034 01000000 		.word	1
 485 0038 01000000 		.word	1
 486 003c 01000000 		.word	1
 487 0040 01000000 		.word	1
 488 0044 01000000 		.word	1
 489 0048 01000000 		.word	1
 490 004c 01000000 		.word	1
 491 0050 01000000 		.word	1
 492 0054 01000000 		.word	1
 493 0058 01000000 		.word	1
 494 005c 01000000 		.word	1
 495 0060 01000000 		.word	1
 496 0064 01000000 		.word	1
 497 0068 01000000 		.word	1
 498 006c 00000000 		.word	0
 499 0070 00000000 		.word	0
 500 0074 00000000 		.word	0
 501 0078 00000000 		.word	0
 502 007c 00000000 		.word	0
 503 0080 00000000 		.word	0
 504 0084 00000000 		.word	0
 505 0088 00000000 		.word	0
 506 008c 00000000 		.word	0
 507 0090 00000000 		.word	0
 508 0094 00000000 		.word	0
 509 0098 00000000 		.word	0
 510 009c 00000000 		.word	0
 511 00a0 00000000 		.word	0
 512 00a4 00000000 		.word	0
 513 00a8 00000000 		.word	0
ARM GAS  C:\Users\ldebo\AppData\Local\Temp\cc0w9t1b.s 			page 10


 514 00ac 00000000 		.word	0
 515 00b0 00000000 		.word	0
 516 00b4 00000000 		.word	0
 517 00b8 00000000 		.word	0
 518 00bc 00000000 		.word	0
 519 00c0 00000000 		.word	0
 520 00c4 01000000 		.word	1
 521 00c8 01000000 		.word	1
 522 00cc 00000000 		.word	0
 523 00d0 00000000 		.word	0
 524 00d4 00000000 		.word	0
 525 00d8 00000000 		.word	0
 526 00dc 00000000 		.word	0
 527 00e0 00000000 		.word	0
 528 00e4 00000000 		.word	0
 529 00e8 00000000 		.word	0
 530 00ec 00000000 		.word	0
 531 00f0 00000000 		.word	0
 532 00f4 00000000 		.word	0
 533 00f8 00000000 		.word	0
 534 00fc 00000000 		.word	0
 535 0100 00000000 		.word	0
 536 0104 00000000 		.word	0
 537 0108 00000000 		.word	0
 538 010c 00000000 		.word	0
 539 0110 00000000 		.word	0
 540 0114 00000000 		.word	0
 541 0118 00000000 		.word	0
 542 011c 00000000 		.word	0
 543 0120 00000000 		.word	0
 544 0124 01000000 		.word	1
 545 0128 01000000 		.word	1
 546 012c 00000000 		.word	0
 547 0130 00000000 		.word	0
 548 0134 00000000 		.word	0
 549 0138 00000000 		.word	0
 550 013c 00000000 		.word	0
 551 0140 00000000 		.word	0
 552 0144 00000000 		.word	0
 553 0148 00000000 		.word	0
 554 014c 00000000 		.word	0
 555 0150 00000000 		.word	0
 556 0154 00000000 		.word	0
 557 0158 00000000 		.word	0
 558 015c 00000000 		.word	0
 559 0160 00000000 		.word	0
 560 0164 00000000 		.word	0
 561 0168 00000000 		.word	0
 562 016c 00000000 		.word	0
 563 0170 00000000 		.word	0
 564 0174 00000000 		.word	0
 565 0178 00000000 		.word	0
 566 017c 00000000 		.word	0
 567 0180 00000000 		.word	0
 568 0184 01000000 		.word	1
 569 0188 01000000 		.word	1
 570 018c 00000000 		.word	0
ARM GAS  C:\Users\ldebo\AppData\Local\Temp\cc0w9t1b.s 			page 11


 571 0190 00000000 		.word	0
 572 0194 00000000 		.word	0
 573 0198 00000000 		.word	0
 574 019c 00000000 		.word	0
 575 01a0 02000000 		.word	2
 576 01a4 02000000 		.word	2
 577 01a8 02000000 		.word	2
 578 01ac 02000000 		.word	2
 579 01b0 02000000 		.word	2
 580 01b4 00000000 		.word	0
 581 01b8 00000000 		.word	0
 582 01bc 00000000 		.word	0
 583 01c0 00000000 		.word	0
 584 01c4 03000000 		.word	3
 585 01c8 00000000 		.word	0
 586 01cc 03000000 		.word	3
 587 01d0 00000000 		.word	0
 588 01d4 03000000 		.word	3
 589 01d8 00000000 		.word	0
 590 01dc 00000000 		.word	0
 591 01e0 00000000 		.word	0
 592 01e4 01000000 		.word	1
 593 01e8 01000000 		.word	1
 594 01ec 00000000 		.word	0
 595 01f0 00000000 		.word	0
 596 01f4 00000000 		.word	0
 597 01f8 00000000 		.word	0
 598 01fc 00000000 		.word	0
 599 0200 02000000 		.word	2
 600 0204 00000000 		.word	0
 601 0208 00000000 		.word	0
 602 020c 00000000 		.word	0
 603 0210 02000000 		.word	2
 604 0214 00000000 		.word	0
 605 0218 00000000 		.word	0
 606 021c 00000000 		.word	0
 607 0220 00000000 		.word	0
 608 0224 00000000 		.word	0
 609 0228 00000000 		.word	0
 610 022c 00000000 		.word	0
 611 0230 00000000 		.word	0
 612 0234 00000000 		.word	0
 613 0238 00000000 		.word	0
 614 023c 00000000 		.word	0
 615 0240 00000000 		.word	0
 616 0244 01000000 		.word	1
 617 0248 01000000 		.word	1
 618 024c 00000000 		.word	0
 619 0250 00000000 		.word	0
 620 0254 00000000 		.word	0
 621 0258 00000000 		.word	0
 622 025c 00000000 		.word	0
 623 0260 02000000 		.word	2
 624 0264 00000000 		.word	0
 625 0268 00000000 		.word	0
 626 026c 00000000 		.word	0
 627 0270 02000000 		.word	2
ARM GAS  C:\Users\ldebo\AppData\Local\Temp\cc0w9t1b.s 			page 12


 628 0274 00000000 		.word	0
 629 0278 00000000 		.word	0
 630 027c 00000000 		.word	0
 631 0280 00000000 		.word	0
 632 0284 03000000 		.word	3
 633 0288 00000000 		.word	0
 634 028c 00000000 		.word	0
 635 0290 00000000 		.word	0
 636 0294 03000000 		.word	3
 637 0298 00000000 		.word	0
 638 029c 00000000 		.word	0
 639 02a0 00000000 		.word	0
 640 02a4 01000000 		.word	1
 641 02a8 01000000 		.word	1
 642 02ac 00000000 		.word	0
 643 02b0 00000000 		.word	0
 644 02b4 00000000 		.word	0
 645 02b8 00000000 		.word	0
 646 02bc 00000000 		.word	0
 647 02c0 02000000 		.word	2
 648 02c4 00000000 		.word	0
 649 02c8 00000000 		.word	0
 650 02cc 00000000 		.word	0
 651 02d0 02000000 		.word	2
 652 02d4 00000000 		.word	0
 653 02d8 00000000 		.word	0
 654 02dc 00000000 		.word	0
 655 02e0 00000000 		.word	0
 656 02e4 00000000 		.word	0
 657 02e8 00000000 		.word	0
 658 02ec 00000000 		.word	0
 659 02f0 00000000 		.word	0
 660 02f4 00000000 		.word	0
 661 02f8 00000000 		.word	0
 662 02fc 00000000 		.word	0
 663 0300 00000000 		.word	0
 664 0304 01000000 		.word	1
 665 0308 01000000 		.word	1
 666 030c 00000000 		.word	0
 667 0310 00000000 		.word	0
 668 0314 00000000 		.word	0
 669 0318 00000000 		.word	0
 670 031c 00000000 		.word	0
 671 0320 02000000 		.word	2
 672 0324 02000000 		.word	2
 673 0328 00000000 		.word	0
 674 032c 02000000 		.word	2
 675 0330 02000000 		.word	2
 676 0334 00000000 		.word	0
 677 0338 00000000 		.word	0
 678 033c 00000000 		.word	0
 679 0340 00000000 		.word	0
 680 0344 03000000 		.word	3
 681 0348 00000000 		.word	0
 682 034c 03000000 		.word	3
 683 0350 00000000 		.word	0
 684 0354 03000000 		.word	3
ARM GAS  C:\Users\ldebo\AppData\Local\Temp\cc0w9t1b.s 			page 13


 685 0358 00000000 		.word	0
 686 035c 00000000 		.word	0
 687 0360 00000000 		.word	0
 688 0364 01000000 		.word	1
 689 0368 01000000 		.word	1
 690 036c 00000000 		.word	0
 691 0370 00000000 		.word	0
 692 0374 00000000 		.word	0
 693 0378 00000000 		.word	0
 694 037c 00000000 		.word	0
 695 0380 00000000 		.word	0
 696 0384 00000000 		.word	0
 697 0388 00000000 		.word	0
 698 038c 00000000 		.word	0
 699 0390 00000000 		.word	0
 700 0394 00000000 		.word	0
 701 0398 00000000 		.word	0
 702 039c 00000000 		.word	0
 703 03a0 00000000 		.word	0
 704 03a4 00000000 		.word	0
 705 03a8 00000000 		.word	0
 706 03ac 00000000 		.word	0
 707 03b0 00000000 		.word	0
 708 03b4 00000000 		.word	0
 709 03b8 00000000 		.word	0
 710 03bc 00000000 		.word	0
 711 03c0 00000000 		.word	0
 712 03c4 01000000 		.word	1
 713 03c8 01000000 		.word	1
 714 03cc 00000000 		.word	0
 715 03d0 00000000 		.word	0
 716 03d4 00000000 		.word	0
 717 03d8 00000000 		.word	0
 718 03dc 00000000 		.word	0
 719 03e0 00000000 		.word	0
 720 03e4 00000000 		.word	0
 721 03e8 00000000 		.word	0
 722 03ec 00000000 		.word	0
 723 03f0 00000000 		.word	0
 724 03f4 00000000 		.word	0
 725 03f8 00000000 		.word	0
 726 03fc 00000000 		.word	0
 727 0400 00000000 		.word	0
 728 0404 00000000 		.word	0
 729 0408 00000000 		.word	0
 730 040c 00000000 		.word	0
 731 0410 00000000 		.word	0
 732 0414 00000000 		.word	0
 733 0418 00000000 		.word	0
 734 041c 00000000 		.word	0
 735 0420 00000000 		.word	0
 736 0424 01000000 		.word	1
 737 0428 01000000 		.word	1
 738 042c 00000000 		.word	0
 739 0430 00000000 		.word	0
 740 0434 00000000 		.word	0
 741 0438 00000000 		.word	0
ARM GAS  C:\Users\ldebo\AppData\Local\Temp\cc0w9t1b.s 			page 14


 742 043c 00000000 		.word	0
 743 0440 00000000 		.word	0
 744 0444 00000000 		.word	0
 745 0448 00000000 		.word	0
 746 044c 00000000 		.word	0
 747 0450 00000000 		.word	0
 748 0454 00000000 		.word	0
 749 0458 00000000 		.word	0
 750 045c 00000000 		.word	0
 751 0460 00000000 		.word	0
 752 0464 00000000 		.word	0
 753 0468 00000000 		.word	0
 754 046c 00000000 		.word	0
 755 0470 00000000 		.word	0
 756 0474 00000000 		.word	0
 757 0478 00000000 		.word	0
 758 047c 00000000 		.word	0
 759 0480 00000000 		.word	0
 760 0484 01000000 		.word	1
 761 0488 01000000 		.word	1
 762 048c 00000000 		.word	0
 763 0490 00000000 		.word	0
 764 0494 00000000 		.word	0
 765 0498 00000000 		.word	0
 766 049c 00000000 		.word	0
 767 04a0 00000000 		.word	0
 768 04a4 00000000 		.word	0
 769 04a8 00000000 		.word	0
 770 04ac 00000000 		.word	0
 771 04b0 00000000 		.word	0
 772 04b4 00000000 		.word	0
 773 04b8 00000000 		.word	0
 774 04bc 00000000 		.word	0
 775 04c0 00000000 		.word	0
 776 04c4 00000000 		.word	0
 777 04c8 00000000 		.word	0
 778 04cc 00000000 		.word	0
 779 04d0 00000000 		.word	0
 780 04d4 00000000 		.word	0
 781 04d8 00000000 		.word	0
 782 04dc 00000000 		.word	0
 783 04e0 00000000 		.word	0
 784 04e4 01000000 		.word	1
 785 04e8 01000000 		.word	1
 786 04ec 00000000 		.word	0
 787 04f0 00000000 		.word	0
 788 04f4 00000000 		.word	0
 789 04f8 00000000 		.word	0
 790 04fc 00000000 		.word	0
 791 0500 00000000 		.word	0
 792 0504 00000000 		.word	0
 793 0508 00000000 		.word	0
 794 050c 00000000 		.word	0
 795 0510 00000000 		.word	0
 796 0514 00000000 		.word	0
 797 0518 00000000 		.word	0
 798 051c 00000000 		.word	0
ARM GAS  C:\Users\ldebo\AppData\Local\Temp\cc0w9t1b.s 			page 15


 799 0520 00000000 		.word	0
 800 0524 00000000 		.word	0
 801 0528 00000000 		.word	0
 802 052c 00000000 		.word	0
 803 0530 00000000 		.word	0
 804 0534 00000000 		.word	0
 805 0538 00000000 		.word	0
 806 053c 00000000 		.word	0
 807 0540 00000000 		.word	0
 808 0544 01000000 		.word	1
 809 0548 01000000 		.word	1
 810 054c 00000000 		.word	0
 811 0550 00000000 		.word	0
 812 0554 00000000 		.word	0
 813 0558 00000000 		.word	0
 814 055c 00000000 		.word	0
 815 0560 00000000 		.word	0
 816 0564 00000000 		.word	0
 817 0568 00000000 		.word	0
 818 056c 00000000 		.word	0
 819 0570 00000000 		.word	0
 820 0574 00000000 		.word	0
 821 0578 00000000 		.word	0
 822 057c 00000000 		.word	0
 823 0580 00000000 		.word	0
 824 0584 00000000 		.word	0
 825 0588 00000000 		.word	0
 826 058c 00000000 		.word	0
 827 0590 00000000 		.word	0
 828 0594 00000000 		.word	0
 829 0598 00000000 		.word	0
 830 059c 00000000 		.word	0
 831 05a0 00000000 		.word	0
 832 05a4 01000000 		.word	1
 833 05a8 01000000 		.word	1
 834 05ac 00000000 		.word	0
 835 05b0 00000000 		.word	0
 836 05b4 00000000 		.word	0
 837 05b8 00000000 		.word	0
 838 05bc 00000000 		.word	0
 839 05c0 00000000 		.word	0
 840 05c4 00000000 		.word	0
 841 05c8 00000000 		.word	0
 842 05cc 00000000 		.word	0
 843 05d0 00000000 		.word	0
 844 05d4 00000000 		.word	0
 845 05d8 00000000 		.word	0
 846 05dc 00000000 		.word	0
 847 05e0 00000000 		.word	0
 848 05e4 00000000 		.word	0
 849 05e8 00000000 		.word	0
 850 05ec 00000000 		.word	0
 851 05f0 00000000 		.word	0
 852 05f4 00000000 		.word	0
 853 05f8 00000000 		.word	0
 854 05fc 00000000 		.word	0
 855 0600 00000000 		.word	0
ARM GAS  C:\Users\ldebo\AppData\Local\Temp\cc0w9t1b.s 			page 16


 856 0604 01000000 		.word	1
 857 0608 01000000 		.word	1
 858 060c 04000000 		.word	4
 859 0610 04000000 		.word	4
 860 0614 04000000 		.word	4
 861 0618 04000000 		.word	4
 862 061c 04000000 		.word	4
 863 0620 04000000 		.word	4
 864 0624 04000000 		.word	4
 865 0628 04000000 		.word	4
 866 062c 00000000 		.word	0
 867 0630 00000000 		.word	0
 868 0634 00000000 		.word	0
 869 0638 00000000 		.word	0
 870 063c 00000000 		.word	0
 871 0640 00000000 		.word	0
 872 0644 00000000 		.word	0
 873 0648 00000000 		.word	0
 874 064c 00000000 		.word	0
 875 0650 00000000 		.word	0
 876 0654 00000000 		.word	0
 877 0658 00000000 		.word	0
 878 065c 00000000 		.word	0
 879 0660 00000000 		.word	0
 880 0664 01000000 		.word	1
 881 0668 01000000 		.word	1
 882 066c 04000000 		.word	4
 883 0670 00000000 		.word	0
 884 0674 04000000 		.word	4
 885 0678 00000000 		.word	0
 886 067c 00000000 		.word	0
 887 0680 00000000 		.word	0
 888 0684 00000000 		.word	0
 889 0688 04000000 		.word	4
 890 068c 00000000 		.word	0
 891 0690 00000000 		.word	0
 892 0694 00000000 		.word	0
 893 0698 00000000 		.word	0
 894 069c 00000000 		.word	0
 895 06a0 00000000 		.word	0
 896 06a4 00000000 		.word	0
 897 06a8 00000000 		.word	0
 898 06ac 00000000 		.word	0
 899 06b0 00000000 		.word	0
 900 06b4 00000000 		.word	0
 901 06b8 00000000 		.word	0
 902 06bc 00000000 		.word	0
 903 06c0 00000000 		.word	0
 904 06c4 01000000 		.word	1
 905 06c8 01000000 		.word	1
 906 06cc 04000000 		.word	4
 907 06d0 00000000 		.word	0
 908 06d4 00000000 		.word	0
 909 06d8 00000000 		.word	0
 910 06dc 00000000 		.word	0
 911 06e0 05000000 		.word	5
 912 06e4 00000000 		.word	0
ARM GAS  C:\Users\ldebo\AppData\Local\Temp\cc0w9t1b.s 			page 17


 913 06e8 04000000 		.word	4
 914 06ec 00000000 		.word	0
 915 06f0 00000000 		.word	0
 916 06f4 00000000 		.word	0
 917 06f8 00000000 		.word	0
 918 06fc 00000000 		.word	0
 919 0700 00000000 		.word	0
 920 0704 00000000 		.word	0
 921 0708 00000000 		.word	0
 922 070c 00000000 		.word	0
 923 0710 00000000 		.word	0
 924 0714 00000000 		.word	0
 925 0718 00000000 		.word	0
 926 071c 00000000 		.word	0
 927 0720 00000000 		.word	0
 928 0724 01000000 		.word	1
 929 0728 01000000 		.word	1
 930 072c 04000000 		.word	4
 931 0730 00000000 		.word	0
 932 0734 04000000 		.word	4
 933 0738 00000000 		.word	0
 934 073c 00000000 		.word	0
 935 0740 00000000 		.word	0
 936 0744 00000000 		.word	0
 937 0748 04000000 		.word	4
 938 074c 00000000 		.word	0
 939 0750 00000000 		.word	0
 940 0754 00000000 		.word	0
 941 0758 00000000 		.word	0
 942 075c 00000000 		.word	0
 943 0760 00000000 		.word	0
 944 0764 00000000 		.word	0
 945 0768 00000000 		.word	0
 946 076c 00000000 		.word	0
 947 0770 00000000 		.word	0
 948 0774 00000000 		.word	0
 949 0778 00000000 		.word	0
 950 077c 00000000 		.word	0
 951 0780 00000000 		.word	0
 952 0784 01000000 		.word	1
 953 0788 01000000 		.word	1
 954 078c 04000000 		.word	4
 955 0790 00000000 		.word	0
 956 0794 04000000 		.word	4
 957 0798 04000000 		.word	4
 958 079c 04000000 		.word	4
 959 07a0 04000000 		.word	4
 960 07a4 04000000 		.word	4
 961 07a8 04000000 		.word	4
 962 07ac 00000000 		.word	0
 963 07b0 00000000 		.word	0
 964 07b4 00000000 		.word	0
 965 07b8 00000000 		.word	0
 966 07bc 00000000 		.word	0
 967 07c0 00000000 		.word	0
 968 07c4 00000000 		.word	0
 969 07c8 00000000 		.word	0
ARM GAS  C:\Users\ldebo\AppData\Local\Temp\cc0w9t1b.s 			page 18


 970 07cc 00000000 		.word	0
 971 07d0 00000000 		.word	0
 972 07d4 00000000 		.word	0
 973 07d8 00000000 		.word	0
 974 07dc 00000000 		.word	0
 975 07e0 00000000 		.word	0
 976 07e4 01000000 		.word	1
 977 07e8 01000000 		.word	1
 978 07ec 04000000 		.word	4
 979 07f0 00000000 		.word	0
 980 07f4 00000000 		.word	0
 981 07f8 00000000 		.word	0
 982 07fc 00000000 		.word	0
 983 0800 00000000 		.word	0
 984 0804 00000000 		.word	0
 985 0808 00000000 		.word	0
 986 080c 00000000 		.word	0
 987 0810 00000000 		.word	0
 988 0814 00000000 		.word	0
 989 0818 00000000 		.word	0
 990 081c 00000000 		.word	0
 991 0820 00000000 		.word	0
 992 0824 00000000 		.word	0
 993 0828 00000000 		.word	0
 994 082c 00000000 		.word	0
 995 0830 00000000 		.word	0
 996 0834 00000000 		.word	0
 997 0838 00000000 		.word	0
 998 083c 00000000 		.word	0
 999 0840 00000000 		.word	0
 1000 0844 01000000 		.word	1
 1001 0848 01000000 		.word	1
 1002 084c 04000000 		.word	4
 1003 0850 04000000 		.word	4
 1004 0854 04000000 		.word	4
 1005 0858 04000000 		.word	4
 1006 085c 04000000 		.word	4
 1007 0860 04000000 		.word	4
 1008 0864 04000000 		.word	4
 1009 0868 04000000 		.word	4
 1010 086c 00000000 		.word	0
 1011 0870 00000000 		.word	0
 1012 0874 00000000 		.word	0
 1013 0878 00000000 		.word	0
 1014 087c 00000000 		.word	0
 1015 0880 00000000 		.word	0
 1016 0884 00000000 		.word	0
 1017 0888 00000000 		.word	0
 1018 088c 00000000 		.word	0
 1019 0890 00000000 		.word	0
 1020 0894 00000000 		.word	0
 1021 0898 00000000 		.word	0
 1022 089c 00000000 		.word	0
 1023 08a0 00000000 		.word	0
 1024 08a4 01000000 		.word	1
 1025 08a8 01000000 		.word	1
 1026 08ac 01000000 		.word	1
ARM GAS  C:\Users\ldebo\AppData\Local\Temp\cc0w9t1b.s 			page 19


 1027 08b0 01000000 		.word	1
 1028 08b4 01000000 		.word	1
 1029 08b8 01000000 		.word	1
 1030 08bc 01000000 		.word	1
 1031 08c0 01000000 		.word	1
 1032 08c4 01000000 		.word	1
 1033 08c8 01000000 		.word	1
 1034 08cc 01000000 		.word	1
 1035 08d0 01000000 		.word	1
 1036 08d4 01000000 		.word	1
 1037 08d8 01000000 		.word	1
 1038 08dc 01000000 		.word	1
 1039 08e0 01000000 		.word	1
 1040 08e4 01000000 		.word	1
 1041 08e8 01000000 		.word	1
 1042 08ec 01000000 		.word	1
 1043 08f0 01000000 		.word	1
 1044 08f4 01000000 		.word	1
 1045 08f8 01000000 		.word	1
 1046 08fc 01000000 		.word	1
 1047 0900 01000000 		.word	1
 1048 0904 01000000 		.word	1
 1049              		.type	Level, %object
 1050              		.size	Level, 40
 1051              	Level:
 1052 0908 00       		.byte	0
 1053 0909 000000   		.space	3
 1054 090c 00000000 		.word	0
 1055 0910 00000000 		.word	0
 1056 0914 00000000 		.word	0
 1057 0918 17000000 		.word	23
 1058 091c 17000000 		.word	23
 1059 0920 14000000 		.word	Box+20
 1060 0924 00000000 		.word	InnerBox
 1061 0928 00000000 		.word	0
 1062 092c 00000000 		.word	0
 1063              		.type	Box, %object
 1064              		.size	Box, 80
 1065              	Box:
 1066 0930 00000000 		.space	4
 1067 0934 00000000 		.word	0
 1068 0938 00000000 		.word	0
 1069 093c 14000000 		.word	Box+20
 1070 0940 3C000000 		.word	Box+60
 1071 0944 00000000 		.space	4
 1072 0948 17000000 		.word	23
 1073 094c 00000000 		.word	0
 1074 0950 28000000 		.word	Box+40
 1075 0954 00000000 		.word	Box
 1076 0958 00000000 		.space	4
 1077 095c 17000000 		.word	23
 1078 0960 17000000 		.word	23
 1079 0964 3C000000 		.word	Box+60
 1080 0968 14000000 		.word	Box+20
 1081 096c 00000000 		.space	4
 1082 0970 00000000 		.word	0
 1083 0974 17000000 		.word	23
ARM GAS  C:\Users\ldebo\AppData\Local\Temp\cc0w9t1b.s 			page 20


 1084 0978 00000000 		.word	Box
 1085 097c 28000000 		.word	Box+40
 1086              		.type	InnerBox, %object
 1087              		.size	InnerBox, 40
 1088              	InnerBox:
 1089 0980 00       		.byte	0
 1090 0981 000000   		.space	3
 1091 0984 01000000 		.word	1
 1092 0988 06000000 		.word	6
 1093 098c 05000000 		.word	5
 1094 0990 0A000000 		.word	10
 1095 0994 09000000 		.word	9
 1096 0998 14000000 		.word	InBox1+20
 1097 099c 00000000 		.word	0
 1098 09a0 00000000 		.word	0
 1099 09a4 00000000 		.word	0
 1100              		.type	InBox1, %object
 1101              		.size	InBox1, 80
 1102              	InBox1:
 1103 09a8 00000000 		.space	4
 1104 09ac 06000000 		.word	6
 1105 09b0 05000000 		.word	5
 1106 09b4 14000000 		.word	InBox1+20
 1107 09b8 3C000000 		.word	InBox1+60
 1108 09bc 00000000 		.space	4
 1109 09c0 0A000000 		.word	10
 1110 09c4 05000000 		.word	5
 1111 09c8 28000000 		.word	InBox1+40
 1112 09cc 00000000 		.word	InBox1
 1113 09d0 00000000 		.space	4
 1114 09d4 0A000000 		.word	10
 1115 09d8 09000000 		.word	9
 1116 09dc 3C000000 		.word	InBox1+60
 1117 09e0 14000000 		.word	InBox1+20
 1118 09e4 00000000 		.space	4
 1119 09e8 06000000 		.word	6
 1120 09ec 09000000 		.word	9
 1121 09f0 00000000 		.word	InBox1
 1122 09f4 28000000 		.word	InBox1+40
 1123              		.bss
 1124              		.set	.LANCHOR0,. + 0
 1125              		.type	lit, %object
 1126              		.size	lit, 1
 1127              	lit:
 1128 0000 00       		.space	1
 1129              		.section	.rodata.str1.4,"aMS",%progbits,1
 1130              		.align	2
 1131              	.LC5:
 1132 0000 536D6172 		.ascii	"SmartStart compiled for Arm%d, AARCH%d with %u core"
 1132      74537461 
 1132      72742063 
 1132      6F6D7069 
 1132      6C656420 
 1133 0033 20732F77 		.ascii	" s/w support\012\000"
 1133      20737570 
 1133      706F7274 
 1133      0A00
ARM GAS  C:\Users\ldebo\AppData\Local\Temp\cc0w9t1b.s 			page 21


 1134              		.ident	"GCC: (GNU Tools for ARM Embedded Processors 6-2017-q2-update) 6.3.1 20170620 (release) [AR
ARM GAS  C:\Users\ldebo\AppData\Local\Temp\cc0w9t1b.s 			page 22


DEFINED SYMBOLS
                            *ABS*:00000000 main.c
C:\Users\ldebo\AppData\Local\Temp\cc0w9t1b.s:14     .text:00000000 $a
C:\Users\ldebo\AppData\Local\Temp\cc0w9t1b.s:20     .text:00000000 c_irq_handler
C:\Users\ldebo\AppData\Local\Temp\cc0w9t1b.s:33     .text:00000018 $d
C:\Users\ldebo\AppData\Local\Temp\cc0w9t1b.s:35     .text:0000001c $a
C:\Users\ldebo\AppData\Local\Temp\cc0w9t1b.s:41     .text:0000001c c_irq_identify_and_clear_source
C:\Users\ldebo\AppData\Local\Temp\cc0w9t1b.s:58     .text:00000044 $d
C:\Users\ldebo\AppData\Local\Temp\cc0w9t1b.s:60     .text:00000048 $a
C:\Users\ldebo\AppData\Local\Temp\cc0w9t1b.s:66     .text:00000048 LineIntersect2D
C:\Users\ldebo\AppData\Local\Temp\cc0w9t1b.s:149    .text:00000168 $d
C:\Users\ldebo\AppData\Local\Temp\cc0w9t1b.s:154    .text:00000178 $a
C:\Users\ldebo\AppData\Local\Temp\cc0w9t1b.s:160    .text:00000178 kernel_main
C:\Users\ldebo\AppData\Local\Temp\cc0w9t1b.s:308    .text:000003a4 $d
C:\Users\ldebo\AppData\Local\Temp\cc0w9t1b.s:313    .text:000003b4 $a
C:\Users\ldebo\AppData\Local\Temp\cc0w9t1b.s:408    .text:00000508 $d
C:\Users\ldebo\AppData\Local\Temp\cc0w9t1b.s:464    .data:00000000 grHt
C:\Users\ldebo\AppData\Local\Temp\cc0w9t1b.s:468    .data:00000004 grWth
C:\Users\ldebo\AppData\Local\Temp\cc0w9t1b.s:1051   .data:00000908 Level
C:\Users\ldebo\AppData\Local\Temp\cc0w9t1b.s:1065   .data:00000930 Box
C:\Users\ldebo\AppData\Local\Temp\cc0w9t1b.s:1088   .data:00000980 InnerBox
C:\Users\ldebo\AppData\Local\Temp\cc0w9t1b.s:1102   .data:000009a8 InBox1
C:\Users\ldebo\AppData\Local\Temp\cc0w9t1b.s:472    .data:00000008 worldMap
C:\Users\ldebo\AppData\Local\Temp\cc0w9t1b.s:432    .rodata:00000000 $d
C:\Users\ldebo\AppData\Local\Temp\cc0w9t1b.s:460    .data:00000000 $d
C:\Users\ldebo\AppData\Local\Temp\cc0w9t1b.s:1127   .bss:00000000 lit
C:\Users\ldebo\AppData\Local\Temp\cc0w9t1b.s:1128   .bss:00000000 $d
C:\Users\ldebo\AppData\Local\Temp\cc0w9t1b.s:1130   .rodata.str1.4:00000000 $d

UNDEFINED SYMBOLS
set_Activity_LED
RPi_IO_Base_Addr
SetMaxCPUSpeed
DeadLoop
PiConsole_Init
printf
EnableInterrupts
sqrt
PiConsole_VertLine
cos
sin
RPi_CompileMode
ARM GAS  C:\Users\ldebo\AppData\Local\Temp\cc0w9t1b.s 			page 1


   1              	# 1 "SmartStart32.S"
   1              	﻿/*++++++++++++++++++++++++++++++++++++++++++++++++++++++++++++++++++++++++++}
   0              	
   0              	
   2              	{																			}			
   3              	{       Filename: smartstart.s												}
   4              	{       Copyright(c): Leon de Boer(LdB) 2017								}
   5              	{       Version: 2.01														}
   6              	{																			}		
   7              	{***************[ THIS CODE IS FREEWARE UNDER CC Attribution]***************}
   8              	{																            }
   9              	{     This sourcecode is released for the purpose to promote programming    }
  10              	{  on the Raspberry Pi. You may redistribute it and/or modify with the      }
  11              	{  following disclaimer and condition.                                      }
  12              	{																            }
  13              	{      The SOURCE CODE is distributed "AS IS" WITHOUT WARRANTIES AS TO      }
  14              	{   PERFORMANCE OF MERCHANTABILITY WHETHER EXPRESSED OR IMPLIED.            }
  15              	{   Redistributions of source code must retain the copyright notices to     }
  16              	{   maintain the author credit (attribution) .								}
  17              	{																			}
  18              	{***************************************************************************}
  19              	{                                                                           }
  20              	{       This code expands on my earlier SmartStart bootstub assembler for   }
  21              	{  the Pi 1/2/3. It simplifies some of the autodetect code but importantly  }
  22              	{  directly supports multicore operation in C/C++. To do that it provides   }
  23              	{  stack space to each core and provides a modified bootloader spinlock     }
  24              	{  that protects against registers R0-R3 trashed. As any C/C++ compiler     }
  25              	{  code will trash those registers, to use C/C++ in multicore programming   }
  26              	{  this protection must be done.											}
  27              	{       The downside is this bootstub must be a little more complex in      }
  28              	{  that it must start and setup multiple cores. The code is much more       }
  29              	{  connected to the linker file which provides memory space to each core.   }
  30              	{        There is however matching paired AARCH64 stub and linker files     }
  31              	{  so code written for this setup can be ported to AARCH64 with ease.		}
  32              	{																            }
  33              	{++++++++++++++++++++++++++++++++++++++++++++++++++++++++++++++++++++++++++*/
  34              	
  35              	/*==========================================================================}
  36              	;{				 	 ARM CPU ID CONSTANT DEFINITIONS					    }
  37              	;{=========================================================================*/
  38              	#define ARM6_CPU_ID 0x410FB767					// CPU id a BCM2835 reports
  39              	#define ARM7_CPU_ID 0x410FC073					// CPU id a BCM2836 reports
  40              	#define ARM8_CPU_ID 0x410FD034					// CPU id a BCM2837 reports
  41              	
  42              	/*==========================================================================}
  43              	;{				 	 ARM CPU MODE CONSTANT DEFINITIONS					    }
  44              	;{=========================================================================*/
  45              	#define CPU_FIQMODE 0x11						// CPU in FIQ mode
  46              	#define CPU_IRQMODE 0x12						// CPU in IRQ mode
  47              	#define CPU_SVCMODE 0x13						// CPU in SVC mode
  48              	#define CPU_HYPMODE 0x1A						// CPU in HYP mode
  49              	
  50              	/*==========================================================================}
  51              	;{				 ARM CPU IRQ/FIQ BIT CONSTANT DEFINITIONS				    }
  52              	;{=========================================================================*/
  53              	#define I_Bit  (1 << 7)							// Irq flag bit in cpsr (CPUMODE register)
  54              	#define F_Bit  (1 << 6)							// Fiq flag bit in cpsr (CPUMODE register)
ARM GAS  C:\Users\ldebo\AppData\Local\Temp\cc0w9t1b.s 			page 2


  55              	
  56              	
  57              	;@"****************************************************************"
  58              	;@      INTERNAL DATA FOR SMARTSTART NOT EXPOSED TO INTERFACE 
  59              	;@"****************************************************************"
  60              	.section ".data.smartstart", "aw"
  61              	.balign 4
  62              	
  63 0000 00000000 	RPi_BusAlias	: .4byte 0;				// Address offset between physical addressand ARM address needed for al
  64              	
  65              	.globl RPi_CPUCurrentMode;				// Make sure RPi_CPUCurrentMode label is global
  66 0004 00000000 	RPi_CPUCurrentMode : .4byte 0;			//  CPU current Mode is 4 byte variable
  67              	
  68              	
  69              	.globl RPi_Heap; @ Make sure RPi_Heap label is global
  70 0008 00000000 	RPi_Heap : .4byte 0; @ RPi_Heap is 4 byte variable
  71              	
  72              	.section ".text.startup", "ax", %progbits
  73              	.balign	4
  74              	.globl _start
  75              	.syntax unified
  76              	.arm
  77              	_start:
  78              	;@"================================================================"
  79              	;@ Grab cpu mode and start address and hold in a high register.
  80              	;@"================================================================"
  81 0000 0FC0A0E1 		mov r12, pc;							;@ Hold boot address in high register R12
  82 0004 00B00FE1 		mrs r11, CPSR							;@ Read current CPU mode
  83 0008 1FB00BE2 		and r11, r11, #0x1F						;@ Clear all but CPU mode bits in register r11
  84              	;@"================================================================"
  85              	;@ If the cpu is in HYP_MODE(EL2) we will bring it SVC_MODE (EL1).
  86              	;@"================================================================"
  87              	multicore_start:
  88 000c 00000FE1 	    mrs r0,cpsr								;@ Fetch the cpsr register which includes CPU mode bits 
  89 0010 1F1000E2 	 	and r1, r0, #0x1F						;@ Mask off the CPU mode bits to register r1                            
  90 0014 1A0051E3 	 	cmp r1, #CPU_HYPMODE					;@ Check we are in HYP_MODE											
  91 0018 0500001A 		bne .NotInHypMode						;@ Branch if not equal meaning was not in HYP_MODE  
  92 001c 1F00C0E3 		bic r0,r0,#0x1F							;@ Clear the CPU mode bits in register r0							
  93 0020 D30080E3 		orr r0, r0, #CPU_SVCMODE | I_Bit | F_Bit;@ Logical OR SVC_MODE bits onto register with Irq/Fiq dis
  94 0024 00F06FE1 	    msr spsr_cxsf,r0						;@ Hold value in spsr_cxsf
  95 0028 04E08FE2 	    add lr,pc,#4							;@ Calculate address of .NotInHypMode label
  96              		/* I borrowed this trick from Ultibo because ARM6 code running on an ARM7/8 needs this opcode  */
  97              		/* The ARM6 compiler does not know these instructions so it is a way to get needed opcode here */
  98              	    /* So our ARM6 code can drop an arm7 or arm8 out of HYP mode and run on an ARM7/8.             
  99              	 	/* Native ARM7/8 compilers already understand the OPCODE but do not mind it this way either	   */
 100 002c 0EF32EE1 		.long 0xE12EF30E						;@ "msr ELR_hyp, lr" Set the address to ELR_hyp
 101 0030 6E0060E1 		.long 0xE160006E						;@ "eret" Elevated return which will exit at .NotInHypMode in SVC_MODE
 102              	.NotInHypMode:
 103              	;@"================================================================"
 104              	;@  Setup stack pointers for each core and each CPU operation mode
 105              	;@"================================================================"
 106 0034 4C229FE5 	    ldr r2, = __SVC_stack_core0				;@ Address of svc_stack_core0 stack pointer value
 107 0038 4C329FE5 	    ldr r3, = __FIQ_stack_core0				;@ Address of fiq_stack_core0 stack pointer value
 108 003c 4C429FE5 	    ldr r4, = __IRQ_stack_core0				;@ Address of irq_stack_core0 stack pointer value
 109 0040 100F10EE 		mrc p15, 0, r0, c0, c0, 0				;@ Read CPU ID Register
 110 0044 48129FE5 		ldr r1, =#ARM6_CPU_ID					;@ Fetch ARM6_CPU_ID
 111 0048 000051E1 		cmp r1, r0								;@ Check for match
ARM GAS  C:\Users\ldebo\AppData\Local\Temp\cc0w9t1b.s 			page 3


 112 004c 0F00000A 		beq set_svc_stack						;@ ARM6 only has 1 core so goto set svc_stack
 113 0050 B05F10EE 		mrc p15, 0, r5, c0, c0, 5				;@ Read core id on ARM7 & ARM8
 114 0054 035015E2 		ands r5, r5, #0x3						;@ Make cpu id bitmask
 115 0058 0C00000A 		beq set_svc_stack						;@ This is core 0 so set got set svc_stack
 116 005c 34229FE5 	    ldr r2, = __SVC_stack_core1				;@ Address of svc_stack_core1 stack pointer value
 117 0060 34329FE5 	    ldr r3, = __FIQ_stack_core1				;@ Address of fiq_stack_core1 stack pointer value
 118 0064 34429FE5 	    ldr r4, = __IRQ_stack_core1				;@ Address of irq_stack_core1 stack pointer value
 119 0068 010055E3 		cmp r5, #1								;@ Check cpu id for core 1
 120 006c 0700000A 		beq set_svc_stack						;@ This is core 1 so set svc_stack
 121 0070 2C229FE5 	    ldr r2, = __SVC_stack_core2				;@ Address of svc_stack_core2 stack pointer value
 122 0074 2C329FE5 	    ldr r3, = __FIQ_stack_core2				;@ Address of fiq_stack_core2 stack pointer value
 123 0078 2C429FE5 	    ldr r4, = __IRQ_stack_core2				;@ Address of irq_stack_core2 stack pointer value
 124 007c 020055E3 		cmp r5, #2								;@ Check cpu id for core 2
 125 0080 0200000A 		beq set_svc_stack						;@ This is core 2 so set svc_stack
 126 0084 24229FE5 	    ldr r2, = __SVC_stack_core3				;@ Address of svc_stack_core3 stack pointer value
 127 0088 24329FE5 	    ldr r3, = __FIQ_stack_core3				;@ Address of fiq_stack_core3 stack pointer value
 128 008c 24429FE5 	    ldr r4, = __IRQ_stack_core3				;@ Address of irq_stack_core3 stack pointer value
 129              	set_svc_stack:
 130 0090 02D0A0E1 		mov sp, r2								;@ Set the stack pointer for SVC_MODE 
 131 0094 00000FE1 	    mrs r0,cpsr								;@ Fetch the cpsr register which includes CPU mode bits 
 132 0098 1F00C0E3 		bic r0,r0,#0x1F							;@ Clear the CPU mode bits in register r0							
 133 009c D10080E3 		orr r0, r0, #CPU_FIQMODE | I_Bit | F_Bit;@ Logical OR FIQ_MODE bits onto register with Irq/Fiq dis
 134 00a0 00F021E1 	    msr CPSR_c, r0							;@ Switch to FIQ_MODE
 135 00a4 03D0A0E1 		mov sp, r3								;@ Set the stack pointer for FIQ_MODE 
 136 00a8 1F00C0E3 		bic r0,r0,#0x1F							;@ Clear the CPU mode bits in register r0	
 137 00ac D20080E3 		orr r0, r0, #CPU_IRQMODE | I_Bit | F_Bit;@ Logical OR IRQ_MODE bits onto register with Irq/Fiq dis
 138 00b0 00F021E1 	    msr CPSR_c, r0							;@ Switch to IRQ_MODE
 139 00b4 04D0A0E1 		mov sp, r4								;@ Set the stack pointer for IRQ_MODE 
 140 00b8 1F00C0E3 		bic r0,r0,#0x1F							;@ Clear the CPU mode bits in register r0							
 141 00bc D30080E3 		orr r0, r0, #CPU_SVCMODE | I_Bit | F_Bit;@ Logical OR SVC_MODE bits onto register with Irq/Fiq dis
 142 00c0 00F021E1 	    msr CPSR_c, r0							;@ Switch to SVC_MODE again all stacks ready to go
 143              	@"================================================================"
 144              	;@ PI NSACR regsister setup for access to floating point unit
 145              	;@ Cortex A-7 => Section 4.3.34. Non-Secure Access Control Register
 146              	;@ Cortex A-53 => Section 4.5.32. Non-Secure Access Control Register
 147              	;@"================================================================"
 148 00c4 510F11EE 		mrc p15, 0, r0, c1, c1, 2				;@ Read NSACR into R0
 149 00c8 030B50E3 		cmp r0, #0x00000C00						;@ Access turned on or in AARCH32 mode and can not touch register or EL3 
 150 00cc 0100000A 		beq .free_to_enable_fpu1
 151 00d0 030B80E3 		orr r0, r0, #0x3<<10					;@ Set access to both secure and non secure modes
 152 00d4 510F01EE 		mcr p15, 0, r0, c1, c1, 2				;@ Write NSACR
 153              	;@"================================================================"
 154              	;@ Bring fpu online
 155              	;@"================================================================"
 156              	.free_to_enable_fpu1:
 157 00d8 500F11EE 		mrc p15, 0, r0, c1, c0, #2				;@ R0 = Access Control Register
 158 00dc 0F0680E3 		orr r0, #(0x300000 + 0xC00000)			;@ Enable Single & Double Precision
 159 00e0 500F01EE 		mcr p15,0,r0,c1,c0, #2					;@ Access Control Register = R0
 160 00e4 0101A0E3 		mov r0, #0x40000000						;@ R0 = Enable VFP
 161 00e8 100AE8EE 		vmsr fpexc, r0							;@ FPEXC = R0
 162              	;@"================================================================"
 163              	;@ Enable L1 cache
 164              	;@"================================================================"
 165              	#define SCTLR_ENABLE_DATA_CACHE			0x4
 166              	#define SCTLR_ENABLE_BRANCH_PREDICTION	0x800
 167              	#define SCTLR_ENABLE_INSTRUCTION_CACHE  0x1000
 168 00ec 100F11EE 	    mrc p15,0,r0,c1,c0,0					;@ R0 = System Control Register
ARM GAS  C:\Users\ldebo\AppData\Local\Temp\cc0w9t1b.s 			page 4


 169              	
 170              	    /* Enable caches and branch prediction */
 171 00f0 020B80E3 	    orr r0, #SCTLR_ENABLE_BRANCH_PREDICTION
 172 00f4 040080E3 	    orr r0, #SCTLR_ENABLE_DATA_CACHE
 173 00f8 010A80E3 	    orr r0, #SCTLR_ENABLE_INSTRUCTION_CACHE
 174              	
 175 00fc 100F01EE 	    mcr p15,0,r0,c1,c0,0					;@ System Control Register = R0
 176              	;@"================================================================"
 177              	;@ Check if BC2835 and if so branch over multi-core park routine
 178              	;@"================================================================"
 179 0100 100F10EE 		mrc p15,0,r0,c0,c0,0					;@ Read CPU ID Register
 180 0104 88119FE5 		ldr r1, =#ARM6_CPU_ID					;@ fetch ARM6_CPU_ID
 181 0108 000051E1 		cmp r1, r0								;@ Check for match
 182 010c 0700000A 		beq .cpu0_exit_multicore_park			;@ Branch as Arm6 has only 1 CPU 
 183              	;@"================================================================"
 184              	;@ Now park Core 1,2,3 into secondary spinloop on BCM2836, BCM2837
 185              	;@ If bootloader is used this will not happen but booting with the
 186              	;@ "OldKernel=1" from 0x0000 this can happen. Core 0 continues on.
 187              	;@"================================================================"
 188 0110 B00F10EE 		mrc p15, 0, r0, c0, c0, 5				;@ Read core id on ARM7 & ARM8
 189 0114 030010E2 		ands r0, r0, #0x3					    ;@ Make core 2 bit bitmask in R0
 190 0118 0400000A 		beq  .cpu0_exit_multicore_park			;@ Core 0 jumps out
 191 011c 98119FE5 		ldr r1, =RPi_CoresReady					;@ Address of CoreReady count
 192 0120 000091E5 		ldr r0, [r1]							;@ Load current core count 
 193 0124 010080E2 		add r0, r0, #1							;@ Add one as core about to go ready
 194 0128 000081E5 		str r0, [r1]							;@ Update CoreReady count
 195 012c 810000EA 		b    SecondarySpin						;@ Jump to setup secondary spin
 196              	.cpu0_exit_multicore_park:
 197              	;@"================================================================"
 198              	;@ Now store initial CPU boot mode and address we might need later.
 199              	;@"================================================================"
 200 0130 88119FE5 		ldr r1, =RPi_BootAddr					;@ Address to hold Boot address
 201 0134 08C04CE2 		sub r12, #8								;@ Subtract op-code offset
 202 0138 00C081E5 		str r12, [r1]							;@ Save the boot address we started at
 203 013c 80119FE5 		ldr r1, =RPi_CPUBootMode				;@ Memory address to save this CPU boot mode
 204 0140 00B081E5 		str r11, [r1]							;@ Save the boot mode we started in
 205              	;@"================================================================"
 206              	;@  Initial CPU core ready so set CoreReady count to 1.
 207              	;@"================================================================"
 208 0144 0100A0E3 		mov r0, #1								;@ Core0 is will be ready
 209 0148 6C119FE5 		ldr r1, =RPi_CoresReady					;@ Memory address to save Cores ready
 210 014c 000081E5 		str r0, [r1]							;@ Set RPi_CoresReady to 1
 211              	;@"================================================================"
 212              	;@ Fetch and hold CPU changed mode. If we changed modes this value
 213              	;@ will now reflect a change from the original held RPi_CPUBootMode.
 214              	;@"================================================================"
 215 0150 00200FE1 		mrs r2, CPSR
 216 0154 1F2002E2 		and r2, r2, #0x1F						;@ Clear all but CPU mode bits in register r2
 217 0158 68119FE5 		ldr r1, =RPi_CPUCurrentMode
 218 015c 002081E5 		str r2, [r1]							;@ Hold the changed CPU mode
 219              	;@"================================================================"
 220              	;@ Read the Arm Main CPUID register => sets RPi_CpuId
 221              	;@"================================================================"
 222 0160 64119FE5 		ldr r1, =RPi_CpuId						;@ Address to hold CPU id
 223 0164 100F10EE 		mrc p15, 0, r0, c0, c0, 0				;@ Read Main ID Register
 224 0168 000081E5 		str r0, [r1]							;@ Save CPU Id for interface 
 225              	;@"================================================================"
ARM GAS  C:\Users\ldebo\AppData\Local\Temp\cc0w9t1b.s 			page 5


 226              	;@ Store the compiler mode in RPi_CompileMode
 227              	;@"================================================================"
 228 016c 000020E0 		eor r0, r0, r0;							;@ Zero register
 229              	.if (__ARM_ARCH == 6)						// Compiling for ARM6
 230 0170 0600A0E3 		mov r0, #0x06							;@ Compiled for ARM6 CPU
 231              	.endif
 232              	.if (__ARM_ARCH == 7)						// Compiling for ARM7
 233              		mov r0, #0x07							;@ Compiled for ARM7 CPU
 234              	.endif
 235              	.if (__ARM_ARCH == 8)						// Compiling for ARM8
 236              		mov r0, #0x08							;@ Compiled for ARM8 CPU
 237              	.endif
 238 0174 800080E3 		orr r0, r0, #(4 << 5)					;@ Code is setup to support 4 cores			
 239 0178 50119FE5 		ldr r1, =RPi_CompileMode
 240 017c 000081E5 		str r0, [r1]							;@ Store the compiler mode  
 241              	;;@"================================================================"
 242              	;@ Try Auto-Detect Raspberry PI IO base address at 1st position
 243              	;@"================================================================"
 244 0180 4C219FE5 		ldr r2, =#0x61757830
 245 0184 4C119FE5 		ldr r1, =#0x20215010
 246 0188 000091E5 		ldr r0, [r1]							;@ Fetch value at 0x20215010 being uart0
 247 018c 000052E1 		cmp r2, r0;								;@ Check if we have the value the uart0 will be at reset
 248 0190 0600001A 		bne .not_at_address_1
 249              	;@"================================================================"
 250              	;@  Raspberry PI IO base address was detected as 0x20000000
 251              	;@  RPi_IO_Base_Addr => 0x20000000
 252              	;@"================================================================"
 253 0194 40119FE5 		ldr r1, =RPi_BusAlias
 254 0198 0101A0E3 		mov	r0, #0x40000000
 255 019c 000081E5 		str	r0, [r1]							;@ Hold bus alias
 256 01a0 38119FE5 		ldr r1, =RPi_IO_Base_Addr
 257 01a4 0202A0E3 		mov	r0, #0x20000000
 258 01a8 000081E5 		str	r0, [r1]							;@ Hold the detected address
 259 01ac 0A0000EA 		b .autodetect_done;
 260              	;@"================================================================"
 261              	;@ Try Auto-Detect Raspberry PI IO base address at 2nd position
 262              	;@"================================================================"
 263              	.not_at_address_1:
 264 01b0 2C119FE5 		ldr r1, =#0x3f215010
 265 01b4 000091E5 		ldr r0, [r1]							;@ Fetch value at 0x3f215010
 266 01b8 000052E1 		cmp r2, r0								;@ Check if we have the value the uart0 will be at reset
 267 01bc 0000000A 		beq .At2ndAddress
 268              	;@"================================================================"
 269              	;@ ** Auto-Detected failed, not safe to do anything but deadloop **
 270              	;@ Would love to be display an error state but no ability on Pi
 271              	;@"================================================================"
 272              	.pi_detect_fail:
 273 01c0 FEFFFFEA 	    b .pi_detect_fail
 274              	;@"================================================================"
 275              	;@  Raspberry PI IO base address was detected as 0x3f000000
 276              	;@  RPi_IO_Base_Addr => 0x3f000000
 277              	;@"================================================================"
 278              	.At2ndAddress:
 279 01c4 10119FE5 		ldr r1, =RPi_BusAlias
 280 01c8 0301A0E3 		mov	r0, #0xC0000000
 281 01cc 000081E5 		str	r0, [r1]							;@ Hold bus alias
 282              	;@ Pi2 address 0x3f000000
ARM GAS  C:\Users\ldebo\AppData\Local\Temp\cc0w9t1b.s 			page 6


 283 01d0 08119FE5 		ldr r1, =RPi_IO_Base_Addr
 284 01d4 3F04A0E3 		mov	r0, #0x3f000000						;@ Hold the detected address
 285 01d8 000081E5 		str	r0, [r1]
 286              	.autodetect_done:
 287              	;@"================================================================"
 288              	;@  We are getting close to handing over to C so we need to copy the 
 289              	;@  ISR table to position 0x0000 so interrupts can be used if wanted 
 290              	;@"================================================================"
 291 01dc 04019FE5 		ldr r0, = _isr_Table					;@ Address of isr_Table
 292 01e0 0010A0E3 		mov     r1, #0x0000						;@ Destination 0x0000
 293 01e4 FC03B0E8 	    ldmia   r0!,{r2, r3, r4, r5, r6, r7, r8, r9}
 294 01e8 FC03A1E8 	    stmia   r1!,{r2, r3, r4, r5, r6, r7, r8, r9}
 295 01ec FC03B0E8 	    ldmia   r0!,{r2, r3, r4, r5, r6, r7, r8, r9}
 296 01f0 FC03A1E8 	    stmia   r1!,{r2, r3, r4, r5, r6, r7, r8, r9}
 297              	;@"================================================================"
 298              	;@ Now Clear the .BSS segment as the C compiler expects us to do
 299              	;@"================================================================"
 300 01f4 F0009FE5 		ldr   r0, =__bss_start__
 301 01f8 F0109FE5 		ldr   r1, =__bss_end__	
 302 01fc 0020A0E3 		mov   r2, #0
 303              	.clear_bss:
 304 0200 010050E1 	    cmp   r0, r1
 305 0204 020000AA 	    bge   .clear_bss_exit
 306 0208 002080E5 	    str   r2, [r0]
 307 020c 040080E2 		add   r0, r0, #4
 308 0210 FAFFFFEA 	    b .clear_bss
 309              	.clear_bss_exit:
 310              	;@"================================================================"
 311              	;@ Bring Core 1,2,3 to secondary spin if not an ARM6 and bootloaded
 312              	;@"================================================================"
 313 0214 100F10EE 		mrc p15,0,r0,c0,c0,0					;@ Read Main ID Register
 314 0218 74109FE5 		ldr r1, =#ARM6_CPU_ID					;@ fetch ARM6_CPU_ID
 315 021c 000051E1 		cmp r1, r0								;@ Check for match
 316 0220 1600000A 		beq .NoMultiCoreSetup					;@ ARM6 jumps as no multicore
 317 0224 94109FE5 		ldr r1, =RPi_BootAddr					;@ Address to hold Boot address
 318 0228 000091E5 		ldr r0, [r1]							;@ Fetch bootAddress
 319 022c 0219A0E3 		ldr r1, =#0x8000						;@ Check against 0x8000
 320 0230 000051E1 		cmp r1, r0								;@ Check for match	
 321 0234 1100001A 		bne .NoMultiCoreSetup					;@ Not bootladed so jump multicore setup
 322 0238 0111A0E3 	 	mov	r1, #1073741824						;@ 0x40000000
 323 023c B0209FE5 	    ldr r2, =multicore_start				;@ Address of CoreSetup call
 324 0240 9C2081E5 		str	r2, [r1, #156]						;@ Write ExtraCoreSetup to 0x4000009C which signals core1 to jump
 325 0244 70309FE5 	 	ldr r3, =RPi_CoresReady					;@ Address of CoreReady count
 326              	.WaitCore1ACK:
 327 0248 001093E5 		ldr	r1, [r3]							;@ Read CoreReady
 328 024c 020051E3 		cmp	r1, #2								;@ Wait for setting of second core ready
 329 0250 FCFFFF0A 		beq	.WaitCore1ACK						;@ Core1 not ready so read again
 330 0254 0111A0E3 	 	mov	r1, #1073741824						;@ 0x40000000
 331 0258 94209FE5 	    ldr r2, =multicore_start				;@ Address of CoreSetup call
 332 025c AC2081E5 		str	r2, [r1, #172]						;@ Write ExtraCoreSetup to 0x400000AC which signals core2 to jump
 333              	.WaitCore2ACK:
 334 0260 001093E5 		ldr	r1, [r3]							;@ Read CoreReady count
 335 0264 030051E3 		cmp	r1, #3								;@ Wair for setting of third core ready
 336 0268 FCFFFF0A 		beq	.WaitCore2ACK						;@ Core2 not ready so read again
 337 026c 0111A0E3 	 	mov	r1, #1073741824						;@ 0x40000000
 338 0270 BC2081E5 		str	r2, [r1, #188]						;@ Write ExtraCoreSetup to 0x400000BC which signals core3 to jump
 339              	.WaitCore3ACK:
ARM GAS  C:\Users\ldebo\AppData\Local\Temp\cc0w9t1b.s 			page 7


 340 0274 001093E5 		ldr	r1, [r3]							;@ Read CoreReady count
 341 0278 040051E3 		cmp	r1, #4								;@ check for ACK
 342 027c FCFFFF0A 		beq	.WaitCore3ACK						;@ Core2 not ready so read again
 343              	.NoMultiCoreSetup:
 344              	;@"================================================================"
 345              	;@ Finally that all done jump to the C compiler entry point
 346              	;@"================================================================"
 347 0280 FEFFFFEB 	   	 bl kernel_main
 348              	hang:
 349 0284 FEFFFFEA 		b hang
 350              	.balign	4
 351 0288 00000000 	.ltorg									;@ Tell assembler ltorg data for this code can go here
 351      00000000 
 351      00000000 
 351      67B70F41 
 351      00000000 
 352              	
 353              	_isr_Table:
 354 02f8 18F09FE5 	    ldr pc, _reset_h
 355 02fc 18F09FE5 	    ldr pc, _undefined_instruction_vector_h
 356 0300 18F09FE5 	    ldr pc, _software_interrupt_vector_h
 357 0304 18F09FE5 	    ldr pc, _prefetch_abort_vector_h
 358 0308 18F09FE5 	    ldr pc, _data_abort_vector_h
 359 030c 18F09FE5 	    ldr pc, _unused_handler_h
 360 0310 18F09FE5 	    ldr pc, _interrupt_vector_h
 361 0314 18F09FE5 	    ldr pc, _fast_interrupt_vector_h
 362              	
 363 0318 00000000 	_reset_h:                           .word   _start
 364 031c 84020000 	_undefined_instruction_vector_h:    .word   hang
 365 0320 84020000 	_software_interrupt_vector_h:       .word   hang
 366 0324 84020000 	_prefetch_abort_vector_h:           .word   hang
 367 0328 84020000 	_data_abort_vector_h:               .word   hang
 368 032c 84020000 	_unused_handler_h:                  .word   hang
 369 0330 1C000000 	_interrupt_vector_h:                .word   _irq_handler_stub
 370 0334 84020000 	_fast_interrupt_vector_h:           .word   hang	
 371              	
 372              	
 373              	/*++++++++++++++++++++++++++++++++++++++++++++++++++++++++++++++++++++++++++}
 374              	{    Modified bootloader Spin loop but tolerant on registers R0-R3 for C    }
 375              	{++++++++++++++++++++++++++++++++++++++++++++++++++++++++++++++++++++++++++*/
 376              	.balign	4
 377              	SecondarySpin:
 378 0338 B00F10EE 		mrc     p15, 0, r0, c0, c0, 5
 379 033c 030010E2 		ands r0, r0, #0x3					    // Make core 2 bit bitmask in R0
 380 0340 44509FE5 		ldr r5, =mbox		
 381 0344 005095E5 		ldr r5, [r5]		@ mbox
 382 0348 0030A0E3 		mov	r3, #0			@ magic
 383 034c 405085E2 		add	r5, #(0x400000CC-0x4000008C)	@ mbox
 384              	SecondarySpinLoop:
 385 0350 004295E7 		ldr	r4, [r5, r0, lsl #4]
 386 0354 030054E1 		cmp	r4, r3
 387 0358 FCFFFF0A 		beq	SecondarySpinLoop
 388              	@ clear mailbox
 389 035c 004285E7 		str	r4, [r5, r0, lsl #4]
 390 0360 0000A0E3 		mov	r0, #0
 391 0364 24109FE5 		ldr r1, =machid		
 392 0368 001091E5 		ldr r1, [r1]		@ BCM2708 machine id
ARM GAS  C:\Users\ldebo\AppData\Local\Temp\cc0w9t1b.s 			page 8


 393 036c 20209FE5 		ldr r2, = atags		
 394 0370 002092E5 		ldr r2, [r2]		@ ATAGS
 395 0374 1CE09FE5 		ldr lr, =SecondarySpin
 396 0378 14FF2FE1 		bx	r4
 397 037c EDFFFFEA 		b SecondarySpin
 398 0380 8C000040 	mbox: 	.4byte 0x4000008C
 399 0384 420C0000 	machid:	.4byte 3138
 400 0388 00010000 	atags:  .4byte 0x100
 401              	.balign	4
 402 038c 80030000 	.ltorg										;@ Tell assembler ltorg data for this code can go here
 402      84030000 
 402      88030000 
 402      38030000 
 403              	
 404              	.globl RPi_CpuIdString
 405              	RPi_CpuIdString:
 406 039c 34009FE5 		ldr r0, =ARM6_STR						
 407 03a0 102F10EE 		mrc p15,0,r2,c0,c0,0					;@ Read Main ID Register
 408 03a4 30109FE5 		ldr r1, =#ARM6_CPU_ID					;@ Fetch ARM6_CPU_ID
 409 03a8 020051E1 		cmp r1, r2								;@ Check for match	
 410 03ac 0800000A 		beq CpuIdStringDone
 411 03b0 28009FE5 		ldr r0, =ARM7_STR
 412 03b4 28109FE5 		ldr r1, =#ARM7_CPU_ID					;@ Fetch ARM7_CPU_ID
 413 03b8 020051E1 		cmp r1, r2								;@ Check for match
 414 03bc 0400000A 		beq CpuIdStringDone
 415 03c0 20009FE5 		ldr r0, =ARM8_STR
 416 03c4 20109FE5 		ldr r1, =#ARM8_CPU_ID					;@ Fetch ARM8_CPU_ID
 417 03c8 020051E1 		cmp r1, r2								;@ Check for match
 418 03cc 0000000A 		beq CpuIdStringDone	
 419 03d0 18009FE5 		ldr r0, =ARMX_STR
 420              	CpuIdStringDone:
 421 03d4 1EFF2FE1 		bx  lr									;@ Return
 422              	.balign	4
 423 03d8 00000000 	.ltorg										;@ Tell assembler ltorg data for this code can go here
 423      67B70F41 
 423      0E000000 
 423      73C00F41 
 423      19000000 
 424              	
 425              	.globl EnableInterrupts
 426              	EnableInterrupts:
 427 03f4 800008F1 		cpsie i									;@ Enable IRQ
 428 03f8 1EFF2FE1 		bx  lr									;@ Return
 429              	
 430              	.globl DisableInterrupts
 431              	DisableInterrupts:
 432 03fc 80000CF1 	    cpsid i									;@ Disable IRQ
 433 0400 1EFF2FE1 		bx  lr									;@ Return
 434              	
 435              	
 436              	.globl CoreExecute
 437              	CoreExecute:
 438 0404 FF0010E2 		ands r0, r0, #255
 439 0408 0700000A 		beq CoreExecuteFail
 440 040c 20309FE5 		ldr r3, =RPi_CoresReady
 441 0410 002093E5 		ldr r2, [r3]							// Fetch cores ready count
 442 0414 020050E1 		cmp r0, r2
ARM GAS  C:\Users\ldebo\AppData\Local\Temp\cc0w9t1b.s 			page 9


 443 0418 0300002A 		bcs	CoreExecuteFail
 444 041c 14309FE5 		ldr r3, =#0x4000008C					// Load address of spins
 445 0420 001283E7 		str r1, [r3, r0, lsl #4]				// Save caller address
 446 0424 0100A0E3 		mov r0, #1
 447 0428 1EFF2FE1 		bx  lr
 448              	CoreExecuteFail:
 449 042c 0000A0E3 		mov r0, #0
 450 0430 1EFF2FE1 		bx  lr
 451              	.balign	4
 452 0434 00000000 	.ltorg										// Tell assembler ltorg data for this code can go here
 452      8C000040 
 453              	
 454              	/*++++++++++++++++++++++++++++++++++++++++++++++++++++++++++++++++++++++++++}
 455              	{			MEMORY HELPER ROUTINES PROVIDE BY RPi-SmartStart API		    }
 456              	{++++++++++++++++++++++++++++++++++++++++++++++++++++++++++++++++++++++++++*/
 457              	
 458              	/* "PROVIDE C FUNCTION: uint32_t ARMaddrToGPUaddr (void* ARMaddress);" */
 459              	.section .text.ARMaddrToGPUaddr, "ax", %progbits
 460              	.balign	4
 461              	.globl ARMaddrToGPUaddr;		
 462              	.type ARMaddrToGPUaddr, %function
 463              	.syntax unified
 464              	.arm
 465              	;@"================================================================"
 466              	;@ ARMaddrToGPUaddr -- Composite Pi1, Pi2 & Pi3 code
 467              	;@ C Function: uint32_t ARMaddrToGPUaddr (void* ARMaddress);
 468              	;@ Entry: R0 will have ARMAddress value
 469              	;@"================================================================"
 470              	ARMaddrToGPUaddr:
 471 0000 08109FE5 		ldr r1, =RPi_BusAlias
 472 0004 001091E5 	    ldr r1,[r1]								;@ Fetch bus alias	
 473 0008 010080E1 		orr r0, r0, r1							;@ Create bus address
 474 000c 1EFF2FE1 		bx   lr									;@ Return
 475              	.balign	4
 476 0010 00000000 	.ltorg										;@ Tell assembler ltorg data for this code can go here
 477              	.size	ARMaddrToGPUaddr, .-ARMaddrToGPUaddr
 478              	
 479              	
 480              	/* "PROVIDE C FUNCTION: uint32_t GPUaddrToARMaddr (uint32_t BUSaddress);" */
 481              	.section .text.GPUaddrToARMaddr, "ax", %progbits
 482              	.balign	4
 483              	.globl GPUaddrToARMaddr;		
 484              	.type GPUaddrToARMaddr, %function
 485              	.syntax unified
 486              	.arm
 487              	;@"================================================================"
 488              	;@ GPUaddrToARMaddr -- Composite Pi1, Pi2 & Pi3 code
 489              	;@ C Function: uint32_t GPUaddrToARMaddr (uint32_t BUSaddress);
 490              	;@ Entry: R0 will have GPUAddress value
 491              	;@"================================================================"
 492              	GPUaddrToARMaddr:
 493 0000 08109FE5 		ldr r1, =RPi_BusAlias
 494 0004 001091E5 	    ldr r1,[r1]								;@ Fetch bus alias	
 495 0008 0100C0E1 		bic r0, r0, r1							;@ Create arm address
 496 000c 1EFF2FE1 		bx   lr									;@ Return
 497              	.balign	4
 498 0010 00000000 	.ltorg										;@ Tell assembler ltorg data for this code can go here
ARM GAS  C:\Users\ldebo\AppData\Local\Temp\cc0w9t1b.s 			page 10


 499              	.size	GPUaddrToARMaddr, .-GPUaddrToARMaddr
 500              	
 501              	/* Provide weak reference c_irq_handler so if user does not use it functions as dummy */
 502              	.weak c_irq_handler
 503              	c_irq_handler:
 504 0014 1EFF2FE1 		bx  lr									;@ Return
 505              	
 506              	/* Provide weak reference c_irq_identify_and_clear_source so if user does not use it functions as d
 507              	.weak c_irq_identify_and_clear_source
 508              	c_irq_identify_and_clear_source:
 509 0018 1EFF2FE1 		bx  lr									;@ Return
 510              	
 511              	/* Re-entrant interrupt handler stub */
 512              	/* http://infocenter.arm.com/help/index.jsp?topic=/com.arm.doc.faqs/ka13552.html */
 513              	_irq_handler_stub:
 514 001c 04E04EE2 	    sub lr, lr, #4							;@ Use SRS to save LR_irq and SPSP_irq
 515 0020 13056DF9 	    srsfd sp!, #0x13						;@ on to the SVC mode stack
 516              	
 517 0024 130002F1 	    cps #0x13								;@ Switch to SVC mode
 518 0028 0F102DE9 	    push {r0-r3, r12}						;@ Store AAPCS regs on to SVC stack
 519              	
 520 002c 0D10A0E1 	    mov r1, sp
 521 0030 041001E2 	    and r1, r1, #4							;@ Ensure 8-byte stack alignment…
 522 0034 01D04DE0 	    sub sp, sp, r1							;@ …adjust stack as necessary
 523 0038 02402DE9 	    push {r1, lr}							;@ Store adjustment and LR_svc
 524              	
 525 003c FEFFFFEB 	    bl c_irq_identify_and_clear_source		;@ Clear IRQ source
 526 0040 800008F1 	    cpsie i									;@ Enable IRQ
 527 0044 FEFFFFEB 	    bl c_irq_handler						;@ Branch to 2nd level handler
 528 0048 80000CF1 	    cpsid i									;@ Disable IRQ
 529              	
 530 004c 0240BDE8 	    pop {r1, lr}							;@ Restore LR_svc
 531 0050 01D08DE0 	    add sp, sp, r1							;@ Un-adjust stack
 532              	
 533 0054 0F10BDE8 	    pop {r0-r3, r12}						;@ Restore AAPCS registers
 534 0058 000ABDF8 	    rfefd sp!								;@ Return from the SVC mode stack
 535              	
 536              	.section .text._sbrk, "ax", %progbits
 537              	.balign	4
 538              	.globl _sbrk;			
 539              	.type _sbrk, %function
 540              	.syntax unified
 541              	.arm
 542              	_sbrk:
 543 0000 1C209FE5 	        ldr     r2, =RPi_Heap
 544 0004 1C109FE5 	        ldr     r1, =_end
 545 0008 003092E5 	        ldr     r3, [r2]
 546 000c 000053E3 	        cmp     r3, #0
 547 0010 0130A001 	        moveq   r3, r1
 548 0014 000083E0 	        add     r0, r3, r0
 549 0018 000082E5 	        str     r0, [r2]
 550 001c 0300A0E1 	        mov     r0, r3
 551 0020 1EFF2FE1 	        bx      lr
 552              	.balign	4
 553 0024 00000000 	.ltorg										;@ Tell assembler ltorg data for this code can go here
 553      00000000 
 554              	.size	_sbrk, .-_sbrk
ARM GAS  C:\Users\ldebo\AppData\Local\Temp\cc0w9t1b.s 			page 11


 555              	
 556              	/*==========================================================================}
 557              	;{					  CPU STRING CONSTANT DEFINITIONS					    }
 558              	;{=========================================================================*/
 559              	.section ".rodata.cpuid", "a", %progbits
 560              	.balign	4
 561 0000 61726D31 	ARM6_STR: .string "arm1176jzf-s\0"
 561      3137366A 
 561      7A662D73 
 561      0000
 562 000e 636F7274 	ARM7_STR: .string "cortex-a7\0"
 562      65782D61 
 562      370000
 563 0019 636F7274 	ARM8_STR: .string "cortex-a53\0"
 563      65782D61 
 563      35330000 
 564 0025 756E6B6E 	ARMX_STR: .string "unknown ARM cpu\0"
 564      6F776E20 
 564      41524D20 
 564      63707500 
 564      00
 565              	
 566              	/****************************************************************
 567              	       	   DATA FOR SMARTSTART32 EXPOSED TO INTERFACE 
 568              	****************************************************************/
 569              	.section ".data.smartstart32", "aw"
 570              	.balign 4
 571              	
 572              	.globl RPi_IO_Base_Addr;				// Make sure Pi_IO_Base_Addr label is global
 573 0000 00000000 	RPi_IO_Base_Addr : .4byte 0;			// Peripheral Base addr is 4 byte variable in 32bit mode
 574              	
 575              	.globl RPi_BootAddr;					// Make sure RPi_BootAddr label is global
 576 0004 00000000 	RPi_BootAddr : .4byte 0;				// CPU boot address is 4 byte variable in 32bit mode
 577              	
 578              	.globl RPi_CoresReady;					// Make sure RPi_CoresReady label is global
 579 0008 00000000 	RPi_CoresReady : .4byte 0;				// CPU cores ready for use is 4 byte variable in 32bit mode
 580              	
 581              	.globl RPi_CPUBootMode;					// Make sure RPi_CPUBootMode label is global
 582 000c 00000000 	RPi_CPUBootMode : .4byte 0;				// CPU Boot Mode is 4 byte variable in 32bit mode
 583              	
 584              	.globl RPi_CpuId;						// Make sure RPi_CpuId label is global
 585 0010 00000000 	RPi_CpuId : .4byte 0;					// CPU Id is 4 byte variable in 32bit mode
 586              	
 587              	.globl RPi_CompileMode;					// Make sure RPi_CompileMode label is global
 588 0014 00000000 	RPi_CompileMode : .4byte 0;				// Compile mode is 4 byte variable in 32bit mode
ARM GAS  C:\Users\ldebo\AppData\Local\Temp\cc0w9t1b.s 			page 12


DEFINED SYMBOLS
      SmartStart32.S:61     .data.smartstart:00000000 $d
      SmartStart32.S:63     .data.smartstart:00000000 RPi_BusAlias
      SmartStart32.S:66     .data.smartstart:00000004 RPi_CPUCurrentMode
      SmartStart32.S:70     .data.smartstart:00000008 RPi_Heap
      SmartStart32.S:73     .text.startup:00000000 $a
      SmartStart32.S:77     .text.startup:00000000 _start
      SmartStart32.S:87     .text.startup:0000000c multicore_start
      SmartStart32.S:102    .text.startup:00000034 .NotInHypMode
      SmartStart32.S:100    .text.startup:0000002c $d
      SmartStart32.S:106    .text.startup:00000034 $a
      SmartStart32.S:129    .text.startup:00000090 set_svc_stack
      SmartStart32.S:156    .text.startup:000000d8 .free_to_enable_fpu1
      SmartStart32.S:196    .text.startup:00000130 .cpu0_exit_multicore_park
      SmartStart32.S:579    .data.smartstart32:00000008 RPi_CoresReady
      SmartStart32.S:377    .text.startup:00000338 SecondarySpin
      SmartStart32.S:576    .data.smartstart32:00000004 RPi_BootAddr
      SmartStart32.S:582    .data.smartstart32:0000000c RPi_CPUBootMode
      SmartStart32.S:585    .data.smartstart32:00000010 RPi_CpuId
      SmartStart32.S:588    .data.smartstart32:00000014 RPi_CompileMode
      SmartStart32.S:263    .text.startup:000001b0 .not_at_address_1
      SmartStart32.S:573    .data.smartstart32:00000000 RPi_IO_Base_Addr
      SmartStart32.S:286    .text.startup:000001dc .autodetect_done
      SmartStart32.S:278    .text.startup:000001c4 .At2ndAddress
      SmartStart32.S:272    .text.startup:000001c0 .pi_detect_fail
      SmartStart32.S:353    .text.startup:000002f8 _isr_Table
      SmartStart32.S:303    .text.startup:00000200 .clear_bss
      SmartStart32.S:309    .text.startup:00000214 .clear_bss_exit
      SmartStart32.S:343    .text.startup:00000280 .NoMultiCoreSetup
      SmartStart32.S:326    .text.startup:00000248 .WaitCore1ACK
      SmartStart32.S:333    .text.startup:00000260 .WaitCore2ACK
      SmartStart32.S:339    .text.startup:00000274 .WaitCore3ACK
      SmartStart32.S:348    .text.startup:00000284 hang
      SmartStart32.S:351    .text.startup:00000288 $d
      SmartStart32.S:363    .text.startup:00000318 _reset_h
      SmartStart32.S:354    .text.startup:000002f8 $a
      SmartStart32.S:364    .text.startup:0000031c _undefined_instruction_vector_h
      SmartStart32.S:365    .text.startup:00000320 _software_interrupt_vector_h
      SmartStart32.S:366    .text.startup:00000324 _prefetch_abort_vector_h
      SmartStart32.S:367    .text.startup:00000328 _data_abort_vector_h
      SmartStart32.S:368    .text.startup:0000032c _unused_handler_h
      SmartStart32.S:369    .text.startup:00000330 _interrupt_vector_h
      SmartStart32.S:370    .text.startup:00000334 _fast_interrupt_vector_h
      SmartStart32.S:363    .text.startup:00000318 $d
      SmartStart32.S:513    .text.GPUaddrToARMaddr:0000001c _irq_handler_stub
      SmartStart32.S:376    .text.startup:00000338 $a
      SmartStart32.S:398    .text.startup:00000380 mbox
      SmartStart32.S:384    .text.startup:00000350 SecondarySpinLoop
      SmartStart32.S:399    .text.startup:00000384 machid
      SmartStart32.S:400    .text.startup:00000388 atags
      SmartStart32.S:398    .text.startup:00000380 $d
      SmartStart32.S:402    .text.startup:0000038c $d
      SmartStart32.S:405    .text.startup:0000039c RPi_CpuIdString
      SmartStart32.S:561    .rodata.cpuid:00000000 ARM6_STR
      SmartStart32.S:406    .text.startup:0000039c $a
      SmartStart32.S:420    .text.startup:000003d4 CpuIdStringDone
      SmartStart32.S:562    .rodata.cpuid:0000000e ARM7_STR
ARM GAS  C:\Users\ldebo\AppData\Local\Temp\cc0w9t1b.s 			page 13


      SmartStart32.S:563    .rodata.cpuid:00000019 ARM8_STR
      SmartStart32.S:564    .rodata.cpuid:00000025 ARMX_STR
      SmartStart32.S:423    .text.startup:000003d8 $d
      SmartStart32.S:426    .text.startup:000003f4 EnableInterrupts
      SmartStart32.S:427    .text.startup:000003f4 $a
      SmartStart32.S:431    .text.startup:000003fc DisableInterrupts
      SmartStart32.S:437    .text.startup:00000404 CoreExecute
      SmartStart32.S:448    .text.startup:0000042c CoreExecuteFail
      SmartStart32.S:452    .text.startup:00000434 $d
      SmartStart32.S:460    .text.ARMaddrToGPUaddr:00000000 $a
      SmartStart32.S:470    .text.ARMaddrToGPUaddr:00000000 ARMaddrToGPUaddr
      SmartStart32.S:476    .text.ARMaddrToGPUaddr:00000010 $d
      SmartStart32.S:482    .text.GPUaddrToARMaddr:00000000 $a
      SmartStart32.S:492    .text.GPUaddrToARMaddr:00000000 GPUaddrToARMaddr
      SmartStart32.S:498    .text.GPUaddrToARMaddr:00000010 $d
      SmartStart32.S:503    .text.GPUaddrToARMaddr:00000014 c_irq_handler
      SmartStart32.S:504    .text.GPUaddrToARMaddr:00000014 $a
      SmartStart32.S:508    .text.GPUaddrToARMaddr:00000018 c_irq_identify_and_clear_source
      SmartStart32.S:537    .text._sbrk:00000000 $a
      SmartStart32.S:542    .text._sbrk:00000000 _sbrk
      SmartStart32.S:553    .text._sbrk:00000024 $d
      SmartStart32.S:560    .rodata.cpuid:00000000 $d
      SmartStart32.S:570    .data.smartstart32:00000000 $d

UNDEFINED SYMBOLS
__SVC_stack_core0
__FIQ_stack_core0
__IRQ_stack_core0
__SVC_stack_core1
__FIQ_stack_core1
__IRQ_stack_core1
__SVC_stack_core2
__FIQ_stack_core2
__IRQ_stack_core2
__SVC_stack_core3
__FIQ_stack_core3
__IRQ_stack_core3
__bss_start__
__bss_end__
kernel_main
_end
ARM GAS  C:\Users\ldebo\AppData\Local\Temp\cc0w9t1b.s 			page 1


   1              		.arch armv6zk
   2              		.eabi_attribute 28, 1
   3              		.eabi_attribute 20, 1
   4              		.eabi_attribute 21, 1
   5              		.eabi_attribute 23, 3
   6              		.eabi_attribute 24, 1
   7              		.eabi_attribute 25, 1
   8              		.eabi_attribute 26, 1
   9              		.eabi_attribute 30, 2
  10              		.eabi_attribute 34, 1
  11              		.eabi_attribute 18, 4
  12              		.file	"rpi-BasicHardware.c"
  13              		.text
  14              		.align	2
  15              		.syntax unified
  16              		.arm
  17              		.fpu vfp
  18              		.type	VertLine32, %function
  19              	VertLine32:
  20              		@ args = 4, pretend = 0, frame = 0
  21              		@ frame_needed = 0, uses_anonymous_args = 0
  22              		@ link register save eliminated.
  23 0000 011090E8 		ldm	r0, {r0, ip}
  24 0004 921C21E0 		mla	r1, r2, ip, r1
  25 0008 023053E0 		subs	r3, r3, r2
  26 000c 011180E0 		add	r1, r0, r1, lsl #2
  27 0010 00209DE5 		ldr	r2, [sp]
  28 0014 1EFF2F01 		bxeq	lr
  29 0018 0000A0E3 		mov	r0, #0
  30 001c 0CC1A0E1 		lsl	ip, ip, #2
  31              	.L3:
  32 0020 010080E2 		add	r0, r0, #1
  33 0024 030050E1 		cmp	r0, r3
  34 0028 0C2081E6 		str	r2, [r1], ip
  35 002c FBFFFF1A 		bne	.L3
  36 0030 1EFF2FE1 		bx	lr
  37              		.size	VertLine32, .-VertLine32
  38              		.align	2
  39              		.syntax unified
  40              		.arm
  41              		.fpu vfp
  42              		.type	WriteChar32, %function
  43              	WriteChar32:
  44              		@ args = 0, pretend = 0, frame = 0
  45              		@ frame_needed = 0, uses_anonymous_args = 0
  46 0034 70402DE9 		push	{r4, r5, r6, lr}
  47 0038 044090E5 		ldr	r4, [r0, #4]
  48 003c 0332A0E1 		lsl	r3, r3, #4
  49 0040 921422E0 		mla	r2, r2, r4, r1
  50 0044 54509FE5 		ldr	r5, .L16
  51 0048 00E090E5 		ldr	lr, [r0]
  52 004c 106083E2 		add	r6, r3, #16
  53 0050 066085E0 		add	r6, r5, r6
  54 0054 0441A0E1 		lsl	r4, r4, #2
  55 0058 02E18EE0 		add	lr, lr, r2, lsl #2
  56 005c 035085E0 		add	r5, r5, r3
  57              	.L12:
ARM GAS  C:\Users\ldebo\AppData\Local\Temp\cc0w9t1b.s 			page 2


  58 0060 0030A0E3 		mov	r3, #0
  59 0064 042095E4 		ldr	r2, [r5], #4
  60              	.L11:
  61 0068 000052E3 		cmp	r2, #0
  62 006c 071003E2 		and	r1, r3, #7
  63 0070 20C090A5 		ldrge	ip, [r0, #32]
  64 0074 1CC090B5 		ldrlt	ip, [r0, #28]
  65 0078 013083E2 		add	r3, r3, #1
  66 007c 070051E3 		cmp	r1, #7
  67 0080 01C18EE7 		str	ip, [lr, r1, lsl #2]
  68 0084 04E08E00 		addeq	lr, lr, r4
  69 0088 200053E3 		cmp	r3, #32
  70 008c 8220A0E1 		lsl	r2, r2, #1
  71 0090 F4FFFF1A 		bne	.L11
  72 0094 060055E1 		cmp	r5, r6
  73 0098 F0FFFF1A 		bne	.L12
  74 009c 7080BDE8 		pop	{r4, r5, r6, pc}
  75              	.L17:
  76              		.align	2
  77              	.L16:
  78 00a0 00000000 		.word	.LANCHOR0
  79              		.size	WriteChar32, .-WriteChar32
  80              		.align	2
  81              		.syntax unified
  82              		.arm
  83              		.fpu vfp
  84              		.type	WriteChar24, %function
  85              	WriteChar24:
  86              		@ args = 0, pretend = 0, frame = 16
  87              		@ frame_needed = 0, uses_anonymous_args = 0
  88 00a4 F04F2DE9 		push	{r4, r5, r6, r7, r8, r9, r10, fp, lr}
  89 00a8 046090E5 		ldr	r6, [r0, #4]
  90 00ac 0332A0E1 		lsl	r3, r3, #4
  91 00b0 921622E0 		mla	r2, r2, r6, r1
  92 00b4 00E090E5 		ldr	lr, [r0]
  93 00b8 B4109FE5 		ldr	r1, .L24
  94 00bc 1CB0D0E5 		ldrb	fp, [r0, #28]	@ zero_extendqisi2
  95 00c0 1DA0D0E5 		ldrb	r10, [r0, #29]	@ zero_extendqisi2
  96 00c4 1E90D0E5 		ldrb	r9, [r0, #30]	@ zero_extendqisi2
  97 00c8 2080D0E5 		ldrb	r8, [r0, #32]	@ zero_extendqisi2
  98 00cc 2170D0E5 		ldrb	r7, [r0, #33]	@ zero_extendqisi2
  99 00d0 2200D0E5 		ldrb	r0, [r0, #34]	@ zero_extendqisi2
 100 00d4 14D04DE2 		sub	sp, sp, #20
 101 00d8 10C083E2 		add	ip, r3, #16
 102 00dc 822082E0 		add	r2, r2, r2, lsl #1
 103 00e0 04008DE5 		str	r0, [sp, #4]
 104 00e4 033081E0 		add	r3, r1, r3
 105 00e8 0C0081E0 		add	r0, r1, ip
 106 00ec 866086E0 		add	r6, r6, r6, lsl #1
 107 00f0 0E2082E0 		add	r2, r2, lr
 108 00f4 0C008DE5 		str	r0, [sp, #12]
 109 00f8 08308DE5 		str	r3, [sp, #8]
 110              	.L20:
 111 00fc 0010A0E3 		mov	r1, #0
 112 0100 04C093E4 		ldr	ip, [r3], #4
 113 0104 08308DE5 		str	r3, [sp, #8]
 114              	.L19:
ARM GAS  C:\Users\ldebo\AppData\Local\Temp\cc0w9t1b.s 			page 3


 115 0108 00005CE3 		cmp	ip, #0
 116 010c 0B50A0B1 		movlt	r5, fp
 117 0110 0850A0A1 		movge	r5, r8
 118 0114 0A40A0B1 		movlt	r4, r10
 119 0118 0740A0A1 		movge	r4, r7
 120 011c 04309DE5 		ldr	r3, [sp, #4]
 121 0120 09E0A0B1 		movlt	lr, r9
 122 0124 03E0A0A1 		movge	lr, r3
 123 0128 070001E2 		and	r0, r1, #7
 124 012c 803080E0 		add	r3, r0, r0, lsl #1
 125 0130 0350C2E7 		strb	r5, [r2, r3]
 126 0134 033082E0 		add	r3, r2, r3
 127 0138 070050E3 		cmp	r0, #7
 128 013c 011081E2 		add	r1, r1, #1
 129 0140 0140C3E5 		strb	r4, [r3, #1]
 130 0144 064082E0 		add	r4, r2, r6
 131 0148 0420A001 		moveq	r2, r4
 132 014c 200051E3 		cmp	r1, #32
 133 0150 8CC0A0E1 		lsl	ip, ip, #1
 134 0154 02E0C3E5 		strb	lr, [r3, #2]
 135 0158 EAFFFF1A 		bne	.L19
 136 015c 08309DE5 		ldr	r3, [sp, #8]
 137 0160 0C109DE5 		ldr	r1, [sp, #12]
 138 0164 010053E1 		cmp	r3, r1
 139 0168 E3FFFF1A 		bne	.L20
 140 016c 14D08DE2 		add	sp, sp, #20
 141              		@ sp needed
 142 0170 F08FBDE8 		pop	{r4, r5, r6, r7, r8, r9, r10, fp, pc}
 143              	.L25:
 144              		.align	2
 145              	.L24:
 146 0174 00000000 		.word	.LANCHOR0
 147              		.size	WriteChar24, .-WriteChar24
 148              		.align	2
 149              		.syntax unified
 150              		.arm
 151              		.fpu vfp
 152              		.type	WriteChar16, %function
 153              	WriteChar16:
 154              		@ args = 0, pretend = 0, frame = 8
 155              		@ frame_needed = 0, uses_anonymous_args = 0
 156 0178 F04F2DE9 		push	{r4, r5, r6, r7, r8, r9, r10, fp, lr}
 157 017c 045090E5 		ldr	r5, [r0, #4]
 158 0180 0332A0E1 		lsl	r3, r3, #4
 159 0184 921522E0 		mla	r2, r2, r5, r1
 160 0188 1CB0D0E5 		ldrb	fp, [r0, #28]	@ zero_extendqisi2
 161 018c 001090E5 		ldr	r1, [r0]
 162 0190 1DA0D0E5 		ldrb	r10, [r0, #29]	@ zero_extendqisi2
 163 0194 1E90D0E5 		ldrb	r9, [r0, #30]	@ zero_extendqisi2
 164 0198 2080D0E5 		ldrb	r8, [r0, #32]	@ zero_extendqisi2
 165 019c 2170D0E5 		ldrb	r7, [r0, #33]	@ zero_extendqisi2
 166 01a0 2260D0E5 		ldrb	r6, [r0, #34]	@ zero_extendqisi2
 167 01a4 B0009FE5 		ldr	r0, .L32
 168 01a8 10C083E2 		add	ip, r3, #16
 169 01ac 0CD04DE2 		sub	sp, sp, #12
 170 01b0 821081E0 		add	r1, r1, r2, lsl #1
 171 01b4 033080E0 		add	r3, r0, r3
ARM GAS  C:\Users\ldebo\AppData\Local\Temp\cc0w9t1b.s 			page 4


 172 01b8 0C2080E0 		add	r2, r0, ip
 173 01bc 8550A0E1 		lsl	r5, r5, #1
 174 01c0 ABB1A0E1 		lsr	fp, fp, #3
 175 01c4 2AA1A0E1 		lsr	r10, r10, #2
 176 01c8 A991A0E1 		lsr	r9, r9, #3
 177 01cc A881A0E1 		lsr	r8, r8, #3
 178 01d0 2771A0E1 		lsr	r7, r7, #2
 179 01d4 A661A0E1 		lsr	r6, r6, #3
 180 01d8 04208DE5 		str	r2, [sp, #4]
 181 01dc 00308DE5 		str	r3, [sp]
 182              	.L28:
 183 01e0 0000A0E3 		mov	r0, #0
 184 01e4 04E093E4 		ldr	lr, [r3], #4
 185 01e8 00308DE5 		str	r3, [sp]
 186              	.L27:
 187 01ec 00005EE3 		cmp	lr, #0
 188 01f0 0A40A0B1 		movlt	r4, r10
 189 01f4 0740A0A1 		movge	r4, r7
 190 01f8 0BC0A0B1 		movlt	ip, fp
 191 01fc 08C0A0A1 		movge	ip, r8
 192 0200 0930A0B1 		movlt	r3, r9
 193 0204 0630A0A1 		movge	r3, r6
 194 0208 072004E2 		and	r2, r4, #7
 195 020c 82C28CE1 		orr	ip, ip, r2, lsl #5
 196 0210 072000E2 		and	r2, r0, #7
 197 0214 82C0C1E7 		strb	ip, [r1, r2, lsl #1]
 198 0218 070052E3 		cmp	r2, #7
 199 021c 8331A0E1 		lsl	r3, r3, #3
 200 0220 010080E2 		add	r0, r0, #1
 201 0224 05C081E0 		add	ip, r1, r5
 202 0228 A43183E1 		orr	r3, r3, r4, lsr #3
 203 022c 824081E0 		add	r4, r1, r2, lsl #1
 204 0230 0C10A001 		moveq	r1, ip
 205 0234 200050E3 		cmp	r0, #32
 206 0238 8EE0A0E1 		lsl	lr, lr, #1
 207 023c 0130C4E5 		strb	r3, [r4, #1]
 208 0240 E9FFFF1A 		bne	.L27
 209 0244 00309DE5 		ldr	r3, [sp]
 210 0248 04209DE5 		ldr	r2, [sp, #4]
 211 024c 020053E1 		cmp	r3, r2
 212 0250 E2FFFF1A 		bne	.L28
 213 0254 0CD08DE2 		add	sp, sp, #12
 214              		@ sp needed
 215 0258 F08FBDE8 		pop	{r4, r5, r6, r7, r8, r9, r10, fp, pc}
 216              	.L33:
 217              		.align	2
 218              	.L32:
 219 025c 00000000 		.word	.LANCHOR0
 220              		.size	WriteChar16, .-WriteChar16
 221              		.global	__aeabi_uidiv
 222              		.global	__aeabi_uidivmod
 223              		.align	2
 224              		.syntax unified
 225              		.arm
 226              		.fpu vfp
 227              		.type	number, %function
 228              	number:
ARM GAS  C:\Users\ldebo\AppData\Local\Temp\cc0w9t1b.s 			page 5


 229              		@ args = 8, pretend = 0, frame = 88
 230              		@ frame_needed = 0, uses_anonymous_args = 0
 231 0260 F04F2DE9 		push	{r4, r5, r6, r7, r8, r9, r10, fp, lr}
 232 0264 5CD04DE2 		sub	sp, sp, #92
 233 0268 00A0A0E1 		mov	r10, r0
 234 026c 84009DE5 		ldr	r0, [sp, #132]
 235 0270 00308DE5 		str	r3, [sp]
 236 0274 100010E3 		tst	r0, #16
 237 0278 0030A011 		movne	r3, r0
 238 027c 0130C313 		bicne	r3, r3, #1
 239 0280 84308D15 		strne	r3, [sp, #132]
 240 0284 023042E2 		sub	r3, r2, #2
 241 0288 0E0053E3 		cmp	r3, #14
 242 028c 0150A0E1 		mov	r5, r1
 243 0290 0260A0E1 		mov	r6, r2
 244 0294 207000E2 		and	r7, r0, #32
 245 0298 9A01008A 		bhi	.L89
 246 029c 84309DE5 		ldr	r3, [sp, #132]
 247 02a0 010013E3 		tst	r3, #1
 248 02a4 2030A003 		moveq	r3, #32
 249 02a8 3030A013 		movne	r3, #48
 250 02ac 04308DE5 		str	r3, [sp, #4]
 251 02b0 84309DE5 		ldr	r3, [sp, #132]
 252 02b4 023013E2 		ands	r3, r3, #2
 253 02b8 0C00000A 		beq	.L92
 254 02bc 000051E3 		cmp	r1, #0
 255 02c0 890100BA 		blt	.L180
 256 02c4 84309DE5 		ldr	r3, [sp, #132]
 257 02c8 040013E3 		tst	r3, #4
 258 02cc 7201001A 		bne	.L181
 259 02d0 083013E2 		ands	r3, r3, #8
 260 02d4 0500000A 		beq	.L92
 261 02d8 00309DE5 		ldr	r3, [sp]
 262 02dc 013043E2 		sub	r3, r3, #1
 263 02e0 00308DE5 		str	r3, [sp]
 264 02e4 2030A0E3 		mov	r3, #32
 265 02e8 0C308DE5 		str	r3, [sp, #12]
 266 02ec 000000EA 		b	.L38
 267              	.L92:
 268 02f0 0C308DE5 		str	r3, [sp, #12]
 269              	.L38:
 270 02f4 84309DE5 		ldr	r3, [sp, #132]
 271 02f8 403013E2 		ands	r3, r3, #64
 272 02fc 08308DE5 		str	r3, [sp, #8]
 273 0300 0500000A 		beq	.L41
 274 0304 100056E3 		cmp	r6, #16
 275 0308 7101000A 		beq	.L182
 276 030c 080056E3 		cmp	r6, #8
 277 0310 00309D05 		ldreq	r3, [sp]
 278 0314 01304302 		subeq	r3, r3, #1
 279 0318 00308D05 		streq	r3, [sp]
 280              	.L41:
 281 031c 000055E3 		cmp	r5, #0
 282 0320 4301001A 		bne	.L43
 283              	.L187:
 284 0324 0130A0E3 		mov	r3, #1
 285 0328 3020A0E3 		mov	r2, #48
ARM GAS  C:\Users\ldebo\AppData\Local\Temp\cc0w9t1b.s 			page 6


 286 032c 0340A0E1 		mov	r4, r3
 287 0330 1420CDE5 		strb	r2, [sp, #20]
 288              	.L44:
 289 0334 80209DE5 		ldr	r2, [sp, #128]
 290 0338 84109DE5 		ldr	r1, [sp, #132]
 291 033c 020053E1 		cmp	r3, r2
 292 0340 0320A0A1 		movge	r2, r3
 293 0344 110011E3 		tst	r1, #17
 294 0348 00109DE5 		ldr	r1, [sp]
 295 034c 029041E0 		sub	r9, r1, r2
 296 0350 4600001A 		bne	.L46
 297 0354 01E049E2 		sub	lr, r9, #1
 298 0358 000059E3 		cmp	r9, #0
 299 035c 0E00A0E1 		mov	r0, lr
 300 0360 720100DA 		ble	.L94
 301 0364 00106AE2 		rsb	r1, r10, #0
 302 0368 031001E2 		and	r1, r1, #3
 303 036c 090051E1 		cmp	r1, r9
 304 0370 0910A021 		movcs	r1, r9
 305 0374 060059E3 		cmp	r9, #6
 306 0378 0910A0D1 		movle	r1, r9
 307 037c 4C0100CA 		bgt	.L183
 308              	.L47:
 309 0380 20C0A0E3 		mov	ip, #32
 310 0384 010051E3 		cmp	r1, #1
 311 0388 00C0CAE5 		strb	ip, [r10]
 312 038c 01808AE2 		add	r8, r10, #1
 313 0390 020049E2 		sub	r0, r9, #2
 314 0394 1500000A 		beq	.L49
 315 0398 020051E3 		cmp	r1, #2
 316 039c 01C0CAE5 		strb	ip, [r10, #1]
 317 03a0 02808AE2 		add	r8, r10, #2
 318 03a4 030049E2 		sub	r0, r9, #3
 319 03a8 1000000A 		beq	.L49
 320 03ac 030051E3 		cmp	r1, #3
 321 03b0 02C0CAE5 		strb	ip, [r10, #2]
 322 03b4 03808AE2 		add	r8, r10, #3
 323 03b8 040049E2 		sub	r0, r9, #4
 324 03bc 0B00000A 		beq	.L49
 325 03c0 040051E3 		cmp	r1, #4
 326 03c4 03C0CAE5 		strb	ip, [r10, #3]
 327 03c8 04808AE2 		add	r8, r10, #4
 328 03cc 050049E2 		sub	r0, r9, #5
 329 03d0 0600000A 		beq	.L49
 330 03d4 060051E3 		cmp	r1, #6
 331 03d8 05808AE2 		add	r8, r10, #5
 332 03dc 060049E2 		sub	r0, r9, #6
 333 03e0 04C0CAE5 		strb	ip, [r10, #4]
 334 03e4 05C0CA05 		strbeq	ip, [r10, #5]
 335 03e8 06808A02 		addeq	r8, r10, #6
 336 03ec 07004902 		subeq	r0, r9, #7
 337              	.L49:
 338 03f0 010059E1 		cmp	r9, r1
 339 03f4 1B00000A 		beq	.L50
 340              	.L48:
 341 03f8 01C049E0 		sub	ip, r9, r1
 342 03fc 00C08DE5 		str	ip, [sp]
ARM GAS  C:\Users\ldebo\AppData\Local\Temp\cc0w9t1b.s 			page 7


 343 0400 04C04CE2 		sub	ip, ip, #4
 344 0404 01E04EE0 		sub	lr, lr, r1
 345 0408 2CC1A0E1 		lsr	ip, ip, #2
 346 040c 01C08CE2 		add	ip, ip, #1
 347 0410 02005EE3 		cmp	lr, #2
 348 0414 0C51A0E1 		lsl	r5, ip, #2
 349 0418 0B00009A 		bls	.L51
 350 041c 00E0A0E3 		mov	lr, #0
 351 0420 18B59FE5 		ldr	fp, .L188
 352 0424 01108AE0 		add	r1, r10, r1
 353              	.L52:
 354 0428 01E08EE2 		add	lr, lr, #1
 355 042c 0E005CE1 		cmp	ip, lr
 356 0430 04B081E4 		str	fp, [r1], #4
 357 0434 FBFFFF8A 		bhi	.L52
 358 0438 00109DE5 		ldr	r1, [sp]
 359 043c 058088E0 		add	r8, r8, r5
 360 0440 050051E1 		cmp	r1, r5
 361 0444 050040E0 		sub	r0, r0, r5
 362 0448 0600000A 		beq	.L50
 363              	.L51:
 364 044c 2010A0E3 		mov	r1, #32
 365 0450 000050E3 		cmp	r0, #0
 366 0454 0010C8E5 		strb	r1, [r8]
 367 0458 020000DA 		ble	.L50
 368 045c 010050E3 		cmp	r0, #1
 369 0460 0110C8E5 		strb	r1, [r8, #1]
 370 0464 0210C8C5 		strbgt	r1, [r8, #2]
 371              	.L50:
 372 0468 09A08AE0 		add	r10, r10, r9
 373 046c 0090E0E3 		mvn	r9, #0
 374              	.L46:
 375 0470 0C109DE5 		ldr	r1, [sp, #12]
 376 0474 000051E3 		cmp	r1, #0
 377 0478 0010CA15 		strbne	r1, [r10]
 378 047c 08109DE5 		ldr	r1, [sp, #8]
 379 0480 01A08A12 		addne	r10, r10, #1
 380 0484 000051E3 		cmp	r1, #0
 381 0488 0600000A 		beq	.L57
 382 048c 080056E3 		cmp	r6, #8
 383 0490 3010A003 		moveq	r1, #48
 384 0494 0010CA05 		strbeq	r1, [r10]
 385 0498 01A08A02 		addeq	r10, r10, #1
 386 049c 0100000A 		beq	.L57
 387 04a0 100056E3 		cmp	r6, #16
 388 04a4 1A01000A 		beq	.L184
 389              	.L57:
 390 04a8 84109DE5 		ldr	r1, [sp, #132]
 391 04ac 100011E3 		tst	r1, #16
 392 04b0 4900001A 		bne	.L59
 393 04b4 01E049E2 		sub	lr, r9, #1
 394 04b8 000059E3 		cmp	r9, #0
 395 04bc 0E00A0E1 		mov	r0, lr
 396 04c0 1C0100DA 		ble	.L97
 397 04c4 00106AE2 		rsb	r1, r10, #0
 398 04c8 031001E2 		and	r1, r1, #3
 399 04cc 090051E1 		cmp	r1, r9
ARM GAS  C:\Users\ldebo\AppData\Local\Temp\cc0w9t1b.s 			page 8


 400 04d0 0910A021 		movcs	r1, r9
 401 04d4 060059E3 		cmp	r9, #6
 402 04d8 0910A0D1 		movle	r1, r9
 403 04dc F80000CA 		bgt	.L185
 404              	.L60:
 405 04e0 04509DE5 		ldr	r5, [sp, #4]
 406 04e4 010051E3 		cmp	r1, #1
 407 04e8 0050CAE5 		strb	r5, [r10]
 408 04ec 01C08AE2 		add	ip, r10, #1
 409 04f0 020049E2 		sub	r0, r9, #2
 410 04f4 1600000A 		beq	.L62
 411 04f8 020051E3 		cmp	r1, #2
 412 04fc 0150CAE5 		strb	r5, [r10, #1]
 413 0500 02C08AE2 		add	ip, r10, #2
 414 0504 030049E2 		sub	r0, r9, #3
 415 0508 1100000A 		beq	.L62
 416 050c 030051E3 		cmp	r1, #3
 417 0510 0250CAE5 		strb	r5, [r10, #2]
 418 0514 03C08AE2 		add	ip, r10, #3
 419 0518 040049E2 		sub	r0, r9, #4
 420 051c 0C00000A 		beq	.L62
 421 0520 040051E3 		cmp	r1, #4
 422 0524 0350CAE5 		strb	r5, [r10, #3]
 423 0528 04C08AE2 		add	ip, r10, #4
 424 052c 050049E2 		sub	r0, r9, #5
 425 0530 0700000A 		beq	.L62
 426 0534 060051E3 		cmp	r1, #6
 427 0538 060049E2 		sub	r0, r9, #6
 428 053c 0500A001 		moveq	r0, r5
 429 0540 05C08AE2 		add	ip, r10, #5
 430 0544 0500CA05 		strbeq	r0, [r10, #5]
 431 0548 0450CAE5 		strb	r5, [r10, #4]
 432 054c 06C08A02 		addeq	ip, r10, #6
 433 0550 07004902 		subeq	r0, r9, #7
 434              	.L62:
 435 0554 010059E1 		cmp	r9, r1
 436 0558 1D00000A 		beq	.L63
 437              	.L61:
 438 055c 01B049E0 		sub	fp, r9, r1
 439 0560 04504BE2 		sub	r5, fp, #4
 440 0564 01604EE0 		sub	r6, lr, r1
 441 0568 25E1A0E1 		lsr	lr, r5, #2
 442 056c 01E08EE2 		add	lr, lr, #1
 443 0570 020056E3 		cmp	r6, #2
 444 0574 0E81A0E1 		lsl	r8, lr, #2
 445 0578 0D00009A 		bls	.L64
 446 057c 0050A0E3 		mov	r5, #0
 447 0580 0470DDE5 		ldrb	r7, [sp, #4]	@ zero_extendqisi2
 448 0584 01108AE0 		add	r1, r10, r1
 449 0588 076487E1 		orr	r6, r7, r7, lsl #8
 450 058c 076886E1 		orr	r6, r6, r7, lsl #16
 451 0590 076C86E1 		orr	r6, r6, r7, lsl #24
 452              	.L65:
 453 0594 015085E2 		add	r5, r5, #1
 454 0598 05005EE1 		cmp	lr, r5
 455 059c 046081E4 		str	r6, [r1], #4
 456 05a0 FBFFFF8A 		bhi	.L65
ARM GAS  C:\Users\ldebo\AppData\Local\Temp\cc0w9t1b.s 			page 9


 457 05a4 08005BE1 		cmp	fp, r8
 458 05a8 08C08CE0 		add	ip, ip, r8
 459 05ac 080040E0 		sub	r0, r0, r8
 460 05b0 0700000A 		beq	.L63
 461              	.L64:
 462 05b4 04109DE5 		ldr	r1, [sp, #4]
 463 05b8 000050E3 		cmp	r0, #0
 464 05bc 0010CCE5 		strb	r1, [ip]
 465 05c0 030000DA 		ble	.L63
 466 05c4 010050E3 		cmp	r0, #1
 467 05c8 0110CCE5 		strb	r1, [ip, #1]
 468 05cc 0410DDC5 		ldrbgt	r1, [sp, #4]	@ zero_extendqisi2
 469 05d0 0210CCC5 		strbgt	r1, [ip, #2]
 470              	.L63:
 471 05d4 09A08AE0 		add	r10, r10, r9
 472 05d8 0090E0E3 		mvn	r9, #0
 473              	.L59:
 474 05dc 020053E1 		cmp	r3, r2
 475 05e0 01C042E2 		sub	ip, r2, #1
 476 05e4 430000AA 		bge	.L69
 477 05e8 00106AE2 		rsb	r1, r10, #0
 478 05ec 031001E2 		and	r1, r1, #3
 479 05f0 03E042E0 		sub	lr, r2, r3
 480 05f4 0E0051E1 		cmp	r1, lr
 481 05f8 0E10A021 		movcs	r1, lr
 482 05fc 06005EE3 		cmp	lr, #6
 483 0600 0E10A091 		movls	r1, lr
 484 0604 000051E3 		cmp	r1, #0
 485 0608 A100000A 		beq	.L100
 486 060c 3000A0E3 		mov	r0, #48
 487 0610 010051E3 		cmp	r1, #1
 488 0614 0000CAE5 		strb	r0, [r10]
 489 0618 01508AE2 		add	r5, r10, #1
 490 061c 02C042E2 		sub	ip, r2, #2
 491 0620 1500000A 		beq	.L72
 492 0624 020051E3 		cmp	r1, #2
 493 0628 0100CAE5 		strb	r0, [r10, #1]
 494 062c 02508AE2 		add	r5, r10, #2
 495 0630 03C042E2 		sub	ip, r2, #3
 496 0634 1000000A 		beq	.L72
 497 0638 030051E3 		cmp	r1, #3
 498 063c 0200CAE5 		strb	r0, [r10, #2]
 499 0640 03508AE2 		add	r5, r10, #3
 500 0644 04C042E2 		sub	ip, r2, #4
 501 0648 0B00000A 		beq	.L72
 502 064c 040051E3 		cmp	r1, #4
 503 0650 0300CAE5 		strb	r0, [r10, #3]
 504 0654 04508AE2 		add	r5, r10, #4
 505 0658 05C042E2 		sub	ip, r2, #5
 506 065c 0600000A 		beq	.L72
 507 0660 060051E3 		cmp	r1, #6
 508 0664 05508AE2 		add	r5, r10, #5
 509 0668 06C042E2 		sub	ip, r2, #6
 510 066c 0400CAE5 		strb	r0, [r10, #4]
 511 0670 0500CA05 		strbeq	r0, [r10, #5]
 512 0674 07C04202 		subeq	ip, r2, #7
 513 0678 06508A02 		addeq	r5, r10, #6
ARM GAS  C:\Users\ldebo\AppData\Local\Temp\cc0w9t1b.s 			page 10


 514              	.L72:
 515 067c 01005EE1 		cmp	lr, r1
 516 0680 1B00000A 		beq	.L73
 517              	.L71:
 518 0684 01604EE0 		sub	r6, lr, r1
 519 0688 040046E2 		sub	r0, r6, #4
 520 068c 01204EE2 		sub	r2, lr, #1
 521 0690 2001A0E1 		lsr	r0, r0, #2
 522 0694 012042E0 		sub	r2, r2, r1
 523 0698 010080E2 		add	r0, r0, #1
 524 069c 020052E3 		cmp	r2, #2
 525 06a0 0071A0E1 		lsl	r7, r0, #2
 526 06a4 0A00009A 		bls	.L74
 527 06a8 0020A0E3 		mov	r2, #0
 528 06ac 90829FE5 		ldr	r8, .L188+4
 529 06b0 01108AE0 		add	r1, r10, r1
 530              	.L75:
 531 06b4 012082E2 		add	r2, r2, #1
 532 06b8 020050E1 		cmp	r0, r2
 533 06bc 048081E4 		str	r8, [r1], #4
 534 06c0 FBFFFF8A 		bhi	.L75
 535 06c4 070056E1 		cmp	r6, r7
 536 06c8 075085E0 		add	r5, r5, r7
 537 06cc 07C04CE0 		sub	ip, ip, r7
 538 06d0 0700000A 		beq	.L73
 539              	.L74:
 540 06d4 3010A0E3 		mov	r1, #48
 541 06d8 0C0053E1 		cmp	r3, ip
 542 06dc 01204CE2 		sub	r2, ip, #1
 543 06e0 0010C5E5 		strb	r1, [r5]
 544 06e4 020000AA 		bge	.L73
 545 06e8 020053E1 		cmp	r3, r2
 546 06ec 0110C5E5 		strb	r1, [r5, #1]
 547 06f0 0210C5B5 		strblt	r1, [r5, #2]
 548              	.L73:
 549 06f4 0EA08AE0 		add	r10, r10, lr
 550              	.L69:
 551 06f8 14C08DE2 		add	ip, sp, #20
 552 06fc 04308CE0 		add	r3, ip, r4
 553 0700 01204AE2 		sub	r2, r10, #1
 554              	.L79:
 555 0704 011073E5 		ldrb	r1, [r3, #-1]!	@ zero_extendqisi2
 556 0708 0C0043E0 		sub	r0, r3, ip
 557 070c 000050E3 		cmp	r0, #0
 558 0710 0110E2E5 		strb	r1, [r2, #1]!
 559 0714 FAFFFFCA 		bgt	.L79
 560 0718 01E049E2 		sub	lr, r9, #1
 561 071c 000059E3 		cmp	r9, #0
 562 0720 04008AE0 		add	r0, r10, r4
 563 0724 0EC0A0E1 		mov	ip, lr
 564 0728 3F0000DA 		ble	.L34
 565 072c 003060E2 		rsb	r3, r0, #0
 566 0730 033003E2 		and	r3, r3, #3
 567 0734 090053E1 		cmp	r3, r9
 568 0738 0930A021 		movcs	r3, r9
 569 073c 060059E3 		cmp	r9, #6
 570 0740 0930A0D1 		movle	r3, r9
ARM GAS  C:\Users\ldebo\AppData\Local\Temp\cc0w9t1b.s 			page 11


 571 0744 4E0000CA 		bgt	.L186
 572              	.L80:
 573 0748 2020A0E3 		mov	r2, #32
 574 074c 010053E3 		cmp	r3, #1
 575 0750 0020C0E5 		strb	r2, [r0]
 576 0754 011080E2 		add	r1, r0, #1
 577 0758 02C049E2 		sub	ip, r9, #2
 578 075c 1500000A 		beq	.L82
 579 0760 020053E3 		cmp	r3, #2
 580 0764 0120C0E5 		strb	r2, [r0, #1]
 581 0768 021080E2 		add	r1, r0, #2
 582 076c 03C049E2 		sub	ip, r9, #3
 583 0770 1000000A 		beq	.L82
 584 0774 030053E3 		cmp	r3, #3
 585 0778 0220C0E5 		strb	r2, [r0, #2]
 586 077c 031080E2 		add	r1, r0, #3
 587 0780 04C049E2 		sub	ip, r9, #4
 588 0784 0B00000A 		beq	.L82
 589 0788 040053E3 		cmp	r3, #4
 590 078c 0320C0E5 		strb	r2, [r0, #3]
 591 0790 041080E2 		add	r1, r0, #4
 592 0794 05C049E2 		sub	ip, r9, #5
 593 0798 0600000A 		beq	.L82
 594 079c 060053E3 		cmp	r3, #6
 595 07a0 051080E2 		add	r1, r0, #5
 596 07a4 06C049E2 		sub	ip, r9, #6
 597 07a8 0420C0E5 		strb	r2, [r0, #4]
 598 07ac 0520C005 		strbeq	r2, [r0, #5]
 599 07b0 06108002 		addeq	r1, r0, #6
 600 07b4 07C04902 		subeq	ip, r9, #7
 601              	.L82:
 602 07b8 030059E1 		cmp	r9, r3
 603 07bc 1900000A 		beq	.L83
 604              	.L81:
 605 07c0 035049E0 		sub	r5, r9, r3
 606 07c4 042045E2 		sub	r2, r5, #4
 607 07c8 03E04EE0 		sub	lr, lr, r3
 608 07cc 2221A0E1 		lsr	r2, r2, #2
 609 07d0 012082E2 		add	r2, r2, #1
 610 07d4 02005EE3 		cmp	lr, #2
 611 07d8 0241A0E1 		lsl	r4, r2, #2
 612 07dc 0A00009A 		bls	.L84
 613 07e0 00E0A0E3 		mov	lr, #0
 614 07e4 54619FE5 		ldr	r6, .L188
 615 07e8 033080E0 		add	r3, r0, r3
 616              	.L85:
 617 07ec 01E08EE2 		add	lr, lr, #1
 618 07f0 0E0052E1 		cmp	r2, lr
 619 07f4 046083E4 		str	r6, [r3], #4
 620 07f8 FBFFFF8A 		bhi	.L85
 621 07fc 050054E1 		cmp	r4, r5
 622 0800 041081E0 		add	r1, r1, r4
 623 0804 04C04CE0 		sub	ip, ip, r4
 624 0808 0600000A 		beq	.L83
 625              	.L84:
 626 080c 2030A0E3 		mov	r3, #32
 627 0810 00005CE3 		cmp	ip, #0
ARM GAS  C:\Users\ldebo\AppData\Local\Temp\cc0w9t1b.s 			page 12


 628 0814 0030C1E5 		strb	r3, [r1]
 629 0818 020000DA 		ble	.L83
 630 081c 01005CE3 		cmp	ip, #1
 631 0820 0130C1E5 		strb	r3, [r1, #1]
 632 0824 0230C1C5 		strbgt	r3, [r1, #2]
 633              	.L83:
 634 0828 090080E0 		add	r0, r0, r9
 635              	.L34:
 636 082c 5CD08DE2 		add	sp, sp, #92
 637              		@ sp needed
 638 0830 F08FBDE8 		pop	{r4, r5, r6, r7, r8, r9, r10, fp, pc}
 639              	.L43:
 640 0834 0040A0E3 		mov	r4, #0
 641 0838 08819FE5 		ldr	r8, .L188+8
 642 083c 13908DE2 		add	r9, sp, #19
 643              	.L45:
 644 0840 0500A0E1 		mov	r0, r5
 645 0844 0610A0E1 		mov	r1, r6
 646 0848 FEFFFFEB 		bl	__aeabi_uidiv
 647 084c 05B0A0E1 		mov	fp, r5
 648 0850 0610A0E1 		mov	r1, r6
 649 0854 0050A0E1 		mov	r5, r0
 650 0858 0B00A0E1 		mov	r0, fp
 651 085c FEFFFFEB 		bl	__aeabi_uidivmod
 652 0860 011088E0 		add	r1, r8, r1
 653 0864 F83F51E5 		ldrb	r3, [r1, #-4088]	@ zero_extendqisi2
 654 0868 014084E2 		add	r4, r4, #1
 655 086c 033087E1 		orr	r3, r7, r3
 656 0870 000055E3 		cmp	r5, #0
 657 0874 0130E9E5 		strb	r3, [r9, #1]!
 658 0878 0430A0E1 		mov	r3, r4
 659 087c EFFFFF1A 		bne	.L45
 660 0880 ABFEFFEA 		b	.L44
 661              	.L186:
 662 0884 000053E3 		cmp	r3, #0
 663 0888 0010A001 		moveq	r1, r0
 664 088c CBFFFF0A 		beq	.L81
 665 0890 ACFFFFEA 		b	.L80
 666              	.L100:
 667 0894 0A50A0E1 		mov	r5, r10
 668 0898 79FFFFEA 		b	.L71
 669              	.L181:
 670 089c 00309DE5 		ldr	r3, [sp]
 671 08a0 013043E2 		sub	r3, r3, #1
 672 08a4 00308DE5 		str	r3, [sp]
 673 08a8 2B30A0E3 		mov	r3, #43
 674 08ac 0C308DE5 		str	r3, [sp, #12]
 675 08b0 8FFEFFEA 		b	.L38
 676              	.L183:
 677 08b4 000051E3 		cmp	r1, #0
 678 08b8 0A80A001 		moveq	r8, r10
 679 08bc CDFEFF0A 		beq	.L48
 680 08c0 AEFEFFEA 		b	.L47
 681              	.L185:
 682 08c4 000051E3 		cmp	r1, #0
 683 08c8 0AC0A001 		moveq	ip, r10
 684 08cc 22FFFF0A 		beq	.L61
ARM GAS  C:\Users\ldebo\AppData\Local\Temp\cc0w9t1b.s 			page 13


 685 08d0 02FFFFEA 		b	.L60
 686              	.L182:
 687 08d4 00309DE5 		ldr	r3, [sp]
 688 08d8 000055E3 		cmp	r5, #0
 689 08dc 023043E2 		sub	r3, r3, #2
 690 08e0 00308DE5 		str	r3, [sp]
 691 08e4 D2FFFF1A 		bne	.L43
 692 08e8 8DFEFFEA 		b	.L187
 693              	.L180:
 694 08ec 00309DE5 		ldr	r3, [sp]
 695 08f0 005061E2 		rsb	r5, r1, #0
 696 08f4 013043E2 		sub	r3, r3, #1
 697 08f8 00308DE5 		str	r3, [sp]
 698 08fc 2D30A0E3 		mov	r3, #45
 699 0900 0C308DE5 		str	r3, [sp, #12]
 700 0904 7AFEFFEA 		b	.L38
 701              	.L89:
 702 0908 0000A0E3 		mov	r0, #0
 703 090c 5CD08DE2 		add	sp, sp, #92
 704              		@ sp needed
 705 0910 F08FBDE8 		pop	{r4, r5, r6, r7, r8, r9, r10, fp, pc}
 706              	.L184:
 707 0914 0A10A0E1 		mov	r1, r10
 708 0918 3000A0E3 		mov	r0, #48
 709 091c 587087E3 		orr	r7, r7, #88
 710 0920 0200C1E4 		strb	r0, [r1], #2
 711 0924 0170CAE5 		strb	r7, [r10, #1]
 712 0928 01A0A0E1 		mov	r10, r1
 713 092c DDFEFFEA 		b	.L57
 714              	.L94:
 715 0930 0E90A0E1 		mov	r9, lr
 716 0934 CDFEFFEA 		b	.L46
 717              	.L97:
 718 0938 0E90A0E1 		mov	r9, lr
 719 093c 26FFFFEA 		b	.L59
 720              	.L189:
 721              		.align	2
 722              	.L188:
 723 0940 20202020 		.word	538976288
 724 0944 30303030 		.word	808464432
 725 0948 F81F0000 		.word	.LANCHOR1
 726              		.size	number, .-number
 727              		.align	2
 728              		.global	gpio_setup
 729              		.syntax unified
 730              		.arm
 731              		.fpu vfp
 732              		.type	gpio_setup, %function
 733              	gpio_setup:
 734              		@ args = 0, pretend = 0, frame = 0
 735              		@ frame_needed = 0, uses_anonymous_args = 0
 736 094c 070051E3 		cmp	r1, #7
 737 0950 36005093 		cmpls	r0, #54
 738 0954 1300008A 		bhi	.L192
 739 0958 0120A0E3 		mov	r2, #1
 740 095c 10402DE9 		push	{r4, lr}
 741 0960 0740A0E3 		mov	r4, #7
ARM GAS  C:\Users\ldebo\AppData\Local\Temp\cc0w9t1b.s 			page 14


 742 0964 44C09FE5 		ldr	ip, .L197
 743 0968 44309FE5 		ldr	r3, .L197+4
 744 096c 9CE0CCE0 		smull	lr, ip, ip, r0
 745 0970 C0EFA0E1 		asr	lr, r0, #31
 746 0974 4CC16EE0 		rsb	ip, lr, ip, asr #2
 747 0978 00E093E5 		ldr	lr, [r3]
 748 097c 0C318CE0 		add	r3, ip, ip, lsl #2
 749 0980 133240E0 		sub	r3, r0, r3, lsl r2
 750 0984 02E68EE2 		add	lr, lr, #2097152
 751 0988 0C019EE7 		ldr	r0, [lr, ip, lsl #2]
 752 098c 133283E0 		add	r3, r3, r3, lsl r2
 753 0990 1233A0E1 		lsl	r3, r2, r3
 754 0994 1403C0E1 		bic	r0, r0, r4, lsl r3
 755 0998 111380E1 		orr	r1, r0, r1, lsl r3
 756 099c 0C118EE7 		str	r1, [lr, ip, lsl #2]
 757 09a0 0200A0E1 		mov	r0, r2
 758 09a4 1080BDE8 		pop	{r4, pc}
 759              	.L192:
 760 09a8 0000A0E3 		mov	r0, #0
 761 09ac 1EFF2FE1 		bx	lr
 762              	.L198:
 763              		.align	2
 764              	.L197:
 765 09b0 67666666 		.word	1717986919
 766 09b4 00000000 		.word	RPi_IO_Base_Addr
 767              		.size	gpio_setup, .-gpio_setup
 768              		.align	2
 769              		.global	gpio_output
 770              		.syntax unified
 771              		.arm
 772              		.fpu vfp
 773              		.type	gpio_output, %function
 774              	gpio_output:
 775              		@ args = 0, pretend = 0, frame = 0
 776              		@ frame_needed = 0, uses_anonymous_args = 0
 777              		@ link register save eliminated.
 778 09b8 360050E3 		cmp	r0, #54
 779 09bc 1500008A 		bhi	.L202
 780 09c0 0120A0E3 		mov	r2, #1
 781 09c4 1F3000E2 		and	r3, r0, #31
 782 09c8 000051E3 		cmp	r1, #0
 783 09cc 12C3A0E1 		lsl	ip, r2, r3
 784 09d0 0700001A 		bne	.L203
 785 09d4 44109FE5 		ldr	r1, .L204
 786 09d8 C032A0E1 		asr	r3, r0, #5
 787 09dc 001091E5 		ldr	r1, [r1]
 788 09e0 0A3083E2 		add	r3, r3, #10
 789 09e4 021681E2 		add	r1, r1, #2097152
 790 09e8 0200A0E1 		mov	r0, r2
 791 09ec 03C181E7 		str	ip, [r1, r3, lsl #2]
 792 09f0 1EFF2FE1 		bx	lr
 793              	.L203:
 794 09f4 24209FE5 		ldr	r2, .L204
 795 09f8 C032A0E1 		asr	r3, r0, #5
 796 09fc 000092E5 		ldr	r0, [r2]
 797 0a00 063083E2 		add	r3, r3, #6
 798 0a04 020680E2 		add	r0, r0, #2097152
ARM GAS  C:\Users\ldebo\AppData\Local\Temp\cc0w9t1b.s 			page 15


 799 0a08 033180E0 		add	r3, r0, r3, lsl #2
 800 0a0c 04C083E5 		str	ip, [r3, #4]
 801 0a10 0100A0E1 		mov	r0, r1
 802 0a14 1EFF2FE1 		bx	lr
 803              	.L202:
 804 0a18 0000A0E3 		mov	r0, #0
 805 0a1c 1EFF2FE1 		bx	lr
 806              	.L205:
 807              		.align	2
 808              	.L204:
 809 0a20 00000000 		.word	RPi_IO_Base_Addr
 810              		.size	gpio_output, .-gpio_output
 811              		.align	2
 812              		.global	gpio_input
 813              		.syntax unified
 814              		.arm
 815              		.fpu vfp
 816              		.type	gpio_input, %function
 817              	gpio_input:
 818              		@ args = 0, pretend = 0, frame = 0
 819              		@ frame_needed = 0, uses_anonymous_args = 0
 820              		@ link register save eliminated.
 821 0a24 360050E3 		cmp	r0, #54
 822 0a28 0C00008A 		bhi	.L208
 823 0a2c 0110A0E3 		mov	r1, #1
 824 0a30 30309FE5 		ldr	r3, .L209
 825 0a34 C022A0E1 		asr	r2, r0, #5
 826 0a38 003093E5 		ldr	r3, [r3]
 827 0a3c 0C2082E2 		add	r2, r2, #12
 828 0a40 023683E2 		add	r3, r3, #2097152
 829 0a44 023183E0 		add	r3, r3, r2, lsl #2
 830 0a48 043093E5 		ldr	r3, [r3, #4]
 831 0a4c 1F0000E2 		and	r0, r0, #31
 832 0a50 113013E0 		ands	r3, r3, r1, lsl r0
 833 0a54 0100A011 		movne	r0, r1
 834 0a58 0000A003 		moveq	r0, #0
 835 0a5c 1EFF2FE1 		bx	lr
 836              	.L208:
 837 0a60 0000A0E3 		mov	r0, #0
 838 0a64 1EFF2FE1 		bx	lr
 839              	.L210:
 840              		.align	2
 841              	.L209:
 842 0a68 00000000 		.word	RPi_IO_Base_Addr
 843              		.size	gpio_input, .-gpio_input
 844              		.align	2
 845              		.global	gpio_checkEvent
 846              		.syntax unified
 847              		.arm
 848              		.fpu vfp
 849              		.type	gpio_checkEvent, %function
 850              	gpio_checkEvent:
 851              		@ args = 0, pretend = 0, frame = 0
 852              		@ frame_needed = 0, uses_anonymous_args = 0
 853              		@ link register save eliminated.
 854 0a6c 360050E3 		cmp	r0, #54
 855 0a70 0B00008A 		bhi	.L213
ARM GAS  C:\Users\ldebo\AppData\Local\Temp\cc0w9t1b.s 			page 16


 856 0a74 0110A0E3 		mov	r1, #1
 857 0a78 2C309FE5 		ldr	r3, .L214
 858 0a7c C022A0E1 		asr	r2, r0, #5
 859 0a80 003093E5 		ldr	r3, [r3]
 860 0a84 102082E2 		add	r2, r2, #16
 861 0a88 023683E2 		add	r3, r3, #2097152
 862 0a8c 023193E7 		ldr	r3, [r3, r2, lsl #2]
 863 0a90 1F0000E2 		and	r0, r0, #31
 864 0a94 113013E0 		ands	r3, r3, r1, lsl r0
 865 0a98 0100A011 		movne	r0, r1
 866 0a9c 0000A003 		moveq	r0, #0
 867 0aa0 1EFF2FE1 		bx	lr
 868              	.L213:
 869 0aa4 0000A0E3 		mov	r0, #0
 870 0aa8 1EFF2FE1 		bx	lr
 871              	.L215:
 872              		.align	2
 873              	.L214:
 874 0aac 00000000 		.word	RPi_IO_Base_Addr
 875              		.size	gpio_checkEvent, .-gpio_checkEvent
 876              		.align	2
 877              		.global	gpio_clearEvent
 878              		.syntax unified
 879              		.arm
 880              		.fpu vfp
 881              		.type	gpio_clearEvent, %function
 882              	gpio_clearEvent:
 883              		@ args = 0, pretend = 0, frame = 0
 884              		@ frame_needed = 0, uses_anonymous_args = 0
 885              		@ link register save eliminated.
 886 0ab0 360050E3 		cmp	r0, #54
 887 0ab4 0A00008A 		bhi	.L218
 888 0ab8 0120A0E3 		mov	r2, #1
 889 0abc 28309FE5 		ldr	r3, .L219
 890 0ac0 1FC000E2 		and	ip, r0, #31
 891 0ac4 001093E5 		ldr	r1, [r3]
 892 0ac8 C032A0E1 		asr	r3, r0, #5
 893 0acc 021681E2 		add	r1, r1, #2097152
 894 0ad0 120CA0E1 		lsl	r0, r2, ip
 895 0ad4 103083E2 		add	r3, r3, #16
 896 0ad8 030181E7 		str	r0, [r1, r3, lsl #2]
 897 0adc 0200A0E1 		mov	r0, r2
 898 0ae0 1EFF2FE1 		bx	lr
 899              	.L218:
 900 0ae4 0000A0E3 		mov	r0, #0
 901 0ae8 1EFF2FE1 		bx	lr
 902              	.L220:
 903              		.align	2
 904              	.L219:
 905 0aec 00000000 		.word	RPi_IO_Base_Addr
 906              		.size	gpio_clearEvent, .-gpio_clearEvent
 907              		.align	2
 908              		.global	gpio_edgeDetect
 909              		.syntax unified
 910              		.arm
 911              		.fpu vfp
 912              		.type	gpio_edgeDetect, %function
ARM GAS  C:\Users\ldebo\AppData\Local\Temp\cc0w9t1b.s 			page 17


 913              	gpio_edgeDetect:
 914              		@ args = 0, pretend = 0, frame = 0
 915              		@ frame_needed = 0, uses_anonymous_args = 0
 916 0af0 360050E3 		cmp	r0, #54
 917 0af4 1A00008A 		bhi	.L226
 918 0af8 01C0A0E3 		mov	ip, #1
 919 0afc 1F3000E2 		and	r3, r0, #31
 920 0b00 000051E3 		cmp	r1, #0
 921 0b04 04E02DE5 		str	lr, [sp, #-4]!
 922 0b08 1CE3A0E1 		lsl	lr, ip, r3
 923 0b0c 0A00000A 		beq	.L223
 924 0b10 000052E3 		cmp	r2, #0
 925 0b14 1400000A 		beq	.L224
 926 0b18 90109FE5 		ldr	r1, .L232
 927 0b1c C032A0E1 		asr	r3, r0, #5
 928 0b20 000091E5 		ldr	r0, [r1]
 929 0b24 1E3083E2 		add	r3, r3, #30
 930 0b28 020680E2 		add	r0, r0, #2097152
 931 0b2c 033180E0 		add	r3, r0, r3, lsl #2
 932 0b30 04E083E5 		str	lr, [r3, #4]
 933 0b34 0200A0E1 		mov	r0, r2
 934 0b38 04F09DE4 		ldr	pc, [sp], #4
 935              	.L223:
 936 0b3c 000052E3 		cmp	r2, #0
 937 0b40 1200001A 		bne	.L231
 938 0b44 64209FE5 		ldr	r2, .L232
 939 0b48 C032A0E1 		asr	r3, r0, #5
 940 0b4c 002092E5 		ldr	r2, [r2]
 941 0b50 163083E2 		add	r3, r3, #22
 942 0b54 022682E2 		add	r2, r2, #2097152
 943 0b58 0C00A0E1 		mov	r0, ip
 944 0b5c 03E182E7 		str	lr, [r2, r3, lsl #2]
 945 0b60 04F09DE4 		ldr	pc, [sp], #4
 946              	.L226:
 947 0b64 0000A0E3 		mov	r0, #0
 948 0b68 1EFF2FE1 		bx	lr
 949              	.L224:
 950 0b6c 3C209FE5 		ldr	r2, .L232
 951 0b70 C032A0E1 		asr	r3, r0, #5
 952 0b74 000092E5 		ldr	r0, [r2]
 953 0b78 123083E2 		add	r3, r3, #18
 954 0b7c 020680E2 		add	r0, r0, #2097152
 955 0b80 033180E0 		add	r3, r0, r3, lsl #2
 956 0b84 04E083E5 		str	lr, [r3, #4]
 957 0b88 0100A0E1 		mov	r0, r1
 958 0b8c 04F09DE4 		ldr	pc, [sp], #4
 959              	.L231:
 960 0b90 18109FE5 		ldr	r1, .L232
 961 0b94 C032A0E1 		asr	r3, r0, #5
 962 0b98 001091E5 		ldr	r1, [r1]
 963 0b9c 223083E2 		add	r3, r3, #34
 964 0ba0 021681E2 		add	r1, r1, #2097152
 965 0ba4 0200A0E1 		mov	r0, r2
 966 0ba8 03E181E7 		str	lr, [r1, r3, lsl #2]
 967 0bac 04F09DE4 		ldr	pc, [sp], #4
 968              	.L233:
 969              		.align	2
ARM GAS  C:\Users\ldebo\AppData\Local\Temp\cc0w9t1b.s 			page 18


 970              	.L232:
 971 0bb0 00000000 		.word	RPi_IO_Base_Addr
 972              		.size	gpio_edgeDetect, .-gpio_edgeDetect
 973              		.align	2
 974              		.global	gpio_fixResistor
 975              		.syntax unified
 976              		.arm
 977              		.fpu vfp
 978              		.type	gpio_fixResistor, %function
 979              	gpio_fixResistor:
 980              		@ args = 0, pretend = 0, frame = 0
 981              		@ frame_needed = 0, uses_anonymous_args = 0
 982 0bb4 360050E3 		cmp	r0, #54
 983 0bb8 02005193 		cmpls	r1, #2
 984 0bbc 4400008A 		bhi	.L242
 985 0bc0 F04F2DE9 		push	{r4, r5, r6, r7, r8, r9, r10, fp, lr}
 986 0bc4 00A0A0E1 		mov	r10, r0
 987 0bc8 0C319FE5 		ldr	r3, .L253
 988 0bcc 00C093E5 		ldr	ip, [r3]
 989 0bd0 02B68CE2 		add	fp, ip, #2097152
 990 0bd4 94108BE5 		str	r1, [fp, #148]
 991 0bd8 03CA8CE2 		add	ip, ip, #12288
 992              	.L236:
 993 0bdc 0030A0E3 		mov	r3, #0
 994 0be0 0010A0E3 		mov	r1, #0
 995 0be4 08209CE5 		ldr	r2, [ip, #8]
 996 0be8 04E09CE5 		ldr	lr, [ip, #4]
 997 0bec 08009CE5 		ldr	r0, [ip, #8]
 998 0bf0 010053E1 		cmp	r3, r1
 999 0bf4 00005201 		cmpeq	r2, r0
 1000 0bf8 F7FFFF1A 		bne	.L236
 1001 0bfc 0000A0E3 		mov	r0, #0
 1002 0c00 0E0080E1 		orr	r0, r0, lr
 1003 0c04 028090E2 		adds	r8, r0, #2
 1004 0c08 0090A2E2 		adc	r9, r2, #0
 1005              	.L237:
 1006 0c0c 0030A0E3 		mov	r3, #0
 1007 0c10 0010A0E3 		mov	r1, #0
 1008 0c14 08209CE5 		ldr	r2, [ip, #8]
 1009 0c18 04E09CE5 		ldr	lr, [ip, #4]
 1010 0c1c 08009CE5 		ldr	r0, [ip, #8]
 1011 0c20 010053E1 		cmp	r3, r1
 1012 0c24 00005201 		cmpeq	r2, r0
 1013 0c28 F7FFFF1A 		bne	.L237
 1014 0c2c 0270A0E1 		mov	r7, r2
 1015 0c30 0060A0E3 		mov	r6, #0
 1016 0c34 070059E1 		cmp	r9, r7
 1017 0c38 0E2086E1 		orr	r2, r6, lr
 1018 0c3c 02005801 		cmpeq	r8, r2
 1019 0c40 F1FFFF8A 		bhi	.L237
 1020 0c44 0130A0E3 		mov	r3, #1
 1021 0c48 1F200AE2 		and	r2, r10, #31
 1022 0c4c CAE2A0E1 		asr	lr, r10, #5
 1023 0c50 1332A0E1 		lsl	r3, r3, r2
 1024 0c54 0EE18BE0 		add	lr, fp, lr, lsl #2
 1025 0c58 98308EE5 		str	r3, [lr, #152]
 1026              	.L239:
ARM GAS  C:\Users\ldebo\AppData\Local\Temp\cc0w9t1b.s 			page 19


 1027 0c5c 0030A0E3 		mov	r3, #0
 1028 0c60 0010A0E3 		mov	r1, #0
 1029 0c64 08209CE5 		ldr	r2, [ip, #8]
 1030 0c68 04709CE5 		ldr	r7, [ip, #4]
 1031 0c6c 08009CE5 		ldr	r0, [ip, #8]
 1032 0c70 010053E1 		cmp	r3, r1
 1033 0c74 00005201 		cmpeq	r2, r0
 1034 0c78 F7FFFF1A 		bne	.L239
 1035 0c7c 0000A0E3 		mov	r0, #0
 1036 0c80 070080E1 		orr	r0, r0, r7
 1037 0c84 026090E2 		adds	r6, r0, #2
 1038 0c88 0070A2E2 		adc	r7, r2, #0
 1039              	.L240:
 1040 0c8c 0030A0E3 		mov	r3, #0
 1041 0c90 0010A0E3 		mov	r1, #0
 1042 0c94 08209CE5 		ldr	r2, [ip, #8]
 1043 0c98 04809CE5 		ldr	r8, [ip, #4]
 1044 0c9c 08009CE5 		ldr	r0, [ip, #8]
 1045 0ca0 010053E1 		cmp	r3, r1
 1046 0ca4 00005201 		cmpeq	r2, r0
 1047 0ca8 F7FFFF1A 		bne	.L240
 1048 0cac 0250A0E1 		mov	r5, r2
 1049 0cb0 0040A0E3 		mov	r4, #0
 1050 0cb4 050057E1 		cmp	r7, r5
 1051 0cb8 082084E1 		orr	r2, r4, r8
 1052 0cbc 02005601 		cmpeq	r6, r2
 1053 0cc0 F1FFFF8A 		bhi	.L240
 1054 0cc4 94408BE5 		str	r4, [fp, #148]
 1055 0cc8 0100A0E3 		mov	r0, #1
 1056 0ccc 98408EE5 		str	r4, [lr, #152]
 1057 0cd0 F08FBDE8 		pop	{r4, r5, r6, r7, r8, r9, r10, fp, pc}
 1058              	.L242:
 1059 0cd4 0000A0E3 		mov	r0, #0
 1060 0cd8 1EFF2FE1 		bx	lr
 1061              	.L254:
 1062              		.align	2
 1063              	.L253:
 1064 0cdc 00000000 		.word	RPi_IO_Base_Addr
 1065              		.size	gpio_fixResistor, .-gpio_fixResistor
 1066              		.align	2
 1067              		.global	timer_getTickCount
 1068              		.syntax unified
 1069              		.arm
 1070              		.fpu vfp
 1071              		.type	timer_getTickCount, %function
 1072              	timer_getTickCount:
 1073              		@ args = 0, pretend = 0, frame = 0
 1074              		@ frame_needed = 0, uses_anonymous_args = 0
 1075              		@ link register save eliminated.
 1076 0ce0 44309FE5 		ldr	r3, .L259
 1077 0ce4 30002DE9 		push	{r4, r5}
 1078 0ce8 001093E5 		ldr	r1, [r3]
 1079 0cec 031A81E2 		add	r1, r1, #12288
 1080              	.L256:
 1081 0cf0 0030A0E3 		mov	r3, #0
 1082 0cf4 0050A0E3 		mov	r5, #0
 1083 0cf8 082091E5 		ldr	r2, [r1, #8]
ARM GAS  C:\Users\ldebo\AppData\Local\Temp\cc0w9t1b.s 			page 20


 1084 0cfc 040091E5 		ldr	r0, [r1, #4]
 1085 0d00 084091E5 		ldr	r4, [r1, #8]
 1086 0d04 050053E1 		cmp	r3, r5
 1087 0d08 04005201 		cmpeq	r2, r4
 1088 0d0c F7FFFF1A 		bne	.L256
 1089 0d10 0040A0E3 		mov	r4, #0
 1090 0d14 0250A0E1 		mov	r5, r2
 1091 0d18 004084E1 		orr	r4, r4, r0
 1092 0d1c 0400A0E1 		mov	r0, r4
 1093 0d20 0510A0E1 		mov	r1, r5
 1094 0d24 3000BDE8 		pop	{r4, r5}
 1095 0d28 1EFF2FE1 		bx	lr
 1096              	.L260:
 1097              		.align	2
 1098              	.L259:
 1099 0d2c 00000000 		.word	RPi_IO_Base_Addr
 1100              		.size	timer_getTickCount, .-timer_getTickCount
 1101              		.align	2
 1102              		.global	timer_wait
 1103              		.syntax unified
 1104              		.arm
 1105              		.fpu vfp
 1106              		.type	timer_wait, %function
 1107              	timer_wait:
 1108              		@ args = 0, pretend = 0, frame = 0
 1109              		@ frame_needed = 0, uses_anonymous_args = 0
 1110 0d30 74309FE5 		ldr	r3, .L269
 1111 0d34 F0402DE9 		push	{r4, r5, r6, r7, lr}
 1112 0d38 00C093E5 		ldr	ip, [r3]
 1113 0d3c 03CA8CE2 		add	ip, ip, #12288
 1114              	.L262:
 1115 0d40 0030A0E3 		mov	r3, #0
 1116 0d44 0070A0E3 		mov	r7, #0
 1117 0d48 08209CE5 		ldr	r2, [ip, #8]
 1118 0d4c 04E09CE5 		ldr	lr, [ip, #4]
 1119 0d50 08609CE5 		ldr	r6, [ip, #8]
 1120 0d54 070053E1 		cmp	r3, r7
 1121 0d58 06005201 		cmpeq	r2, r6
 1122 0d5c F7FFFF1A 		bne	.L262
 1123 0d60 0060A0E3 		mov	r6, #0
 1124 0d64 0E6086E1 		orr	r6, r6, lr
 1125 0d68 006096E0 		adds	r6, r6, r0
 1126 0d6c 0170A2E0 		adc	r7, r2, r1
 1127              	.L263:
 1128 0d70 0030A0E3 		mov	r3, #0
 1129 0d74 0010A0E3 		mov	r1, #0
 1130 0d78 08209CE5 		ldr	r2, [ip, #8]
 1131 0d7c 04E09CE5 		ldr	lr, [ip, #4]
 1132 0d80 08009CE5 		ldr	r0, [ip, #8]
 1133 0d84 010053E1 		cmp	r3, r1
 1134 0d88 00005201 		cmpeq	r2, r0
 1135 0d8c F7FFFF1A 		bne	.L263
 1136 0d90 0250A0E1 		mov	r5, r2
 1137 0d94 0040A0E3 		mov	r4, #0
 1138 0d98 050057E1 		cmp	r7, r5
 1139 0d9c 0E2084E1 		orr	r2, r4, lr
 1140 0da0 02005601 		cmpeq	r6, r2
ARM GAS  C:\Users\ldebo\AppData\Local\Temp\cc0w9t1b.s 			page 21


 1141 0da4 F1FFFF8A 		bhi	.L263
 1142 0da8 F080BDE8 		pop	{r4, r5, r6, r7, pc}
 1143              	.L270:
 1144              		.align	2
 1145              	.L269:
 1146 0dac 00000000 		.word	RPi_IO_Base_Addr
 1147              		.size	timer_wait, .-timer_wait
 1148              		.align	2
 1149              		.global	tick_difference
 1150              		.syntax unified
 1151              		.arm
 1152              		.fpu vfp
 1153              		.type	tick_difference, %function
 1154              	tick_difference:
 1155              		@ args = 0, pretend = 0, frame = 0
 1156              		@ frame_needed = 0, uses_anonymous_args = 0
 1157              		@ link register save eliminated.
 1158 0db0 000052E0 		subs	r0, r2, r0
 1159 0db4 0110C3E0 		sbc	r1, r3, r1
 1160 0db8 1EFF2FE1 		bx	lr
 1161              		.size	tick_difference, .-tick_difference
 1162              		.align	2
 1163              		.global	mailbox_write
 1164              		.syntax unified
 1165              		.arm
 1166              		.fpu vfp
 1167              		.type	mailbox_write, %function
 1168              	mailbox_write:
 1169              		@ args = 0, pretend = 0, frame = 0
 1170              		@ frame_needed = 0, uses_anonymous_args = 0
 1171              		@ link register save eliminated.
 1172 0dbc 090050E3 		cmp	r0, #9
 1173 0dc0 0B00008A 		bhi	.L275
 1174 0dc4 30309FE5 		ldr	r3, .L277
 1175 0dc8 0F10C1E3 		bic	r1, r1, #15
 1176 0dcc 002093E5 		ldr	r2, [r3]
 1177 0dd0 010080E1 		orr	r0, r0, r1
 1178 0dd4 2E2B82E2 		add	r2, r2, #47104
 1179 0dd8 802082E2 		add	r2, r2, #128
 1180              	.L274:
 1181 0ddc 383092E5 		ldr	r3, [r2, #56]
 1182 0de0 000053E3 		cmp	r3, #0
 1183 0de4 FCFFFFBA 		blt	.L274
 1184 0de8 200082E5 		str	r0, [r2, #32]
 1185 0dec 0100A0E3 		mov	r0, #1
 1186 0df0 1EFF2FE1 		bx	lr
 1187              	.L275:
 1188 0df4 0000A0E3 		mov	r0, #0
 1189 0df8 1EFF2FE1 		bx	lr
 1190              	.L278:
 1191              		.align	2
 1192              	.L277:
 1193 0dfc 00000000 		.word	RPi_IO_Base_Addr
 1194              		.size	mailbox_write, .-mailbox_write
 1195              		.align	2
 1196              		.global	mailbox_read
 1197              		.syntax unified
ARM GAS  C:\Users\ldebo\AppData\Local\Temp\cc0w9t1b.s 			page 22


 1198              		.arm
 1199              		.fpu vfp
 1200              		.type	mailbox_read, %function
 1201              	mailbox_read:
 1202              		@ args = 0, pretend = 0, frame = 0
 1203              		@ frame_needed = 0, uses_anonymous_args = 0
 1204              		@ link register save eliminated.
 1205 0e00 090050E3 		cmp	r0, #9
 1206 0e04 0100009A 		bls	.L286
 1207 0e08 34009FE5 		ldr	r0, .L287
 1208 0e0c 1EFF2FE1 		bx	lr
 1209              	.L286:
 1210 0e10 30309FE5 		ldr	r3, .L287+4
 1211 0e14 002093E5 		ldr	r2, [r3]
 1212 0e18 2E2B82E2 		add	r2, r2, #47104
 1213 0e1c 802082E2 		add	r2, r2, #128
 1214              	.L281:
 1215 0e20 183092E5 		ldr	r3, [r2, #24]
 1216 0e24 010113E3 		tst	r3, #1073741824
 1217 0e28 FCFFFF1A 		bne	.L281
 1218 0e2c 003092E5 		ldr	r3, [r2]
 1219 0e30 0F1003E2 		and	r1, r3, #15
 1220 0e34 000051E1 		cmp	r1, r0
 1221 0e38 F8FFFF1A 		bne	.L281
 1222 0e3c 0F00C3E3 		bic	r0, r3, #15
 1223 0e40 1EFF2FE1 		bx	lr
 1224              	.L288:
 1225              		.align	2
 1226              	.L287:
 1227 0e44 ADDEEDFE 		.word	-17965395
 1228 0e48 00000000 		.word	RPi_IO_Base_Addr
 1229              		.size	mailbox_read, .-mailbox_read
 1230              		.align	2
 1231              		.global	set_Activity_LED
 1232              		.syntax unified
 1233              		.arm
 1234              		.fpu vfp
 1235              		.type	set_Activity_LED, %function
 1236              	set_Activity_LED:
 1237              		@ args = 0, pretend = 0, frame = 0
 1238              		@ frame_needed = 1, uses_anonymous_args = 0
 1239 0e4c 3C229FE5 		ldr	r2, .L324
 1240 0e50 F0482DE9 		push	{r4, r5, r6, r7, fp, lr}
 1241 0e54 001092E5 		ldr	r1, [r2]
 1242 0e58 34329FE5 		ldr	r3, .L324+4
 1243 0e5c 34229FE5 		ldr	r2, .L324+8
 1244 0e60 213203E0 		and	r3, r3, r1, lsr #4
 1245 0e64 020053E1 		cmp	r3, r2
 1246 0e68 14B08DE2 		add	fp, sp, #20
 1247 0e6c 30D04DE2 		sub	sp, sp, #48
 1248 0e70 3D00000A 		beq	.L291
 1249 0e74 FC2082E2 		add	r2, r2, #252
 1250 0e78 0F408DE2 		add	r4, sp, #15
 1251 0e7c 020053E1 		cmp	r3, r2
 1252 0e80 0F40C4E3 		bic	r4, r4, #15
 1253 0e84 0050A0E1 		mov	r5, r0
 1254 0e88 1000000A 		beq	.L292
ARM GAS  C:\Users\ldebo\AppData\Local\Temp\cc0w9t1b.s 			page 23


 1255 0e8c 08229FE5 		ldr	r2, .L324+12
 1256 0e90 020053E1 		cmp	r3, r2
 1257 0e94 0200000A 		beq	.L321
 1258              	.L317:
 1259 0e98 0000A0E3 		mov	r0, #0
 1260              	.L290:
 1261 0e9c 14D04BE2 		sub	sp, fp, #20
 1262              		@ sp needed
 1263 0ea0 F088BDE8 		pop	{r4, r5, r6, r7, fp, pc}
 1264              	.L321:
 1265 0ea4 F4219FE5 		ldr	r2, .L324+16
 1266 0ea8 0030D2E5 		ldrb	r3, [r2]	@ zero_extendqisi2
 1267 0eac 000053E3 		cmp	r3, #0
 1268 0eb0 3900000A 		beq	.L322
 1269              	.L301:
 1270 0eb4 E8319FE5 		ldr	r3, .L324+20
 1271 0eb8 003093E5 		ldr	r3, [r3]
 1272 0ebc 360053E3 		cmp	r3, #54
 1273 0ec0 6300009A 		bls	.L323
 1274              	.L310:
 1275 0ec4 0100A0E3 		mov	r0, #1
 1276 0ec8 14D04BE2 		sub	sp, fp, #20
 1277              		@ sp needed
 1278 0ecc F088BDE8 		pop	{r4, r5, r6, r7, fp, pc}
 1279              	.L292:
 1280 0ed0 0020A0E3 		mov	r2, #0
 1281 0ed4 0830A0E3 		mov	r3, #8
 1282 0ed8 20E0A0E3 		mov	lr, #32
 1283 0edc 82C0A0E3 		mov	ip, #130
 1284 0ee0 C0119FE5 		ldr	r1, .L324+24
 1285 0ee4 042084E5 		str	r2, [r4, #4]
 1286 0ee8 1C2084E5 		str	r2, [r4, #28]
 1287 0eec 0C3084E5 		str	r3, [r4, #12]
 1288 0ef0 103084E5 		str	r3, [r4, #16]
 1289 0ef4 081084E5 		str	r1, [r4, #8]
 1290 0ef8 0400A0E1 		mov	r0, r4
 1291 0efc 185084E5 		str	r5, [r4, #24]
 1292 0f00 00E084E5 		str	lr, [r4]
 1293 0f04 14C084E5 		str	ip, [r4, #20]
 1294 0f08 FEFFFFEB 		bl	ARMaddrToGPUaddr
 1295 0f0c 98319FE5 		ldr	r3, .L324+28
 1296 0f10 0F10C0E3 		bic	r1, r0, #15
 1297 0f14 002093E5 		ldr	r2, [r3]
 1298 0f18 081081E3 		orr	r1, r1, #8
 1299 0f1c 2E2B82E2 		add	r2, r2, #47104
 1300 0f20 802082E2 		add	r2, r2, #128
 1301              	.L305:
 1302 0f24 383092E5 		ldr	r3, [r2, #56]
 1303 0f28 000053E3 		cmp	r3, #0
 1304 0f2c FCFFFFBA 		blt	.L305
 1305 0f30 201082E5 		str	r1, [r2, #32]
 1306              	.L306:
 1307 0f34 183092E5 		ldr	r3, [r2, #24]
 1308 0f38 010113E3 		tst	r3, #1073741824
 1309 0f3c FCFFFF1A 		bne	.L306
 1310 0f40 003092E5 		ldr	r3, [r2]
 1311 0f44 0F3003E2 		and	r3, r3, #15
ARM GAS  C:\Users\ldebo\AppData\Local\Temp\cc0w9t1b.s 			page 24


 1312 0f48 080053E3 		cmp	r3, #8
 1313 0f4c F8FFFF1A 		bne	.L306
 1314 0f50 043094E5 		ldr	r3, [r4, #4]
 1315 0f54 020153E3 		cmp	r3, #-2147483648
 1316 0f58 CEFFFF1A 		bne	.L317
 1317 0f5c 103094E5 		ldr	r3, [r4, #16]
 1318 0f60 220153E3 		cmp	r3, #-2147483640
 1319 0f64 CBFFFF1A 		bne	.L317
 1320 0f68 D5FFFFEA 		b	.L310
 1321              	.L291:
 1322 0f6c 000050E3 		cmp	r0, #0
 1323 0f70 0229A0E3 		mov	r2, #32768
 1324 0f74 0100A003 		moveq	r0, #1
 1325 0f78 2C319FE5 		ldr	r3, .L324+28
 1326 0f7c 00309315 		ldrne	r3, [r3]
 1327 0f80 00309305 		ldreq	r3, [r3]
 1328 0f84 02368312 		addne	r3, r3, #2097152
 1329 0f88 02368302 		addeq	r3, r3, #2097152
 1330 0f8c 20208315 		strne	r2, [r3, #32]
 1331 0f90 2C208305 		streq	r2, [r3, #44]
 1332 0f94 14D04BE2 		sub	sp, fp, #20
 1333              		@ sp needed
 1334 0f98 F088BDE8 		pop	{r4, r5, r6, r7, fp, pc}
 1335              	.L322:
 1336 0f9c 1CE0A0E3 		mov	lr, #28
 1337 0fa0 04C0A0E3 		mov	ip, #4
 1338 0fa4 0160A0E3 		mov	r6, #1
 1339 0fa8 00119FE5 		ldr	r1, .L324+32
 1340 0fac 0400A0E1 		mov	r0, r4
 1341 0fb0 081084E5 		str	r1, [r4, #8]
 1342 0fb4 043084E5 		str	r3, [r4, #4]
 1343 0fb8 103084E5 		str	r3, [r4, #16]
 1344 0fbc 143084E5 		str	r3, [r4, #20]
 1345 0fc0 183084E5 		str	r3, [r4, #24]
 1346 0fc4 00E084E5 		str	lr, [r4]
 1347 0fc8 0CC084E5 		str	ip, [r4, #12]
 1348 0fcc 0060C2E5 		strb	r6, [r2]
 1349 0fd0 FEFFFFEB 		bl	ARMaddrToGPUaddr
 1350 0fd4 D0109FE5 		ldr	r1, .L324+28
 1351 0fd8 0F00C0E3 		bic	r0, r0, #15
 1352 0fdc 002091E5 		ldr	r2, [r1]
 1353 0fe0 080080E3 		orr	r0, r0, #8
 1354 0fe4 2E2B82E2 		add	r2, r2, #47104
 1355 0fe8 802082E2 		add	r2, r2, #128
 1356              	.L296:
 1357 0fec 383092E5 		ldr	r3, [r2, #56]
 1358 0ff0 000053E3 		cmp	r3, #0
 1359 0ff4 FCFFFFBA 		blt	.L296
 1360 0ff8 200082E5 		str	r0, [r2, #32]
 1361              	.L297:
 1362 0ffc 183092E5 		ldr	r3, [r2, #24]
 1363 1000 010113E3 		tst	r3, #1073741824
 1364 1004 FCFFFF1A 		bne	.L297
 1365 1008 003092E5 		ldr	r3, [r2]
 1366 100c 0F3003E2 		and	r3, r3, #15
 1367 1010 080053E3 		cmp	r3, #8
 1368 1014 F8FFFF1A 		bne	.L297
ARM GAS  C:\Users\ldebo\AppData\Local\Temp\cc0w9t1b.s 			page 25


 1369 1018 043094E5 		ldr	r3, [r4, #4]
 1370 101c 020153E3 		cmp	r3, #-2147483648
 1371 1020 A3FFFF1A 		bne	.L301
 1372 1024 103094E5 		ldr	r3, [r4, #16]
 1373 1028 120153E3 		cmp	r3, #-2147483644
 1374 102c A0FFFF1A 		bne	.L301
 1375 1030 143094E5 		ldr	r3, [r4, #20]
 1376 1034 68009FE5 		ldr	r0, .L324+20
 1377 1038 023043E2 		sub	r3, r3, #2
 1378 103c 0D0053E3 		cmp	r3, #13
 1379 1040 1020A093 		movls	r2, #16
 1380 1044 2F20A083 		movhi	r2, #47
 1381 1048 0230A0E1 		mov	r3, r2
 1382 104c 002080E5 		str	r2, [r0]
 1383 1050 000000EA 		b	.L318
 1384              	.L323:
 1385 1054 50109FE5 		ldr	r1, .L324+28
 1386              	.L318:
 1387 1058 0100A0E3 		mov	r0, #1
 1388 105c 001091E5 		ldr	r1, [r1]
 1389 1060 000055E3 		cmp	r5, #0
 1390 1064 1F2003E2 		and	r2, r3, #31
 1391 1068 C332A0E1 		asr	r3, r3, #5
 1392 106c 021681E2 		add	r1, r1, #2097152
 1393 1070 06308312 		addne	r3, r3, #6
 1394 1074 1022A0E1 		lsl	r2, r0, r2
 1395 1078 03318110 		addne	r3, r1, r3, lsl #2
 1396 107c 0A308302 		addeq	r3, r3, #10
 1397 1080 04208315 		strne	r2, [r3, #4]
 1398 1084 0500A011 		movne	r0, r5
 1399 1088 03218107 		streq	r2, [r1, r3, lsl #2]
 1400 108c 82FFFFEA 		b	.L290
 1401              	.L325:
 1402              		.align	2
 1403              	.L324:
 1404 1090 00000000 		.word	RPi_CpuId
 1405 1094 FF0F0000 		.word	4095
 1406 1098 070C0000 		.word	3079
 1407 109c 760B0000 		.word	2934
 1408 10a0 00000000 		.word	.LANCHOR2
 1409 10a4 00000000 		.word	.LANCHOR3
 1410 10a8 41800300 		.word	229441
 1411 10ac 00000000 		.word	RPi_IO_Base_Addr
 1412 10b0 02000100 		.word	65538
 1413              		.size	set_Activity_LED, .-set_Activity_LED
 1414              		.align	2
 1415              		.global	SetMaxCPUSpeed
 1416              		.syntax unified
 1417              		.arm
 1418              		.fpu vfp
 1419              		.type	SetMaxCPUSpeed, %function
 1420              	SetMaxCPUSpeed:
 1421              		@ args = 0, pretend = 0, frame = 0
 1422              		@ frame_needed = 1, uses_anonymous_args = 0
 1423 10b4 30482DE9 		push	{r4, r5, fp, lr}
 1424 10b8 0030A0E3 		mov	r3, #0
 1425 10bc 0410A0E3 		mov	r1, #4
ARM GAS  C:\Users\ldebo\AppData\Local\Temp\cc0w9t1b.s 			page 26


 1426 10c0 0320A0E3 		mov	r2, #3
 1427 10c4 2050A0E3 		mov	r5, #32
 1428 10c8 08C0A0E3 		mov	ip, #8
 1429 10cc 0CB08DE2 		add	fp, sp, #12
 1430 10d0 30D04DE2 		sub	sp, sp, #48
 1431 10d4 24E19FE5 		ldr	lr, .L343
 1432 10d8 0F408DE2 		add	r4, sp, #15
 1433 10dc 0F40C4E3 		bic	r4, r4, #15
 1434 10e0 005084E5 		str	r5, [r4]
 1435 10e4 101084E5 		str	r1, [r4, #16]
 1436 10e8 142084E5 		str	r2, [r4, #20]
 1437 10ec 0400A0E1 		mov	r0, r4
 1438 10f0 08E084E5 		str	lr, [r4, #8]
 1439 10f4 0CC084E5 		str	ip, [r4, #12]
 1440 10f8 043084E5 		str	r3, [r4, #4]
 1441 10fc 183084E5 		str	r3, [r4, #24]
 1442 1100 1C3084E5 		str	r3, [r4, #28]
 1443 1104 FEFFFFEB 		bl	ARMaddrToGPUaddr
 1444 1108 F4509FE5 		ldr	r5, .L343+4
 1445 110c 0F10C0E3 		bic	r1, r0, #15
 1446 1110 002095E5 		ldr	r2, [r5]
 1447 1114 081081E3 		orr	r1, r1, #8
 1448 1118 2E2B82E2 		add	r2, r2, #47104
 1449 111c 802082E2 		add	r2, r2, #128
 1450              	.L327:
 1451 1120 383092E5 		ldr	r3, [r2, #56]
 1452 1124 000053E3 		cmp	r3, #0
 1453 1128 FCFFFFBA 		blt	.L327
 1454 112c 201082E5 		str	r1, [r2, #32]
 1455              	.L328:
 1456 1130 183092E5 		ldr	r3, [r2, #24]
 1457 1134 013113E2 		ands	r3, r3, #1073741824
 1458 1138 FCFFFF1A 		bne	.L328
 1459 113c 001092E5 		ldr	r1, [r2]
 1460 1140 0F1001E2 		and	r1, r1, #15
 1461 1144 080051E3 		cmp	r1, #8
 1462 1148 F8FFFF1A 		bne	.L328
 1463 114c 042094E5 		ldr	r2, [r4, #4]
 1464 1150 020152E3 		cmp	r2, #-2147483648
 1465 1154 0200000A 		beq	.L330
 1466              	.L332:
 1467 1158 0000A0E3 		mov	r0, #0
 1468              	.L331:
 1469 115c 0CD04BE2 		sub	sp, fp, #12
 1470              		@ sp needed
 1471 1160 3088BDE8 		pop	{r4, r5, fp, pc}
 1472              	.L330:
 1473 1164 102094E5 		ldr	r2, [r4, #16]
 1474 1168 220152E3 		cmp	r2, #-2147483640
 1475 116c F9FFFF1A 		bne	.L332
 1476 1170 20E0A0E3 		mov	lr, #32
 1477 1174 03C0A0E3 		mov	ip, #3
 1478 1178 88209FE5 		ldr	r2, .L343+8
 1479 117c 043084E5 		str	r3, [r4, #4]
 1480 1180 0C1084E5 		str	r1, [r4, #12]
 1481 1184 101084E5 		str	r1, [r4, #16]
 1482 1188 1C3084E5 		str	r3, [r4, #28]
ARM GAS  C:\Users\ldebo\AppData\Local\Temp\cc0w9t1b.s 			page 27


 1483 118c 082084E5 		str	r2, [r4, #8]
 1484 1190 0400A0E1 		mov	r0, r4
 1485 1194 00E084E5 		str	lr, [r4]
 1486 1198 14C084E5 		str	ip, [r4, #20]
 1487 119c FEFFFFEB 		bl	ARMaddrToGPUaddr
 1488 11a0 003095E5 		ldr	r3, [r5]
 1489 11a4 0F10C0E3 		bic	r1, r0, #15
 1490 11a8 2E3B83E2 		add	r3, r3, #47104
 1491 11ac 081081E3 		orr	r1, r1, #8
 1492 11b0 802083E2 		add	r2, r3, #128
 1493              	.L333:
 1494 11b4 383092E5 		ldr	r3, [r2, #56]
 1495 11b8 000053E3 		cmp	r3, #0
 1496 11bc FCFFFFBA 		blt	.L333
 1497 11c0 201082E5 		str	r1, [r2, #32]
 1498              	.L334:
 1499 11c4 183092E5 		ldr	r3, [r2, #24]
 1500 11c8 010113E3 		tst	r3, #1073741824
 1501 11cc FCFFFF1A 		bne	.L334
 1502 11d0 003092E5 		ldr	r3, [r2]
 1503 11d4 0F3003E2 		and	r3, r3, #15
 1504 11d8 080053E3 		cmp	r3, #8
 1505 11dc F8FFFF1A 		bne	.L334
 1506 11e0 043094E5 		ldr	r3, [r4, #4]
 1507 11e4 020153E3 		cmp	r3, #-2147483648
 1508 11e8 DAFFFF1A 		bne	.L332
 1509 11ec 100094E5 		ldr	r0, [r4, #16]
 1510 11f0 220140E2 		sub	r0, r0, #-2147483640
 1511 11f4 100F6FE1 		clz	r0, r0
 1512 11f8 A002A0E1 		lsr	r0, r0, #5
 1513 11fc D6FFFFEA 		b	.L331
 1514              	.L344:
 1515              		.align	2
 1516              	.L343:
 1517 1200 04000300 		.word	196612
 1518 1204 00000000 		.word	RPi_IO_Base_Addr
 1519 1208 02800300 		.word	229378
 1520              		.size	SetMaxCPUSpeed, .-SetMaxCPUSpeed
 1521              		.align	2
 1522              		.global	DeadLoop
 1523              		.syntax unified
 1524              		.arm
 1525              		.fpu vfp
 1526              		.type	DeadLoop, %function
 1527              	DeadLoop:
 1528              		@ Volatile: function does not return.
 1529              		@ args = 0, pretend = 0, frame = 24
 1530              		@ frame_needed = 1, uses_anonymous_args = 0
 1531 120c 80482DE9 		push	{r7, fp, lr}
 1532 1210 08B08DE2 		add	fp, sp, #8
 1533 1214 1CD04DE2 		sub	sp, sp, #28
 1534 1218 30D04DE2 		sub	sp, sp, #48
 1535 121c 0F908DE2 		add	r9, sp, #15
 1536 1220 0F30C9E3 		bic	r3, r9, #15
 1537 1224 00A59FE5 		ldr	r10, .L410
 1538 1228 24300BE5 		str	r3, [fp, #-36]
 1539              	.L387:
ARM GAS  C:\Users\ldebo\AppData\Local\Temp\cc0w9t1b.s 			page 28


 1540 122c FC249FE5 		ldr	r2, .L410+4
 1541 1230 00309AE5 		ldr	r3, [r10]
 1542 1234 233202E0 		and	r3, r2, r3, lsr #4
 1543 1238 FE2F42E2 		sub	r2, r2, #1016
 1544 123c 020053E1 		cmp	r3, r2
 1545 1240 C400000A 		beq	.L347
 1546 1244 FC2082E2 		add	r2, r2, #252
 1547 1248 020053E1 		cmp	r3, r2
 1548 124c 9F00000A 		beq	.L348
 1549 1250 DC249FE5 		ldr	r2, .L410+8
 1550 1254 020053E1 		cmp	r3, r2
 1551 1258 8700000A 		beq	.L349
 1552 125c D4349FE5 		ldr	r3, .L410+12
 1553 1260 003093E5 		ldr	r3, [r3]
 1554 1264 20300BE5 		str	r3, [fp, #-32]
 1555              	.L350:
 1556 1268 20301BE5 		ldr	r3, [fp, #-32]
 1557 126c 03CA83E2 		add	ip, r3, #12288
 1558              	.L364:
 1559 1270 0030A0E3 		mov	r3, #0
 1560 1274 0010A0E3 		mov	r1, #0
 1561 1278 08209CE5 		ldr	r2, [ip, #8]
 1562 127c 04E09CE5 		ldr	lr, [ip, #4]
 1563 1280 08009CE5 		ldr	r0, [ip, #8]
 1564 1284 010053E1 		cmp	r3, r1
 1565 1288 00005201 		cmpeq	r2, r0
 1566 128c F7FFFF1A 		bne	.L364
 1567 1290 0030A0E3 		mov	r3, #0
 1568 1294 0090A0E3 		mov	r9, #0
 1569 1298 18200BE5 		str	r2, [fp, #-24]
 1570 129c 1C300BE5 		str	r3, [fp, #-28]
 1571 12a0 94849FE5 		ldr	r8, .L410+16
 1572 12a4 DC214BE1 		ldrd	r2, [fp, #-28]
 1573 12a8 0E2082E1 		orr	r2, r2, lr
 1574 12ac 028098E0 		adds	r8, r8, r2
 1575 12b0 0390A9E0 		adc	r9, r9, r3
 1576              	.L365:
 1577 12b4 0030A0E3 		mov	r3, #0
 1578 12b8 0010A0E3 		mov	r1, #0
 1579 12bc 08209CE5 		ldr	r2, [ip, #8]
 1580 12c0 04E09CE5 		ldr	lr, [ip, #4]
 1581 12c4 08009CE5 		ldr	r0, [ip, #8]
 1582 12c8 010053E1 		cmp	r3, r1
 1583 12cc 00005201 		cmpeq	r2, r0
 1584 12d0 F7FFFF1A 		bne	.L365
 1585 12d4 0250A0E1 		mov	r5, r2
 1586 12d8 0040A0E3 		mov	r4, #0
 1587 12dc 050059E1 		cmp	r9, r5
 1588 12e0 0E2084E1 		orr	r2, r4, lr
 1589 12e4 02005801 		cmpeq	r8, r2
 1590 12e8 F1FFFF8A 		bhi	.L365
 1591 12ec 3C249FE5 		ldr	r2, .L410+4
 1592 12f0 00309AE5 		ldr	r3, [r10]
 1593 12f4 233202E0 		and	r3, r2, r3, lsr #4
 1594 12f8 FE2F42E2 		sub	r2, r2, #1016
 1595 12fc 020053E1 		cmp	r3, r2
 1596 1300 5800000A 		beq	.L368
ARM GAS  C:\Users\ldebo\AppData\Local\Temp\cc0w9t1b.s 			page 29


 1597 1304 FC2082E2 		add	r2, r2, #252
 1598 1308 020053E1 		cmp	r3, r2
 1599 130c 3300000A 		beq	.L369
 1600 1310 1C249FE5 		ldr	r2, .L410+8
 1601 1314 020053E1 		cmp	r3, r2
 1602 1318 1F00000A 		beq	.L409
 1603              	.L384:
 1604 131c 0030A0E3 		mov	r3, #0
 1605 1320 0010A0E3 		mov	r1, #0
 1606 1324 08209CE5 		ldr	r2, [ip, #8]
 1607 1328 04E09CE5 		ldr	lr, [ip, #4]
 1608 132c 08009CE5 		ldr	r0, [ip, #8]
 1609 1330 010053E1 		cmp	r3, r1
 1610 1334 00005201 		cmpeq	r2, r0
 1611 1338 F7FFFF1A 		bne	.L384
 1612 133c 0030A0E3 		mov	r3, #0
 1613 1340 0090A0E3 		mov	r9, #0
 1614 1344 10200BE5 		str	r2, [fp, #-16]
 1615 1348 14300BE5 		str	r3, [fp, #-20]
 1616 134c E8839FE5 		ldr	r8, .L410+16
 1617 1350 D4214BE1 		ldrd	r2, [fp, #-20]
 1618 1354 0E2082E1 		orr	r2, r2, lr
 1619 1358 028098E0 		adds	r8, r8, r2
 1620 135c 0390A9E0 		adc	r9, r9, r3
 1621              	.L385:
 1622 1360 0030A0E3 		mov	r3, #0
 1623 1364 0010A0E3 		mov	r1, #0
 1624 1368 08209CE5 		ldr	r2, [ip, #8]
 1625 136c 04E09CE5 		ldr	lr, [ip, #4]
 1626 1370 08009CE5 		ldr	r0, [ip, #8]
 1627 1374 010053E1 		cmp	r3, r1
 1628 1378 00005201 		cmpeq	r2, r0
 1629 137c F7FFFF1A 		bne	.L385
 1630 1380 0270A0E1 		mov	r7, r2
 1631 1384 0060A0E3 		mov	r6, #0
 1632 1388 070059E1 		cmp	r9, r7
 1633 138c 0E2086E1 		orr	r2, r6, lr
 1634 1390 02005801 		cmpeq	r8, r2
 1635 1394 F1FFFF8A 		bhi	.L385
 1636 1398 A3FFFFEA 		b	.L387
 1637              	.L409:
 1638 139c 9C339FE5 		ldr	r3, .L410+20
 1639 13a0 0030D3E5 		ldrb	r3, [r3]	@ zero_extendqisi2
 1640 13a4 040053E1 		cmp	r3, r4
 1641 13a8 9900000A 		beq	.L371
 1642 13ac 90339FE5 		ldr	r3, .L410+24
 1643 13b0 003093E5 		ldr	r3, [r3]
 1644              	.L372:
 1645 13b4 360053E3 		cmp	r3, #54
 1646 13b8 D7FFFF8A 		bhi	.L384
 1647              	.L379:
 1648 13bc 0120A0E3 		mov	r2, #1
 1649 13c0 20001BE5 		ldr	r0, [fp, #-32]
 1650 13c4 1F1003E2 		and	r1, r3, #31
 1651 13c8 C332A0E1 		asr	r3, r3, #5
 1652 13cc 020680E2 		add	r0, r0, #2097152
 1653 13d0 1221A0E1 		lsl	r2, r2, r1
ARM GAS  C:\Users\ldebo\AppData\Local\Temp\cc0w9t1b.s 			page 30


 1654 13d4 0A3083E2 		add	r3, r3, #10
 1655 13d8 032180E7 		str	r2, [r0, r3, lsl #2]
 1656 13dc CEFFFFEA 		b	.L384
 1657              	.L369:
 1658 13e0 0830A0E3 		mov	r3, #8
 1659 13e4 2010A0E3 		mov	r1, #32
 1660 13e8 8220A0E3 		mov	r2, #130
 1661 13ec 24C01BE5 		ldr	ip, [fp, #-36]
 1662 13f0 50E39FE5 		ldr	lr, .L410+28
 1663 13f4 00108CE5 		str	r1, [ip]
 1664 13f8 0C308CE5 		str	r3, [ip, #12]
 1665 13fc 10308CE5 		str	r3, [ip, #16]
 1666 1400 14208CE5 		str	r2, [ip, #20]
 1667 1404 0C00A0E1 		mov	r0, ip
 1668 1408 04408CE5 		str	r4, [ip, #4]
 1669 140c 08E08CE5 		str	lr, [ip, #8]
 1670 1410 18408CE5 		str	r4, [ip, #24]
 1671 1414 1C408CE5 		str	r4, [ip, #28]
 1672 1418 FEFFFFEB 		bl	ARMaddrToGPUaddr
 1673 141c 14339FE5 		ldr	r3, .L410+12
 1674 1420 0F10C0E3 		bic	r1, r0, #15
 1675 1424 00C093E5 		ldr	ip, [r3]
 1676 1428 081081E3 		orr	r1, r1, #8
 1677 142c 2E2B8CE2 		add	r2, ip, #47104
 1678 1430 802082E2 		add	r2, r2, #128
 1679              	.L380:
 1680 1434 383092E5 		ldr	r3, [r2, #56]
 1681 1438 000053E3 		cmp	r3, #0
 1682 143c FCFFFFBA 		blt	.L380
 1683 1440 201082E5 		str	r1, [r2, #32]
 1684              	.L381:
 1685 1444 183092E5 		ldr	r3, [r2, #24]
 1686 1448 010113E3 		tst	r3, #1073741824
 1687 144c FCFFFF1A 		bne	.L381
 1688 1450 003092E5 		ldr	r3, [r2]
 1689 1454 0F3003E2 		and	r3, r3, #15
 1690 1458 080053E3 		cmp	r3, #8
 1691 145c F8FFFF1A 		bne	.L381
 1692 1460 03CA8CE2 		add	ip, ip, #12288
 1693 1464 ACFFFFEA 		b	.L384
 1694              	.L368:
 1695 1468 0229A0E3 		mov	r2, #32768
 1696 146c 20301BE5 		ldr	r3, [fp, #-32]
 1697 1470 023683E2 		add	r3, r3, #2097152
 1698 1474 2C2083E5 		str	r2, [r3, #44]
 1699 1478 A7FFFFEA 		b	.L384
 1700              	.L349:
 1701 147c BC329FE5 		ldr	r3, .L410+20
 1702 1480 0030D3E5 		ldrb	r3, [r3]	@ zero_extendqisi2
 1703 1484 000053E3 		cmp	r3, #0
 1704 1488 3900000A 		beq	.L351
 1705 148c A4329FE5 		ldr	r3, .L410+12
 1706 1490 003093E5 		ldr	r3, [r3]
 1707 1494 20300BE5 		str	r3, [fp, #-32]
 1708 1498 A4329FE5 		ldr	r3, .L410+24
 1709 149c 003093E5 		ldr	r3, [r3]
 1710              	.L352:
ARM GAS  C:\Users\ldebo\AppData\Local\Temp\cc0w9t1b.s 			page 31


 1711 14a0 360053E3 		cmp	r3, #54
 1712 14a4 6FFFFF8A 		bhi	.L350
 1713              	.L359:
 1714 14a8 0110A0E3 		mov	r1, #1
 1715 14ac 20001BE5 		ldr	r0, [fp, #-32]
 1716 14b0 C322A0E1 		asr	r2, r3, #5
 1717 14b4 062082E2 		add	r2, r2, #6
 1718 14b8 1F3003E2 		and	r3, r3, #31
 1719 14bc 020680E2 		add	r0, r0, #2097152
 1720 14c0 022180E0 		add	r2, r0, r2, lsl #2
 1721 14c4 1133A0E1 		lsl	r3, r1, r3
 1722 14c8 043082E5 		str	r3, [r2, #4]
 1723 14cc 65FFFFEA 		b	.L350
 1724              	.L348:
 1725 14d0 0020A0E3 		mov	r2, #0
 1726 14d4 0830A0E3 		mov	r3, #8
 1727 14d8 0110A0E3 		mov	r1, #1
 1728 14dc 2000A0E3 		mov	r0, #32
 1729 14e0 82C0A0E3 		mov	ip, #130
 1730 14e4 24E01BE5 		ldr	lr, [fp, #-36]
 1731 14e8 58829FE5 		ldr	r8, .L410+28
 1732 14ec 1C208EE5 		str	r2, [lr, #28]
 1733 14f0 05018EE8 		stm	lr, {r0, r2, r8}
 1734 14f4 0C308EE5 		str	r3, [lr, #12]
 1735 14f8 10308EE5 		str	r3, [lr, #16]
 1736 14fc 18108EE5 		str	r1, [lr, #24]
 1737 1500 0E00A0E1 		mov	r0, lr
 1738 1504 14C08EE5 		str	ip, [lr, #20]
 1739 1508 FEFFFFEB 		bl	ARMaddrToGPUaddr
 1740 150c 24329FE5 		ldr	r3, .L410+12
 1741 1510 0F10C0E3 		bic	r1, r0, #15
 1742 1514 003093E5 		ldr	r3, [r3]
 1743 1518 081081E3 		orr	r1, r1, #8
 1744 151c 2E2B83E2 		add	r2, r3, #47104
 1745 1520 20300BE5 		str	r3, [fp, #-32]
 1746 1524 802082E2 		add	r2, r2, #128
 1747              	.L360:
 1748 1528 383092E5 		ldr	r3, [r2, #56]
 1749 152c 000053E3 		cmp	r3, #0
 1750 1530 FCFFFFBA 		blt	.L360
 1751 1534 201082E5 		str	r1, [r2, #32]
 1752              	.L361:
 1753 1538 183092E5 		ldr	r3, [r2, #24]
 1754 153c 010113E3 		tst	r3, #1073741824
 1755 1540 FCFFFF1A 		bne	.L361
 1756 1544 003092E5 		ldr	r3, [r2]
 1757 1548 0F3003E2 		and	r3, r3, #15
 1758 154c 080053E3 		cmp	r3, #8
 1759 1550 F8FFFF1A 		bne	.L361
 1760 1554 43FFFFEA 		b	.L350
 1761              	.L347:
 1762 1558 0229A0E3 		mov	r2, #32768
 1763 155c D4319FE5 		ldr	r3, .L410+12
 1764 1560 003093E5 		ldr	r3, [r3]
 1765 1564 20300BE5 		str	r3, [fp, #-32]
 1766 1568 023683E2 		add	r3, r3, #2097152
 1767 156c 202083E5 		str	r2, [r3, #32]
ARM GAS  C:\Users\ldebo\AppData\Local\Temp\cc0w9t1b.s 			page 32


 1768 1570 3CFFFFEA 		b	.L350
 1769              	.L351:
 1770 1574 1C10A0E3 		mov	r1, #28
 1771 1578 0420A0E3 		mov	r2, #4
 1772 157c 01C0A0E3 		mov	ip, #1
 1773 1580 24001BE5 		ldr	r0, [fp, #-36]
 1774 1584 C0E19FE5 		ldr	lr, .L410+32
 1775 1588 043080E5 		str	r3, [r0, #4]
 1776 158c 08E080E5 		str	lr, [r0, #8]
 1777 1590 A8E19FE5 		ldr	lr, .L410+20
 1778 1594 103080E5 		str	r3, [r0, #16]
 1779 1598 143080E5 		str	r3, [r0, #20]
 1780 159c 183080E5 		str	r3, [r0, #24]
 1781 15a0 001080E5 		str	r1, [r0]
 1782 15a4 0C2080E5 		str	r2, [r0, #12]
 1783 15a8 00C0CEE5 		strb	ip, [lr]
 1784 15ac FEFFFFEB 		bl	ARMaddrToGPUaddr
 1785 15b0 80319FE5 		ldr	r3, .L410+12
 1786 15b4 0F10C0E3 		bic	r1, r0, #15
 1787 15b8 003093E5 		ldr	r3, [r3]
 1788 15bc 081081E3 		orr	r1, r1, #8
 1789 15c0 2E2B83E2 		add	r2, r3, #47104
 1790 15c4 20300BE5 		str	r3, [fp, #-32]
 1791 15c8 802082E2 		add	r2, r2, #128
 1792              	.L353:
 1793 15cc 383092E5 		ldr	r3, [r2, #56]
 1794 15d0 000053E3 		cmp	r3, #0
 1795 15d4 FCFFFFBA 		blt	.L353
 1796 15d8 201082E5 		str	r1, [r2, #32]
 1797              	.L354:
 1798 15dc 183092E5 		ldr	r3, [r2, #24]
 1799 15e0 010113E3 		tst	r3, #1073741824
 1800 15e4 FCFFFF1A 		bne	.L354
 1801 15e8 003092E5 		ldr	r3, [r2]
 1802 15ec 0F3003E2 		and	r3, r3, #15
 1803 15f0 080053E3 		cmp	r3, #8
 1804 15f4 F8FFFF1A 		bne	.L354
 1805 15f8 24301BE5 		ldr	r3, [fp, #-36]
 1806 15fc 043093E5 		ldr	r3, [r3, #4]
 1807 1600 020153E3 		cmp	r3, #-2147483648
 1808 1604 2C00000A 		beq	.L356
 1809              	.L357:
 1810 1608 34319FE5 		ldr	r3, .L410+24
 1811 160c 003093E5 		ldr	r3, [r3]
 1812 1610 A2FFFFEA 		b	.L352
 1813              	.L371:
 1814 1614 1C10A0E3 		mov	r1, #28
 1815 1618 0420A0E3 		mov	r2, #4
 1816 161c 01C0A0E3 		mov	ip, #1
 1817 1620 24001BE5 		ldr	r0, [fp, #-36]
 1818 1624 20E19FE5 		ldr	lr, .L410+32
 1819 1628 043080E5 		str	r3, [r0, #4]
 1820 162c 08E080E5 		str	lr, [r0, #8]
 1821 1630 08E19FE5 		ldr	lr, .L410+20
 1822 1634 103080E5 		str	r3, [r0, #16]
 1823 1638 143080E5 		str	r3, [r0, #20]
 1824 163c 183080E5 		str	r3, [r0, #24]
ARM GAS  C:\Users\ldebo\AppData\Local\Temp\cc0w9t1b.s 			page 33


 1825 1640 001080E5 		str	r1, [r0]
 1826 1644 0C2080E5 		str	r2, [r0, #12]
 1827 1648 00C0CEE5 		strb	ip, [lr]
 1828 164c FEFFFFEB 		bl	ARMaddrToGPUaddr
 1829 1650 E0309FE5 		ldr	r3, .L410+12
 1830 1654 0F10C0E3 		bic	r1, r0, #15
 1831 1658 003093E5 		ldr	r3, [r3]
 1832 165c 081081E3 		orr	r1, r1, #8
 1833 1660 2E2B83E2 		add	r2, r3, #47104
 1834 1664 20300BE5 		str	r3, [fp, #-32]
 1835 1668 802082E2 		add	r2, r2, #128
 1836              	.L373:
 1837 166c 383092E5 		ldr	r3, [r2, #56]
 1838 1670 000053E3 		cmp	r3, #0
 1839 1674 FCFFFFBA 		blt	.L373
 1840 1678 201082E5 		str	r1, [r2, #32]
 1841              	.L374:
 1842 167c 183092E5 		ldr	r3, [r2, #24]
 1843 1680 010113E3 		tst	r3, #1073741824
 1844 1684 FCFFFF1A 		bne	.L374
 1845 1688 003092E5 		ldr	r3, [r2]
 1846 168c 0F3003E2 		and	r3, r3, #15
 1847 1690 080053E3 		cmp	r3, #8
 1848 1694 F8FFFF1A 		bne	.L374
 1849 1698 24301BE5 		ldr	r3, [fp, #-36]
 1850 169c 043093E5 		ldr	r3, [r3, #4]
 1851 16a0 020153E3 		cmp	r3, #-2147483648
 1852 16a4 1100000A 		beq	.L376
 1853              	.L377:
 1854 16a8 94309FE5 		ldr	r3, .L410+24
 1855 16ac 20201BE5 		ldr	r2, [fp, #-32]
 1856 16b0 003093E5 		ldr	r3, [r3]
 1857 16b4 03CA82E2 		add	ip, r2, #12288
 1858 16b8 3DFFFFEA 		b	.L372
 1859              	.L356:
 1860 16bc 24301BE5 		ldr	r3, [fp, #-36]
 1861 16c0 103093E5 		ldr	r3, [r3, #16]
 1862 16c4 120153E3 		cmp	r3, #-2147483644
 1863 16c8 CEFFFF1A 		bne	.L357
 1864 16cc 24301BE5 		ldr	r3, [fp, #-36]
 1865 16d0 6C209FE5 		ldr	r2, .L410+24
 1866 16d4 143093E5 		ldr	r3, [r3, #20]
 1867 16d8 023043E2 		sub	r3, r3, #2
 1868 16dc 0D0053E3 		cmp	r3, #13
 1869 16e0 1030A093 		movls	r3, #16
 1870 16e4 2F30A083 		movhi	r3, #47
 1871 16e8 003082E5 		str	r3, [r2]
 1872 16ec 6DFFFFEA 		b	.L359
 1873              	.L376:
 1874 16f0 24301BE5 		ldr	r3, [fp, #-36]
 1875 16f4 103093E5 		ldr	r3, [r3, #16]
 1876 16f8 120153E3 		cmp	r3, #-2147483644
 1877 16fc E9FFFF1A 		bne	.L377
 1878 1700 24301BE5 		ldr	r3, [fp, #-36]
 1879 1704 20201BE5 		ldr	r2, [fp, #-32]
 1880 1708 143093E5 		ldr	r3, [r3, #20]
 1881 170c 03CA82E2 		add	ip, r2, #12288
ARM GAS  C:\Users\ldebo\AppData\Local\Temp\cc0w9t1b.s 			page 34


 1882 1710 023043E2 		sub	r3, r3, #2
 1883 1714 0D0053E3 		cmp	r3, #13
 1884 1718 1030A093 		movls	r3, #16
 1885 171c 2F30A083 		movhi	r3, #47
 1886 1720 1C209FE5 		ldr	r2, .L410+24
 1887 1724 003082E5 		str	r3, [r2]
 1888 1728 23FFFFEA 		b	.L379
 1889              	.L411:
 1890              		.align	2
 1891              	.L410:
 1892 172c 00000000 		.word	RPi_CpuId
 1893 1730 FF0F0000 		.word	4095
 1894 1734 760B0000 		.word	2934
 1895 1738 00000000 		.word	RPi_IO_Base_Addr
 1896 173c 20A10700 		.word	500000
 1897 1740 00000000 		.word	.LANCHOR2
 1898 1744 00000000 		.word	.LANCHOR3
 1899 1748 41800300 		.word	229441
 1900 174c 02000100 		.word	65538
 1901              		.size	DeadLoop, .-DeadLoop
 1902              		.align	2
 1903              		.global	PiConsole_Init
 1904              		.syntax unified
 1905              		.arm
 1906              		.fpu vfp
 1907              		.type	PiConsole_Init, %function
 1908              	PiConsole_Init:
 1909              		@ args = 0, pretend = 0, frame = 0
 1910              		@ frame_needed = 1, uses_anonymous_args = 0
 1911 1750 00C0A0E1 		mov	ip, r0
 1912 1754 5800A0E3 		mov	r0, #88
 1913 1758 F0482DE9 		push	{r4, r5, r6, r7, fp, lr}
 1914 175c 1060A0E3 		mov	r6, #16
 1915 1760 0030A0E3 		mov	r3, #0
 1916 1764 04E0A0E3 		mov	lr, #4
 1917 1768 0270A0E1 		mov	r7, r2
 1918 176c 0040E0E3 		mvn	r4, #0
 1919 1770 0820A0E3 		mov	r2, #8
 1920 1774 14B08DE2 		add	fp, sp, #20
 1921 1778 68D04DE2 		sub	sp, sp, #104
 1922 177c 0F508DE2 		add	r5, sp, #15
 1923 1780 0F50C5E3 		bic	r5, r5, #15
 1924 1784 000085E5 		str	r0, [r5]
 1925 1788 60019FE5 		ldr	r0, .L430
 1926 178c 4C6085E5 		str	r6, [r5, #76]
 1927 1790 5C619FE5 		ldr	r6, .L430+4
 1928 1794 080085E5 		str	r0, [r5, #8]
 1929 1798 020080E2 		add	r0, r0, #2
 1930 179c 1C6085E5 		str	r6, [r5, #28]
 1931 17a0 300085E5 		str	r0, [r5, #48]
 1932 17a4 4C619FE5 		ldr	r6, .L430+8
 1933 17a8 4C019FE5 		ldr	r0, .L430+12
 1934 17ac 181085E5 		str	r1, [r5, #24]
 1935 17b0 2C1085E5 		str	r1, [r5, #44]
 1936 17b4 400085E5 		str	r0, [r5, #64]
 1937 17b8 043085E5 		str	r3, [r5, #4]
 1938 17bc 503085E5 		str	r3, [r5, #80]
ARM GAS  C:\Users\ldebo\AppData\Local\Temp\cc0w9t1b.s 			page 35


 1939 17c0 543085E5 		str	r3, [r5, #84]
 1940 17c4 141086E5 		str	r1, [r6, #20]
 1941 17c8 303086E5 		str	r3, [r6, #48]
 1942 17cc 383086E5 		str	r3, [r6, #56]
 1943 17d0 3C1086E5 		str	r1, [r6, #60]
 1944 17d4 2C3086E5 		str	r3, [r6, #44]
 1945 17d8 14C085E5 		str	ip, [r5, #20]
 1946 17dc 28C085E5 		str	ip, [r5, #40]
 1947 17e0 3C7085E5 		str	r7, [r5, #60]
 1948 17e4 0500A0E1 		mov	r0, r5
 1949 17e8 0C2085E5 		str	r2, [r5, #12]
 1950 17ec 102085E5 		str	r2, [r5, #16]
 1951 17f0 202085E5 		str	r2, [r5, #32]
 1952 17f4 242085E5 		str	r2, [r5, #36]
 1953 17f8 442085E5 		str	r2, [r5, #68]
 1954 17fc 34E085E5 		str	lr, [r5, #52]
 1955 1800 38E085E5 		str	lr, [r5, #56]
 1956 1804 48E085E5 		str	lr, [r5, #72]
 1957 1808 10C086E5 		str	ip, [r6, #16]
 1958 180c 187086E5 		str	r7, [r6, #24]
 1959 1810 34C086E5 		str	ip, [r6, #52]
 1960 1814 284086E5 		str	r4, [r6, #40]
 1961 1818 FEFFFFEB 		bl	ARMaddrToGPUaddr
 1962 181c DC309FE5 		ldr	r3, .L430+16
 1963 1820 0F10C0E3 		bic	r1, r0, #15
 1964 1824 003093E5 		ldr	r3, [r3]
 1965 1828 081081E3 		orr	r1, r1, #8
 1966 182c 2E3B83E2 		add	r3, r3, #47104
 1967 1830 803083E2 		add	r3, r3, #128
 1968              	.L413:
 1969 1834 382093E5 		ldr	r2, [r3, #56]
 1970 1838 000052E3 		cmp	r2, #0
 1971 183c FCFFFFBA 		blt	.L413
 1972 1840 201083E5 		str	r1, [r3, #32]
 1973              	.L414:
 1974 1844 180093E5 		ldr	r0, [r3, #24]
 1975 1848 010110E2 		ands	r0, r0, #1073741824
 1976 184c FCFFFF1A 		bne	.L414
 1977 1850 004093E5 		ldr	r4, [r3]
 1978 1854 0F4004E2 		and	r4, r4, #15
 1979 1858 080054E3 		cmp	r4, #8
 1980 185c F8FFFF1A 		bne	.L414
 1981 1860 043095E5 		ldr	r3, [r5, #4]
 1982 1864 020153E3 		cmp	r3, #-2147483648
 1983 1868 0100000A 		beq	.L429
 1984              	.L416:
 1985 186c 14D04BE2 		sub	sp, fp, #20
 1986              		@ sp needed
 1987 1870 F088BDE8 		pop	{r4, r5, r6, r7, fp, pc}
 1988              	.L429:
 1989 1874 483095E5 		ldr	r3, [r5, #72]
 1990 1878 220153E3 		cmp	r3, #-2147483640
 1991 187c FAFFFF1A 		bne	.L416
 1992 1880 4C0095E5 		ldr	r0, [r5, #76]
 1993 1884 FEFFFFEB 		bl	GPUaddrToARMaddr
 1994 1888 1020A0E3 		mov	r2, #16
 1995 188c 70309FE5 		ldr	r3, .L430+20
ARM GAS  C:\Users\ldebo\AppData\Local\Temp\cc0w9t1b.s 			page 36


 1996 1890 180057E3 		cmp	r7, #24
 1997 1894 0C0086E5 		str	r0, [r6, #12]
 1998 1898 204086E5 		str	r4, [r6, #32]
 1999 189c 242086E5 		str	r2, [r6, #36]
 2000 18a0 1C3086E5 		str	r3, [r6, #28]
 2001 18a4 0D00000A 		beq	.L417
 2002 18a8 200057E3 		cmp	r7, #32
 2003 18ac 0500000A 		beq	.L418
 2004 18b0 020057E1 		cmp	r7, r2
 2005 18b4 0100A013 		movne	r0, #1
 2006 18b8 48309F05 		ldreq	r3, .L430+24
 2007 18bc 0100A003 		moveq	r0, #1
 2008 18c0 44308605 		streq	r3, [r6, #68]
 2009 18c4 E8FFFFEA 		b	.L416
 2010              	.L418:
 2011 18c8 3C209FE5 		ldr	r2, .L430+28
 2012 18cc 3C309FE5 		ldr	r3, .L430+32
 2013 18d0 442086E5 		str	r2, [r6, #68]
 2014 18d4 403086E5 		str	r3, [r6, #64]
 2015 18d8 0100A0E3 		mov	r0, #1
 2016 18dc E2FFFFEA 		b	.L416
 2017              	.L417:
 2018 18e0 2C309FE5 		ldr	r3, .L430+36
 2019 18e4 0100A0E3 		mov	r0, #1
 2020 18e8 443086E5 		str	r3, [r6, #68]
 2021 18ec DEFFFFEA 		b	.L416
 2022              	.L431:
 2023              		.align	2
 2024              	.L430:
 2025 18f0 03800400 		.word	294915
 2026 18f4 04800400 		.word	294916
 2027 18f8 00000000 		.word	.LANCHOR2
 2028 18fc 01000400 		.word	262145
 2029 1900 00000000 		.word	RPi_IO_Base_Addr
 2030 1904 00000000 		.word	.LANCHOR0
 2031 1908 00000000 		.word	WriteChar16
 2032 190c 00000000 		.word	WriteChar32
 2033 1910 00000000 		.word	VertLine32
 2034 1914 00000000 		.word	WriteChar24
 2035              		.size	PiConsole_Init, .-PiConsole_Init
 2036              		.align	2
 2037              		.global	PiConsole_WriteChar
 2038              		.syntax unified
 2039              		.arm
 2040              		.fpu vfp
 2041              		.type	PiConsole_WriteChar, %function
 2042              	PiConsole_WriteChar:
 2043              		@ args = 0, pretend = 0, frame = 0
 2044              		@ frame_needed = 0, uses_anonymous_args = 0
 2045 1918 0A0050E3 		cmp	r0, #10
 2046 191c 1500000A 		beq	.L434
 2047 1920 0D0050E3 		cmp	r0, #13
 2048 1924 0300001A 		bne	.L437
 2049 1928 0020A0E3 		mov	r2, #0
 2050 192c 60309FE5 		ldr	r3, .L441
 2051 1930 042083E5 		str	r2, [r3, #4]
 2052 1934 1EFF2FE1 		bx	lr
ARM GAS  C:\Users\ldebo\AppData\Local\Temp\cc0w9t1b.s 			page 37


 2053              	.L437:
 2054 1938 70402DE9 		push	{r4, r5, r6, lr}
 2055 193c 50409FE5 		ldr	r4, .L441
 2056 1940 0030A0E1 		mov	r3, r0
 2057 1944 082094E5 		ldr	r2, [r4, #8]
 2058 1948 200094E5 		ldr	r0, [r4, #32]
 2059 194c 24C094E5 		ldr	ip, [r4, #36]
 2060 1950 041094E5 		ldr	r1, [r4, #4]
 2061 1954 9C0202E0 		mul	r2, ip, r2
 2062 1958 900101E0 		mul	r1, r0, r1
 2063 195c 445094E5 		ldr	r5, [r4, #68]
 2064 1960 0C0084E2 		add	r0, r4, #12
 2065 1964 35FF2FE1 		blx	r5
 2066 1968 043094E5 		ldr	r3, [r4, #4]
 2067 196c 013083E2 		add	r3, r3, #1
 2068 1970 043084E5 		str	r3, [r4, #4]
 2069 1974 7080BDE8 		pop	{r4, r5, r6, pc}
 2070              	.L434:
 2071 1978 0010A0E3 		mov	r1, #0
 2072 197c 10309FE5 		ldr	r3, .L441
 2073 1980 082093E5 		ldr	r2, [r3, #8]
 2074 1984 041083E5 		str	r1, [r3, #4]
 2075 1988 012082E2 		add	r2, r2, #1
 2076 198c 082083E5 		str	r2, [r3, #8]
 2077 1990 1EFF2FE1 		bx	lr
 2078              	.L442:
 2079              		.align	2
 2080              	.L441:
 2081 1994 00000000 		.word	.LANCHOR2
 2082              		.size	PiConsole_WriteChar, .-PiConsole_WriteChar
 2083              		.align	2
 2084              		.global	PiConsole_WriteText
 2085              		.syntax unified
 2086              		.arm
 2087              		.fpu vfp
 2088              		.type	PiConsole_WriteText, %function
 2089              	PiConsole_WriteText:
 2090              		@ args = 0, pretend = 0, frame = 0
 2091              		@ frame_needed = 0, uses_anonymous_args = 0
 2092 1998 F0412DE9 		push	{r4, r5, r6, r7, r8, lr}
 2093 199c 005050E2 		subs	r5, r0, #0
 2094 19a0 F081BD08 		popeq	{r4, r5, r6, r7, r8, pc}
 2095 19a4 0030D5E5 		ldrb	r3, [r5]	@ zero_extendqisi2
 2096 19a8 000053E3 		cmp	r3, #0
 2097 19ac F081BD08 		popeq	{r4, r5, r6, r7, r8, pc}
 2098 19b0 0060A0E3 		mov	r6, #0
 2099 19b4 78409FE5 		ldr	r4, .L463
 2100 19b8 130000EA 		b	.L450
 2101              	.L461:
 2102 19bc 0D0053E3 		cmp	r3, #13
 2103 19c0 04608405 		streq	r6, [r4, #4]
 2104 19c4 0B00000A 		beq	.L449
 2105 19c8 200094E5 		ldr	r0, [r4, #32]
 2106 19cc 082094E5 		ldr	r2, [r4, #8]
 2107 19d0 24C094E5 		ldr	ip, [r4, #36]
 2108 19d4 041094E5 		ldr	r1, [r4, #4]
 2109 19d8 9C0202E0 		mul	r2, ip, r2
ARM GAS  C:\Users\ldebo\AppData\Local\Temp\cc0w9t1b.s 			page 38


 2110 19dc 900101E0 		mul	r1, r0, r1
 2111 19e0 447094E5 		ldr	r7, [r4, #68]
 2112 19e4 4C009FE5 		ldr	r0, .L463+4
 2113 19e8 37FF2FE1 		blx	r7
 2114 19ec 043094E5 		ldr	r3, [r4, #4]
 2115 19f0 013083E2 		add	r3, r3, #1
 2116 19f4 043084E5 		str	r3, [r4, #4]
 2117              	.L449:
 2118 19f8 010075E3 		cmn	r5, #1
 2119 19fc F081BD08 		popeq	{r4, r5, r6, r7, r8, pc}
 2120              	.L462:
 2121 1a00 0130F5E5 		ldrb	r3, [r5, #1]!	@ zero_extendqisi2
 2122 1a04 000053E3 		cmp	r3, #0
 2123 1a08 0800000A 		beq	.L460
 2124              	.L450:
 2125 1a0c 0A0053E3 		cmp	r3, #10
 2126 1a10 E9FFFF1A 		bne	.L461
 2127 1a14 083094E5 		ldr	r3, [r4, #8]
 2128 1a18 010075E3 		cmn	r5, #1
 2129 1a1c 013083E2 		add	r3, r3, #1
 2130 1a20 046084E5 		str	r6, [r4, #4]
 2131 1a24 083084E5 		str	r3, [r4, #8]
 2132 1a28 F4FFFF1A 		bne	.L462
 2133 1a2c F081BDE8 		pop	{r4, r5, r6, r7, r8, pc}
 2134              	.L460:
 2135 1a30 F081BDE8 		pop	{r4, r5, r6, r7, r8, pc}
 2136              	.L464:
 2137              		.align	2
 2138              	.L463:
 2139 1a34 00000000 		.word	.LANCHOR2
 2140 1a38 0C000000 		.word	.LANCHOR2+12
 2141              		.size	PiConsole_WriteText, .-PiConsole_WriteText
 2142              		.align	2
 2143              		.global	PiConsole_VertLine
 2144              		.syntax unified
 2145              		.arm
 2146              		.fpu vfp
 2147              		.type	PiConsole_VertLine, %function
 2148              	PiConsole_VertLine:
 2149              		@ args = 0, pretend = 0, frame = 0
 2150              		@ frame_needed = 0, uses_anonymous_args = 0
 2151 1a3c 10402DE9 		push	{r4, lr}
 2152 1a40 24C09FE5 		ldr	ip, .L467
 2153 1a44 08D04DE2 		sub	sp, sp, #8
 2154 1a48 00308DE5 		str	r3, [sp]
 2155 1a4c 40409CE5 		ldr	r4, [ip, #64]
 2156 1a50 0230A0E1 		mov	r3, r2
 2157 1a54 0120A0E1 		mov	r2, r1
 2158 1a58 0010A0E1 		mov	r1, r0
 2159 1a5c 0C008CE2 		add	r0, ip, #12
 2160 1a60 34FF2FE1 		blx	r4
 2161 1a64 08D08DE2 		add	sp, sp, #8
 2162              		@ sp needed
 2163 1a68 1080BDE8 		pop	{r4, pc}
 2164              	.L468:
 2165              		.align	2
 2166              	.L467:
ARM GAS  C:\Users\ldebo\AppData\Local\Temp\cc0w9t1b.s 			page 39


 2167 1a6c 00000000 		.word	.LANCHOR2
 2168              		.size	PiConsole_VertLine, .-PiConsole_VertLine
 2169              		.align	2
 2170              		.global	WriteText
 2171              		.syntax unified
 2172              		.arm
 2173              		.fpu vfp
 2174              		.type	WriteText, %function
 2175              	WriteText:
 2176              		@ args = 0, pretend = 0, frame = 0
 2177              		@ frame_needed = 0, uses_anonymous_args = 0
 2178 1a70 F0472DE9 		push	{r4, r5, r6, r7, r8, r9, r10, lr}
 2179 1a74 004052E2 		subs	r4, r2, #0
 2180 1a78 F087BD08 		popeq	{r4, r5, r6, r7, r8, r9, r10, pc}
 2181 1a7c 0050A0E1 		mov	r5, r0
 2182 1a80 0400A0E1 		mov	r0, r4
 2183 1a84 0190A0E1 		mov	r9, r1
 2184 1a88 FEFFFFEB 		bl	strlen
 2185 1a8c 000050E3 		cmp	r0, #0
 2186 1a90 F087BD08 		popeq	{r4, r5, r6, r7, r8, r9, r10, pc}
 2187 1a94 30609FE5 		ldr	r6, .L478
 2188 1a98 008084E0 		add	r8, r4, r0
 2189 1a9c 0CA086E2 		add	r10, r6, #12
 2190              	.L472:
 2191 1aa0 0130D4E4 		ldrb	r3, [r4], #1	@ zero_extendqisi2
 2192 1aa4 0510A0E1 		mov	r1, r5
 2193 1aa8 447096E5 		ldr	r7, [r6, #68]
 2194 1aac 0920A0E1 		mov	r2, r9
 2195 1ab0 0A00A0E1 		mov	r0, r10
 2196 1ab4 37FF2FE1 		blx	r7
 2197 1ab8 203096E5 		ldr	r3, [r6, #32]
 2198 1abc 040058E1 		cmp	r8, r4
 2199 1ac0 035085E0 		add	r5, r5, r3
 2200 1ac4 F5FFFF1A 		bne	.L472
 2201 1ac8 F087BDE8 		pop	{r4, r5, r6, r7, r8, r9, r10, pc}
 2202              	.L479:
 2203              		.align	2
 2204              	.L478:
 2205 1acc 00000000 		.word	.LANCHOR2
 2206              		.size	WriteText, .-WriteText
 2207              		.align	2
 2208              		.global	vsprintf
 2209              		.syntax unified
 2210              		.arm
 2211              		.fpu vfp
 2212              		.type	vsprintf, %function
 2213              	vsprintf:
 2214              		@ args = 0, pretend = 0, frame = 16
 2215              		@ frame_needed = 0, uses_anonymous_args = 0
 2216 1ad0 F04F2DE9 		push	{r4, r5, r6, r7, r8, r9, r10, fp, lr}
 2217 1ad4 0030D1E5 		ldrb	r3, [r1]	@ zero_extendqisi2
 2218 1ad8 1CD04DE2 		sub	sp, sp, #28
 2219 1adc 000053E3 		cmp	r3, #0
 2220 1ae0 00A0A0E1 		mov	r10, r0
 2221 1ae4 1B03000A 		beq	.L577
 2222 1ae8 0160A0E1 		mov	r6, r1
 2223 1aec 0270A0E1 		mov	r7, r2
ARM GAS  C:\Users\ldebo\AppData\Local\Temp\cc0w9t1b.s 			page 40


 2224 1af0 0C008DE5 		str	r0, [sp, #12]
 2225 1af4 00B0E0E3 		mvn	fp, #0
 2226 1af8 050000EA 		b	.L575
 2227              	.L682:
 2228 1afc 0030CAE5 		strb	r3, [r10]
 2229 1b00 0130D6E5 		ldrb	r3, [r6, #1]	@ zero_extendqisi2
 2230 1b04 01A08AE2 		add	r10, r10, #1
 2231              	.L484:
 2232 1b08 000053E3 		cmp	r3, #0
 2233 1b0c 016086E2 		add	r6, r6, #1
 2234 1b10 1101000A 		beq	.L569
 2235              	.L575:
 2236 1b14 250053E3 		cmp	r3, #37
 2237 1b18 0080A003 		moveq	r8, #0
 2238 1b1c F6FFFF1A 		bne	.L682
 2239              	.L483:
 2240 1b20 0130D6E5 		ldrb	r3, [r6, #1]	@ zero_extendqisi2
 2241 1b24 014086E2 		add	r4, r6, #1
 2242 1b28 203043E2 		sub	r3, r3, #32
 2243 1b2c 100053E3 		cmp	r3, #16
 2244 1b30 03F19F97 		ldrls	pc, [pc, r3, asl #2]
 2245 1b34 1B0000EA 		b	.L485
 2246              	.L487:
 2247 1b38 A01B0000 		.word	.L486
 2248 1b3c A81B0000 		.word	.L485
 2249 1b40 A81B0000 		.word	.L485
 2250 1b44 981B0000 		.word	.L488
 2251 1b48 A81B0000 		.word	.L485
 2252 1b4c A81B0000 		.word	.L485
 2253 1b50 A81B0000 		.word	.L485
 2254 1b54 A81B0000 		.word	.L485
 2255 1b58 A81B0000 		.word	.L485
 2256 1b5c A81B0000 		.word	.L485
 2257 1b60 A81B0000 		.word	.L485
 2258 1b64 901B0000 		.word	.L489
 2259 1b68 A81B0000 		.word	.L485
 2260 1b6c 881B0000 		.word	.L490
 2261 1b70 A81B0000 		.word	.L485
 2262 1b74 A81B0000 		.word	.L485
 2263 1b78 7C1B0000 		.word	.L491
 2264              	.L491:
 2265 1b7c 018088E3 		orr	r8, r8, #1
 2266              	.L492:
 2267 1b80 0460A0E1 		mov	r6, r4
 2268 1b84 E5FFFFEA 		b	.L483
 2269              	.L490:
 2270 1b88 108088E3 		orr	r8, r8, #16
 2271 1b8c FBFFFFEA 		b	.L492
 2272              	.L489:
 2273 1b90 048088E3 		orr	r8, r8, #4
 2274 1b94 F9FFFFEA 		b	.L492
 2275              	.L488:
 2276 1b98 408088E3 		orr	r8, r8, #64
 2277 1b9c F7FFFFEA 		b	.L492
 2278              	.L486:
 2279 1ba0 088088E3 		orr	r8, r8, #8
 2280 1ba4 F5FFFFEA 		b	.L492
ARM GAS  C:\Users\ldebo\AppData\Local\Temp\cc0w9t1b.s 			page 41


 2281              	.L485:
 2282 1ba8 FEFFFFEB 		bl	__locale_ctype_ptr
 2283 1bac 0030D4E5 		ldrb	r3, [r4]	@ zero_extendqisi2
 2284 1bb0 030080E0 		add	r0, r0, r3
 2285 1bb4 0120D0E5 		ldrb	r2, [r0, #1]	@ zero_extendqisi2
 2286 1bb8 040012E3 		tst	r2, #4
 2287 1bbc 0460A011 		movne	r6, r4
 2288 1bc0 0050A013 		movne	r5, #0
 2289 1bc4 6200001A 		bne	.L494
 2290 1bc8 2A0053E3 		cmp	r3, #42
 2291 1bcc 0050E013 		mvnne	r5, #0
 2292 1bd0 8802000A 		beq	.L683
 2293              	.L496:
 2294 1bd4 2E0053E3 		cmp	r3, #46
 2295 1bd8 0BC0A011 		movne	ip, fp
 2296 1bdc 6800000A 		beq	.L684
 2297              	.L498:
 2298 1be0 DF2003E2 		and	r2, r3, #223
 2299 1be4 680053E3 		cmp	r3, #104
 2300 1be8 4C005213 		cmpne	r2, #76
 2301 1bec 7800000A 		beq	.L685
 2302              	.L503:
 2303 1bf0 253043E2 		sub	r3, r3, #37
 2304 1bf4 530053E3 		cmp	r3, #83
 2305 1bf8 03F19F97 		ldrls	pc, [pc, r3, asl #2]
 2306 1bfc D00000EA 		b	.L504
 2307              	.L576:
 2308 1c00 B0250000 		.word	.L505
 2309 1c04 441F0000 		.word	.L504
 2310 1c08 441F0000 		.word	.L504
 2311 1c0c 441F0000 		.word	.L504
 2312 1c10 441F0000 		.word	.L504
 2313 1c14 441F0000 		.word	.L504
 2314 1c18 441F0000 		.word	.L504
 2315 1c1c 441F0000 		.word	.L504
 2316 1c20 441F0000 		.word	.L504
 2317 1c24 441F0000 		.word	.L504
 2318 1c28 441F0000 		.word	.L504
 2319 1c2c 441F0000 		.word	.L504
 2320 1c30 441F0000 		.word	.L504
 2321 1c34 441F0000 		.word	.L504
 2322 1c38 441F0000 		.word	.L504
 2323 1c3c 441F0000 		.word	.L504
 2324 1c40 441F0000 		.word	.L504
 2325 1c44 441F0000 		.word	.L504
 2326 1c48 441F0000 		.word	.L504
 2327 1c4c 441F0000 		.word	.L504
 2328 1c50 441F0000 		.word	.L504
 2329 1c54 441F0000 		.word	.L504
 2330 1c58 441F0000 		.word	.L504
 2331 1c5c 441F0000 		.word	.L504
 2332 1c60 441F0000 		.word	.L504
 2333 1c64 441F0000 		.word	.L504
 2334 1c68 441F0000 		.word	.L504
 2335 1c6c 441F0000 		.word	.L504
 2336 1c70 441F0000 		.word	.L504
 2337 1c74 441F0000 		.word	.L504
ARM GAS  C:\Users\ldebo\AppData\Local\Temp\cc0w9t1b.s 			page 42


 2338 1c78 441F0000 		.word	.L504
 2339 1c7c 441F0000 		.word	.L504
 2340 1c80 441F0000 		.word	.L504
 2341 1c84 441F0000 		.word	.L504
 2342 1c88 441F0000 		.word	.L504
 2343 1c8c 441F0000 		.word	.L504
 2344 1c90 441F0000 		.word	.L504
 2345 1c94 441F0000 		.word	.L504
 2346 1c98 441F0000 		.word	.L504
 2347 1c9c 441F0000 		.word	.L504
 2348 1ca0 441F0000 		.word	.L504
 2349 1ca4 441F0000 		.word	.L504
 2350 1ca8 441F0000 		.word	.L504
 2351 1cac 441F0000 		.word	.L504
 2352 1cb0 441F0000 		.word	.L504
 2353 1cb4 441F0000 		.word	.L504
 2354 1cb8 441F0000 		.word	.L504
 2355 1cbc 441F0000 		.word	.L504
 2356 1cc0 441F0000 		.word	.L504
 2357 1cc4 441F0000 		.word	.L504
 2358 1cc8 441F0000 		.word	.L504
 2359 1ccc 18260000 		.word	.L599
 2360 1cd0 441F0000 		.word	.L504
 2361 1cd4 441F0000 		.word	.L504
 2362 1cd8 441F0000 		.word	.L504
 2363 1cdc 441F0000 		.word	.L504
 2364 1ce0 441F0000 		.word	.L504
 2365 1ce4 441F0000 		.word	.L504
 2366 1ce8 441F0000 		.word	.L504
 2367 1cec 441F0000 		.word	.L504
 2368 1cf0 441F0000 		.word	.L504
 2369 1cf4 441F0000 		.word	.L504
 2370 1cf8 38230000 		.word	.L508
 2371 1cfc 80260000 		.word	.L600
 2372 1d00 441F0000 		.word	.L504
 2373 1d04 441F0000 		.word	.L504
 2374 1d08 441F0000 		.word	.L504
 2375 1d0c 441F0000 		.word	.L504
 2376 1d10 80260000 		.word	.L600
 2377 1d14 441F0000 		.word	.L504
 2378 1d18 441F0000 		.word	.L504
 2379 1d1c 441F0000 		.word	.L504
 2380 1d20 441F0000 		.word	.L504
 2381 1d24 98260000 		.word	.L567
 2382 1d28 74260000 		.word	.L601
 2383 1d2c F8220000 		.word	.L512
 2384 1d30 441F0000 		.word	.L504
 2385 1d34 441F0000 		.word	.L504
 2386 1d38 781F0000 		.word	.L513
 2387 1d3c 441F0000 		.word	.L504
 2388 1d40 5C260000 		.word	.L602
 2389 1d44 441F0000 		.word	.L504
 2390 1d48 441F0000 		.word	.L504
 2391 1d4c 68260000 		.word	.L603
 2392              	.L495:
 2393 1d50 305042E2 		sub	r5, r2, #48
 2394              	.L494:
ARM GAS  C:\Users\ldebo\AppData\Local\Temp\cc0w9t1b.s 			page 43


 2395 1d54 FEFFFFEB 		bl	__locale_ctype_ptr
 2396 1d58 0640A0E1 		mov	r4, r6
 2397 1d5c 0130D6E4 		ldrb	r3, [r6], #1	@ zero_extendqisi2
 2398 1d60 052185E0 		add	r2, r5, r5, lsl #2
 2399 1d64 030080E0 		add	r0, r0, r3
 2400 1d68 0110D0E5 		ldrb	r1, [r0, #1]	@ zero_extendqisi2
 2401 1d6c 822083E0 		add	r2, r3, r2, lsl #1
 2402 1d70 040011E3 		tst	r1, #4
 2403 1d74 F5FFFF1A 		bne	.L495
 2404 1d78 2E0053E3 		cmp	r3, #46
 2405 1d7c 0BC0A011 		movne	ip, fp
 2406 1d80 96FFFF1A 		bne	.L498
 2407              	.L684:
 2408 1d84 FEFFFFEB 		bl	__locale_ctype_ptr
 2409 1d88 0130D4E5 		ldrb	r3, [r4, #1]	@ zero_extendqisi2
 2410 1d8c 016084E2 		add	r6, r4, #1
 2411 1d90 030080E0 		add	r0, r0, r3
 2412 1d94 01C0D0E5 		ldrb	ip, [r0, #1]	@ zero_extendqisi2
 2413 1d98 04C01CE2 		ands	ip, ip, #4
 2414 1d9c 0090A013 		movne	r9, #0
 2415 1da0 0902001A 		bne	.L500
 2416 1da4 2A0053E3 		cmp	r3, #42
 2417 1da8 0640A011 		movne	r4, r6
 2418 1dac 8BFFFF1A 		bne	.L498
 2419 1db0 009097E5 		ldr	r9, [r7]
 2420 1db4 0230D4E5 		ldrb	r3, [r4, #2]	@ zero_extendqisi2
 2421 1db8 047087E2 		add	r7, r7, #4
 2422 1dbc 024084E2 		add	r4, r4, #2
 2423 1dc0 C9CFC9E1 		bic	ip, r9, r9, asr #31
 2424              	.L688:
 2425 1dc4 DF2003E2 		and	r2, r3, #223
 2426 1dc8 680053E3 		cmp	r3, #104
 2427 1dcc 4C005213 		cmpne	r2, #76
 2428 1dd0 86FFFF1A 		bne	.L503
 2429              	.L685:
 2430 1dd4 0120D4E5 		ldrb	r2, [r4, #1]	@ zero_extendqisi2
 2431 1dd8 0310A0E1 		mov	r1, r3
 2432 1ddc 252042E2 		sub	r2, r2, #37
 2433 1de0 016084E2 		add	r6, r4, #1
 2434 1de4 530052E3 		cmp	r2, #83
 2435 1de8 02F19F97 		ldrls	pc, [pc, r2, asl #2]
 2436 1dec 530000EA 		b	.L581
 2437              	.L506:
 2438 1df0 AC250000 		.word	.L582
 2439 1df4 401F0000 		.word	.L581
 2440 1df8 401F0000 		.word	.L581
 2441 1dfc 401F0000 		.word	.L581
 2442 1e00 401F0000 		.word	.L581
 2443 1e04 401F0000 		.word	.L581
 2444 1e08 401F0000 		.word	.L581
 2445 1e0c 401F0000 		.word	.L581
 2446 1e10 401F0000 		.word	.L581
 2447 1e14 401F0000 		.word	.L581
 2448 1e18 401F0000 		.word	.L581
 2449 1e1c 401F0000 		.word	.L581
 2450 1e20 401F0000 		.word	.L581
 2451 1e24 401F0000 		.word	.L581
ARM GAS  C:\Users\ldebo\AppData\Local\Temp\cc0w9t1b.s 			page 44


 2452 1e28 401F0000 		.word	.L581
 2453 1e2c 401F0000 		.word	.L581
 2454 1e30 401F0000 		.word	.L581
 2455 1e34 401F0000 		.word	.L581
 2456 1e38 401F0000 		.word	.L581
 2457 1e3c 401F0000 		.word	.L581
 2458 1e40 401F0000 		.word	.L581
 2459 1e44 401F0000 		.word	.L581
 2460 1e48 401F0000 		.word	.L581
 2461 1e4c 401F0000 		.word	.L581
 2462 1e50 401F0000 		.word	.L581
 2463 1e54 401F0000 		.word	.L581
 2464 1e58 401F0000 		.word	.L581
 2465 1e5c 401F0000 		.word	.L581
 2466 1e60 401F0000 		.word	.L581
 2467 1e64 401F0000 		.word	.L581
 2468 1e68 401F0000 		.word	.L581
 2469 1e6c 401F0000 		.word	.L581
 2470 1e70 401F0000 		.word	.L581
 2471 1e74 401F0000 		.word	.L581
 2472 1e78 401F0000 		.word	.L581
 2473 1e7c 401F0000 		.word	.L581
 2474 1e80 401F0000 		.word	.L581
 2475 1e84 401F0000 		.word	.L581
 2476 1e88 401F0000 		.word	.L581
 2477 1e8c 401F0000 		.word	.L581
 2478 1e90 401F0000 		.word	.L581
 2479 1e94 401F0000 		.word	.L581
 2480 1e98 401F0000 		.word	.L581
 2481 1e9c 401F0000 		.word	.L581
 2482 1ea0 401F0000 		.word	.L581
 2483 1ea4 401F0000 		.word	.L581
 2484 1ea8 401F0000 		.word	.L581
 2485 1eac 401F0000 		.word	.L581
 2486 1eb0 401F0000 		.word	.L581
 2487 1eb4 401F0000 		.word	.L581
 2488 1eb8 401F0000 		.word	.L581
 2489 1ebc D0260000 		.word	.L583
 2490 1ec0 401F0000 		.word	.L581
 2491 1ec4 401F0000 		.word	.L581
 2492 1ec8 401F0000 		.word	.L581
 2493 1ecc 401F0000 		.word	.L581
 2494 1ed0 401F0000 		.word	.L581
 2495 1ed4 401F0000 		.word	.L581
 2496 1ed8 401F0000 		.word	.L581
 2497 1edc 401F0000 		.word	.L581
 2498 1ee0 401F0000 		.word	.L581
 2499 1ee4 401F0000 		.word	.L581
 2500 1ee8 34230000 		.word	.L584
 2501 1eec B8260000 		.word	.L585
 2502 1ef0 401F0000 		.word	.L581
 2503 1ef4 401F0000 		.word	.L581
 2504 1ef8 401F0000 		.word	.L581
 2505 1efc 401F0000 		.word	.L581
 2506 1f00 B8260000 		.word	.L585
 2507 1f04 401F0000 		.word	.L581
 2508 1f08 401F0000 		.word	.L581
ARM GAS  C:\Users\ldebo\AppData\Local\Temp\cc0w9t1b.s 			page 45


 2509 1f0c 401F0000 		.word	.L581
 2510 1f10 401F0000 		.word	.L581
 2511 1f14 E0260000 		.word	.L510
 2512 1f18 C0260000 		.word	.L586
 2513 1f1c F4220000 		.word	.L587
 2514 1f20 401F0000 		.word	.L581
 2515 1f24 401F0000 		.word	.L581
 2516 1f28 741F0000 		.word	.L588
 2517 1f2c 401F0000 		.word	.L581
 2518 1f30 D8260000 		.word	.L514
 2519 1f34 401F0000 		.word	.L581
 2520 1f38 401F0000 		.word	.L581
 2521 1f3c C8260000 		.word	.L589
 2522              	.L581:
 2523 1f40 0640A0E1 		mov	r4, r6
 2524              	.L504:
 2525 1f44 2530A0E3 		mov	r3, #37
 2526 1f48 0030CAE5 		strb	r3, [r10]
 2527 1f4c 0030D4E5 		ldrb	r3, [r4]	@ zero_extendqisi2
 2528 1f50 000053E3 		cmp	r3, #0
 2529 1f54 EA01001A 		bne	.L686
 2530 1f58 01A08AE2 		add	r10, r10, #1
 2531              	.L569:
 2532 1f5c 0C309DE5 		ldr	r3, [sp, #12]
 2533 1f60 03004AE0 		sub	r0, r10, r3
 2534              	.L481:
 2535 1f64 0030A0E3 		mov	r3, #0
 2536 1f68 0030CAE5 		strb	r3, [r10]
 2537 1f6c 1CD08DE2 		add	sp, sp, #28
 2538              		@ sp needed
 2539 1f70 F08FBDE8 		pop	{r4, r5, r6, r7, r8, r9, r10, fp, pc}
 2540              	.L588:
 2541 1f74 0640A0E1 		mov	r4, r6
 2542              	.L513:
 2543 1f78 006097E5 		ldr	r6, [r7]
 2544 1f7c 0C10A0E1 		mov	r1, ip
 2545 1f80 0600A0E1 		mov	r0, r6
 2546 1f84 FEFFFFEB 		bl	strnlen
 2547 1f88 100018E3 		tst	r8, #16
 2548 1f8c 049087E2 		add	r9, r7, #4
 2549 1f90 4900001A 		bne	.L536
 2550 1f94 000055E1 		cmp	r5, r0
 2551 1f98 012045E2 		sub	r2, r5, #1
 2552 1f9c FF0100DA 		ble	.L592
 2553 1fa0 00306AE2 		rsb	r3, r10, #0
 2554 1fa4 033003E2 		and	r3, r3, #3
 2555 1fa8 001045E0 		sub	r1, r5, r0
 2556 1fac 010053E1 		cmp	r3, r1
 2557 1fb0 0130A021 		movcs	r3, r1
 2558 1fb4 060051E3 		cmp	r1, #6
 2559 1fb8 0130A091 		movls	r3, r1
 2560 1fbc 000053E3 		cmp	r3, #0
 2561 1fc0 F001000A 		beq	.L593
 2562 1fc4 20E0A0E3 		mov	lr, #32
 2563 1fc8 010053E3 		cmp	r3, #1
 2564 1fcc 00E0CAE5 		strb	lr, [r10]
 2565 1fd0 01C08AE2 		add	ip, r10, #1
ARM GAS  C:\Users\ldebo\AppData\Local\Temp\cc0w9t1b.s 			page 46


 2566 1fd4 022045E2 		sub	r2, r5, #2
 2567 1fd8 1500000A 		beq	.L539
 2568 1fdc 020053E3 		cmp	r3, #2
 2569 1fe0 01E0CAE5 		strb	lr, [r10, #1]
 2570 1fe4 02C08AE2 		add	ip, r10, #2
 2571 1fe8 032045E2 		sub	r2, r5, #3
 2572 1fec 1000000A 		beq	.L539
 2573 1ff0 030053E3 		cmp	r3, #3
 2574 1ff4 02E0CAE5 		strb	lr, [r10, #2]
 2575 1ff8 03C08AE2 		add	ip, r10, #3
 2576 1ffc 042045E2 		sub	r2, r5, #4
 2577 2000 0B00000A 		beq	.L539
 2578 2004 040053E3 		cmp	r3, #4
 2579 2008 03E0CAE5 		strb	lr, [r10, #3]
 2580 200c 04C08AE2 		add	ip, r10, #4
 2581 2010 052045E2 		sub	r2, r5, #5
 2582 2014 0600000A 		beq	.L539
 2583 2018 060053E3 		cmp	r3, #6
 2584 201c 05C08AE2 		add	ip, r10, #5
 2585 2020 062045E2 		sub	r2, r5, #6
 2586 2024 04E0CAE5 		strb	lr, [r10, #4]
 2587 2028 05E0CA05 		strbeq	lr, [r10, #5]
 2588 202c 07204502 		subeq	r2, r5, #7
 2589 2030 06C08A02 		addeq	ip, r10, #6
 2590              	.L539:
 2591 2034 030051E1 		cmp	r1, r3
 2592 2038 1D00000A 		beq	.L540
 2593              	.L538:
 2594 203c 038041E0 		sub	r8, r1, r3
 2595 2040 04E048E2 		sub	lr, r8, #4
 2596 2044 015041E2 		sub	r5, r1, #1
 2597 2048 2EE1A0E1 		lsr	lr, lr, #2
 2598 204c 035045E0 		sub	r5, r5, r3
 2599 2050 01E08EE2 		add	lr, lr, #1
 2600 2054 020055E3 		cmp	r5, #2
 2601 2058 0E71A0E1 		lsl	r7, lr, #2
 2602 205c 0C00009A 		bls	.L541
 2603 2060 0050A0E3 		mov	r5, #0
 2604 2064 03308AE0 		add	r3, r10, r3
 2605 2068 10208DE5 		str	r2, [sp, #16]
 2606              	.L542:
 2607 206c 015085E2 		add	r5, r5, #1
 2608 2070 38279FE5 		ldr	r2, .L691
 2609 2074 05005EE1 		cmp	lr, r5
 2610 2078 042083E4 		str	r2, [r3], #4
 2611 207c FAFFFF8A 		bhi	.L542
 2612 2080 10209DE5 		ldr	r2, [sp, #16]
 2613 2084 070058E1 		cmp	r8, r7
 2614 2088 07C08CE0 		add	ip, ip, r7
 2615 208c 072042E0 		sub	r2, r2, r7
 2616 2090 0700000A 		beq	.L540
 2617              	.L541:
 2618 2094 2030A0E3 		mov	r3, #32
 2619 2098 020050E1 		cmp	r0, r2
 2620 209c 0030CCE5 		strb	r3, [ip]
 2621 20a0 012042E2 		sub	r2, r2, #1
 2622 20a4 020000AA 		bge	.L540
ARM GAS  C:\Users\ldebo\AppData\Local\Temp\cc0w9t1b.s 			page 47


 2623 20a8 020050E1 		cmp	r0, r2
 2624 20ac 0130CCE5 		strb	r3, [ip, #1]
 2625 20b0 0230CCB5 		strblt	r3, [ip, #2]
 2626              	.L540:
 2627 20b4 01A08AE0 		add	r10, r10, r1
 2628 20b8 015040E2 		sub	r5, r0, #1
 2629              	.L536:
 2630 20bc 000050E3 		cmp	r0, #0
 2631 20c0 400000DA 		ble	.L546
 2632 20c4 04308AE2 		add	r3, r10, #4
 2633 20c8 042086E2 		add	r2, r6, #4
 2634 20cc 02005AE1 		cmp	r10, r2
 2635 20d0 03005631 		cmpcc	r6, r3
 2636 20d4 0130A023 		movcs	r3, #1
 2637 20d8 0030A033 		movcc	r3, #0
 2638 20dc 0B0050E3 		cmp	r0, #11
 2639 20e0 0030A093 		movls	r3, #0
 2640 20e4 01300382 		andhi	r3, r3, #1
 2641 20e8 000053E3 		cmp	r3, #0
 2642 20ec 9B01000A 		beq	.L547
 2643 20f0 003066E2 		rsb	r3, r6, #0
 2644 20f4 033013E2 		ands	r3, r3, #3
 2645 20f8 9201000A 		beq	.L594
 2646 20fc 0020D6E5 		ldrb	r2, [r6]	@ zero_extendqisi2
 2647 2100 010053E3 		cmp	r3, #1
 2648 2104 0020CAE5 		strb	r2, [r10]
 2649 2108 01E08AE2 		add	lr, r10, #1
 2650 210c 017086E2 		add	r7, r6, #1
 2651 2110 8E01000A 		beq	.L674
 2652 2114 0120D6E5 		ldrb	r2, [r6, #1]	@ zero_extendqisi2
 2653 2118 030053E3 		cmp	r3, #3
 2654 211c 0120CAE5 		strb	r2, [r10, #1]
 2655 2120 0220A013 		movne	r2, #2
 2656 2124 0220D605 		ldrbeq	r2, [r6, #2]	@ zero_extendqisi2
 2657 2128 02E08AE2 		add	lr, r10, #2
 2658 212c 027086E2 		add	r7, r6, #2
 2659 2130 03E08A02 		addeq	lr, r10, #3
 2660 2134 0220CA05 		strbeq	r2, [r10, #2]
 2661 2138 03708602 		addeq	r7, r6, #3
 2662 213c 10308D05 		streq	r3, [sp, #16]
 2663 2140 10208D15 		strne	r2, [sp, #16]
 2664              	.L548:
 2665 2144 00C0A0E3 		mov	ip, #0
 2666 2148 032040E0 		sub	r2, r0, r3
 2667 214c 14208DE5 		str	r2, [sp, #20]
 2668 2150 042042E2 		sub	r2, r2, #4
 2669 2154 2221A0E1 		lsr	r2, r2, #2
 2670 2158 012082E2 		add	r2, r2, #1
 2671 215c 036086E0 		add	r6, r6, r3
 2672 2160 0211A0E1 		lsl	r1, r2, #2
 2673 2164 03308AE0 		add	r3, r10, r3
 2674              	.L550:
 2675 2168 01C08CE2 		add	ip, ip, #1
 2676 216c 048096E4 		ldr	r8, [r6], #4
 2677 2170 0C0052E1 		cmp	r2, ip
 2678 2174 048083E4 		str	r8, [r3], #4	@ unaligned
 2679 2178 FAFFFF8A 		bhi	.L550
ARM GAS  C:\Users\ldebo\AppData\Local\Temp\cc0w9t1b.s 			page 48


 2680 217c 14309DE5 		ldr	r3, [sp, #20]
 2681 2180 01C08EE0 		add	ip, lr, r1
 2682 2184 010053E1 		cmp	r3, r1
 2683 2188 10309DE5 		ldr	r3, [sp, #16]
 2684 218c 033081E0 		add	r3, r1, r3
 2685 2190 011087E0 		add	r1, r7, r1
 2686 2194 0A00000A 		beq	.L555
 2687 2198 0261D7E7 		ldrb	r6, [r7, r2, lsl #2]	@ zero_extendqisi2
 2688 219c 017083E2 		add	r7, r3, #1
 2689 21a0 070050E1 		cmp	r0, r7
 2690 21a4 0261CEE7 		strb	r6, [lr, r2, lsl #2]
 2691 21a8 050000DA 		ble	.L555
 2692 21ac 023083E2 		add	r3, r3, #2
 2693 21b0 0120D1E5 		ldrb	r2, [r1, #1]	@ zero_extendqisi2
 2694 21b4 030050E1 		cmp	r0, r3
 2695 21b8 0120CCE5 		strb	r2, [ip, #1]
 2696 21bc 0230D1C5 		ldrbgt	r3, [r1, #2]	@ zero_extendqisi2
 2697 21c0 0230CCC5 		strbgt	r3, [ip, #2]
 2698              	.L555:
 2699 21c4 00A08AE0 		add	r10, r10, r0
 2700              	.L546:
 2701 21c8 000055E1 		cmp	r5, r0
 2702 21cc 01C045E2 		sub	ip, r5, #1
 2703 21d0 430000DA 		ble	.L676
 2704 21d4 00306AE2 		rsb	r3, r10, #0
 2705 21d8 033003E2 		and	r3, r3, #3
 2706 21dc 00E045E0 		sub	lr, r5, r0
 2707 21e0 0E0053E1 		cmp	r3, lr
 2708 21e4 0E30A021 		movcs	r3, lr
 2709 21e8 06005EE3 		cmp	lr, #6
 2710 21ec 0E30A091 		movls	r3, lr
 2711 21f0 000053E3 		cmp	r3, #0
 2712 21f4 4701000A 		beq	.L597
 2713 21f8 2020A0E3 		mov	r2, #32
 2714 21fc 010053E3 		cmp	r3, #1
 2715 2200 0020CAE5 		strb	r2, [r10]
 2716 2204 01108AE2 		add	r1, r10, #1
 2717 2208 02C045E2 		sub	ip, r5, #2
 2718 220c 1500000A 		beq	.L559
 2719 2210 020053E3 		cmp	r3, #2
 2720 2214 0120CAE5 		strb	r2, [r10, #1]
 2721 2218 02108AE2 		add	r1, r10, #2
 2722 221c 03C045E2 		sub	ip, r5, #3
 2723 2220 1000000A 		beq	.L559
 2724 2224 030053E3 		cmp	r3, #3
 2725 2228 0220CAE5 		strb	r2, [r10, #2]
 2726 222c 03108AE2 		add	r1, r10, #3
 2727 2230 04C045E2 		sub	ip, r5, #4
 2728 2234 0B00000A 		beq	.L559
 2729 2238 040053E3 		cmp	r3, #4
 2730 223c 0320CAE5 		strb	r2, [r10, #3]
 2731 2240 04108AE2 		add	r1, r10, #4
 2732 2244 05C045E2 		sub	ip, r5, #5
 2733 2248 0600000A 		beq	.L559
 2734 224c 060053E3 		cmp	r3, #6
 2735 2250 05108AE2 		add	r1, r10, #5
 2736 2254 06C045E2 		sub	ip, r5, #6
ARM GAS  C:\Users\ldebo\AppData\Local\Temp\cc0w9t1b.s 			page 49


 2737 2258 0420CAE5 		strb	r2, [r10, #4]
 2738 225c 0520CA05 		strbeq	r2, [r10, #5]
 2739 2260 07C04502 		subeq	ip, r5, #7
 2740 2264 06108A02 		addeq	r1, r10, #6
 2741              	.L559:
 2742 2268 03005EE1 		cmp	lr, r3
 2743 226c 1B00000A 		beq	.L560
 2744              	.L558:
 2745 2270 03604EE0 		sub	r6, lr, r3
 2746 2274 042046E2 		sub	r2, r6, #4
 2747 2278 01504EE2 		sub	r5, lr, #1
 2748 227c 2221A0E1 		lsr	r2, r2, #2
 2749 2280 035045E0 		sub	r5, r5, r3
 2750 2284 012082E2 		add	r2, r2, #1
 2751 2288 020055E3 		cmp	r5, #2
 2752 228c 0271A0E1 		lsl	r7, r2, #2
 2753 2290 0A00009A 		bls	.L561
 2754 2294 0050A0E3 		mov	r5, #0
 2755 2298 03308AE0 		add	r3, r10, r3
 2756              	.L562:
 2757 229c 015085E2 		add	r5, r5, #1
 2758 22a0 08859FE5 		ldr	r8, .L691
 2759 22a4 050052E1 		cmp	r2, r5
 2760 22a8 048083E4 		str	r8, [r3], #4
 2761 22ac FAFFFF8A 		bhi	.L562
 2762 22b0 070056E1 		cmp	r6, r7
 2763 22b4 071081E0 		add	r1, r1, r7
 2764 22b8 07C04CE0 		sub	ip, ip, r7
 2765 22bc 0700000A 		beq	.L560
 2766              	.L561:
 2767 22c0 2020A0E3 		mov	r2, #32
 2768 22c4 0C0050E1 		cmp	r0, ip
 2769 22c8 01304CE2 		sub	r3, ip, #1
 2770 22cc 0020C1E5 		strb	r2, [r1]
 2771 22d0 020000AA 		bge	.L560
 2772 22d4 030050E1 		cmp	r0, r3
 2773 22d8 0120C1E5 		strb	r2, [r1, #1]
 2774 22dc 0220C1B5 		strblt	r2, [r1, #2]
 2775              	.L560:
 2776 22e0 0EA08AE0 		add	r10, r10, lr
 2777              	.L676:
 2778 22e4 0970A0E1 		mov	r7, r9
 2779 22e8 0130D4E5 		ldrb	r3, [r4, #1]	@ zero_extendqisi2
 2780 22ec 0460A0E1 		mov	r6, r4
 2781 22f0 04FEFFEA 		b	.L484
 2782              	.L587:
 2783 22f4 0640A0E1 		mov	r4, r6
 2784              	.L512:
 2785 22f8 010075E3 		cmn	r5, #1
 2786 22fc 0850A003 		moveq	r5, #8
 2787 2300 01808803 		orreq	r8, r8, #1
 2788 2304 001097E5 		ldr	r1, [r7]
 2789 2308 0530A0E1 		mov	r3, r5
 2790 230c 0A00A0E1 		mov	r0, r10
 2791 2310 04808DE5 		str	r8, [sp, #4]
 2792 2314 00C08DE5 		str	ip, [sp]
 2793 2318 1020A0E3 		mov	r2, #16
ARM GAS  C:\Users\ldebo\AppData\Local\Temp\cc0w9t1b.s 			page 50


 2794 231c CFF7FFEB 		bl	number
 2795 2320 047087E2 		add	r7, r7, #4
 2796 2324 00A0A0E1 		mov	r10, r0
 2797 2328 0130D4E5 		ldrb	r3, [r4, #1]	@ zero_extendqisi2
 2798 232c 0460A0E1 		mov	r6, r4
 2799 2330 F4FDFFEA 		b	.L484
 2800              	.L584:
 2801 2334 0640A0E1 		mov	r4, r6
 2802              	.L508:
 2803 2338 100018E3 		tst	r8, #16
 2804 233c 4A00001A 		bne	.L516
 2805 2340 012045E2 		sub	r2, r5, #1
 2806 2344 000052E3 		cmp	r2, #0
 2807 2348 160100DA 		ble	.L590
 2808 234c 00306AE2 		rsb	r3, r10, #0
 2809 2350 033003E2 		and	r3, r3, #3
 2810 2354 020053E1 		cmp	r3, r2
 2811 2358 0230A021 		movcs	r3, r2
 2812 235c 060052E3 		cmp	r2, #6
 2813 2360 0230A091 		movls	r3, r2
 2814 2364 000053E3 		cmp	r3, #0
 2815 2368 0260A0E1 		mov	r6, r2
 2816 236c 0201000A 		beq	.L591
 2817 2370 20C0A0E3 		mov	ip, #32
 2818 2374 020045E2 		sub	r0, r5, #2
 2819 2378 010053E3 		cmp	r3, #1
 2820 237c 00C0CAE5 		strb	ip, [r10]
 2821 2380 0020A0E1 		mov	r2, r0
 2822 2384 01108AE2 		add	r1, r10, #1
 2823 2388 1500000A 		beq	.L519
 2824 238c 020053E3 		cmp	r3, #2
 2825 2390 01C0CAE5 		strb	ip, [r10, #1]
 2826 2394 02108AE2 		add	r1, r10, #2
 2827 2398 032045E2 		sub	r2, r5, #3
 2828 239c 1000000A 		beq	.L519
 2829 23a0 030053E3 		cmp	r3, #3
 2830 23a4 02C0CAE5 		strb	ip, [r10, #2]
 2831 23a8 03108AE2 		add	r1, r10, #3
 2832 23ac 042045E2 		sub	r2, r5, #4
 2833 23b0 0B00000A 		beq	.L519
 2834 23b4 040053E3 		cmp	r3, #4
 2835 23b8 03C0CAE5 		strb	ip, [r10, #3]
 2836 23bc 04108AE2 		add	r1, r10, #4
 2837 23c0 052045E2 		sub	r2, r5, #5
 2838 23c4 0600000A 		beq	.L519
 2839 23c8 060053E3 		cmp	r3, #6
 2840 23cc 05108AE2 		add	r1, r10, #5
 2841 23d0 062045E2 		sub	r2, r5, #6
 2842 23d4 04C0CAE5 		strb	ip, [r10, #4]
 2843 23d8 05C0CA05 		strbeq	ip, [r10, #5]
 2844 23dc 06108A02 		addeq	r1, r10, #6
 2845 23e0 07204502 		subeq	r2, r5, #7
 2846              	.L519:
 2847 23e4 030056E1 		cmp	r6, r3
 2848 23e8 1C00000A 		beq	.L520
 2849              	.L518:
 2850 23ec 039046E0 		sub	r9, r6, r3
ARM GAS  C:\Users\ldebo\AppData\Local\Temp\cc0w9t1b.s 			page 51


 2851 23f0 04C049E2 		sub	ip, r9, #4
 2852 23f4 2CC1A0E1 		lsr	ip, ip, #2
 2853 23f8 03E040E0 		sub	lr, r0, r3
 2854 23fc 01C08CE2 		add	ip, ip, #1
 2855 2400 02005EE3 		cmp	lr, #2
 2856 2404 0C81A0E1 		lsl	r8, ip, #2
 2857 2408 0C00009A 		bls	.L521
 2858 240c 00E0A0E3 		mov	lr, #0
 2859 2410 03308AE0 		add	r3, r10, r3
 2860 2414 10208DE5 		str	r2, [sp, #16]
 2861              	.L522:
 2862 2418 01E08EE2 		add	lr, lr, #1
 2863 241c 8C239FE5 		ldr	r2, .L691
 2864 2420 0E005CE1 		cmp	ip, lr
 2865 2424 042083E4 		str	r2, [r3], #4
 2866 2428 FAFFFF8A 		bhi	.L522
 2867 242c 10209DE5 		ldr	r2, [sp, #16]
 2868 2430 080059E1 		cmp	r9, r8
 2869 2434 081081E0 		add	r1, r1, r8
 2870 2438 082042E0 		sub	r2, r2, r8
 2871 243c 0700000A 		beq	.L520
 2872              	.L521:
 2873 2440 2030A0E3 		mov	r3, #32
 2874 2444 01C042E2 		sub	ip, r2, #1
 2875 2448 00005CE3 		cmp	ip, #0
 2876 244c 0030C1E5 		strb	r3, [r1]
 2877 2450 020000DA 		ble	.L520
 2878 2454 020052E3 		cmp	r2, #2
 2879 2458 0130C1E5 		strb	r3, [r1, #1]
 2880 245c 0230C115 		strbne	r3, [r1, #2]
 2881              	.L520:
 2882 2460 025065E2 		rsb	r5, r5, #2
 2883 2464 055080E0 		add	r5, r0, r5
 2884 2468 06A08AE0 		add	r10, r10, r6
 2885              	.L516:
 2886 246c 003097E5 		ldr	r3, [r7]
 2887 2470 012045E2 		sub	r2, r5, #1
 2888 2474 000052E3 		cmp	r2, #0
 2889 2478 0030CAE5 		strb	r3, [r10]
 2890 247c 047087E2 		add	r7, r7, #4
 2891 2480 01108AE2 		add	r1, r10, #1
 2892 2484 C10000DA 		ble	.L687
 2893 2488 003061E2 		rsb	r3, r1, #0
 2894 248c 033003E2 		and	r3, r3, #3
 2895 2490 020053E1 		cmp	r3, r2
 2896 2494 0230A021 		movcs	r3, r2
 2897 2498 060052E3 		cmp	r2, #6
 2898 249c 0230A091 		movls	r3, r2
 2899 24a0 000053E3 		cmp	r3, #0
 2900 24a4 02C0A0E1 		mov	ip, r2
 2901 24a8 02004502 		subeq	r0, r5, #2
 2902 24ac 1E00000A 		beq	.L528
 2903 24b0 20E0A0E3 		mov	lr, #32
 2904 24b4 020045E2 		sub	r0, r5, #2
 2905 24b8 010053E3 		cmp	r3, #1
 2906 24bc 01E0CAE5 		strb	lr, [r10, #1]
 2907 24c0 0020A0E1 		mov	r2, r0
ARM GAS  C:\Users\ldebo\AppData\Local\Temp\cc0w9t1b.s 			page 52


 2908 24c4 02108AE2 		add	r1, r10, #2
 2909 24c8 1500000A 		beq	.L529
 2910 24cc 020053E3 		cmp	r3, #2
 2911 24d0 02E0CAE5 		strb	lr, [r10, #2]
 2912 24d4 03108AE2 		add	r1, r10, #3
 2913 24d8 032045E2 		sub	r2, r5, #3
 2914 24dc 1000000A 		beq	.L529
 2915 24e0 030053E3 		cmp	r3, #3
 2916 24e4 03E0CAE5 		strb	lr, [r10, #3]
 2917 24e8 04108AE2 		add	r1, r10, #4
 2918 24ec 042045E2 		sub	r2, r5, #4
 2919 24f0 0B00000A 		beq	.L529
 2920 24f4 040053E3 		cmp	r3, #4
 2921 24f8 04E0CAE5 		strb	lr, [r10, #4]
 2922 24fc 05108AE2 		add	r1, r10, #5
 2923 2500 052045E2 		sub	r2, r5, #5
 2924 2504 0600000A 		beq	.L529
 2925 2508 060053E3 		cmp	r3, #6
 2926 250c 06108AE2 		add	r1, r10, #6
 2927 2510 062045E2 		sub	r2, r5, #6
 2928 2514 05E0CAE5 		strb	lr, [r10, #5]
 2929 2518 06E0CA05 		strbeq	lr, [r10, #6]
 2930 251c 07108A02 		addeq	r1, r10, #7
 2931 2520 07204502 		subeq	r2, r5, #7
 2932              	.L529:
 2933 2524 0C0053E1 		cmp	r3, ip
 2934 2528 1B00000A 		beq	.L530
 2935              	.L528:
 2936 252c 03C04CE0 		sub	ip, ip, r3
 2937 2530 04E04CE2 		sub	lr, ip, #4
 2938 2534 036040E0 		sub	r6, r0, r3
 2939 2538 2E01A0E1 		lsr	r0, lr, #2
 2940 253c 020056E3 		cmp	r6, #2
 2941 2540 010080E2 		add	r0, r0, #1
 2942 2544 0061A0E1 		lsl	r6, r0, #2
 2943 2548 0B00009A 		bls	.L531
 2944 254c 00E0A0E3 		mov	lr, #0
 2945 2550 013083E2 		add	r3, r3, #1
 2946 2554 03308AE0 		add	r3, r10, r3
 2947              	.L532:
 2948 2558 01E08EE2 		add	lr, lr, #1
 2949 255c 4C829FE5 		ldr	r8, .L691
 2950 2560 0E0050E1 		cmp	r0, lr
 2951 2564 048083E4 		str	r8, [r3], #4
 2952 2568 FAFFFF8A 		bhi	.L532
 2953 256c 0C0056E1 		cmp	r6, ip
 2954 2570 061081E0 		add	r1, r1, r6
 2955 2574 062042E0 		sub	r2, r2, r6
 2956 2578 0700000A 		beq	.L530
 2957              	.L531:
 2958 257c 2030A0E3 		mov	r3, #32
 2959 2580 010042E2 		sub	r0, r2, #1
 2960 2584 000050E3 		cmp	r0, #0
 2961 2588 0030C1E5 		strb	r3, [r1]
 2962 258c 020000DA 		ble	.L530
 2963 2590 020052E3 		cmp	r2, #2
 2964 2594 0130C1E5 		strb	r3, [r1, #1]
ARM GAS  C:\Users\ldebo\AppData\Local\Temp\cc0w9t1b.s 			page 53


 2965 2598 0230C115 		strbne	r3, [r1, #2]
 2966              	.L530:
 2967 259c 05A08AE0 		add	r10, r10, r5
 2968 25a0 0130D4E5 		ldrb	r3, [r4, #1]	@ zero_extendqisi2
 2969 25a4 0460A0E1 		mov	r6, r4
 2970 25a8 56FDFFEA 		b	.L484
 2971              	.L582:
 2972 25ac 0640A0E1 		mov	r4, r6
 2973              	.L505:
 2974 25b0 2530A0E3 		mov	r3, #37
 2975 25b4 0030CAE5 		strb	r3, [r10]
 2976 25b8 0130D4E5 		ldrb	r3, [r4, #1]	@ zero_extendqisi2
 2977 25bc 01A08AE2 		add	r10, r10, #1
 2978 25c0 0460A0E1 		mov	r6, r4
 2979 25c4 4FFDFFEA 		b	.L484
 2980              	.L501:
 2981 25c8 309042E2 		sub	r9, r2, #48
 2982              	.L500:
 2983 25cc FEFFFFEB 		bl	__locale_ctype_ptr
 2984 25d0 0640A0E1 		mov	r4, r6
 2985 25d4 0130D6E4 		ldrb	r3, [r6], #1	@ zero_extendqisi2
 2986 25d8 092189E0 		add	r2, r9, r9, lsl #2
 2987 25dc 030080E0 		add	r0, r0, r3
 2988 25e0 0110D0E5 		ldrb	r1, [r0, #1]	@ zero_extendqisi2
 2989 25e4 822083E0 		add	r2, r3, r2, lsl #1
 2990 25e8 040011E3 		tst	r1, #4
 2991 25ec F5FFFF1A 		bne	.L501
 2992 25f0 C9CFC9E1 		bic	ip, r9, r9, asr #31
 2993 25f4 F2FDFFEA 		b	.L688
 2994              	.L683:
 2995 25f8 005097E5 		ldr	r5, [r7]
 2996 25fc 024086E2 		add	r4, r6, #2
 2997 2600 000055E3 		cmp	r5, #0
 2998 2604 047087E2 		add	r7, r7, #4
 2999 2608 005065B2 		rsblt	r5, r5, #0
 3000 260c 108088B3 		orrlt	r8, r8, #16
 3001 2610 0230D6E5 		ldrb	r3, [r6, #2]	@ zero_extendqisi2
 3002 2614 6EFDFFEA 		b	.L496
 3003              	.L599:
 3004 2618 0B10A0E1 		mov	r1, fp
 3005              	.L675:
 3006 261c 0460A0E1 		mov	r6, r4
 3007 2620 1020A0E3 		mov	r2, #16
 3008              	.L511:
 3009 2624 6C0051E3 		cmp	r1, #108
 3010 2628 3C00000A 		beq	.L689
 3011 262c 680051E3 		cmp	r1, #104
 3012 2630 3D00000A 		beq	.L690
 3013              	.L572:
 3014 2634 001097E5 		ldr	r1, [r7]
 3015 2638 047087E2 		add	r7, r7, #4
 3016              	.L571:
 3017 263c 0530A0E1 		mov	r3, r5
 3018 2640 0A00A0E1 		mov	r0, r10
 3019 2644 04808DE5 		str	r8, [sp, #4]
 3020 2648 00C08DE5 		str	ip, [sp]
 3021 264c 03F7FFEB 		bl	number
ARM GAS  C:\Users\ldebo\AppData\Local\Temp\cc0w9t1b.s 			page 54


 3022 2650 0130D6E5 		ldrb	r3, [r6, #1]	@ zero_extendqisi2
 3023 2654 00A0A0E1 		mov	r10, r0
 3024 2658 2AFDFFEA 		b	.L484
 3025              	.L602:
 3026 265c 0460A0E1 		mov	r6, r4
 3027 2660 0A20A0E3 		mov	r2, #10
 3028 2664 F2FFFFEA 		b	.L572
 3029              	.L603:
 3030 2668 0B10A0E1 		mov	r1, fp
 3031              	.L515:
 3032 266c 208088E3 		orr	r8, r8, #32
 3033 2670 E9FFFFEA 		b	.L675
 3034              	.L601:
 3035 2674 0460A0E1 		mov	r6, r4
 3036 2678 0820A0E3 		mov	r2, #8
 3037 267c ECFFFFEA 		b	.L572
 3038              	.L600:
 3039 2680 0B10A0E1 		mov	r1, fp
 3040              	.L509:
 3041 2684 028088E3 		orr	r8, r8, #2
 3042 2688 0460A0E1 		mov	r6, r4
 3043 268c 0A20A0E3 		mov	r2, #10
 3044 2690 E3FFFFEA 		b	.L511
 3045              	.L598:
 3046 2694 0640A0E1 		mov	r4, r6
 3047              	.L567:
 3048 2698 0C209DE5 		ldr	r2, [sp, #12]
 3049 269c 003097E5 		ldr	r3, [r7]
 3050 26a0 02204AE0 		sub	r2, r10, r2
 3051 26a4 002083E5 		str	r2, [r3]
 3052 26a8 047087E2 		add	r7, r7, #4
 3053 26ac 0130D4E5 		ldrb	r3, [r4, #1]	@ zero_extendqisi2
 3054 26b0 0460A0E1 		mov	r6, r4
 3055 26b4 13FDFFEA 		b	.L484
 3056              	.L585:
 3057 26b8 0640A0E1 		mov	r4, r6
 3058 26bc F0FFFFEA 		b	.L509
 3059              	.L586:
 3060 26c0 0820A0E3 		mov	r2, #8
 3061 26c4 D6FFFFEA 		b	.L511
 3062              	.L589:
 3063 26c8 0640A0E1 		mov	r4, r6
 3064 26cc E6FFFFEA 		b	.L515
 3065              	.L583:
 3066 26d0 0640A0E1 		mov	r4, r6
 3067 26d4 D0FFFFEA 		b	.L675
 3068              	.L514:
 3069 26d8 0A20A0E3 		mov	r2, #10
 3070 26dc D0FFFFEA 		b	.L511
 3071              	.L510:
 3072 26e0 6C0053E3 		cmp	r3, #108
 3073 26e4 EAFFFF1A 		bne	.L598
 3074 26e8 0C209DE5 		ldr	r2, [sp, #12]
 3075 26ec 003097E5 		ldr	r3, [r7]
 3076 26f0 02204AE0 		sub	r2, r10, r2
 3077 26f4 002083E5 		str	r2, [r3]
 3078 26f8 047087E2 		add	r7, r7, #4
ARM GAS  C:\Users\ldebo\AppData\Local\Temp\cc0w9t1b.s 			page 55


 3079 26fc 0230D4E5 		ldrb	r3, [r4, #2]	@ zero_extendqisi2
 3080 2700 00FDFFEA 		b	.L484
 3081              	.L686:
 3082 2704 0130CAE5 		strb	r3, [r10, #1]
 3083 2708 0130D4E5 		ldrb	r3, [r4, #1]	@ zero_extendqisi2
 3084 270c 02A08AE2 		add	r10, r10, #2
 3085 2710 0460A0E1 		mov	r6, r4
 3086 2714 FBFCFFEA 		b	.L484
 3087              	.L597:
 3088 2718 0A10A0E1 		mov	r1, r10
 3089 271c D3FEFFEA 		b	.L558
 3090              	.L689:
 3091 2720 001097E5 		ldr	r1, [r7]
 3092 2724 047087E2 		add	r7, r7, #4
 3093 2728 C3FFFFEA 		b	.L571
 3094              	.L690:
 3095 272c 001097E5 		ldr	r1, [r7]
 3096 2730 020018E3 		tst	r8, #2
 3097 2734 043087E2 		add	r3, r7, #4
 3098 2738 7110FF06 		uxtheq	r1, r1
 3099 273c 7110BF16 		sxthne	r1, r1
 3100 2740 0370A0E1 		mov	r7, r3
 3101 2744 BCFFFFEA 		b	.L571
 3102              	.L594:
 3103 2748 0670A0E1 		mov	r7, r6
 3104 274c 0AE0A0E1 		mov	lr, r10
 3105              	.L674:
 3106 2750 10308DE5 		str	r3, [sp, #16]
 3107 2754 7AFEFFEA 		b	.L548
 3108              	.L577:
 3109 2758 0300A0E1 		mov	r0, r3
 3110 275c 00FEFFEA 		b	.L481
 3111              	.L547:
 3112 2760 01304AE2 		sub	r3, r10, #1
 3113 2764 001086E0 		add	r1, r6, r0
 3114              	.L554:
 3115 2768 0120D6E4 		ldrb	r2, [r6], #1	@ zero_extendqisi2
 3116 276c 010056E1 		cmp	r6, r1
 3117 2770 0120E3E5 		strb	r2, [r3, #1]!
 3118 2774 FBFFFF1A 		bne	.L554
 3119 2778 91FEFFEA 		b	.L555
 3120              	.L591:
 3121 277c 0A10A0E1 		mov	r1, r10
 3122 2780 020045E2 		sub	r0, r5, #2
 3123 2784 18FFFFEA 		b	.L518
 3124              	.L593:
 3125 2788 0AC0A0E1 		mov	ip, r10
 3126 278c 2AFEFFEA 		b	.L538
 3127              	.L687:
 3128 2790 01A0A0E1 		mov	r10, r1
 3129 2794 0130D4E5 		ldrb	r3, [r4, #1]	@ zero_extendqisi2
 3130 2798 0460A0E1 		mov	r6, r4
 3131 279c D9FCFFEA 		b	.L484
 3132              	.L592:
 3133 27a0 0250A0E1 		mov	r5, r2
 3134 27a4 44FEFFEA 		b	.L536
 3135              	.L590:
ARM GAS  C:\Users\ldebo\AppData\Local\Temp\cc0w9t1b.s 			page 56


 3136 27a8 0250A0E1 		mov	r5, r2
 3137 27ac 2EFFFFEA 		b	.L516
 3138              	.L692:
 3139              		.align	2
 3140              	.L691:
 3141 27b0 20202020 		.word	538976288
 3142              		.size	vsprintf, .-vsprintf
 3143              		.align	2
 3144              		.global	sprintf
 3145              		.syntax unified
 3146              		.arm
 3147              		.fpu vfp
 3148              		.type	sprintf, %function
 3149              	sprintf:
 3150              		@ args = 4, pretend = 12, frame = 8
 3151              		@ frame_needed = 0, uses_anonymous_args = 1
 3152 27b4 0E002DE9 		push	{r1, r2, r3}
 3153 27b8 04E02DE5 		str	lr, [sp, #-4]!
 3154 27bc 08D04DE2 		sub	sp, sp, #8
 3155 27c0 10308DE2 		add	r3, sp, #16
 3156 27c4 0320A0E1 		mov	r2, r3
 3157 27c8 0C109DE5 		ldr	r1, [sp, #12]
 3158 27cc 04308DE5 		str	r3, [sp, #4]
 3159 27d0 FEFFFFEB 		bl	vsprintf
 3160 27d4 08D08DE2 		add	sp, sp, #8
 3161              		@ sp needed
 3162 27d8 04E09DE4 		ldr	lr, [sp], #4
 3163 27dc 0CD08DE2 		add	sp, sp, #12
 3164 27e0 1EFF2FE1 		bx	lr
 3165              		.size	sprintf, .-sprintf
 3166              		.align	2
 3167              		.global	printf
 3168              		.syntax unified
 3169              		.arm
 3170              		.fpu vfp
 3171              		.type	printf, %function
 3172              	printf:
 3173              		@ args = 4, pretend = 16, frame = 1032
 3174              		@ frame_needed = 0, uses_anonymous_args = 1
 3175 27e4 0F002DE9 		push	{r0, r1, r2, r3}
 3176 27e8 F0432DE9 		push	{r4, r5, r6, r7, r8, r9, lr}
 3177 27ec 01DB4DE2 		sub	sp, sp, #1024
 3178 27f0 0CD04DE2 		sub	sp, sp, #12
 3179 27f4 423E8DE2 		add	r3, sp, #1056
 3180 27f8 0C3083E2 		add	r3, r3, #12
 3181 27fc 08008DE2 		add	r0, sp, #8
 3182 2800 0320A0E1 		mov	r2, r3
 3183 2804 28149DE5 		ldr	r1, [sp, #1064]
 3184 2808 04308DE5 		str	r3, [sp, #4]
 3185 280c 0050A0E1 		mov	r5, r0
 3186 2810 FEFFFFEB 		bl	vsprintf
 3187 2814 0060A0E3 		mov	r6, #0
 3188 2818 0080A0E1 		mov	r8, r0
 3189 281c 88409FE5 		ldr	r4, .L705
 3190 2820 0C7084E2 		add	r7, r4, #12
 3191              	.L696:
 3192 2824 0130D5E4 		ldrb	r3, [r5], #1	@ zero_extendqisi2
ARM GAS  C:\Users\ldebo\AppData\Local\Temp\cc0w9t1b.s 			page 57


 3193 2828 000053E3 		cmp	r3, #0
 3194 282c 1300000A 		beq	.L704
 3195              	.L701:
 3196 2830 0A0053E3 		cmp	r3, #10
 3197 2834 1700000A 		beq	.L698
 3198 2838 0D0053E3 		cmp	r3, #13
 3199 283c 04608405 		streq	r6, [r4, #4]
 3200 2840 F7FFFF0A 		beq	.L696
 3201 2844 200094E5 		ldr	r0, [r4, #32]
 3202 2848 082094E5 		ldr	r2, [r4, #8]
 3203 284c 24C094E5 		ldr	ip, [r4, #36]
 3204 2850 041094E5 		ldr	r1, [r4, #4]
 3205 2854 9C0202E0 		mul	r2, ip, r2
 3206 2858 900101E0 		mul	r1, r0, r1
 3207 285c 449094E5 		ldr	r9, [r4, #68]
 3208 2860 0700A0E1 		mov	r0, r7
 3209 2864 39FF2FE1 		blx	r9
 3210 2868 043094E5 		ldr	r3, [r4, #4]
 3211 286c 013083E2 		add	r3, r3, #1
 3212 2870 043084E5 		str	r3, [r4, #4]
 3213 2874 0130D5E4 		ldrb	r3, [r5], #1	@ zero_extendqisi2
 3214 2878 000053E3 		cmp	r3, #0
 3215 287c EBFFFF1A 		bne	.L701
 3216              	.L704:
 3217 2880 0800A0E1 		mov	r0, r8
 3218 2884 01DB8DE2 		add	sp, sp, #1024
 3219 2888 0CD08DE2 		add	sp, sp, #12
 3220              		@ sp needed
 3221 288c F043BDE8 		pop	{r4, r5, r6, r7, r8, r9, lr}
 3222 2890 10D08DE2 		add	sp, sp, #16
 3223 2894 1EFF2FE1 		bx	lr
 3224              	.L698:
 3225 2898 083094E5 		ldr	r3, [r4, #8]
 3226 289c 046084E5 		str	r6, [r4, #4]
 3227 28a0 013083E2 		add	r3, r3, #1
 3228 28a4 083084E5 		str	r3, [r4, #8]
 3229 28a8 DDFFFFEA 		b	.L696
 3230              	.L706:
 3231              		.align	2
 3232              	.L705:
 3233 28ac 00000000 		.word	.LANCHOR2
 3234              		.size	printf, .-printf
 3235              		.global	con
 3236              		.global	BitFontEnd
 3237              		.section	.rodata
 3238              		.align	2
 3239              		.set	.LANCHOR0,. + 0
 3240              		.set	.LANCHOR1,. + 8184
 3241              		.type	BitFont, %object
 3242              		.size	BitFont, 4096
 3243              	BitFont:
 3244 0000 00000000 		.word	0
 3245 0004 00000000 		.word	0
 3246 0008 00000000 		.word	0
 3247 000c 00000000 		.word	0
 3248 0010 817E0000 		.word	32385
 3249 0014 BD8181A5 		.word	-1518239299
ARM GAS  C:\Users\ldebo\AppData\Local\Temp\cc0w9t1b.s 			page 58


 3250 0018 7E818199 		.word	-1719565954
 3251 001c 00000000 		.word	0
 3252 0020 FF7E0000 		.word	32511
 3253 0024 C3FFFFDB 		.word	-603979837
 3254 0028 7EFFFFE7 		.word	-402653314
 3255 002c 00000000 		.word	0
 3256 0030 00000000 		.word	0
 3257 0034 FEFEFE6C 		.word	1828650750
 3258 0038 10387CFE 		.word	-25413616
 3259 003c 00000000 		.word	0
 3260 0040 00000000 		.word	0
 3261 0044 FE7C3810 		.word	272137470
 3262 0048 0010387C 		.word	2084048896
 3263 004c 00000000 		.word	0
 3264 0050 18000000 		.word	24
 3265 0054 E7E73C3C 		.word	1010624487
 3266 0058 3C1818E7 		.word	-417851332
 3267 005c 00000000 		.word	0
 3268 0060 18000000 		.word	24
 3269 0064 FFFF7E3C 		.word	1014956031
 3270 0068 3C18187E 		.word	2115508284
 3271 006c 00000000 		.word	0
 3272 0070 00000000 		.word	0
 3273 0074 3C180000 		.word	6204
 3274 0078 0000183C 		.word	1008205824
 3275 007c 00000000 		.word	0
 3276 0080 FFFFFFFF 		.word	-1
 3277 0084 C3E7FFFF 		.word	-6205
 3278 0088 FFFFE7C3 		.word	-1008205825
 3279 008c FFFFFFFF 		.word	-1
 3280 0090 00000000 		.word	0
 3281 0094 42663C00 		.word	3958338
 3282 0098 003C6642 		.word	1113996288
 3283 009c 00000000 		.word	0
 3284 00a0 FFFFFFFF 		.word	-1
 3285 00a4 BD99C3FF 		.word	-3958339
 3286 00a8 FFC399BD 		.word	-1113996289
 3287 00ac FFFFFFFF 		.word	-1
 3288 00b0 0E1E0000 		.word	7694
 3289 00b4 CC78321A 		.word	439515340
 3290 00b8 78CCCCCC 		.word	-858993544
 3291 00bc 00000000 		.word	0
 3292 00c0 663C0000 		.word	15462
 3293 00c4 3C666666 		.word	1717986876
 3294 00c8 18187E18 		.word	410916888
 3295 00cc 00000000 		.word	0
 3296 00d0 333F0000 		.word	16179
 3297 00d4 3030303F 		.word	1060122672
 3298 00d8 E0F07030 		.word	812708064
 3299 00dc 00000000 		.word	0
 3300 00e0 637F0000 		.word	32611
 3301 00e4 6363637F 		.word	2137219939
 3302 00e8 E6E76763 		.word	1667753958
 3303 00ec 000000C0 		.word	-1073741824
 3304 00f0 18000000 		.word	24
 3305 00f4 E73CDB18 		.word	417021159
 3306 00f8 1818DB3C 		.word	1020991512
ARM GAS  C:\Users\ldebo\AppData\Local\Temp\cc0w9t1b.s 			page 59


 3307 00fc 00000000 		.word	0
 3308 0100 E0C08000 		.word	8437984
 3309 0104 F8FEF8F0 		.word	-252117256
 3310 0108 80C0E0F0 		.word	-253706112
 3311 010c 00000000 		.word	0
 3312 0110 0E060200 		.word	132622
 3313 0114 3EFE3E1E 		.word	507444798
 3314 0118 02060E1E 		.word	504235522
 3315 011c 00000000 		.word	0
 3316 0120 3C180000 		.word	6204
 3317 0124 1818187E 		.word	2115508248
 3318 0128 00183C7E 		.word	2117867520
 3319 012c 00000000 		.word	0
 3320 0130 66660000 		.word	26214
 3321 0134 66666666 		.word	1717986918
 3322 0138 66660066 		.word	1711302246
 3323 013c 00000000 		.word	0
 3324 0140 DB7F0000 		.word	32731
 3325 0144 1B7BDBDB 		.word	-606373093
 3326 0148 1B1B1B1B 		.word	454761243
 3327 014c 00000000 		.word	0
 3328 0150 60C67C00 		.word	8177248
 3329 0154 C6C66C38 		.word	946652870
 3330 0158 C60C386C 		.word	1815612614
 3331 015c 0000007C 		.word	2080374784
 3332 0160 00000000 		.word	0
 3333 0164 00000000 		.word	0
 3334 0168 FEFEFEFE 		.word	-16843010
 3335 016c 00000000 		.word	0
 3336 0170 3C180000 		.word	6204
 3337 0174 1818187E 		.word	2115508248
 3338 0178 7E183C7E 		.word	2117867646
 3339 017c 00000000 		.word	0
 3340 0180 3C180000 		.word	6204
 3341 0184 1818187E 		.word	2115508248
 3342 0188 18181818 		.word	404232216
 3343 018c 00000000 		.word	0
 3344 0190 18180000 		.word	6168
 3345 0194 18181818 		.word	404232216
 3346 0198 183C7E18 		.word	410926104
 3347 019c 00000000 		.word	0
 3348 01a0 00000000 		.word	0
 3349 01a4 FE0C1800 		.word	1576190
 3350 01a8 0000180C 		.word	202899456
 3351 01ac 00000000 		.word	0
 3352 01b0 00000000 		.word	0
 3353 01b4 FE603000 		.word	3170558
 3354 01b8 00003060 		.word	1613758464
 3355 01bc 00000000 		.word	0
 3356 01c0 00000000 		.word	0
 3357 01c4 C0C00000 		.word	49344
 3358 01c8 0000FEC0 		.word	-1057095680
 3359 01cc 00000000 		.word	0
 3360 01d0 00000000 		.word	0
 3361 01d4 FE6C2800 		.word	2649342
 3362 01d8 0000286C 		.word	1814560768
 3363 01dc 00000000 		.word	0
ARM GAS  C:\Users\ldebo\AppData\Local\Temp\cc0w9t1b.s 			page 60


 3364 01e0 00000000 		.word	0
 3365 01e4 7C383810 		.word	272119932
 3366 01e8 00FEFE7C 		.word	2097085952
 3367 01ec 00000000 		.word	0
 3368 01f0 00000000 		.word	0
 3369 01f4 7C7CFEFE 		.word	-16876420
 3370 01f8 00103838 		.word	943198208
 3371 01fc 00000000 		.word	0
 3372 0200 00000000 		.word	0
 3373 0204 00000000 		.word	0
 3374 0208 00000000 		.word	0
 3375 020c 00000000 		.word	0
 3376 0210 3C180000 		.word	6204
 3377 0214 18183C3C 		.word	1010571288
 3378 0218 18180018 		.word	402659352
 3379 021c 00000000 		.word	0
 3380 0220 66666600 		.word	6710886
 3381 0224 00000024 		.word	603979776
 3382 0228 00000000 		.word	0
 3383 022c 00000000 		.word	0
 3384 0230 6C000000 		.word	108
 3385 0234 6C6CFE6C 		.word	1828613228
 3386 0238 6C6CFE6C 		.word	1828613228
 3387 023c 00000000 		.word	0
 3388 0240 C67C1818 		.word	404257990
 3389 0244 067CC0C2 		.word	-1027572730
 3390 0248 7CC68606 		.word	109495932
 3391 024c 00001818 		.word	404226048
 3392 0250 00000000 		.word	0
 3393 0254 180CC6C2 		.word	-1027208168
 3394 0258 86C66030 		.word	811648646
 3395 025c 00000000 		.word	0
 3396 0260 6C380000 		.word	14444
 3397 0264 DC76386C 		.word	1815639772
 3398 0268 76CCCCCC 		.word	-858993546
 3399 026c 00000000 		.word	0
 3400 0270 30303000 		.word	3158064
 3401 0274 00000060 		.word	1610612736
 3402 0278 00000000 		.word	0
 3403 027c 00000000 		.word	0
 3404 0280 180C0000 		.word	3096
 3405 0284 30303030 		.word	808464432
 3406 0288 0C183030 		.word	808458252
 3407 028c 00000000 		.word	0
 3408 0290 18300000 		.word	12312
 3409 0294 0C0C0C0C 		.word	202116108
 3410 0298 30180C0C 		.word	202119216
 3411 029c 00000000 		.word	0
 3412 02a0 00000000 		.word	0
 3413 02a4 FF3C6600 		.word	6700287
 3414 02a8 0000663C 		.word	1013317632
 3415 02ac 00000000 		.word	0
 3416 02b0 00000000 		.word	0
 3417 02b4 7E181800 		.word	1579134
 3418 02b8 00001818 		.word	404226048
 3419 02bc 00000000 		.word	0
 3420 02c0 00000000 		.word	0
ARM GAS  C:\Users\ldebo\AppData\Local\Temp\cc0w9t1b.s 			page 61


 3421 02c4 00000000 		.word	0
 3422 02c8 18181800 		.word	1579032
 3423 02cc 00000030 		.word	805306368
 3424 02d0 00000000 		.word	0
 3425 02d4 FE000000 		.word	254
 3426 02d8 00000000 		.word	0
 3427 02dc 00000000 		.word	0
 3428 02e0 00000000 		.word	0
 3429 02e4 00000000 		.word	0
 3430 02e8 18180000 		.word	6168
 3431 02ec 00000000 		.word	0
 3432 02f0 00000000 		.word	0
 3433 02f4 180C0602 		.word	33950744
 3434 02f8 80C06030 		.word	811647104
 3435 02fc 00000000 		.word	0
 3436 0300 6C380000 		.word	14444
 3437 0304 D6D6C6C6 		.word	-960047402
 3438 0308 386CC6C6 		.word	-960074696
 3439 030c 00000000 		.word	0
 3440 0310 38180000 		.word	6200
 3441 0314 18181878 		.word	2014844952
 3442 0318 7E181818 		.word	404232318
 3443 031c 00000000 		.word	0
 3444 0320 C67C0000 		.word	31942
 3445 0324 30180C06 		.word	101455920
 3446 0328 FEC6C060 		.word	1623246590
 3447 032c 00000000 		.word	0
 3448 0330 C67C0000 		.word	31942
 3449 0334 063C0606 		.word	101071878
 3450 0338 7CC60606 		.word	101107324
 3451 033c 00000000 		.word	0
 3452 0340 1C0C0000 		.word	3100
 3453 0344 FECC6C3C 		.word	1013763326
 3454 0348 1E0C0C0C 		.word	202116126
 3455 034c 00000000 		.word	0
 3456 0350 C0FE0000 		.word	65216
 3457 0354 06FCC0C0 		.word	-1061094394
 3458 0358 7CC60606 		.word	101107324
 3459 035c 00000000 		.word	0
 3460 0360 60380000 		.word	14432
 3461 0364 C6FCC0C0 		.word	-1061094202
 3462 0368 7CC6C6C6 		.word	-960051588
 3463 036c 00000000 		.word	0
 3464 0370 C6FE0000 		.word	65222
 3465 0374 180C0606 		.word	101059608
 3466 0378 30303030 		.word	808464432
 3467 037c 00000000 		.word	0
 3468 0380 C67C0000 		.word	31942
 3469 0384 C67CC6C6 		.word	-960070458
 3470 0388 7CC6C6C6 		.word	-960051588
 3471 038c 00000000 		.word	0
 3472 0390 C67C0000 		.word	31942
 3473 0394 067EC6C6 		.word	-960070138
 3474 0398 780C0606 		.word	101059704
 3475 039c 00000000 		.word	0
 3476 03a0 00000000 		.word	0
 3477 03a4 00001818 		.word	404226048
ARM GAS  C:\Users\ldebo\AppData\Local\Temp\cc0w9t1b.s 			page 62


 3478 03a8 00181800 		.word	1579008
 3479 03ac 00000000 		.word	0
 3480 03b0 00000000 		.word	0
 3481 03b4 00001818 		.word	404226048
 3482 03b8 30181800 		.word	1579056
 3483 03bc 00000000 		.word	0
 3484 03c0 06000000 		.word	6
 3485 03c4 6030180C 		.word	202911840
 3486 03c8 060C1830 		.word	806882310
 3487 03cc 00000000 		.word	0
 3488 03d0 00000000 		.word	0
 3489 03d4 00007E00 		.word	8257536
 3490 03d8 0000007E 		.word	2113929216
 3491 03dc 00000000 		.word	0
 3492 03e0 60000000 		.word	96
 3493 03e4 060C1830 		.word	806882310
 3494 03e8 6030180C 		.word	202911840
 3495 03ec 00000000 		.word	0
 3496 03f0 C67C0000 		.word	31942
 3497 03f4 18180CC6 		.word	-972285928
 3498 03f8 18180018 		.word	402659352
 3499 03fc 00000000 		.word	0
 3500 0400 7C000000 		.word	124
 3501 0404 DEDEC6C6 		.word	-960045346
 3502 0408 7CC0DCDE 		.word	-555958148
 3503 040c 00000000 		.word	0
 3504 0410 38100000 		.word	4152
 3505 0414 FEC6C66C 		.word	1824966398
 3506 0418 C6C6C6C6 		.word	-960051514
 3507 041c 00000000 		.word	0
 3508 0420 66FC0000 		.word	64614
 3509 0424 667C6666 		.word	1717992550
 3510 0428 FC666666 		.word	1717987068
 3511 042c 00000000 		.word	0
 3512 0430 663C0000 		.word	15462
 3513 0434 C0C0C0C2 		.word	-1027555136
 3514 0438 3C66C2C0 		.word	-1061001668
 3515 043c 00000000 		.word	0
 3516 0440 6CF80000 		.word	63596
 3517 0444 66666666 		.word	1717986918
 3518 0448 F86C6666 		.word	1717988600
 3519 044c 00000000 		.word	0
 3520 0450 66FE0000 		.word	65126
 3521 0454 68786862 		.word	1651013736
 3522 0458 FE666260 		.word	1617061630
 3523 045c 00000000 		.word	0
 3524 0460 66FE0000 		.word	65126
 3525 0464 68786862 		.word	1651013736
 3526 0468 F0606060 		.word	1616929008
 3527 046c 00000000 		.word	0
 3528 0470 663C0000 		.word	15462
 3529 0474 DEC0C0C2 		.word	-1027555106
 3530 0478 3A66C6C6 		.word	-960076230
 3531 047c 00000000 		.word	0
 3532 0480 C6C60000 		.word	50886
 3533 0484 C6FEC6C6 		.word	-960037178
 3534 0488 C6C6C6C6 		.word	-960051514
ARM GAS  C:\Users\ldebo\AppData\Local\Temp\cc0w9t1b.s 			page 63


 3535 048c 00000000 		.word	0
 3536 0490 183C0000 		.word	15384
 3537 0494 18181818 		.word	404232216
 3538 0498 3C181818 		.word	404232252
 3539 049c 00000000 		.word	0
 3540 04a0 0C1E0000 		.word	7692
 3541 04a4 0C0C0C0C 		.word	202116108
 3542 04a8 78CCCCCC 		.word	-858993544
 3543 04ac 00000000 		.word	0
 3544 04b0 66E60000 		.word	58982
 3545 04b4 78786C66 		.word	1718384760
 3546 04b8 E666666C 		.word	1818650342
 3547 04bc 00000000 		.word	0
 3548 04c0 60F00000 		.word	61536
 3549 04c4 60606060 		.word	1616928864
 3550 04c8 FE666260 		.word	1617061630
 3551 04cc 00000000 		.word	0
 3552 04d0 EEC60000 		.word	50926
 3553 04d4 C6D6FEFE 		.word	-16853306
 3554 04d8 C6C6C6C6 		.word	-960051514
 3555 04dc 00000000 		.word	0
 3556 04e0 E6C60000 		.word	50918
 3557 04e4 CEDEFEF6 		.word	-151068978
 3558 04e8 C6C6C6C6 		.word	-960051514
 3559 04ec 00000000 		.word	0
 3560 04f0 C67C0000 		.word	31942
 3561 04f4 C6C6C6C6 		.word	-960051514
 3562 04f8 7CC6C6C6 		.word	-960051588
 3563 04fc 00000000 		.word	0
 3564 0500 66FC0000 		.word	64614
 3565 0504 607C6666 		.word	1717992544
 3566 0508 F0606060 		.word	1616929008
 3567 050c 00000000 		.word	0
 3568 0510 C67C0000 		.word	31942
 3569 0514 C6C6C6C6 		.word	-960051514
 3570 0518 7CDED6C6 		.word	-958996868
 3571 051c 00000E0C 		.word	202244096
 3572 0520 66FC0000 		.word	64614
 3573 0524 6C7C6666 		.word	1717992556
 3574 0528 E6666666 		.word	1717987046
 3575 052c 00000000 		.word	0
 3576 0530 C67C0000 		.word	31942
 3577 0534 0C3860C6 		.word	-966772724
 3578 0538 7CC6C606 		.word	113690236
 3579 053c 00000000 		.word	0
 3580 0540 7E7E0000 		.word	32382
 3581 0544 1818185A 		.word	1511528472
 3582 0548 3C181818 		.word	404232252
 3583 054c 00000000 		.word	0
 3584 0550 C6C60000 		.word	50886
 3585 0554 C6C6C6C6 		.word	-960051514
 3586 0558 7CC6C6C6 		.word	-960051588
 3587 055c 00000000 		.word	0
 3588 0560 C6C60000 		.word	50886
 3589 0564 C6C6C6C6 		.word	-960051514
 3590 0568 10386CC6 		.word	-965986288
 3591 056c 00000000 		.word	0
ARM GAS  C:\Users\ldebo\AppData\Local\Temp\cc0w9t1b.s 			page 64


 3592 0570 C6C60000 		.word	50886
 3593 0574 D6D6C6C6 		.word	-960047402
 3594 0578 6CEEFED6 		.word	-687935892
 3595 057c 00000000 		.word	0
 3596 0580 C6C60000 		.word	50886
 3597 0584 38387C6C 		.word	1820080184
 3598 0588 C6C66C7C 		.word	2087503558
 3599 058c 00000000 		.word	0
 3600 0590 66660000 		.word	26214
 3601 0594 183C6666 		.word	1717976088
 3602 0598 3C181818 		.word	404232252
 3603 059c 00000000 		.word	0
 3604 05a0 C6FE0000 		.word	65222
 3605 05a4 30180C86 		.word	-2046027728
 3606 05a8 FEC6C260 		.word	1623377662
 3607 05ac 00000000 		.word	0
 3608 05b0 303C0000 		.word	15408
 3609 05b4 30303030 		.word	808464432
 3610 05b8 3C303030 		.word	808464444
 3611 05bc 00000000 		.word	0
 3612 05c0 80000000 		.word	128
 3613 05c4 3870E0C0 		.word	-1059033032
 3614 05c8 02060E1C 		.word	470681090
 3615 05cc 00000000 		.word	0
 3616 05d0 0C3C0000 		.word	15372
 3617 05d4 0C0C0C0C 		.word	202116108
 3618 05d8 3C0C0C0C 		.word	202116156
 3619 05dc 00000000 		.word	0
 3620 05e0 C66C3810 		.word	272133318
 3621 05e4 00000000 		.word	0
 3622 05e8 00000000 		.word	0
 3623 05ec 00000000 		.word	0
 3624 05f0 00000000 		.word	0
 3625 05f4 00000000 		.word	0
 3626 05f8 00000000 		.word	0
 3627 05fc 0000FF00 		.word	16711680
 3628 0600 00183030 		.word	808458240
 3629 0604 00000000 		.word	0
 3630 0608 00000000 		.word	0
 3631 060c 00000000 		.word	0
 3632 0610 00000000 		.word	0
 3633 0614 7C0C7800 		.word	7867516
 3634 0618 76CCCCCC 		.word	-858993546
 3635 061c 00000000 		.word	0
 3636 0620 60E00000 		.word	57440
 3637 0624 666C7860 		.word	1618504806
 3638 0628 7C666666 		.word	1717986940
 3639 062c 00000000 		.word	0
 3640 0630 00000000 		.word	0
 3641 0634 C0C67C00 		.word	8177344
 3642 0638 7CC6C0C0 		.word	-1061108100
 3643 063c 00000000 		.word	0
 3644 0640 0C1C0000 		.word	7180
 3645 0644 CC6C3C0C 		.word	205286604
 3646 0648 76CCCCCC 		.word	-858993546
 3647 064c 00000000 		.word	0
 3648 0650 00000000 		.word	0
ARM GAS  C:\Users\ldebo\AppData\Local\Temp\cc0w9t1b.s 			page 65


 3649 0654 FEC67C00 		.word	8177406
 3650 0658 7CC6C0C0 		.word	-1061108100
 3651 065c 00000000 		.word	0
 3652 0660 6C380000 		.word	14444
 3653 0664 60F06064 		.word	1684074592
 3654 0668 F0606060 		.word	1616929008
 3655 066c 00000000 		.word	0
 3656 0670 00000000 		.word	0
 3657 0674 CCCC7600 		.word	7785676
 3658 0678 7CCCCCCC 		.word	-858993540
 3659 067c 0078CC0C 		.word	214726656
 3660 0680 60E00000 		.word	57440
 3661 0684 66766C60 		.word	1617720934
 3662 0688 E6666666 		.word	1717987046
 3663 068c 00000000 		.word	0
 3664 0690 18180000 		.word	6168
 3665 0694 18183800 		.word	3676184
 3666 0698 3C181818 		.word	404232252
 3667 069c 00000000 		.word	0
 3668 06a0 06060000 		.word	1542
 3669 06a4 06060E00 		.word	919046
 3670 06a8 06060606 		.word	101058054
 3671 06ac 003C6666 		.word	1717976064
 3672 06b0 60E00000 		.word	57440
 3673 06b4 786C6660 		.word	1617325176
 3674 06b8 E6666C78 		.word	2020370150
 3675 06bc 00000000 		.word	0
 3676 06c0 18380000 		.word	14360
 3677 06c4 18181818 		.word	404232216
 3678 06c8 3C181818 		.word	404232252
 3679 06cc 00000000 		.word	0
 3680 06d0 00000000 		.word	0
 3681 06d4 D6FEEC00 		.word	15531734
 3682 06d8 C6D6D6D6 		.word	-690563386
 3683 06dc 00000000 		.word	0
 3684 06e0 00000000 		.word	0
 3685 06e4 6666DC00 		.word	14444134
 3686 06e8 66666666 		.word	1717986918
 3687 06ec 00000000 		.word	0
 3688 06f0 00000000 		.word	0
 3689 06f4 C6C67C00 		.word	8177350
 3690 06f8 7CC6C6C6 		.word	-960051588
 3691 06fc 00000000 		.word	0
 3692 0700 00000000 		.word	0
 3693 0704 6666DC00 		.word	14444134
 3694 0708 7C666666 		.word	1717986940
 3695 070c 00F06060 		.word	1616965632
 3696 0710 00000000 		.word	0
 3697 0714 CCCC7600 		.word	7785676
 3698 0718 7CCCCCCC 		.word	-858993540
 3699 071c 001E0C0C 		.word	202120704
 3700 0720 00000000 		.word	0
 3701 0724 6676DC00 		.word	14448230
 3702 0728 F0606060 		.word	1616929008
 3703 072c 00000000 		.word	0
 3704 0730 00000000 		.word	0
 3705 0734 60C67C00 		.word	8177248
ARM GAS  C:\Users\ldebo\AppData\Local\Temp\cc0w9t1b.s 			page 66


 3706 0738 7CC60C38 		.word	940361340
 3707 073c 00000000 		.word	0
 3708 0740 30100000 		.word	4144
 3709 0744 3030FC30 		.word	821833776
 3710 0748 1C363030 		.word	808465948
 3711 074c 00000000 		.word	0
 3712 0750 00000000 		.word	0
 3713 0754 CCCCCC00 		.word	13421772
 3714 0758 76CCCCCC 		.word	-858993546
 3715 075c 00000000 		.word	0
 3716 0760 00000000 		.word	0
 3717 0764 66666600 		.word	6710886
 3718 0768 183C6666 		.word	1717976088
 3719 076c 00000000 		.word	0
 3720 0770 00000000 		.word	0
 3721 0774 D6C6C600 		.word	13027030
 3722 0778 6CFED6D6 		.word	-690553236
 3723 077c 00000000 		.word	0
 3724 0780 00000000 		.word	0
 3725 0784 386CC600 		.word	13003832
 3726 0788 C66C3838 		.word	943221958
 3727 078c 00000000 		.word	0
 3728 0790 00000000 		.word	0
 3729 0794 C6C6C600 		.word	13027014
 3730 0798 7EC6C6C6 		.word	-960051586
 3731 079c 00F80C06 		.word	101513216
 3732 07a0 00000000 		.word	0
 3733 07a4 18CCFE00 		.word	16698392
 3734 07a8 FEC66030 		.word	811648766
 3735 07ac 00000000 		.word	0
 3736 07b0 180E0000 		.word	3608
 3737 07b4 18701818 		.word	404254744
 3738 07b8 0E181818 		.word	404232206
 3739 07bc 00000000 		.word	0
 3740 07c0 18180000 		.word	6168
 3741 07c4 18001818 		.word	404226072
 3742 07c8 18181818 		.word	404232216
 3743 07cc 00000000 		.word	0
 3744 07d0 18700000 		.word	28696
 3745 07d4 180E1818 		.word	404229656
 3746 07d8 70181818 		.word	404232304
 3747 07dc 00000000 		.word	0
 3748 07e0 DC760000 		.word	30428
 3749 07e4 00000000 		.word	0
 3750 07e8 00000000 		.word	0
 3751 07ec 00000000 		.word	0
 3752 07f0 00000000 		.word	0
 3753 07f4 C66C3810 		.word	272133318
 3754 07f8 00FEC6C6 		.word	-960037376
 3755 07fc 00000000 		.word	0
 3756 0800 663C0000 		.word	15462
 3757 0804 C0C0C0C2 		.word	-1027555136
 3758 0808 0C3C66C2 		.word	-1033487348
 3759 080c 00007C06 		.word	108789760
 3760 0810 00CC0000 		.word	52224
 3761 0814 CCCCCC00 		.word	13421772
 3762 0818 76CCCCCC 		.word	-858993546
ARM GAS  C:\Users\ldebo\AppData\Local\Temp\cc0w9t1b.s 			page 67


 3763 081c 00000000 		.word	0
 3764 0820 30180C00 		.word	792624
 3765 0824 FEC67C00 		.word	8177406
 3766 0828 7CC6C0C0 		.word	-1061108100
 3767 082c 00000000 		.word	0
 3768 0830 6C381000 		.word	1063020
 3769 0834 7C0C7800 		.word	7867516
 3770 0838 76CCCCCC 		.word	-858993546
 3771 083c 00000000 		.word	0
 3772 0840 00CC0000 		.word	52224
 3773 0844 7C0C7800 		.word	7867516
 3774 0848 76CCCCCC 		.word	-858993546
 3775 084c 00000000 		.word	0
 3776 0850 18306000 		.word	6303768
 3777 0854 7C0C7800 		.word	7867516
 3778 0858 76CCCCCC 		.word	-858993546
 3779 085c 00000000 		.word	0
 3780 0860 386C3800 		.word	3697720
 3781 0864 7C0C7800 		.word	7867516
 3782 0868 76CCCCCC 		.word	-858993546
 3783 086c 00000000 		.word	0
 3784 0870 00000000 		.word	0
 3785 0874 6060663C 		.word	1013342304
 3786 0878 060C3C66 		.word	1715211270
 3787 087c 0000003C 		.word	1006632960
 3788 0880 6C381000 		.word	1063020
 3789 0884 FEC67C00 		.word	8177406
 3790 0888 7CC6C0C0 		.word	-1061108100
 3791 088c 00000000 		.word	0
 3792 0890 00C60000 		.word	50688
 3793 0894 FEC67C00 		.word	8177406
 3794 0898 7CC6C0C0 		.word	-1061108100
 3795 089c 00000000 		.word	0
 3796 08a0 18306000 		.word	6303768
 3797 08a4 FEC67C00 		.word	8177406
 3798 08a8 7CC6C0C0 		.word	-1061108100
 3799 08ac 00000000 		.word	0
 3800 08b0 00660000 		.word	26112
 3801 08b4 18183800 		.word	3676184
 3802 08b8 3C181818 		.word	404232252
 3803 08bc 00000000 		.word	0
 3804 08c0 663C1800 		.word	1588326
 3805 08c4 18183800 		.word	3676184
 3806 08c8 3C181818 		.word	404232252
 3807 08cc 00000000 		.word	0
 3808 08d0 18306000 		.word	6303768
 3809 08d4 18183800 		.word	3676184
 3810 08d8 3C181818 		.word	404232252
 3811 08dc 00000000 		.word	0
 3812 08e0 1000C600 		.word	12976144
 3813 08e4 C6C66C38 		.word	946652870
 3814 08e8 C6C6C6FE 		.word	-20527418
 3815 08ec 00000000 		.word	0
 3816 08f0 00386C38 		.word	946616320
 3817 08f4 C6C66C38 		.word	946652870
 3818 08f8 C6C6C6FE 		.word	-20527418
 3819 08fc 00000000 		.word	0
ARM GAS  C:\Users\ldebo\AppData\Local\Temp\cc0w9t1b.s 			page 68


 3820 0900 00603018 		.word	405823488
 3821 0904 7C6066FE 		.word	-26845060
 3822 0908 FE666060 		.word	1616930558
 3823 090c 00000000 		.word	0
 3824 0910 00000000 		.word	0
 3825 0914 3676CC00 		.word	13399606
 3826 0918 6ED8D87E 		.word	2128140398
 3827 091c 00000000 		.word	0
 3828 0920 6C3E0000 		.word	15980
 3829 0924 CCFECCCC 		.word	-858980660
 3830 0928 CECCCCCC 		.word	-858993458
 3831 092c 00000000 		.word	0
 3832 0930 6C381000 		.word	1063020
 3833 0934 C6C67C00 		.word	8177350
 3834 0938 7CC6C6C6 		.word	-960051588
 3835 093c 00000000 		.word	0
 3836 0940 00C60000 		.word	50688
 3837 0944 C6C67C00 		.word	8177350
 3838 0948 7CC6C6C6 		.word	-960051588
 3839 094c 00000000 		.word	0
 3840 0950 18306000 		.word	6303768
 3841 0954 C6C67C00 		.word	8177350
 3842 0958 7CC6C6C6 		.word	-960051588
 3843 095c 00000000 		.word	0
 3844 0960 CC783000 		.word	3176652
 3845 0964 CCCCCC00 		.word	13421772
 3846 0968 76CCCCCC 		.word	-858993546
 3847 096c 00000000 		.word	0
 3848 0970 18306000 		.word	6303768
 3849 0974 CCCCCC00 		.word	13421772
 3850 0978 76CCCCCC 		.word	-858993546
 3851 097c 00000000 		.word	0
 3852 0980 00C60000 		.word	50688
 3853 0984 C6C6C600 		.word	13027014
 3854 0988 7EC6C6C6 		.word	-960051586
 3855 098c 00780C06 		.word	101480448
 3856 0990 7C00C600 		.word	12976252
 3857 0994 C6C6C6C6 		.word	-960051514
 3858 0998 7CC6C6C6 		.word	-960051588
 3859 099c 00000000 		.word	0
 3860 09a0 C600C600 		.word	12976326
 3861 09a4 C6C6C6C6 		.word	-960051514
 3862 09a8 7CC6C6C6 		.word	-960051588
 3863 09ac 00000000 		.word	0
 3864 09b0 3C181800 		.word	1579068
 3865 09b4 60606066 		.word	1717592160
 3866 09b8 18183C66 		.word	1715214360
 3867 09bc 00000000 		.word	0
 3868 09c0 646C3800 		.word	3697764
 3869 09c4 6060F060 		.word	1626366048
 3870 09c8 FCE66060 		.word	1616963324
 3871 09cc 00000000 		.word	0
 3872 09d0 66660000 		.word	26214
 3873 09d4 187E183C 		.word	1008238104
 3874 09d8 1818187E 		.word	2115508248
 3875 09dc 00000000 		.word	0
 3876 09e0 CCCCF800 		.word	16305356
ARM GAS  C:\Users\ldebo\AppData\Local\Temp\cc0w9t1b.s 			page 69


 3877 09e4 DECCC4F8 		.word	-121320226
 3878 09e8 C6CCCCCC 		.word	-858993466
 3879 09ec 00000000 		.word	0
 3880 09f0 181B0E00 		.word	924440
 3881 09f4 187E1818 		.word	404258328
 3882 09f8 18181818 		.word	404232216
 3883 09fc 000070D8 		.word	-663748608
 3884 0a00 60301800 		.word	1585248
 3885 0a04 7C0C7800 		.word	7867516
 3886 0a08 76CCCCCC 		.word	-858993546
 3887 0a0c 00000000 		.word	0
 3888 0a10 30180C00 		.word	792624
 3889 0a14 18183800 		.word	3676184
 3890 0a18 3C181818 		.word	404232252
 3891 0a1c 00000000 		.word	0
 3892 0a20 60301800 		.word	1585248
 3893 0a24 C6C67C00 		.word	8177350
 3894 0a28 7CC6C6C6 		.word	-960051588
 3895 0a2c 00000000 		.word	0
 3896 0a30 60301800 		.word	1585248
 3897 0a34 CCCCCC00 		.word	13421772
 3898 0a38 76CCCCCC 		.word	-858993546
 3899 0a3c 00000000 		.word	0
 3900 0a40 DC760000 		.word	30428
 3901 0a44 6666DC00 		.word	14444134
 3902 0a48 66666666 		.word	1717986918
 3903 0a4c 00000000 		.word	0
 3904 0a50 C600DC76 		.word	1994129606
 3905 0a54 DEFEF6E6 		.word	-420020514
 3906 0a58 C6C6C6CE 		.word	-825833786
 3907 0a5c 00000000 		.word	0
 3908 0a60 6C6C3C00 		.word	3959916
 3909 0a64 007E003E 		.word	1040219648
 3910 0a68 00000000 		.word	0
 3911 0a6c 00000000 		.word	0
 3912 0a70 6C6C3800 		.word	3697772
 3913 0a74 007C0038 		.word	939555840
 3914 0a78 00000000 		.word	0
 3915 0a7c 00000000 		.word	0
 3916 0a80 30300000 		.word	12336
 3917 0a84 60303000 		.word	3158112
 3918 0a88 7CC6C6C0 		.word	-1060714884
 3919 0a8c 00000000 		.word	0
 3920 0a90 00000000 		.word	0
 3921 0a94 C0FE0000 		.word	65216
 3922 0a98 00C0C0C0 		.word	-1061109760
 3923 0a9c 00000000 		.word	0
 3924 0aa0 00000000 		.word	0
 3925 0aa4 06FE0000 		.word	65030
 3926 0aa8 00060606 		.word	101058048
 3927 0aac 00000000 		.word	0
 3928 0ab0 C2C0C000 		.word	12632258
 3929 0ab4 3018CCC6 		.word	-959702992
 3930 0ab8 0C86DC60 		.word	1625064972
 3931 0abc 00003E18 		.word	406716416
 3932 0ac0 C2C0C000 		.word	12632258
 3933 0ac4 3018CCC6 		.word	-959702992
ARM GAS  C:\Users\ldebo\AppData\Local\Temp\cc0w9t1b.s 			page 70


 3934 0ac8 3E9ECE66 		.word	1724816958
 3935 0acc 00000606 		.word	101056512
 3936 0ad0 18180000 		.word	6168
 3937 0ad4 18181800 		.word	1579032
 3938 0ad8 183C3C3C 		.word	1010580504
 3939 0adc 00000000 		.word	0
 3940 0ae0 00000000 		.word	0
 3941 0ae4 D86C3600 		.word	3566808
 3942 0ae8 0000366C 		.word	1815478272
 3943 0aec 00000000 		.word	0
 3944 0af0 00000000 		.word	0
 3945 0af4 366CD800 		.word	14183478
 3946 0af8 0000D86C 		.word	1826095104
 3947 0afc 00000000 		.word	0
 3948 0b00 44114411 		.word	289673540
 3949 0b04 44114411 		.word	289673540
 3950 0b08 44114411 		.word	289673540
 3951 0b0c 44114411 		.word	289673540
 3952 0b10 AA55AA55 		.word	1437226410
 3953 0b14 AA55AA55 		.word	1437226410
 3954 0b18 AA55AA55 		.word	1437226410
 3955 0b1c AA55AA55 		.word	1437226410
 3956 0b20 77DD77DD 		.word	-579347081
 3957 0b24 77DD77DD 		.word	-579347081
 3958 0b28 77DD77DD 		.word	-579347081
 3959 0b2c 77DD77DD 		.word	-579347081
 3960 0b30 18181818 		.word	404232216
 3961 0b34 18181818 		.word	404232216
 3962 0b38 18181818 		.word	404232216
 3963 0b3c 18181818 		.word	404232216
 3964 0b40 18181818 		.word	404232216
 3965 0b44 F8181818 		.word	404232440
 3966 0b48 18181818 		.word	404232216
 3967 0b4c 18181818 		.word	404232216
 3968 0b50 18181818 		.word	404232216
 3969 0b54 F818F818 		.word	418912504
 3970 0b58 18181818 		.word	404232216
 3971 0b5c 18181818 		.word	404232216
 3972 0b60 36363636 		.word	909522486
 3973 0b64 F6363636 		.word	909522678
 3974 0b68 36363636 		.word	909522486
 3975 0b6c 36363636 		.word	909522486
 3976 0b70 00000000 		.word	0
 3977 0b74 FE000000 		.word	254
 3978 0b78 36363636 		.word	909522486
 3979 0b7c 36363636 		.word	909522486
 3980 0b80 00000000 		.word	0
 3981 0b84 F818F800 		.word	16259320
 3982 0b88 18181818 		.word	404232216
 3983 0b8c 18181818 		.word	404232216
 3984 0b90 36363636 		.word	909522486
 3985 0b94 F606F636 		.word	922093302
 3986 0b98 36363636 		.word	909522486
 3987 0b9c 36363636 		.word	909522486
 3988 0ba0 36363636 		.word	909522486
 3989 0ba4 36363636 		.word	909522486
 3990 0ba8 36363636 		.word	909522486
ARM GAS  C:\Users\ldebo\AppData\Local\Temp\cc0w9t1b.s 			page 71


 3991 0bac 36363636 		.word	909522486
 3992 0bb0 00000000 		.word	0
 3993 0bb4 F606FE00 		.word	16647926
 3994 0bb8 36363636 		.word	909522486
 3995 0bbc 36363636 		.word	909522486
 3996 0bc0 36363636 		.word	909522486
 3997 0bc4 FE06F636 		.word	922093310
 3998 0bc8 00000000 		.word	0
 3999 0bcc 00000000 		.word	0
 4000 0bd0 36363636 		.word	909522486
 4001 0bd4 FE363636 		.word	909522686
 4002 0bd8 00000000 		.word	0
 4003 0bdc 00000000 		.word	0
 4004 0be0 18181818 		.word	404232216
 4005 0be4 F818F818 		.word	418912504
 4006 0be8 00000000 		.word	0
 4007 0bec 00000000 		.word	0
 4008 0bf0 00000000 		.word	0
 4009 0bf4 F8000000 		.word	248
 4010 0bf8 18181818 		.word	404232216
 4011 0bfc 18181818 		.word	404232216
 4012 0c00 18181818 		.word	404232216
 4013 0c04 1F181818 		.word	404232223
 4014 0c08 00000000 		.word	0
 4015 0c0c 00000000 		.word	0
 4016 0c10 18181818 		.word	404232216
 4017 0c14 FF181818 		.word	404232447
 4018 0c18 00000000 		.word	0
 4019 0c1c 00000000 		.word	0
 4020 0c20 00000000 		.word	0
 4021 0c24 FF000000 		.word	255
 4022 0c28 18181818 		.word	404232216
 4023 0c2c 18181818 		.word	404232216
 4024 0c30 18181818 		.word	404232216
 4025 0c34 1F181818 		.word	404232223
 4026 0c38 18181818 		.word	404232216
 4027 0c3c 18181818 		.word	404232216
 4028 0c40 00000000 		.word	0
 4029 0c44 FF000000 		.word	255
 4030 0c48 00000000 		.word	0
 4031 0c4c 00000000 		.word	0
 4032 0c50 18181818 		.word	404232216
 4033 0c54 FF181818 		.word	404232447
 4034 0c58 18181818 		.word	404232216
 4035 0c5c 18181818 		.word	404232216
 4036 0c60 18181818 		.word	404232216
 4037 0c64 1F181F18 		.word	404690975
 4038 0c68 18181818 		.word	404232216
 4039 0c6c 18181818 		.word	404232216
 4040 0c70 36363636 		.word	909522486
 4041 0c74 37363636 		.word	909522487
 4042 0c78 36363636 		.word	909522486
 4043 0c7c 36363636 		.word	909522486
 4044 0c80 36363636 		.word	909522486
 4045 0c84 3F303736 		.word	909586495
 4046 0c88 00000000 		.word	0
 4047 0c8c 00000000 		.word	0
ARM GAS  C:\Users\ldebo\AppData\Local\Temp\cc0w9t1b.s 			page 72


 4048 0c90 00000000 		.word	0
 4049 0c94 37303F00 		.word	4141111
 4050 0c98 36363636 		.word	909522486
 4051 0c9c 36363636 		.word	909522486
 4052 0ca0 36363636 		.word	909522486
 4053 0ca4 FF00F736 		.word	922157311
 4054 0ca8 00000000 		.word	0
 4055 0cac 00000000 		.word	0
 4056 0cb0 00000000 		.word	0
 4057 0cb4 F700FF00 		.word	16711927
 4058 0cb8 36363636 		.word	909522486
 4059 0cbc 36363636 		.word	909522486
 4060 0cc0 36363636 		.word	909522486
 4061 0cc4 37303736 		.word	909586487
 4062 0cc8 36363636 		.word	909522486
 4063 0ccc 36363636 		.word	909522486
 4064 0cd0 00000000 		.word	0
 4065 0cd4 FF00FF00 		.word	16711935
 4066 0cd8 00000000 		.word	0
 4067 0cdc 00000000 		.word	0
 4068 0ce0 36363636 		.word	909522486
 4069 0ce4 F700F736 		.word	922157303
 4070 0ce8 36363636 		.word	909522486
 4071 0cec 36363636 		.word	909522486
 4072 0cf0 18181818 		.word	404232216
 4073 0cf4 FF00FF18 		.word	419365119
 4074 0cf8 00000000 		.word	0
 4075 0cfc 00000000 		.word	0
 4076 0d00 36363636 		.word	909522486
 4077 0d04 FF363636 		.word	909522687
 4078 0d08 00000000 		.word	0
 4079 0d0c 00000000 		.word	0
 4080 0d10 00000000 		.word	0
 4081 0d14 FF00FF00 		.word	16711935
 4082 0d18 18181818 		.word	404232216
 4083 0d1c 18181818 		.word	404232216
 4084 0d20 00000000 		.word	0
 4085 0d24 FF000000 		.word	255
 4086 0d28 36363636 		.word	909522486
 4087 0d2c 36363636 		.word	909522486
 4088 0d30 36363636 		.word	909522486
 4089 0d34 3F363636 		.word	909522495
 4090 0d38 00000000 		.word	0
 4091 0d3c 00000000 		.word	0
 4092 0d40 18181818 		.word	404232216
 4093 0d44 1F181F18 		.word	404690975
 4094 0d48 00000000 		.word	0
 4095 0d4c 00000000 		.word	0
 4096 0d50 00000000 		.word	0
 4097 0d54 1F181F00 		.word	2037791
 4098 0d58 18181818 		.word	404232216
 4099 0d5c 18181818 		.word	404232216
 4100 0d60 00000000 		.word	0
 4101 0d64 3F000000 		.word	63
 4102 0d68 36363636 		.word	909522486
 4103 0d6c 36363636 		.word	909522486
 4104 0d70 36363636 		.word	909522486
ARM GAS  C:\Users\ldebo\AppData\Local\Temp\cc0w9t1b.s 			page 73


 4105 0d74 FF363636 		.word	909522687
 4106 0d78 36363636 		.word	909522486
 4107 0d7c 36363636 		.word	909522486
 4108 0d80 18181818 		.word	404232216
 4109 0d84 FF18FF18 		.word	419371263
 4110 0d88 18181818 		.word	404232216
 4111 0d8c 18181818 		.word	404232216
 4112 0d90 18181818 		.word	404232216
 4113 0d94 F8181818 		.word	404232440
 4114 0d98 00000000 		.word	0
 4115 0d9c 00000000 		.word	0
 4116 0da0 00000000 		.word	0
 4117 0da4 1F000000 		.word	31
 4118 0da8 18181818 		.word	404232216
 4119 0dac 18181818 		.word	404232216
 4120 0db0 FFFFFFFF 		.word	-1
 4121 0db4 FFFFFFFF 		.word	-1
 4122 0db8 FFFFFFFF 		.word	-1
 4123 0dbc FFFFFFFF 		.word	-1
 4124 0dc0 00000000 		.word	0
 4125 0dc4 FF000000 		.word	255
 4126 0dc8 FFFFFFFF 		.word	-1
 4127 0dcc FFFFFFFF 		.word	-1
 4128 0dd0 F0F0F0F0 		.word	-252645136
 4129 0dd4 F0F0F0F0 		.word	-252645136
 4130 0dd8 F0F0F0F0 		.word	-252645136
 4131 0ddc F0F0F0F0 		.word	-252645136
 4132 0de0 0F0F0F0F 		.word	252645135
 4133 0de4 0F0F0F0F 		.word	252645135
 4134 0de8 0F0F0F0F 		.word	252645135
 4135 0dec 0F0F0F0F 		.word	252645135
 4136 0df0 FFFFFFFF 		.word	-1
 4137 0df4 00FFFFFF 		.word	-256
 4138 0df8 00000000 		.word	0
 4139 0dfc 00000000 		.word	0
 4140 0e00 00000000 		.word	0
 4141 0e04 D8DC7600 		.word	7789784
 4142 0e08 76DCD8D8 		.word	-656876426
 4143 0e0c 00000000 		.word	0
 4144 0e10 CC780000 		.word	30924
 4145 0e14 CCD8CCCC 		.word	-858990388
 4146 0e18 CCC6C6C6 		.word	-960051508
 4147 0e1c 00000000 		.word	0
 4148 0e20 C6FE0000 		.word	65222
 4149 0e24 C0C0C0C6 		.word	-960446272
 4150 0e28 C0C0C0C0 		.word	-1061109568
 4151 0e2c 00000000 		.word	0
 4152 0e30 00000000 		.word	0
 4153 0e34 6C6C6CFE 		.word	-26448788
 4154 0e38 6C6C6C6C 		.word	1819044972
 4155 0e3c 00000000 		.word	0
 4156 0e40 FE000000 		.word	254
 4157 0e44 183060C6 		.word	-966774760
 4158 0e48 FEC66030 		.word	811648766
 4159 0e4c 00000000 		.word	0
 4160 0e50 00000000 		.word	0
 4161 0e54 D8D87E00 		.word	8313048
ARM GAS  C:\Users\ldebo\AppData\Local\Temp\cc0w9t1b.s 			page 74


 4162 0e58 70D8D8D8 		.word	-656877456
 4163 0e5c 00000000 		.word	0
 4164 0e60 00000000 		.word	0
 4165 0e64 66666666 		.word	1717986918
 4166 0e68 60607C66 		.word	1719427168
 4167 0e6c 000000C0 		.word	-1073741824
 4168 0e70 00000000 		.word	0
 4169 0e74 1818DC76 		.word	1994135576
 4170 0e78 18181818 		.word	404232216
 4171 0e7c 00000000 		.word	0
 4172 0e80 7E000000 		.word	126
 4173 0e84 66663C18 		.word	406611558
 4174 0e88 7E183C66 		.word	1715214462
 4175 0e8c 00000000 		.word	0
 4176 0e90 38000000 		.word	56
 4177 0e94 FEC6C66C 		.word	1824966398
 4178 0e98 386CC6C6 		.word	-960074696
 4179 0e9c 00000000 		.word	0
 4180 0ea0 6C380000 		.word	14444
 4181 0ea4 6CC6C6C6 		.word	-960051604
 4182 0ea8 EE6C6C6C 		.word	1819045102
 4183 0eac 00000000 		.word	0
 4184 0eb0 301E0000 		.word	7728
 4185 0eb4 663E0C18 		.word	403455590
 4186 0eb8 3C666666 		.word	1717986876
 4187 0ebc 00000000 		.word	0
 4188 0ec0 00000000 		.word	0
 4189 0ec4 DBDB7E00 		.word	8313819
 4190 0ec8 00007EDB 		.word	-612499456
 4191 0ecc 00000000 		.word	0
 4192 0ed0 03000000 		.word	3
 4193 0ed4 DBDB7E06 		.word	108977115
 4194 0ed8 C0607EF3 		.word	-209821504
 4195 0edc 00000000 		.word	0
 4196 0ee0 301C0000 		.word	7216
 4197 0ee4 607C6060 		.word	1616936032
 4198 0ee8 1C306060 		.word	1616916508
 4199 0eec 00000000 		.word	0
 4200 0ef0 7C000000 		.word	124
 4201 0ef4 C6C6C6C6 		.word	-960051514
 4202 0ef8 C6C6C6C6 		.word	-960051514
 4203 0efc 00000000 		.word	0
 4204 0f00 00000000 		.word	0
 4205 0f04 FE0000FE 		.word	-33554178
 4206 0f08 00FE0000 		.word	65024
 4207 0f0c 00000000 		.word	0
 4208 0f10 00000000 		.word	0
 4209 0f14 187E1818 		.word	404258328
 4210 0f18 FF000018 		.word	402653439
 4211 0f1c 00000000 		.word	0
 4212 0f20 30000000 		.word	48
 4213 0f24 0C060C18 		.word	403441164
 4214 0f28 7E003018 		.word	405799038
 4215 0f2c 00000000 		.word	0
 4216 0f30 0C000000 		.word	12
 4217 0f34 30603018 		.word	405823536
 4218 0f38 7E000C18 		.word	403439742
ARM GAS  C:\Users\ldebo\AppData\Local\Temp\cc0w9t1b.s 			page 75


 4219 0f3c 00000000 		.word	0
 4220 0f40 1B0E0000 		.word	3611
 4221 0f44 1818181B 		.word	454563864
 4222 0f48 18181818 		.word	404232216
 4223 0f4c 18181818 		.word	404232216
 4224 0f50 18181818 		.word	404232216
 4225 0f54 18181818 		.word	404232216
 4226 0f58 70D8D8D8 		.word	-656877456
 4227 0f5c 00000000 		.word	0
 4228 0f60 00000000 		.word	0
 4229 0f64 7E001818 		.word	404226174
 4230 0f68 00181800 		.word	1579008
 4231 0f6c 00000000 		.word	0
 4232 0f70 00000000 		.word	0
 4233 0f74 00DC7600 		.word	7789568
 4234 0f78 0000DC76 		.word	1994129408
 4235 0f7c 00000000 		.word	0
 4236 0f80 6C6C3800 		.word	3697772
 4237 0f84 00000038 		.word	939524096
 4238 0f88 00000000 		.word	0
 4239 0f8c 00000000 		.word	0
 4240 0f90 00000000 		.word	0
 4241 0f94 18000000 		.word	24
 4242 0f98 00000018 		.word	402653184
 4243 0f9c 00000000 		.word	0
 4244 0fa0 00000000 		.word	0
 4245 0fa4 00000000 		.word	0
 4246 0fa8 00000018 		.word	402653184
 4247 0fac 00000000 		.word	0
 4248 0fb0 0C0C0F00 		.word	986124
 4249 0fb4 EC0C0C0C 		.word	202116332
 4250 0fb8 1C3C6C6C 		.word	1819032604
 4251 0fbc 00000000 		.word	0
 4252 0fc0 6C6CD800 		.word	14183532
 4253 0fc4 006C6C6C 		.word	1819044864
 4254 0fc8 00000000 		.word	0
 4255 0fcc 00000000 		.word	0
 4256 0fd0 30D87000 		.word	7395376
 4257 0fd4 00F8C860 		.word	1623783424
 4258 0fd8 00000000 		.word	0
 4259 0fdc 00000000 		.word	0
 4260 0fe0 00000000 		.word	0
 4261 0fe4 7C7C7C7C 		.word	2088533116
 4262 0fe8 007C7C7C 		.word	2088532992
 4263 0fec 00000000 		.word	0
 4264 0ff0 00000000 		.word	0
 4265 0ff4 00000000 		.word	0
 4266 0ff8 00000000 		.word	0
 4267 0ffc 00000000 		.word	0
 4268              		.type	digits.6829, %object
 4269              		.size	digits.6829, 16
 4270              	digits.6829:
 4271 1000 30313233 		.ascii	"0123456789ABCDEF"
 4271      34353637 
 4271      38394142 
 4271      43444546 
 4272              		.data
ARM GAS  C:\Users\ldebo\AppData\Local\Temp\cc0w9t1b.s 			page 76


 4273              		.align	2
 4274              		.set	.LANCHOR3,. + 0
 4275              		.type	ActivityGPIOPort, %object
 4276              		.size	ActivityGPIOPort, 4
 4277              	ActivityGPIOPort:
 4278 0000 2F000000 		.word	47
 4279              		.bss
 4280              		.align	2
 4281              		.set	.LANCHOR2,. + 0
 4282              		.type	ModelCheckHasRun, %object
 4283              		.size	ModelCheckHasRun, 1
 4284              	ModelCheckHasRun:
 4285 0000 00       		.space	1
 4286 0001 000000   		.space	3
 4287              		.type	con, %object
 4288              		.size	con, 68
 4289              	con:
 4290 0004 00000000 		.space	68
 4290      00000000 
 4290      00000000 
 4290      00000000 
 4290      00000000 
 4291              		.section	.rodata,"a",%progbits; //,"a",%progbits
 4292              		.align	2
 4293              		.type	BitFontEnd, %object
 4294              		.size	BitFontEnd, 4
 4295              	BitFontEnd:
 4296 1010 00000000 		.space	4
 4297              		.ident	"GCC: (GNU Tools for ARM Embedded Processors 6-2017-q2-update) 6.3.1 20170620 (release) [AR
ARM GAS  C:\Users\ldebo\AppData\Local\Temp\cc0w9t1b.s 			page 77


DEFINED SYMBOLS
                            *ABS*:00000000 rpi-BasicHardware.c
C:\Users\ldebo\AppData\Local\Temp\cc0w9t1b.s:14     .text:00000000 $a
C:\Users\ldebo\AppData\Local\Temp\cc0w9t1b.s:19     .text:00000000 VertLine32
C:\Users\ldebo\AppData\Local\Temp\cc0w9t1b.s:43     .text:00000034 WriteChar32
C:\Users\ldebo\AppData\Local\Temp\cc0w9t1b.s:78     .text:000000a0 $d
C:\Users\ldebo\AppData\Local\Temp\cc0w9t1b.s:80     .text:000000a4 $a
C:\Users\ldebo\AppData\Local\Temp\cc0w9t1b.s:85     .text:000000a4 WriteChar24
C:\Users\ldebo\AppData\Local\Temp\cc0w9t1b.s:146    .text:00000174 $d
C:\Users\ldebo\AppData\Local\Temp\cc0w9t1b.s:148    .text:00000178 $a
C:\Users\ldebo\AppData\Local\Temp\cc0w9t1b.s:153    .text:00000178 WriteChar16
C:\Users\ldebo\AppData\Local\Temp\cc0w9t1b.s:219    .text:0000025c $d
C:\Users\ldebo\AppData\Local\Temp\cc0w9t1b.s:223    .text:00000260 $a
C:\Users\ldebo\AppData\Local\Temp\cc0w9t1b.s:228    .text:00000260 number
C:\Users\ldebo\AppData\Local\Temp\cc0w9t1b.s:723    .text:00000940 $d
C:\Users\ldebo\AppData\Local\Temp\cc0w9t1b.s:727    .text:0000094c $a
C:\Users\ldebo\AppData\Local\Temp\cc0w9t1b.s:733    .text:0000094c gpio_setup
C:\Users\ldebo\AppData\Local\Temp\cc0w9t1b.s:765    .text:000009b0 $d
C:\Users\ldebo\AppData\Local\Temp\cc0w9t1b.s:768    .text:000009b8 $a
C:\Users\ldebo\AppData\Local\Temp\cc0w9t1b.s:774    .text:000009b8 gpio_output
C:\Users\ldebo\AppData\Local\Temp\cc0w9t1b.s:809    .text:00000a20 $d
C:\Users\ldebo\AppData\Local\Temp\cc0w9t1b.s:811    .text:00000a24 $a
C:\Users\ldebo\AppData\Local\Temp\cc0w9t1b.s:817    .text:00000a24 gpio_input
C:\Users\ldebo\AppData\Local\Temp\cc0w9t1b.s:842    .text:00000a68 $d
C:\Users\ldebo\AppData\Local\Temp\cc0w9t1b.s:844    .text:00000a6c $a
C:\Users\ldebo\AppData\Local\Temp\cc0w9t1b.s:850    .text:00000a6c gpio_checkEvent
C:\Users\ldebo\AppData\Local\Temp\cc0w9t1b.s:874    .text:00000aac $d
C:\Users\ldebo\AppData\Local\Temp\cc0w9t1b.s:876    .text:00000ab0 $a
C:\Users\ldebo\AppData\Local\Temp\cc0w9t1b.s:882    .text:00000ab0 gpio_clearEvent
C:\Users\ldebo\AppData\Local\Temp\cc0w9t1b.s:905    .text:00000aec $d
C:\Users\ldebo\AppData\Local\Temp\cc0w9t1b.s:907    .text:00000af0 $a
C:\Users\ldebo\AppData\Local\Temp\cc0w9t1b.s:913    .text:00000af0 gpio_edgeDetect
C:\Users\ldebo\AppData\Local\Temp\cc0w9t1b.s:971    .text:00000bb0 $d
C:\Users\ldebo\AppData\Local\Temp\cc0w9t1b.s:973    .text:00000bb4 $a
C:\Users\ldebo\AppData\Local\Temp\cc0w9t1b.s:979    .text:00000bb4 gpio_fixResistor
C:\Users\ldebo\AppData\Local\Temp\cc0w9t1b.s:1064   .text:00000cdc $d
C:\Users\ldebo\AppData\Local\Temp\cc0w9t1b.s:1066   .text:00000ce0 $a
C:\Users\ldebo\AppData\Local\Temp\cc0w9t1b.s:1072   .text:00000ce0 timer_getTickCount
C:\Users\ldebo\AppData\Local\Temp\cc0w9t1b.s:1099   .text:00000d2c $d
C:\Users\ldebo\AppData\Local\Temp\cc0w9t1b.s:1101   .text:00000d30 $a
C:\Users\ldebo\AppData\Local\Temp\cc0w9t1b.s:1107   .text:00000d30 timer_wait
C:\Users\ldebo\AppData\Local\Temp\cc0w9t1b.s:1146   .text:00000dac $d
C:\Users\ldebo\AppData\Local\Temp\cc0w9t1b.s:1148   .text:00000db0 $a
C:\Users\ldebo\AppData\Local\Temp\cc0w9t1b.s:1154   .text:00000db0 tick_difference
C:\Users\ldebo\AppData\Local\Temp\cc0w9t1b.s:1168   .text:00000dbc mailbox_write
C:\Users\ldebo\AppData\Local\Temp\cc0w9t1b.s:1193   .text:00000dfc $d
C:\Users\ldebo\AppData\Local\Temp\cc0w9t1b.s:1195   .text:00000e00 $a
C:\Users\ldebo\AppData\Local\Temp\cc0w9t1b.s:1201   .text:00000e00 mailbox_read
C:\Users\ldebo\AppData\Local\Temp\cc0w9t1b.s:1227   .text:00000e44 $d
C:\Users\ldebo\AppData\Local\Temp\cc0w9t1b.s:1230   .text:00000e4c $a
C:\Users\ldebo\AppData\Local\Temp\cc0w9t1b.s:1236   .text:00000e4c set_Activity_LED
C:\Users\ldebo\AppData\Local\Temp\cc0w9t1b.s:1404   .text:00001090 $d
C:\Users\ldebo\AppData\Local\Temp\cc0w9t1b.s:1414   .text:000010b4 $a
C:\Users\ldebo\AppData\Local\Temp\cc0w9t1b.s:1420   .text:000010b4 SetMaxCPUSpeed
C:\Users\ldebo\AppData\Local\Temp\cc0w9t1b.s:1517   .text:00001200 $d
C:\Users\ldebo\AppData\Local\Temp\cc0w9t1b.s:1521   .text:0000120c $a
C:\Users\ldebo\AppData\Local\Temp\cc0w9t1b.s:1527   .text:0000120c DeadLoop
ARM GAS  C:\Users\ldebo\AppData\Local\Temp\cc0w9t1b.s 			page 78


C:\Users\ldebo\AppData\Local\Temp\cc0w9t1b.s:1892   .text:0000172c $d
C:\Users\ldebo\AppData\Local\Temp\cc0w9t1b.s:1902   .text:00001750 $a
C:\Users\ldebo\AppData\Local\Temp\cc0w9t1b.s:1908   .text:00001750 PiConsole_Init
C:\Users\ldebo\AppData\Local\Temp\cc0w9t1b.s:2025   .text:000018f0 $d
C:\Users\ldebo\AppData\Local\Temp\cc0w9t1b.s:2036   .text:00001918 $a
C:\Users\ldebo\AppData\Local\Temp\cc0w9t1b.s:2042   .text:00001918 PiConsole_WriteChar
C:\Users\ldebo\AppData\Local\Temp\cc0w9t1b.s:2081   .text:00001994 $d
C:\Users\ldebo\AppData\Local\Temp\cc0w9t1b.s:2083   .text:00001998 $a
C:\Users\ldebo\AppData\Local\Temp\cc0w9t1b.s:2089   .text:00001998 PiConsole_WriteText
C:\Users\ldebo\AppData\Local\Temp\cc0w9t1b.s:2139   .text:00001a34 $d
C:\Users\ldebo\AppData\Local\Temp\cc0w9t1b.s:2142   .text:00001a3c $a
C:\Users\ldebo\AppData\Local\Temp\cc0w9t1b.s:2148   .text:00001a3c PiConsole_VertLine
C:\Users\ldebo\AppData\Local\Temp\cc0w9t1b.s:2167   .text:00001a6c $d
C:\Users\ldebo\AppData\Local\Temp\cc0w9t1b.s:2169   .text:00001a70 $a
C:\Users\ldebo\AppData\Local\Temp\cc0w9t1b.s:2175   .text:00001a70 WriteText
C:\Users\ldebo\AppData\Local\Temp\cc0w9t1b.s:2205   .text:00001acc $d
C:\Users\ldebo\AppData\Local\Temp\cc0w9t1b.s:2207   .text:00001ad0 $a
C:\Users\ldebo\AppData\Local\Temp\cc0w9t1b.s:2213   .text:00001ad0 vsprintf
C:\Users\ldebo\AppData\Local\Temp\cc0w9t1b.s:2247   .text:00001b38 $d
C:\Users\ldebo\AppData\Local\Temp\cc0w9t1b.s:2265   .text:00001b7c $a
C:\Users\ldebo\AppData\Local\Temp\cc0w9t1b.s:2308   .text:00001c00 $d
C:\Users\ldebo\AppData\Local\Temp\cc0w9t1b.s:2393   .text:00001d50 $a
C:\Users\ldebo\AppData\Local\Temp\cc0w9t1b.s:2438   .text:00001df0 $d
C:\Users\ldebo\AppData\Local\Temp\cc0w9t1b.s:2523   .text:00001f40 $a
C:\Users\ldebo\AppData\Local\Temp\cc0w9t1b.s:3141   .text:000027b0 $d
C:\Users\ldebo\AppData\Local\Temp\cc0w9t1b.s:3143   .text:000027b4 $a
C:\Users\ldebo\AppData\Local\Temp\cc0w9t1b.s:3149   .text:000027b4 sprintf
C:\Users\ldebo\AppData\Local\Temp\cc0w9t1b.s:3172   .text:000027e4 printf
C:\Users\ldebo\AppData\Local\Temp\cc0w9t1b.s:3233   .text:000028ac $d
C:\Users\ldebo\AppData\Local\Temp\cc0w9t1b.s:4289   .bss:00000004 con
C:\Users\ldebo\AppData\Local\Temp\cc0w9t1b.s:4295   .rodata:00001010 BitFontEnd
C:\Users\ldebo\AppData\Local\Temp\cc0w9t1b.s:3238   .rodata:00000000 $d
C:\Users\ldebo\AppData\Local\Temp\cc0w9t1b.s:3243   .rodata:00000000 BitFont
C:\Users\ldebo\AppData\Local\Temp\cc0w9t1b.s:4270   .rodata:00001000 digits.6829
C:\Users\ldebo\AppData\Local\Temp\cc0w9t1b.s:4273   .data:00000000 $d
C:\Users\ldebo\AppData\Local\Temp\cc0w9t1b.s:4277   .data:00000000 ActivityGPIOPort
C:\Users\ldebo\AppData\Local\Temp\cc0w9t1b.s:4280   .bss:00000000 $d
C:\Users\ldebo\AppData\Local\Temp\cc0w9t1b.s:4284   .bss:00000000 ModelCheckHasRun

UNDEFINED SYMBOLS
__aeabi_uidiv
__aeabi_uidivmod
RPi_IO_Base_Addr
ARMaddrToGPUaddr
RPi_CpuId
GPUaddrToARMaddr
strlen
__locale_ctype_ptr
strnlen
