ARM GAS  C:\Users\ldebo\AppData\Local\Temp\ccBZnoYF.s 			page 1


   1              		.arch armv6zk
   2              		.eabi_attribute 28, 1
   3              		.eabi_attribute 20, 1
   4              		.eabi_attribute 21, 1
   5              		.eabi_attribute 23, 3
   6              		.eabi_attribute 24, 1
   7              		.eabi_attribute 25, 1
   8              		.eabi_attribute 26, 1
   9              		.eabi_attribute 30, 2
  10              		.eabi_attribute 34, 0
  11              		.eabi_attribute 18, 4
  12              		.file	"main.c"
  13              		.text
  14              		.align	2
  15              		.global	DisplayBitmap
  16              		.syntax unified
  17              		.arm
  18              		.fpu vfp
  19              		.type	DisplayBitmap, %function
  20              	DisplayBitmap:
  21              		@ args = 0, pretend = 0, frame = 4160
  22              		@ frame_needed = 0, uses_anonymous_args = 0
  23 0000 F0432DE9 		push	{r4, r5, r6, r7, r8, r9, lr}
  24 0004 03C0A0E3 		mov	ip, #3
  25 0008 0040A0E3 		mov	r4, #0
  26 000c 80E0A0E3 		mov	lr, #128
  27 0010 41DD4DE2 		sub	sp, sp, #4160
  28 0014 14D04DE2 		sub	sp, sp, #20
  29 0018 0250A0E1 		mov	r5, r2
  30 001c 0080A0E1 		mov	r8, r0
  31 0020 0170A0E1 		mov	r7, r1
  32 0024 0200A0E1 		mov	r0, r2
  33 0028 08408DE5 		str	r4, [sp, #8]
  34 002c 0430A0E1 		mov	r3, r4
  35 0030 0420A0E1 		mov	r2, r4
  36 0034 00508DE8 		stm	sp, {ip, lr}
  37 0038 0211A0E3 		mov	r1, #-2147483648
  38 003c FEFFFFEB 		bl	sdCreateFile
  39 0040 006050E2 		subs	r6, r0, #0
  40 0044 0200001A 		bne	.L27
  41 0048 41DD8DE2 		add	sp, sp, #4160
  42 004c 14D08DE2 		add	sp, sp, #20
  43              		@ sp needed
  44 0050 F083BDE8 		pop	{r4, r5, r6, r7, r8, r9, pc}
  45              	.L27:
  46 0054 00408DE5 		str	r4, [sp]
  47 0058 14308DE2 		add	r3, sp, #20
  48 005c 18108DE2 		add	r1, sp, #24
  49 0060 0E20A0E3 		mov	r2, #14
  50 0064 FEFFFFEB 		bl	sdReadFile
  51 0068 040050E1 		cmp	r0, r4
  52 006c 0600000A 		beq	.L3
  53 0070 14309DE5 		ldr	r3, [sp, #20]
  54 0074 0E0053E3 		cmp	r3, #14
  55 0078 0300001A 		bne	.L3
  56 007c F8309FE5 		ldr	r3, .L30
  57 0080 B821DDE1 		ldrh	r2, [sp, #24]
ARM GAS  C:\Users\ldebo\AppData\Local\Temp\ccBZnoYF.s 			page 2


  58 0084 030052E1 		cmp	r2, r3
  59 0088 0400000A 		beq	.L28
  60              	.L3:
  61 008c 0600A0E1 		mov	r0, r6
  62 0090 FEFFFFEB 		bl	sdCloseHandle
  63 0094 41DD8DE2 		add	sp, sp, #4160
  64 0098 14D08DE2 		add	sp, sp, #20
  65              		@ sp needed
  66 009c F083BDE8 		pop	{r4, r5, r6, r7, r8, r9, pc}
  67              	.L28:
  68 00a0 2820A0E3 		mov	r2, #40
  69 00a4 00408DE5 		str	r4, [sp]
  70 00a8 14308DE2 		add	r3, sp, #20
  71 00ac 02108DE0 		add	r1, sp, r2
  72 00b0 0600A0E1 		mov	r0, r6
  73 00b4 FEFFFFEB 		bl	sdReadFile
  74 00b8 040050E1 		cmp	r0, r4
  75 00bc 0200000A 		beq	.L4
  76 00c0 14309DE5 		ldr	r3, [sp, #20]
  77 00c4 280053E3 		cmp	r3, #40
  78 00c8 0300000A 		beq	.L29
  79              	.L4:
  80 00cc 0510A0E1 		mov	r1, r5
  81 00d0 A8009FE5 		ldr	r0, .L30+4
  82 00d4 FEFFFFEB 		bl	printf
  83 00d8 EBFFFFEA 		b	.L3
  84              	.L29:
  85 00dc B633DDE1 		ldrh	r3, [sp, #54]
  86 00e0 2C509DE5 		ldr	r5, [sp, #44]
  87 00e4 180053E3 		cmp	r3, #24
  88 00e8 0330A003 		moveq	r3, #3
  89 00ec 0430A013 		movne	r3, #4
  90 00f0 950305E0 		mul	r5, r5, r3
  91 00f4 033015E2 		ands	r3, r5, #3
  92 00f8 04508512 		addne	r5, r5, #4
  93 00fc 03504510 		subne	r5, r5, r3
  94 0100 0030A0E3 		mov	r3, #0
  95 0104 B402DDE1 		ldrh	r0, [sp, #36]
  96 0108 B212DDE1 		ldrh	r1, [sp, #34]
  97 010c 0320A0E1 		mov	r2, r3
  98 0110 001881E1 		orr	r1, r1, r0, lsl #16
  99 0114 0600A0E1 		mov	r0, r6
 100 0118 FEFFFFEB 		bl	sdSetFilePointer
 101 011c 30409DE5 		ldr	r4, [sp, #48]
 102 0120 000054E3 		cmp	r4, #0
 103 0124 D8FFFFDA 		ble	.L3
 104 0128 0090A0E3 		mov	r9, #0
 105 012c 074084E0 		add	r4, r4, r7
 106              	.L9:
 107 0130 14308DE2 		add	r3, sp, #20
 108 0134 0520A0E1 		mov	r2, r5
 109 0138 50108DE2 		add	r1, sp, #80
 110 013c 00908DE5 		str	r9, [sp]
 111 0140 0600A0E1 		mov	r0, r6
 112 0144 FEFFFFEB 		bl	sdReadFile
 113 0148 FEFFFFEB 		bl	GetConsoleDC
 114 014c B623DDE1 		ldrh	r2, [sp, #54]
ARM GAS  C:\Users\ldebo\AppData\Local\Temp\ccBZnoYF.s 			page 3


 115 0150 50108DE2 		add	r1, sp, #80
 116 0154 04108DE5 		str	r1, [sp, #4]
 117 0158 00208DE5 		str	r2, [sp]
 118 015c 2C309DE5 		ldr	r3, [sp, #44]
 119 0160 0420A0E1 		mov	r2, r4
 120 0164 0810A0E1 		mov	r1, r8
 121 0168 014044E2 		sub	r4, r4, #1
 122 016c FEFFFFEB 		bl	CvtBmpLine
 123 0170 040057E1 		cmp	r7, r4
 124 0174 EDFFFF1A 		bne	.L9
 125 0178 C3FFFFEA 		b	.L3
 126              	.L31:
 127              		.align	2
 128              	.L30:
 129 017c 424D0000 		.word	19778
 130 0180 00000000 		.word	.LC13
 131              		.size	DisplayBitmap, .-DisplayBitmap
 132              		.align	2
 133              		.global	DisplayDirectory
 134              		.syntax unified
 135              		.arm
 136              		.fpu vfp
 137              		.type	DisplayDirectory, %function
 138              	DisplayDirectory:
 139              		@ args = 0, pretend = 0, frame = 440
 140              		@ frame_needed = 0, uses_anonymous_args = 0
 141 0184 F04F2DE9 		push	{r4, r5, r6, r7, r8, r9, r10, fp, lr}
 142 0188 0040A0E1 		mov	r4, r0
 143 018c 7DDF4DE2 		sub	sp, sp, #500
 144 0190 04E19FE5 		ldr	lr, .L40
 145 0194 3CC08DE2 		add	ip, sp, #60
 146 0198 0F00BEE8 		ldmia	lr!, {r0, r1, r2, r3}
 147 019c 0F00ACE8 		stmia	ip!, {r0, r1, r2, r3}
 148 01a0 0F00BEE8 		ldmia	lr!, {r0, r1, r2, r3}
 149 01a4 0F00ACE8 		stmia	ip!, {r0, r1, r2, r3}
 150 01a8 0F009EE8 		ldm	lr, {r0, r1, r2, r3}
 151 01ac 0F008CE8 		stm	ip, {r0, r1, r2, r3}
 152 01b0 0400A0E1 		mov	r0, r4
 153 01b4 6C108DE2 		add	r1, sp, #108
 154 01b8 FEFFFFEB 		bl	sdFindFirstFile
 155 01bc DC609FE5 		ldr	r6, .L40+4
 156 01c0 0040A0E1 		mov	r4, r0
 157 01c4 D8709FE5 		ldr	r7, .L40+8
 158 01c8 E4508DE2 		add	r5, sp, #228
 159 01cc 270000EA 		b	.L33
 160              	.L34:
 161 01d0 7CC09DE5 		ldr	ip, [sp, #124]
 162 01d4 1F3E8DE2 		add	r3, sp, #496
 163 01d8 0CC183E0 		add	ip, r3, ip, lsl #2
 164 01dc B4811CE5 		ldr	r8, [ip, #-436]
 165 01e0 80009DE5 		ldr	r0, [sp, #128]
 166 01e4 E0C09DE5 		ldr	ip, [sp, #224]
 167 01e8 E8A1DDE5 		ldrb	r10, [sp, #488]	@ zero_extendqisi2
 168 01ec E791DDE5 		ldrb	r9, [sp, #487]	@ zero_extendqisi2
 169 01f0 78E09DE5 		ldr	lr, [sp, #120]
 170 01f4 760E80E2 		add	r0, r0, #1888
 171 01f8 20C08DE5 		str	ip, [sp, #32]
ARM GAS  C:\Users\ldebo\AppData\Local\Temp\ccBZnoYF.s 			page 4


 172 01fc E9C1DDE5 		ldrb	ip, [sp, #489]	@ zero_extendqisi2
 173 0200 0C0080E2 		add	r0, r0, #12
 174 0204 04A08DE5 		str	r10, [sp, #4]
 175 0208 00908DE5 		str	r9, [sp]
 176 020c EEA1DDE5 		ldrb	r10, [sp, #494]	@ zero_extendqisi2
 177 0210 ED91DDE5 		ldrb	r9, [sp, #493]	@ zero_extendqisi2
 178 0214 28808DE5 		str	r8, [sp, #40]
 179 0218 EBB1DDE5 		ldrb	fp, [sp, #491]	@ zero_extendqisi2
 180 021c EC81DDE5 		ldrb	r8, [sp, #492]	@ zero_extendqisi2
 181 0220 24E08DE5 		str	lr, [sp, #36]
 182 0224 EAE1DDE5 		ldrb	lr, [sp, #490]	@ zero_extendqisi2
 183 0228 2C008DE5 		str	r0, [sp, #44]
 184 022c E631DDE5 		ldrb	r3, [sp, #486]	@ zero_extendqisi2
 185 0230 E521DDE5 		ldrb	r2, [sp, #485]	@ zero_extendqisi2
 186 0234 E411DDE5 		ldrb	r1, [sp, #484]	@ zero_extendqisi2
 187 0238 0600A0E1 		mov	r0, r6
 188 023c 08C08DE5 		str	ip, [sp, #8]
 189 0240 30508DE5 		str	r5, [sp, #48]
 190 0244 1CA08DE5 		str	r10, [sp, #28]
 191 0248 18908DE5 		str	r9, [sp, #24]
 192 024c 14808DE5 		str	r8, [sp, #20]
 193 0250 10B08DE5 		str	fp, [sp, #16]
 194 0254 0CE08DE5 		str	lr, [sp, #12]
 195 0258 FEFFFFEB 		bl	printf
 196              	.L38:
 197 025c 6C108DE2 		add	r1, sp, #108
 198 0260 0400A0E1 		mov	r0, r4
 199 0264 FEFFFFEB 		bl	sdFindNextFile
 200 0268 000050E3 		cmp	r0, #0
 201 026c 0600000A 		beq	.L39
 202              	.L33:
 203 0270 D8309DE5 		ldr	r3, [sp, #216]
 204 0274 100053E3 		cmp	r3, #16
 205 0278 D4FFFF1A 		bne	.L34
 206 027c 0510A0E1 		mov	r1, r5
 207 0280 0700A0E1 		mov	r0, r7
 208 0284 FEFFFFEB 		bl	printf
 209 0288 F3FFFFEA 		b	.L38
 210              	.L39:
 211 028c 0400A0E1 		mov	r0, r4
 212 0290 FEFFFFEB 		bl	sdFindClose
 213 0294 7DDF8DE2 		add	sp, sp, #500
 214              		@ sp needed
 215 0298 F08FBDE8 		pop	{r4, r5, r6, r7, r8, r9, r10, fp, pc}
 216              	.L41:
 217              		.align	2
 218              	.L40:
 219 029c 00000000 		.word	.LANCHOR0
 220 02a0 34000000 		.word	.LC16
 221 02a4 28000000 		.word	.LC15
 222              		.size	DisplayDirectory, .-DisplayDirectory
 223              		.align	2
 224              		.global	kernel_main
 225              		.syntax unified
 226              		.arm
 227              		.fpu vfp
 228              		.type	kernel_main, %function
ARM GAS  C:\Users\ldebo\AppData\Local\Temp\ccBZnoYF.s 			page 5


 229              	kernel_main:
 230              		@ Volatile: function does not return.
 231              		@ args = 0, pretend = 0, frame = 0
 232              		@ frame_needed = 0, uses_anonymous_args = 0
 233 02a8 0020A0E3 		mov	r2, #0
 234 02ac 80402DE9 		push	{r7, lr}
 235 02b0 94309FE5 		ldr	r3, .L45
 236 02b4 0210A0E1 		mov	r1, r2
 237 02b8 0200A0E1 		mov	r0, r2
 238 02bc FEFFFFEB 		bl	PiConsole_Init
 239 02c0 84009FE5 		ldr	r0, .L45
 240 02c4 FEFFFFEB 		bl	displaySmartStart
 241 02c8 7C009FE5 		ldr	r0, .L45
 242 02cc FEFFFFEB 		bl	ARM_setmaxspeed
 243 02d0 74109FE5 		ldr	r1, .L45
 244 02d4 0120A0E3 		mov	r2, #1
 245 02d8 0100A0E1 		mov	r0, r1
 246 02dc FEFFFFEB 		bl	sdInitCard
 247 02e0 68009FE5 		ldr	r0, .L45+4
 248 02e4 FEFFFFEB 		bl	printf
 249 02e8 64009FE5 		ldr	r0, .L45+8
 250 02ec FEFFFFEB 		bl	DisplayDirectory
 251 02f0 60009FE5 		ldr	r0, .L45+12
 252 02f4 FEFFFFEB 		bl	printf
 253 02f8 5C009FE5 		ldr	r0, .L45+16
 254 02fc FEFFFFEB 		bl	DisplayDirectory
 255 0300 58209FE5 		ldr	r2, .L45+20
 256 0304 5A1FA0E3 		mov	r1, #360
 257 0308 3200A0E3 		mov	r0, #50
 258 030c FEFFFFEB 		bl	DisplayBitmap
 259 0310 0170A0E3 		mov	r7, #1
 260 0314 0050A0E3 		mov	r5, #0
 261 0318 0060A0E3 		mov	r6, #0
 262 031c 40409FE5 		ldr	r4, .L45+24
 263              	.L43:
 264 0320 0700A0E1 		mov	r0, r7
 265 0324 FEFFFFEB 		bl	set_Activity_LED
 266 0328 0510A0E1 		mov	r1, r5
 267 032c 0400A0E1 		mov	r0, r4
 268 0330 FEFFFFEB 		bl	timer_wait
 269 0334 0600A0E1 		mov	r0, r6
 270 0338 FEFFFFEB 		bl	set_Activity_LED
 271 033c 0400A0E1 		mov	r0, r4
 272 0340 0510A0E1 		mov	r1, r5
 273 0344 FEFFFFEB 		bl	timer_wait
 274 0348 F4FFFFEA 		b	.L43
 275              	.L46:
 276              		.align	2
 277              	.L45:
 278 034c 00000000 		.word	printf
 279 0350 74000000 		.word	.LC17
 280 0354 88000000 		.word	.LC18
 281 0358 90000000 		.word	.LC19
 282 035c A4000000 		.word	.LC20
 283 0360 B4000000 		.word	.LC21
 284 0364 20A10700 		.word	500000
 285              		.size	kernel_main, .-kernel_main
ARM GAS  C:\Users\ldebo\AppData\Local\Temp\ccBZnoYF.s 			page 6


 286              		.section	.rodata
 287              		.align	2
 288              		.set	.LANCHOR0,. + 0
 289              	.LC14:
 290 0000 CC000000 		.word	.LC0
 291 0004 D0000000 		.word	.LC1
 292 0008 D4000000 		.word	.LC2
 293 000c D8000000 		.word	.LC3
 294 0010 DC000000 		.word	.LC4
 295 0014 E0000000 		.word	.LC5
 296 0018 E4000000 		.word	.LC6
 297 001c E8000000 		.word	.LC7
 298 0020 EC000000 		.word	.LC8
 299 0024 F0000000 		.word	.LC9
 300 0028 F4000000 		.word	.LC10
 301 002c F8000000 		.word	.LC11
 302              		.section	.rodata.str1.4,"aMS",%progbits,1
 303              		.align	2
 304              	.LC13:
 305 0000 4269746D 		.ascii	"Bitmap file: %s, is not a valid format\012\000"
 305      61702066 
 305      696C653A 
 305      2025732C 
 305      20697320 
 306              	.LC15:
 307 0028 2573203C 		.ascii	"%s <DIR>\012\000"
 307      4449523E 
 307      0A00
 308 0032 0000     		.space	2
 309              	.LC16:
 310 0034 25632563 		.ascii	"%c%c%c%c%c%c%c%c.%c%c%c Size: %9lu bytes, %2d/%s/%4"
 310      25632563 
 310      25632563 
 310      25632563 
 310      2E256325 
 311 0067 642C204C 		.ascii	"d, LFN: %s\012\000"
 311      464E3A20 
 311      25730A00 
 312 0073 00       		.space	1
 313              	.LC17:
 314 0074 726F6F74 		.ascii	"root directory: \012\000"
 314      20646972 
 314      6563746F 
 314      72793A20 
 314      0A00
 315 0086 0000     		.space	2
 316              	.LC18:
 317 0088 5C2A2E2A 		.ascii	"\\*.*\000"
 317      00
 318 008d 000000   		.space	3
 319              	.LC19:
 320 0090 4269746D 		.ascii	"Bitmap directory: \012\000"
 320      61702064 
 320      69726563 
 320      746F7279 
 320      3A200A00 
 321              	.LC20:
ARM GAS  C:\Users\ldebo\AppData\Local\Temp\ccBZnoYF.s 			page 7


 322 00a4 5C626974 		.ascii	"\\bitmaps\\*.*\000"
 322      6D617073 
 322      5C2A2E2A 
 322      00
 323 00b1 000000   		.space	3
 324              	.LC21:
 325 00b4 5C626974 		.ascii	"\\bitmaps\\elle_kathy.bmp\000"
 325      6D617073 
 325      5C656C6C 
 325      655F6B61 
 325      7468792E 
 326              	.LC0:
 327 00cc 4A616E00 		.ascii	"Jan\000"
 328              	.LC1:
 329 00d0 46656200 		.ascii	"Feb\000"
 330              	.LC2:
 331 00d4 4D617200 		.ascii	"Mar\000"
 332              	.LC3:
 333 00d8 41707200 		.ascii	"Apr\000"
 334              	.LC4:
 335 00dc 4D617900 		.ascii	"May\000"
 336              	.LC5:
 337 00e0 4A756E00 		.ascii	"Jun\000"
 338              	.LC6:
 339 00e4 4A756C00 		.ascii	"Jul\000"
 340              	.LC7:
 341 00e8 41756700 		.ascii	"Aug\000"
 342              	.LC8:
 343 00ec 53657000 		.ascii	"Sep\000"
 344              	.LC9:
 345 00f0 4F637400 		.ascii	"Oct\000"
 346              	.LC10:
 347 00f4 4E6F7600 		.ascii	"Nov\000"
 348              	.LC11:
 349 00f8 44656300 		.ascii	"Dec\000"
 350              		.ident	"GCC: (GNU Tools for ARM Embedded Processors 6-2017-q2-update) 6.3.1 20170620 (release) [AR
ARM GAS  C:\Users\ldebo\AppData\Local\Temp\ccBZnoYF.s 			page 8


DEFINED SYMBOLS
                            *ABS*:00000000 main.c
C:\Users\ldebo\AppData\Local\Temp\ccBZnoYF.s:14     .text:00000000 $a
C:\Users\ldebo\AppData\Local\Temp\ccBZnoYF.s:20     .text:00000000 DisplayBitmap
C:\Users\ldebo\AppData\Local\Temp\ccBZnoYF.s:129    .text:0000017c $d
C:\Users\ldebo\AppData\Local\Temp\ccBZnoYF.s:132    .text:00000184 $a
C:\Users\ldebo\AppData\Local\Temp\ccBZnoYF.s:138    .text:00000184 DisplayDirectory
C:\Users\ldebo\AppData\Local\Temp\ccBZnoYF.s:219    .text:0000029c $d
C:\Users\ldebo\AppData\Local\Temp\ccBZnoYF.s:223    .text:000002a8 $a
C:\Users\ldebo\AppData\Local\Temp\ccBZnoYF.s:229    .text:000002a8 kernel_main
C:\Users\ldebo\AppData\Local\Temp\ccBZnoYF.s:278    .text:0000034c $d
C:\Users\ldebo\AppData\Local\Temp\ccBZnoYF.s:287    .rodata:00000000 $d
C:\Users\ldebo\AppData\Local\Temp\ccBZnoYF.s:303    .rodata.str1.4:00000000 $d

UNDEFINED SYMBOLS
sdCreateFile
sdReadFile
sdCloseHandle
printf
sdSetFilePointer
GetConsoleDC
CvtBmpLine
sdFindFirstFile
sdFindNextFile
sdFindClose
PiConsole_Init
displaySmartStart
ARM_setmaxspeed
sdInitCard
set_Activity_LED
timer_wait
ARM GAS  C:\Users\ldebo\AppData\Local\Temp\ccBZnoYF.s 			page 1


   1              	# 1 "SmartStart32.S"
   1              	﻿;@"+++++++++++++++++++++++++++++++++++++++++++++++++++++++++++++++++++++++++"
   0              	
   0              	
   2              	;@"																			"			
   3              	;@"      Filename: smartstart32.s											"
   4              	;@"      Copyright(c): Leon de Boer(LdB) 2017								"
   5              	;@"      Version: 2.02														"
   6              	;@"																			"		
   7              	;@"**************[ THIS CODE IS FREEWARE UNDER CC Attribution]**************"
   8              	;@"																            "
   9              	;@"     This sourcecode is released for the purpose to promote programming  "
  10              	;@"  on the Raspberry Pi. You may redistribute it and/or modify with the    "
  11              	;@"  following disclaimer and condition.                                    "
  12              	;@"																            "
  13              	;@"      The SOURCE CODE is distributed "AS IS" WITHOUT WARRANTIES AS TO    "
  14              	;@"   PERFORMANCE OF MERCHANTABILITY WHETHER EXPRESSED OR IMPLIED.          "
  15              	;@"   Redistributions of source code must retain the copyright notices to   "
  16              	;@"   maintain the author credit (attribution) .							"
  17              	;@"																			"
  18              	;@"*************************************************************************"
  19              	;@"                                                                         "
  20              	;@"       This code expands on my earlier SmartStart bootstub assembler for "
  21              	;@" the Pi 1/2/3. It simplifies some of the autodetect code but importantly "
  22              	;@" directly supports multicore operation in C/C++. To do that it provides  "
  23              	;@" stack space to each core and provides a modified bootloader spinlock    "
  24              	;@" that protects against registers R0-R3 trashed. As any C/C++ compiler    "
  25              	;@" code will trash those registers, to use C/C++ in multicore programming  "
  26              	;@" this protection must be done.											"
  27              	;@"      The downside is this bootstub must be a little more complex in     "
  28              	;@" that it must start and setup multiple cores. The code is much more      "
  29              	;@" connected to the linker file which provides memory space to each core.  "
  30              	;@"       There is however matching paired AARCH64 stub and linker files    "
  31              	;@" so code written for this setup can be ported to AARCH64 with ease.		"
  32              	;@"																            "
  33              	;@"+++++++++++++++++++++++++++++++++++++++++++++++++++++++++++++++++++++++++"
  34              	
  35              	;@"========================================================================="
  36              	;@"				 	 ARM CPU ID CONSTANT DEFINITIONS					    "
  37              	;@"========================================================================="
  38              	.equ ARM6_CPU_ID, 0x410FB767					;@ CPU id a BCM2835 reports
  39              	.equ ARM7_CPU_ID, 0x410FC073					;@ CPU id a BCM2836 reports
  40              	.equ ARM8_CPU_ID, 0x410FD034					;@ CPU id a BCM2837 reports
  41              	
  42              	;@"========================================================================="
  43              	;@"				 	 ARM CPU MODE CONSTANT DEFINITIONS					    "
  44              	;@"========================================================================="
  45              	.equ CPU_FIQMODE, 0x11							;@ CPU in FIQ mode
  46              	.equ CPU_IRQMODE, 0x12							;@ CPU in IRQ mode
  47              	.equ CPU_SVCMODE, 0x13							;@ CPU in SVC mode
  48              	.equ CPU_HYPMODE, 0x1A							;@ CPU in HYP mode
  49              	
  50              	;@"========================================================================="
  51              	;@"				 ARM CPU IRQ/FIQ BIT CONSTANT DEFINITIONS				    "
  52              	;@"========================================================================="
  53              	#define I_Bit  (1 << 7)							// Irq flag bit in cpsr (CPUMODE register)
  54              	#define F_Bit  (1 << 6)							// Fiq flag bit in cpsr (CPUMODE register)
ARM GAS  C:\Users\ldebo\AppData\Local\Temp\ccBZnoYF.s 			page 2


  55              	
  56              	;@"========================================================================="
  57              	;@"				 	 ARM CPU MODE CONSTANT DEFINITIONS					    "
  58              	;@"========================================================================="
  59              	.equ CPU_FIQMODE_VALUE, (CPU_FIQMODE | I_Bit | F_Bit)	;@ CPU in FIQ mode with irq, fiq off
  60              	.equ CPU_IRQMODE_VALUE, (CPU_IRQMODE | I_Bit | F_Bit)	;@ CPU in IRQ mode with irq, fiq off
  61              	.equ CPU_SVCMODE_VALUE, (CPU_SVCMODE | I_Bit | F_Bit)	;@ CPU in SVC mode with irq, fiq off
  62              	
  63              	;@"*************************************************************************"
  64              	;@"          INTERNAL DATA FOR SMARTSTART NOT EXPOSED TO INTERFACE			"
  65              	;@"*************************************************************************"
  66              	.section ".data.smartstart", "aw"
  67              	.balign 4
  68              	
  69 0000 00000000 	RPi_BusAlias	: .4byte 0;				// Address offset between VC4 physical address and ARM address needed f
  70              	
  71              	
  72              	
  73              	.globl RPi_CPUCurrentMode;				// Make sure RPi_CPUCurrentMode label is global
  74 0004 00000000 	RPi_CPUCurrentMode : .4byte 0;			//  CPU current Mode is 4 byte variable
  75              	
  76              	.globl RPi_Heap; @ Make sure RPi_Heap label is global
  77 0008 00000000 	RPi_Heap : .4byte 0; @ RPi_Heap is 4 byte variable
  78              	
  79              	.section ".text.startup", "ax", %progbits
  80              	.balign	4
  81              	.globl _start
  82              	.syntax unified
  83              	.arm
  84              	_start:
  85              	;@"================================================================"
  86              	;@ Grab cpu mode and start address and hold in a high register.
  87              	;@"================================================================"
  88 0000 0FC0A0E1 		mov r12, pc;							;@ Hold boot address in high register R12
  89 0004 00B00FE1 		mrs r11, CPSR							;@ Read current CPU mode
  90 0008 1FB00BE2 		and r11, r11, #0x1F						;@ Clear all but CPU mode bits in register r11
  91              	;@"================================================================"
  92              	;@ If the cpu is in HYP_MODE(EL2) we will bring it SVC_MODE (EL1).
  93              	;@"================================================================"
  94              	multicore_start:
  95 000c 00000FE1 	    mrs r0,cpsr								;@ Fetch the cpsr register which includes CPU mode bits 
  96 0010 1F1000E2 	 	and r1, r0, #0x1F						;@ Mask off the CPU mode bits to register r1                            
  97 0014 1A0051E3 	 	cmp r1, #CPU_HYPMODE					;@ Check we are in HYP_MODE											
  98 0018 0500001A 		bne .NotInHypMode						;@ Branch if not equal meaning was not in HYP_MODE  
  99 001c 1F00C0E3 		bic r0,r0,#0x1F							;@ Clear the CPU mode bits in register r0							
 100 0020 D30080E3 		orr r0, r0, #CPU_SVCMODE_VALUE			;@ SVC_MODE bits onto register with Irq/Fiq disabled	
 101 0024 00F06FE1 	    msr spsr_cxsf,r0						;@ Hold value in spsr_cxsf
 102 0028 04E08FE2 	    add lr,pc,#4							;@ Calculate address of .NotInHypMode label
 103              		/* I borrowed this trick from Ultibo because ARM6 code running on an ARM7/8 needs this opcode  */
 104              		/* The ARM6 compiler does not know these instructions so it is a way to get needed opcode here */
 105              	    /* So our ARM6 code can drop an arm7 or arm8 out of HYP mode and run on an ARM7/8.             
 106              	 	/* Native ARM7/8 compilers already understand the OPCODE but do not mind it this way either	   */
 107 002c 0EF32EE1 		.long 0xE12EF30E						;@ "msr ELR_hyp, lr" Set the address to ELR_hyp
 108 0030 6E0060E1 		.long 0xE160006E						;@ "eret" Elevated return which will exit at .NotInHypMode in SVC_MODE
 109              	.NotInHypMode:
 110              	;@"================================================================"
 111              	;@  Setup stack pointers for each core and each CPU operation mode
ARM GAS  C:\Users\ldebo\AppData\Local\Temp\ccBZnoYF.s 			page 3


 112              	;@"================================================================"
 113 0034 4C229FE5 	    ldr r2, = __SVC_stack_core0				;@ Address of svc_stack_core0 stack pointer value
 114 0038 4C329FE5 	    ldr r3, = __FIQ_stack_core0				;@ Address of fiq_stack_core0 stack pointer value
 115 003c 4C429FE5 	    ldr r4, = __IRQ_stack_core0				;@ Address of irq_stack_core0 stack pointer value
 116 0040 100F10EE 		mrc p15, 0, r0, c0, c0, 0				;@ Read CPU ID Register
 117 0044 48129FE5 		ldr r1, =#ARM6_CPU_ID					;@ Fetch ARM6_CPU_ID
 118 0048 000051E1 		cmp r1, r0								;@ Check for match
 119 004c 0F00000A 		beq set_svc_stack						;@ ARM6 only has 1 core so goto set svc_stack
 120 0050 B05F10EE 		mrc p15, 0, r5, c0, c0, 5				;@ Read core id on ARM7 & ARM8
 121 0054 035015E2 		ands r5, r5, #0x3						;@ Make cpu id bitmask
 122 0058 0C00000A 		beq set_svc_stack						;@ This is core 0 so set got set svc_stack
 123 005c 34229FE5 	    ldr r2, = __SVC_stack_core1				;@ Address of svc_stack_core1 stack pointer value
 124 0060 34329FE5 	    ldr r3, = __FIQ_stack_core1				;@ Address of fiq_stack_core1 stack pointer value
 125 0064 34429FE5 	    ldr r4, = __IRQ_stack_core1				;@ Address of irq_stack_core1 stack pointer value
 126 0068 010055E3 		cmp r5, #1								;@ Check cpu id for core 1
 127 006c 0700000A 		beq set_svc_stack						;@ This is core 1 so set svc_stack
 128 0070 2C229FE5 	    ldr r2, = __SVC_stack_core2				;@ Address of svc_stack_core2 stack pointer value
 129 0074 2C329FE5 	    ldr r3, = __FIQ_stack_core2				;@ Address of fiq_stack_core2 stack pointer value
 130 0078 2C429FE5 	    ldr r4, = __IRQ_stack_core2				;@ Address of irq_stack_core2 stack pointer value
 131 007c 020055E3 		cmp r5, #2								;@ Check cpu id for core 2
 132 0080 0200000A 		beq set_svc_stack						;@ This is core 2 so set svc_stack
 133 0084 24229FE5 	    ldr r2, = __SVC_stack_core3				;@ Address of svc_stack_core3 stack pointer value
 134 0088 24329FE5 	    ldr r3, = __FIQ_stack_core3				;@ Address of fiq_stack_core3 stack pointer value
 135 008c 24429FE5 	    ldr r4, = __IRQ_stack_core3				;@ Address of irq_stack_core3 stack pointer value
 136              	set_svc_stack:
 137 0090 02D0A0E1 		mov sp, r2								;@ Set the stack pointer for SVC_MODE 
 138 0094 00000FE1 	    mrs r0,cpsr								;@ Fetch the cpsr register which includes CPU mode bits 
 139 0098 1F00C0E3 		bic r0,r0,#0x1F							;@ Clear the CPU mode bits in register r0							
 140 009c D10080E3 		orr r0, r0, #CPU_FIQMODE_VALUE			;@ FIQ_MODE bits onto register with Irq/Fiq disabled
 141 00a0 00F021E1 	    msr CPSR_c, r0							;@ Switch to FIQ_MODE
 142 00a4 03D0A0E1 		mov sp, r3								;@ Set the stack pointer for FIQ_MODE 
 143 00a8 1F00C0E3 		bic r0,r0,#0x1F							;@ Clear the CPU mode bits in register r0	
 144 00ac D20080E3 		orr r0, r0, #CPU_IRQMODE_VALUE			;@ IRQ_MODE bits onto register with Irq/Fiq disabled	
 145 00b0 00F021E1 	    msr CPSR_c, r0							;@ Switch to IRQ_MODE
 146 00b4 04D0A0E1 		mov sp, r4								;@ Set the stack pointer for IRQ_MODE 
 147 00b8 1F00C0E3 		bic r0,r0,#0x1F							;@ Clear the CPU mode bits in register r0							
 148 00bc D30080E3 		orr r0, r0, #CPU_SVCMODE_VALUE			;@ SVC_MODE bits onto register with Irq/Fiq disabled	
 149 00c0 00F021E1 	    msr CPSR_c, r0							;@ Switch to SVC_MODE again all stacks ready to go
 150              	@"================================================================"
 151              	;@ PI NSACR regsister setup for access to floating point unit
 152              	;@ Cortex A-7 => Section 4.3.34. Non-Secure Access Control Register
 153              	;@ Cortex A-53 => Section 4.5.32. Non-Secure Access Control Register
 154              	;@"================================================================"
 155 00c4 510F11EE 		mrc p15, 0, r0, c1, c1, 2				;@ Read NSACR into R0
 156 00c8 030B50E3 		cmp r0, #0x00000C00						;@ Access turned on or in AARCH32 mode and can not touch register or EL3 
 157 00cc 0100000A 		beq .free_to_enable_fpu1
 158 00d0 030B80E3 		orr r0, r0, #0x3<<10					;@ Set access to both secure and non secure modes
 159 00d4 510F01EE 		mcr p15, 0, r0, c1, c1, 2				;@ Write NSACR
 160              	;@"================================================================"
 161              	;@ Bring fpu online
 162              	;@"================================================================"
 163              	.free_to_enable_fpu1:
 164 00d8 500F11EE 		mrc p15, 0, r0, c1, c0, #2				;@ R0 = Access Control Register
 165 00dc 0F0680E3 		orr r0, #(0x300000 + 0xC00000)			;@ Enable Single & Double Precision
 166 00e0 500F01EE 		mcr p15,0,r0,c1,c0, #2					;@ Access Control Register = R0
 167 00e4 0101A0E3 		mov r0, #0x40000000						;@ R0 = Enable VFP
 168 00e8 100AE8EE 		vmsr fpexc, r0							;@ FPEXC = R0
ARM GAS  C:\Users\ldebo\AppData\Local\Temp\ccBZnoYF.s 			page 4


 169              	;@"================================================================"
 170              	;@ Enable L1 cache
 171              	;@"================================================================"
 172              	.equ SCTLR_ENABLE_DATA_CACHE,			0x4
 173              	.equ SCTLR_ENABLE_BRANCH_PREDICTION,	0x800
 174              	.equ SCTLR_ENABLE_INSTRUCTION_CACHE,	0x1000
 175 00ec 100F11EE 	    mrc p15,0,r0,c1,c0,0					;@ R0 = System Control Register
 176              	
 177              	    /* Enable caches and branch prediction */
 178 00f0 020B80E3 	    orr r0, #SCTLR_ENABLE_BRANCH_PREDICTION
 179 00f4 040080E3 	    orr r0, #SCTLR_ENABLE_DATA_CACHE
 180 00f8 010A80E3 	    orr r0, #SCTLR_ENABLE_INSTRUCTION_CACHE
 181              	
 182 00fc 100F01EE 	    mcr p15,0,r0,c1,c0,0					;@ System Control Register = R0
 183              	;@"================================================================"
 184              	;@ Check if BC2835 and if so branch over multi-core park routine
 185              	;@"================================================================"
 186 0100 100F10EE 		mrc p15,0,r0,c0,c0,0					;@ Read CPU ID Register
 187 0104 88119FE5 		ldr r1, =#ARM6_CPU_ID					;@ fetch ARM6_CPU_ID
 188 0108 000051E1 		cmp r1, r0								;@ Check for match
 189 010c 0700000A 		beq .cpu0_exit_multicore_park			;@ Branch as Arm6 has only 1 CPU 
 190              	;@"================================================================"
 191              	;@ Now park Core 1,2,3 into secondary spinloop on BCM2836, BCM2837
 192              	;@ If bootloader is used this will not happen but booting with the
 193              	;@ "OldKernel=1" from 0x0000 this can happen. Core 0 continues on.
 194              	;@"================================================================"
 195 0110 B00F10EE 		mrc p15, 0, r0, c0, c0, 5				;@ Read core id on ARM7 & ARM8
 196 0114 030010E2 		ands r0, r0, #0x3					    ;@ Make core 2 bit bitmask in R0
 197 0118 0400000A 		beq  .cpu0_exit_multicore_park			;@ Core 0 jumps out
 198 011c 98119FE5 		ldr r1, =RPi_CoresReady					;@ Address of CoreReady count
 199 0120 000091E5 		ldr r0, [r1]							;@ Load current core count 
 200 0124 010080E2 		add r0, r0, #1							;@ Add one as core about to go ready
 201 0128 000081E5 		str r0, [r1]							;@ Update CoreReady count
 202 012c 810000EA 		b    SecondarySpin						;@ Jump to setup secondary spin
 203              	.cpu0_exit_multicore_park:
 204              	;@"================================================================"
 205              	;@ Now store initial CPU boot mode and address we might need later.
 206              	;@"================================================================"
 207 0130 88119FE5 		ldr r1, =RPi_BootAddr					;@ Address to hold Boot address
 208 0134 08C04CE2 		sub r12, #8								;@ Subtract op-code offset
 209 0138 00C081E5 		str r12, [r1]							;@ Save the boot address we started at
 210 013c 80119FE5 		ldr r1, =RPi_CPUBootMode				;@ Memory address to save this CPU boot mode
 211 0140 00B081E5 		str r11, [r1]							;@ Save the boot mode we started in
 212              	;@"================================================================"
 213              	;@  Initial CPU core ready so set CoreReady count to 1.
 214              	;@"================================================================"
 215 0144 0100A0E3 		mov r0, #1								;@ Core0 is will be ready
 216 0148 6C119FE5 		ldr r1, =RPi_CoresReady					;@ Memory address to save Cores ready
 217 014c 000081E5 		str r0, [r1]							;@ Set RPi_CoresReady to 1
 218              	;@"================================================================"
 219              	;@ Fetch and hold CPU changed mode. If we changed modes this value
 220              	;@ will now reflect a change from the original held RPi_CPUBootMode.
 221              	;@"================================================================"
 222 0150 00200FE1 		mrs r2, CPSR
 223 0154 1F2002E2 		and r2, r2, #0x1F						;@ Clear all but CPU mode bits in register r2
 224 0158 68119FE5 		ldr r1, =RPi_CPUCurrentMode
 225 015c 002081E5 		str r2, [r1]							;@ Hold the changed CPU mode
ARM GAS  C:\Users\ldebo\AppData\Local\Temp\ccBZnoYF.s 			page 5


 226              	;@"================================================================"
 227              	;@ Read the Arm Main CPUID register => sets RPi_CpuId
 228              	;@"================================================================"
 229 0160 64119FE5 		ldr r1, =RPi_CpuId						;@ Address to hold CPU id
 230 0164 100F10EE 		mrc p15, 0, r0, c0, c0, 0				;@ Read Main ID Register
 231 0168 000081E5 		str r0, [r1]							;@ Save CPU Id for interface 
 232              	;@"================================================================"
 233              	;@ Store the compiler mode in RPi_CompileMode
 234              	;@"================================================================"
 235 016c 000020E0 		eor r0, r0, r0;							;@ Zero register
 236              	.if (__ARM_ARCH == 6)						// Compiling for ARM6
 237 0170 0600A0E3 		mov r0, #0x06							;@ Compiled for ARM6 CPU
 238              	.endif
 239              	.if (__ARM_ARCH == 7)						// Compiling for ARM7
 240              		mov r0, #0x07							;@ Compiled for ARM7 CPU
 241              	.endif
 242              	.if (__ARM_ARCH == 8)						// Compiling for ARM8
 243              		mov r0, #0x08							;@ Compiled for ARM8 CPU
 244              	.endif
 245 0174 800080E3 		orr r0, r0, #(4 << 5)					;@ Code is setup to support 4 cores			
 246 0178 50119FE5 		ldr r1, =RPi_CompileMode
 247 017c 000081E5 		str r0, [r1]							;@ Store the compiler mode  
 248              	;;@"================================================================"
 249              	;@ Try Auto-Detect Raspberry PI IO base address at 1st position
 250              	;@"================================================================"
 251 0180 4C219FE5 		ldr r2, =#0x61757830
 252 0184 4C119FE5 		ldr r1, =#0x20215010
 253 0188 000091E5 		ldr r0, [r1]							;@ Fetch value at 0x20215010 being uart0
 254 018c 000052E1 		cmp r2, r0;								;@ Check if we have the value the uart0 will be at reset
 255 0190 0600001A 		bne .not_at_address_1
 256              	;@"================================================================"
 257              	;@  Raspberry PI IO base address was detected as 0x20000000
 258              	;@  RPi_IO_Base_Addr => 0x20000000
 259              	;@"================================================================"
 260 0194 40119FE5 		ldr r1, =RPi_BusAlias
 261 0198 0101A0E3 		mov	r0, #0x40000000
 262 019c 000081E5 		str	r0, [r1]							;@ Hold bus alias
 263 01a0 38119FE5 		ldr r1, =RPi_IO_Base_Addr
 264 01a4 0202A0E3 		mov	r0, #0x20000000
 265 01a8 000081E5 		str	r0, [r1]							;@ Hold the detected address
 266 01ac 0A0000EA 		b .autodetect_done;
 267              	;@"================================================================"
 268              	;@ Try Auto-Detect Raspberry PI IO base address at 2nd position
 269              	;@"================================================================"
 270              	.not_at_address_1:
 271 01b0 2C119FE5 		ldr r1, =#0x3f215010
 272 01b4 000091E5 		ldr r0, [r1]							;@ Fetch value at 0x3f215010
 273 01b8 000052E1 		cmp r2, r0								;@ Check if we have the value the uart0 will be at reset
 274 01bc 0000000A 		beq .At2ndAddress
 275              	;@"================================================================"
 276              	;@ ** Auto-Detected failed, not safe to do anything but deadloop **
 277              	;@ Would love to be display an error state but no ability on Pi
 278              	;@"================================================================"
 279              	.pi_detect_fail:
 280 01c0 FEFFFFEA 	    b .pi_detect_fail
 281              	;@"================================================================"
 282              	;@  Raspberry PI IO base address was detected as 0x3f000000
ARM GAS  C:\Users\ldebo\AppData\Local\Temp\ccBZnoYF.s 			page 6


 283              	;@  RPi_IO_Base_Addr => 0x3f000000
 284              	;@"================================================================"
 285              	.At2ndAddress:
 286 01c4 10119FE5 		ldr r1, =RPi_BusAlias
 287 01c8 0301A0E3 		mov	r0, #0xC0000000
 288 01cc 000081E5 		str	r0, [r1]							;@ Hold bus alias
 289              	;@ Pi2 address 0x3f000000
 290 01d0 08119FE5 		ldr r1, =RPi_IO_Base_Addr
 291 01d4 3F04A0E3 		mov	r0, #0x3f000000						;@ Hold the detected address
 292 01d8 000081E5 		str	r0, [r1]
 293              	.autodetect_done:
 294              	;@"================================================================"
 295              	;@  We are getting close to handing over to C so we need to copy the 
 296              	;@  ISR table to position 0x0000 so interrupts can be used if wanted 
 297              	;@"================================================================"
 298 01dc 04019FE5 		ldr r0, = _isr_Table					;@ Address of isr_Table
 299 01e0 0010A0E3 		mov     r1, #0x0000						;@ Destination 0x0000
 300 01e4 FC03B0E8 	    ldmia   r0!,{r2, r3, r4, r5, r6, r7, r8, r9}
 301 01e8 FC03A1E8 	    stmia   r1!,{r2, r3, r4, r5, r6, r7, r8, r9}
 302 01ec FC03B0E8 	    ldmia   r0!,{r2, r3, r4, r5, r6, r7, r8, r9}
 303 01f0 FC03A1E8 	    stmia   r1!,{r2, r3, r4, r5, r6, r7, r8, r9}
 304              	;@"================================================================"
 305              	;@ Now Clear the .BSS segment as the C compiler expects us to do
 306              	;@"================================================================"
 307 01f4 F0009FE5 		ldr   r0, =__bss_start__
 308 01f8 F0109FE5 		ldr   r1, =__bss_end__	
 309 01fc 0020A0E3 		mov   r2, #0
 310              	.clear_bss:
 311 0200 010050E1 	    cmp   r0, r1
 312 0204 020000AA 	    bge   .clear_bss_exit
 313 0208 002080E5 	    str   r2, [r0]
 314 020c 040080E2 		add   r0, r0, #4
 315 0210 FAFFFFEA 	    b .clear_bss
 316              	.clear_bss_exit:
 317              	;@"================================================================"
 318              	;@ Bring Core 1,2,3 to secondary spin if not an ARM6 and bootloaded
 319              	;@"================================================================"
 320 0214 100F10EE 		mrc p15,0,r0,c0,c0,0					;@ Read Main ID Register
 321 0218 74109FE5 		ldr r1, =#ARM6_CPU_ID					;@ fetch ARM6_CPU_ID
 322 021c 000051E1 		cmp r1, r0								;@ Check for match
 323 0220 1600000A 		beq .NoMultiCoreSetup					;@ ARM6 jumps as no multicore
 324 0224 94109FE5 		ldr r1, =RPi_BootAddr					;@ Address to hold Boot address
 325 0228 000091E5 		ldr r0, [r1]							;@ Fetch bootAddress
 326 022c 0219A0E3 		ldr r1, =#0x8000						;@ Check against 0x8000
 327 0230 000051E1 		cmp r1, r0								;@ Check for match	
 328 0234 1100001A 		bne .NoMultiCoreSetup					;@ Not bootladed so jump multicore setup
 329 0238 0111A0E3 	 	mov	r1, #1073741824						;@ 0x40000000
 330 023c B0209FE5 	    ldr r2, =multicore_start				;@ Address of CoreSetup call
 331 0240 9C2081E5 		str	r2, [r1, #156]						;@ Write ExtraCoreSetup to 0x4000009C which signals core1 to jump
 332 0244 70309FE5 	 	ldr r3, =RPi_CoresReady					;@ Address of CoreReady count
 333              	.WaitCore1ACK:
 334 0248 001093E5 		ldr	r1, [r3]							;@ Read CoreReady
 335 024c 020051E3 		cmp	r1, #2								;@ Wait for setting of second core ready
 336 0250 FCFFFF0A 		beq	.WaitCore1ACK						;@ Core1 not ready so read again
 337 0254 0111A0E3 	 	mov	r1, #1073741824						;@ 0x40000000
 338 0258 94209FE5 	    ldr r2, =multicore_start				;@ Address of CoreSetup call
 339 025c AC2081E5 		str	r2, [r1, #172]						;@ Write ExtraCoreSetup to 0x400000AC which signals core2 to jump
ARM GAS  C:\Users\ldebo\AppData\Local\Temp\ccBZnoYF.s 			page 7


 340              	.WaitCore2ACK:
 341 0260 001093E5 		ldr	r1, [r3]							;@ Read CoreReady count
 342 0264 030051E3 		cmp	r1, #3								;@ Wair for setting of third core ready
 343 0268 FCFFFF0A 		beq	.WaitCore2ACK						;@ Core2 not ready so read again
 344 026c 0111A0E3 	 	mov	r1, #1073741824						;@ 0x40000000
 345 0270 BC2081E5 		str	r2, [r1, #188]						;@ Write ExtraCoreSetup to 0x400000BC which signals core3 to jump
 346              	.WaitCore3ACK:
 347 0274 001093E5 		ldr	r1, [r3]							;@ Read CoreReady count
 348 0278 040051E3 		cmp	r1, #4								;@ check for ACK
 349 027c FCFFFF0A 		beq	.WaitCore3ACK						;@ Core2 not ready so read again
 350              	.NoMultiCoreSetup:
 351              	;@"================================================================"
 352              	;@ Finally that all done jump to the C compiler entry point
 353              	;@"================================================================"
 354 0280 FEFFFFEB 	   	 bl kernel_main
 355              	hang:
 356 0284 FEFFFFEA 		b hang
 357              	.balign	4
 358 0288 00000000 	.ltorg									;@ Tell assembler ltorg data for this code can go here
 358      00000000 
 358      00000000 
 358      67B70F41 
 358      00000000 
 359              	
 360              	_isr_Table:
 361 02f8 18F09FE5 	    ldr pc, _reset_h
 362 02fc 18F09FE5 	    ldr pc, _undefined_instruction_vector_h
 363 0300 18F09FE5 	    ldr pc, _software_interrupt_vector_h
 364 0304 18F09FE5 	    ldr pc, _prefetch_abort_vector_h
 365 0308 18F09FE5 	    ldr pc, _data_abort_vector_h
 366 030c 18F09FE5 	    ldr pc, _unused_handler_h
 367 0310 18F09FE5 	    ldr pc, _interrupt_vector_h
 368 0314 18F09FE5 	    ldr pc, _fast_interrupt_vector_h
 369              	
 370 0318 00000000 	_reset_h:                           .word   _start
 371 031c 84020000 	_undefined_instruction_vector_h:    .word   hang
 372 0320 84020000 	_software_interrupt_vector_h:       .word   hang
 373 0324 84020000 	_prefetch_abort_vector_h:           .word   hang
 374 0328 84020000 	_data_abort_vector_h:               .word   hang
 375 032c 84020000 	_unused_handler_h:                  .word   hang
 376 0330 1C000000 	_interrupt_vector_h:                .word   _irq_handler_stub
 377 0334 84020000 	_fast_interrupt_vector_h:           .word   hang	
 378              	
 379              	
 380              	/*++++++++++++++++++++++++++++++++++++++++++++++++++++++++++++++++++++++++++}
 381              	{    Modified bootloader Spin loop but tolerant on registers R0-R3 for C    }
 382              	{++++++++++++++++++++++++++++++++++++++++++++++++++++++++++++++++++++++++++*/
 383              	.balign	4
 384              	SecondarySpin:
 385 0338 B00F10EE 		mrc     p15, 0, r0, c0, c0, 5
 386 033c 030010E2 		ands r0, r0, #0x3					    // Make core 2 bit bitmask in R0
 387 0340 44509FE5 		ldr r5, =mbox		
 388 0344 005095E5 		ldr r5, [r5]		@ mbox
 389 0348 0030A0E3 		mov	r3, #0			@ magic
 390 034c 405085E2 		add	r5, #(0x400000CC-0x4000008C)	@ mbox
 391              	SecondarySpinLoop:
 392 0350 004295E7 		ldr	r4, [r5, r0, lsl #4]
ARM GAS  C:\Users\ldebo\AppData\Local\Temp\ccBZnoYF.s 			page 8


 393 0354 030054E1 		cmp	r4, r3
 394 0358 FCFFFF0A 		beq	SecondarySpinLoop
 395              	@ clear mailbox
 396 035c 004285E7 		str	r4, [r5, r0, lsl #4]
 397 0360 0000A0E3 		mov	r0, #0
 398 0364 24109FE5 		ldr r1, =machid		
 399 0368 001091E5 		ldr r1, [r1]		@ BCM2708 machine id
 400 036c 20209FE5 		ldr r2, = atags		
 401 0370 002092E5 		ldr r2, [r2]		@ ATAGS
 402 0374 1CE09FE5 		ldr lr, =SecondarySpin
 403 0378 14FF2FE1 		bx	r4
 404 037c EDFFFFEA 		b SecondarySpin
 405 0380 8C000040 	mbox: 	.4byte 0x4000008C
 406 0384 420C0000 	machid:	.4byte 3138
 407 0388 00010000 	atags:  .4byte 0x100
 408              	.balign	4
 409 038c 80030000 	.ltorg										;@ Tell assembler ltorg data for this code can go here
 409      84030000 
 409      88030000 
 409      38030000 
 410              	
 411              	.globl RPi_CpuIdString
 412              	RPi_CpuIdString:
 413 039c 34009FE5 		ldr r0, =ARM6_STR						
 414 03a0 102F10EE 		mrc p15,0,r2,c0,c0,0					;@ Read Main ID Register
 415 03a4 30109FE5 		ldr r1, =#ARM6_CPU_ID					;@ Fetch ARM6_CPU_ID
 416 03a8 020051E1 		cmp r1, r2								;@ Check for match	
 417 03ac 0800000A 		beq CpuIdStringDone
 418 03b0 28009FE5 		ldr r0, =ARM7_STR
 419 03b4 28109FE5 		ldr r1, =#ARM7_CPU_ID					;@ Fetch ARM7_CPU_ID
 420 03b8 020051E1 		cmp r1, r2								;@ Check for match
 421 03bc 0400000A 		beq CpuIdStringDone
 422 03c0 20009FE5 		ldr r0, =ARM8_STR
 423 03c4 20109FE5 		ldr r1, =#ARM8_CPU_ID					;@ Fetch ARM8_CPU_ID
 424 03c8 020051E1 		cmp r1, r2								;@ Check for match
 425 03cc 0000000A 		beq CpuIdStringDone	
 426 03d0 18009FE5 		ldr r0, =ARMX_STR
 427              	CpuIdStringDone:
 428 03d4 1EFF2FE1 		bx  lr									;@ Return
 429              	.balign	4
 430 03d8 00000000 	.ltorg										;@ Tell assembler ltorg data for this code can go here
 430      67B70F41 
 430      0E000000 
 430      73C00F41 
 430      19000000 
 431              	
 432              	.globl EnableInterrupts
 433              	EnableInterrupts:
 434 03f4 800008F1 		cpsie i									;@ Enable IRQ
 435 03f8 1EFF2FE1 		bx  lr									;@ Return
 436              	
 437              	.globl DisableInterrupts
 438              	DisableInterrupts:
 439 03fc 80000CF1 	    cpsid i									;@ Disable IRQ
 440 0400 1EFF2FE1 		bx  lr									;@ Return
 441              	
 442              	
ARM GAS  C:\Users\ldebo\AppData\Local\Temp\ccBZnoYF.s 			page 9


 443              	.globl CoreExecute
 444              	CoreExecute:
 445 0404 FF0010E2 		ands r0, r0, #255
 446 0408 0700000A 		beq CoreExecuteFail
 447 040c 20309FE5 		ldr r3, =RPi_CoresReady
 448 0410 002093E5 		ldr r2, [r3]							// Fetch cores ready count
 449 0414 020050E1 		cmp r0, r2
 450 0418 0300002A 		bcs	CoreExecuteFail
 451 041c 14309FE5 		ldr r3, =#0x4000008C					// Load address of spins
 452 0420 001283E7 		str r1, [r3, r0, lsl #4]				// Save caller address
 453 0424 0100A0E3 		mov r0, #1
 454 0428 1EFF2FE1 		bx  lr
 455              	CoreExecuteFail:
 456 042c 0000A0E3 		mov r0, #0
 457 0430 1EFF2FE1 		bx  lr
 458              	.balign	4
 459 0434 00000000 	.ltorg										// Tell assembler ltorg data for this code can go here
 459      8C000040 
 460              	
 461              	/*++++++++++++++++++++++++++++++++++++++++++++++++++++++++++++++++++++++++++}
 462              	{			MEMORY HELPER ROUTINES PROVIDE BY RPi-SmartStart API		    }
 463              	{++++++++++++++++++++++++++++++++++++++++++++++++++++++++++++++++++++++++++*/
 464              	
 465              	/* "PROVIDE C FUNCTION: uint32_t ARMaddrToGPUaddr (void* ARMaddress);" */
 466              	.section .text.ARMaddrToGPUaddr, "ax", %progbits
 467              	.balign	4
 468              	.globl ARMaddrToGPUaddr;		
 469              	.type ARMaddrToGPUaddr, %function
 470              	.syntax unified
 471              	.arm
 472              	;@"================================================================"
 473              	;@ ARMaddrToGPUaddr -- Composite Pi1, Pi2 & Pi3 code
 474              	;@ C Function: uint32_t ARMaddrToGPUaddr (void* ARMaddress);
 475              	;@ Entry: R0 will have ARMAddress value
 476              	;@"================================================================"
 477              	ARMaddrToGPUaddr:
 478 0000 08109FE5 		ldr r1, =RPi_BusAlias
 479 0004 001091E5 	    ldr r1,[r1]								;@ Fetch bus alias	
 480 0008 010080E1 		orr r0, r0, r1							;@ Create bus address
 481 000c 1EFF2FE1 		bx   lr									;@ Return
 482              	.balign	4
 483 0010 00000000 	.ltorg										;@ Tell assembler ltorg data for this code can go here
 484              	.size	ARMaddrToGPUaddr, .-ARMaddrToGPUaddr
 485              	
 486              	
 487              	/* "PROVIDE C FUNCTION: uint32_t GPUaddrToARMaddr (uint32_t BUSaddress);" */
 488              	.section .text.GPUaddrToARMaddr, "ax", %progbits
 489              	.balign	4
 490              	.globl GPUaddrToARMaddr;		
 491              	.type GPUaddrToARMaddr, %function
 492              	.syntax unified
 493              	.arm
 494              	;@"================================================================"
 495              	;@ GPUaddrToARMaddr -- Composite Pi1, Pi2 & Pi3 code
 496              	;@ C Function: uint32_t GPUaddrToARMaddr (uint32_t BUSaddress);
 497              	;@ Entry: R0 will have GPUAddress value
 498              	;@"================================================================"
ARM GAS  C:\Users\ldebo\AppData\Local\Temp\ccBZnoYF.s 			page 10


 499              	GPUaddrToARMaddr:
 500 0000 08109FE5 		ldr r1, =RPi_BusAlias
 501 0004 001091E5 	    ldr r1,[r1]								;@ Fetch bus alias	
 502 0008 0100C0E1 		bic r0, r0, r1							;@ Create arm address
 503 000c 1EFF2FE1 		bx   lr									;@ Return
 504              	.balign	4
 505 0010 00000000 	.ltorg										;@ Tell assembler ltorg data for this code can go here
 506              	.size	GPUaddrToARMaddr, .-GPUaddrToARMaddr
 507              	
 508              	/* Provide weak reference c_irq_handler so if user does not use it functions as dummy */
 509              	.weak c_irq_handler
 510              	c_irq_handler:
 511 0014 1EFF2FE1 		bx  lr									;@ Return
 512              	
 513              	/* Provide weak reference c_irq_identify_and_clear_source so if user does not use it functions as d
 514              	.weak c_irq_identify_and_clear_source
 515              	c_irq_identify_and_clear_source:
 516 0018 1EFF2FE1 		bx  lr									;@ Return
 517              	
 518              	/* Re-entrant interrupt handler stub */
 519              	/* http://infocenter.arm.com/help/index.jsp?topic=/com.arm.doc.faqs/ka13552.html */
 520              	_irq_handler_stub:
 521 001c 04E04EE2 	    sub lr, lr, #4							;@ Use SRS to save LR_irq and SPSP_irq
 522 0020 13056DF9 	    srsfd sp!, #0x13						;@ on to the SVC mode stack
 523              	
 524 0024 130002F1 	    cps #0x13								;@ Switch to SVC mode
 525 0028 0F102DE9 	    push {r0-r3, r12}						;@ Store AAPCS regs on to SVC stack
 526              	
 527 002c 0D10A0E1 	    mov r1, sp
 528 0030 041001E2 	    and r1, r1, #4							;@ Ensure 8-byte stack alignment…
 529 0034 01D04DE0 	    sub sp, sp, r1							;@ …adjust stack as necessary
 530 0038 02402DE9 	    push {r1, lr}							;@ Store adjustment and LR_svc
 531              	
 532 003c FEFFFFEB 	    bl c_irq_identify_and_clear_source		;@ Clear IRQ source
 533 0040 800008F1 	    cpsie i									;@ Enable IRQ
 534 0044 FEFFFFEB 	    bl c_irq_handler						;@ Branch to 2nd level handler
 535 0048 80000CF1 	    cpsid i									;@ Disable IRQ
 536              	
 537 004c 0240BDE8 	    pop {r1, lr}							;@ Restore LR_svc
 538 0050 01D08DE0 	    add sp, sp, r1							;@ Un-adjust stack
 539              	
 540 0054 0F10BDE8 	    pop {r0-r3, r12}						;@ Restore AAPCS registers
 541 0058 000ABDF8 	    rfefd sp!								;@ Return from the SVC mode stack
 542              	
 543              	.section .text._sbrk, "ax", %progbits
 544              	.balign	4
 545              	.globl _sbrk;			
 546              	.type _sbrk, %function
 547              	.syntax unified
 548              	.arm
 549              	_sbrk:
 550 0000 1C209FE5 	        ldr     r2, =RPi_Heap
 551 0004 1C109FE5 	        ldr     r1, =_end
 552 0008 003092E5 	        ldr     r3, [r2]
 553 000c 000053E3 	        cmp     r3, #0
 554 0010 0130A001 	        moveq   r3, r1
 555 0014 000083E0 	        add     r0, r3, r0
ARM GAS  C:\Users\ldebo\AppData\Local\Temp\ccBZnoYF.s 			page 11


 556 0018 000082E5 	        str     r0, [r2]
 557 001c 0300A0E1 	        mov     r0, r3
 558 0020 1EFF2FE1 	        bx      lr
 559              	.balign	4
 560 0024 00000000 	.ltorg										;@ Tell assembler ltorg data for this code can go here
 560      00000000 
 561              	.size	_sbrk, .-_sbrk
 562              	
 563              	/*==========================================================================}
 564              	;{					  CPU STRING CONSTANT DEFINITIONS					    }
 565              	;{=========================================================================*/
 566              	.section ".rodata.cpuid", "a", %progbits
 567              	.balign	4
 568 0000 61726D31 	ARM6_STR: .string "arm1176jzf-s\0"
 568      3137366A 
 568      7A662D73 
 568      0000
 569 000e 636F7274 	ARM7_STR: .string "cortex-a7\0"
 569      65782D61 
 569      370000
 570 0019 636F7274 	ARM8_STR: .string "cortex-a53\0"
 570      65782D61 
 570      35330000 
 571 0025 756E6B6E 	ARMX_STR: .string "unknown ARM cpu\0"
 571      6F776E20 
 571      41524D20 
 571      63707500 
 571      00
 572              	
 573              	/****************************************************************
 574              	       	   DATA FOR SMARTSTART32 EXPOSED TO INTERFACE 
 575              	****************************************************************/
 576              	.section ".data.smartstart32", "aw"
 577              	.balign 4
 578              	
 579              	.globl RPi_IO_Base_Addr;				// Make sure Pi_IO_Base_Addr label is global
 580 0000 00000000 	RPi_IO_Base_Addr : .4byte 0;			// Peripheral Base addr is 4 byte variable in 32bit mode
 581              	
 582              	.globl RPi_BootAddr;					// Make sure RPi_BootAddr label is global
 583 0004 00000000 	RPi_BootAddr : .4byte 0;				// CPU boot address is 4 byte variable in 32bit mode
 584              	
 585              	.globl RPi_CoresReady;					// Make sure RPi_CoresReady label is global
 586 0008 00000000 	RPi_CoresReady : .4byte 0;				// CPU cores ready for use is 4 byte variable in 32bit mode
 587              	
 588              	.globl RPi_CPUBootMode;					// Make sure RPi_CPUBootMode label is global
 589 000c 00000000 	RPi_CPUBootMode : .4byte 0;				// CPU Boot Mode is 4 byte variable in 32bit mode
 590              	
 591              	.globl RPi_CpuId;						// Make sure RPi_CpuId label is global
 592 0010 00000000 	RPi_CpuId : .4byte 0;					// CPU Id is 4 byte variable in 32bit mode
 593              	
 594              	.globl RPi_CompileMode;					// Make sure RPi_CompileMode label is global
 595 0014 00000000 	RPi_CompileMode : .4byte 0;				// Compile mode is 4 byte variable in 32bit mode
ARM GAS  C:\Users\ldebo\AppData\Local\Temp\ccBZnoYF.s 			page 12


DEFINED SYMBOLS
      SmartStart32.S:38     *ABS*:410fb767 ARM6_CPU_ID
      SmartStart32.S:39     *ABS*:410fc073 ARM7_CPU_ID
      SmartStart32.S:40     *ABS*:410fd034 ARM8_CPU_ID
      SmartStart32.S:45     *ABS*:00000011 CPU_FIQMODE
      SmartStart32.S:46     *ABS*:00000012 CPU_IRQMODE
      SmartStart32.S:47     *ABS*:00000013 CPU_SVCMODE
      SmartStart32.S:48     *ABS*:0000001a CPU_HYPMODE
      SmartStart32.S:59     *ABS*:000000d1 CPU_FIQMODE_VALUE
      SmartStart32.S:60     *ABS*:000000d2 CPU_IRQMODE_VALUE
      SmartStart32.S:61     *ABS*:000000d3 CPU_SVCMODE_VALUE
      SmartStart32.S:67     .data.smartstart:00000000 $d
      SmartStart32.S:69     .data.smartstart:00000000 RPi_BusAlias
      SmartStart32.S:74     .data.smartstart:00000004 RPi_CPUCurrentMode
      SmartStart32.S:77     .data.smartstart:00000008 RPi_Heap
      SmartStart32.S:80     .text.startup:00000000 $a
      SmartStart32.S:84     .text.startup:00000000 _start
      SmartStart32.S:94     .text.startup:0000000c multicore_start
      SmartStart32.S:109    .text.startup:00000034 .NotInHypMode
      SmartStart32.S:107    .text.startup:0000002c $d
      SmartStart32.S:113    .text.startup:00000034 $a
      SmartStart32.S:136    .text.startup:00000090 set_svc_stack
      SmartStart32.S:163    .text.startup:000000d8 .free_to_enable_fpu1
      SmartStart32.S:172    *ABS*:00000004 SCTLR_ENABLE_DATA_CACHE
      SmartStart32.S:173    *ABS*:00000800 SCTLR_ENABLE_BRANCH_PREDICTION
      SmartStart32.S:174    *ABS*:00001000 SCTLR_ENABLE_INSTRUCTION_CACHE
      SmartStart32.S:203    .text.startup:00000130 .cpu0_exit_multicore_park
      SmartStart32.S:586    .data.smartstart32:00000008 RPi_CoresReady
      SmartStart32.S:384    .text.startup:00000338 SecondarySpin
      SmartStart32.S:583    .data.smartstart32:00000004 RPi_BootAddr
      SmartStart32.S:589    .data.smartstart32:0000000c RPi_CPUBootMode
      SmartStart32.S:592    .data.smartstart32:00000010 RPi_CpuId
      SmartStart32.S:595    .data.smartstart32:00000014 RPi_CompileMode
      SmartStart32.S:270    .text.startup:000001b0 .not_at_address_1
      SmartStart32.S:580    .data.smartstart32:00000000 RPi_IO_Base_Addr
      SmartStart32.S:293    .text.startup:000001dc .autodetect_done
      SmartStart32.S:285    .text.startup:000001c4 .At2ndAddress
      SmartStart32.S:279    .text.startup:000001c0 .pi_detect_fail
      SmartStart32.S:360    .text.startup:000002f8 _isr_Table
      SmartStart32.S:310    .text.startup:00000200 .clear_bss
      SmartStart32.S:316    .text.startup:00000214 .clear_bss_exit
      SmartStart32.S:350    .text.startup:00000280 .NoMultiCoreSetup
      SmartStart32.S:333    .text.startup:00000248 .WaitCore1ACK
      SmartStart32.S:340    .text.startup:00000260 .WaitCore2ACK
      SmartStart32.S:346    .text.startup:00000274 .WaitCore3ACK
      SmartStart32.S:355    .text.startup:00000284 hang
      SmartStart32.S:358    .text.startup:00000288 $d
      SmartStart32.S:370    .text.startup:00000318 _reset_h
      SmartStart32.S:361    .text.startup:000002f8 $a
      SmartStart32.S:371    .text.startup:0000031c _undefined_instruction_vector_h
      SmartStart32.S:372    .text.startup:00000320 _software_interrupt_vector_h
      SmartStart32.S:373    .text.startup:00000324 _prefetch_abort_vector_h
      SmartStart32.S:374    .text.startup:00000328 _data_abort_vector_h
      SmartStart32.S:375    .text.startup:0000032c _unused_handler_h
      SmartStart32.S:376    .text.startup:00000330 _interrupt_vector_h
      SmartStart32.S:377    .text.startup:00000334 _fast_interrupt_vector_h
      SmartStart32.S:370    .text.startup:00000318 $d
ARM GAS  C:\Users\ldebo\AppData\Local\Temp\ccBZnoYF.s 			page 13


      SmartStart32.S:520    .text.GPUaddrToARMaddr:0000001c _irq_handler_stub
      SmartStart32.S:383    .text.startup:00000338 $a
      SmartStart32.S:405    .text.startup:00000380 mbox
      SmartStart32.S:391    .text.startup:00000350 SecondarySpinLoop
      SmartStart32.S:406    .text.startup:00000384 machid
      SmartStart32.S:407    .text.startup:00000388 atags
      SmartStart32.S:405    .text.startup:00000380 $d
      SmartStart32.S:409    .text.startup:0000038c $d
      SmartStart32.S:412    .text.startup:0000039c RPi_CpuIdString
      SmartStart32.S:568    .rodata.cpuid:00000000 ARM6_STR
      SmartStart32.S:413    .text.startup:0000039c $a
      SmartStart32.S:427    .text.startup:000003d4 CpuIdStringDone
      SmartStart32.S:569    .rodata.cpuid:0000000e ARM7_STR
      SmartStart32.S:570    .rodata.cpuid:00000019 ARM8_STR
      SmartStart32.S:571    .rodata.cpuid:00000025 ARMX_STR
      SmartStart32.S:430    .text.startup:000003d8 $d
      SmartStart32.S:433    .text.startup:000003f4 EnableInterrupts
      SmartStart32.S:434    .text.startup:000003f4 $a
      SmartStart32.S:438    .text.startup:000003fc DisableInterrupts
      SmartStart32.S:444    .text.startup:00000404 CoreExecute
      SmartStart32.S:455    .text.startup:0000042c CoreExecuteFail
      SmartStart32.S:459    .text.startup:00000434 $d
      SmartStart32.S:467    .text.ARMaddrToGPUaddr:00000000 $a
      SmartStart32.S:477    .text.ARMaddrToGPUaddr:00000000 ARMaddrToGPUaddr
      SmartStart32.S:483    .text.ARMaddrToGPUaddr:00000010 $d
      SmartStart32.S:489    .text.GPUaddrToARMaddr:00000000 $a
      SmartStart32.S:499    .text.GPUaddrToARMaddr:00000000 GPUaddrToARMaddr
      SmartStart32.S:505    .text.GPUaddrToARMaddr:00000010 $d
      SmartStart32.S:510    .text.GPUaddrToARMaddr:00000014 c_irq_handler
      SmartStart32.S:511    .text.GPUaddrToARMaddr:00000014 $a
      SmartStart32.S:515    .text.GPUaddrToARMaddr:00000018 c_irq_identify_and_clear_source
      SmartStart32.S:544    .text._sbrk:00000000 $a
      SmartStart32.S:549    .text._sbrk:00000000 _sbrk
      SmartStart32.S:560    .text._sbrk:00000024 $d
      SmartStart32.S:567    .rodata.cpuid:00000000 $d
      SmartStart32.S:577    .data.smartstart32:00000000 $d

UNDEFINED SYMBOLS
__SVC_stack_core0
__FIQ_stack_core0
__IRQ_stack_core0
__SVC_stack_core1
__FIQ_stack_core1
__IRQ_stack_core1
__SVC_stack_core2
__FIQ_stack_core2
__IRQ_stack_core2
__SVC_stack_core3
__FIQ_stack_core3
__IRQ_stack_core3
__bss_start__
__bss_end__
kernel_main
_end
ARM GAS  C:\Users\ldebo\AppData\Local\Temp\ccBZnoYF.s 			page 1


   1              		.arch armv6zk
   2              		.eabi_attribute 28, 1
   3              		.eabi_attribute 20, 1
   4              		.eabi_attribute 21, 1
   5              		.eabi_attribute 23, 3
   6              		.eabi_attribute 24, 1
   7              		.eabi_attribute 25, 1
   8              		.eabi_attribute 26, 1
   9              		.eabi_attribute 30, 2
  10              		.eabi_attribute 34, 0
  11              		.eabi_attribute 18, 4
  12              		.file	"rpi-SmartStart.C"
  13              		.text
  14              		.align	2
  15              		.syntax unified
  16              		.arm
  17              		.fpu vfp
  18              		.type	_ZL11ClearArea16P8tagINTDCjjjj, %function
  19              	_ZL11ClearArea16P8tagINTDCjjjj:
  20              		@ args = 4, pretend = 0, frame = 0
  21              		@ frame_needed = 0, uses_anonymous_args = 0
  22 0000 F0472DE9 		push	{r4, r5, r6, r7, r8, r9, r10, lr}
  23 0004 04A090E5 		ldr	r10, [r0, #4]
  24 0008 20909DE5 		ldr	r9, [sp, #32]
  25 000c 921A24E0 		mla	r4, r2, r10, r1
  26 0010 006090E5 		ldr	r6, [r0]
  27 0014 029059E0 		subs	r9, r9, r2
  28 0018 2AE0D0E5 		ldrb	lr, [r0, #42]	@ zero_extendqisi2
  29 001c 29C0D0E5 		ldrb	ip, [r0, #41]	@ zero_extendqisi2
  30 0020 2820D0E5 		ldrb	r2, [r0, #40]	@ zero_extendqisi2
  31 0024 846086E0 		add	r6, r6, r4, lsl #1
  32 0028 F087BD08 		popeq	{r4, r5, r6, r7, r8, r9, r10, pc}
  33 002c 013053E0 		subs	r3, r3, r1
  34 0030 8AA0A0E1 		lsl	r10, r10, #1
  35 0034 F087BD08 		popeq	{r4, r5, r6, r7, r8, r9, r10, pc}
  36 0038 0070A0E3 		mov	r7, #0
  37 003c 2CC1A0E1 		lsr	ip, ip, #2
  38 0040 07500CE2 		and	r5, ip, #7
  39 0044 AEE1A0E1 		lsr	lr, lr, #3
  40 0048 A221A0E1 		lsr	r2, r2, #3
  41 004c 8380A0E1 		lsl	r8, r3, #1
  42 0050 1F4002E2 		and	r4, r2, #31
  43 0054 8EE1A0E1 		lsl	lr, lr, #3
  44 0058 8552A0E1 		lsl	r5, r5, #5
  45 005c ACC1A0E1 		lsr	ip, ip, #3
  46              	.L5:
  47 0060 0630A0E1 		mov	r3, r6
  48 0064 080086E0 		add	r0, r6, r8
  49              	.L4:
  50 0068 051084E1 		orr	r1, r4, r5
  51 006c 0C208EE1 		orr	r2, lr, ip
  52 0070 0010C3E5 		strb	r1, [r3]
  53 0074 0120C3E5 		strb	r2, [r3, #1]
  54 0078 023083E2 		add	r3, r3, #2
  55 007c 000053E1 		cmp	r3, r0
  56 0080 F8FFFF1A 		bne	.L4
  57 0084 017087E2 		add	r7, r7, #1
ARM GAS  C:\Users\ldebo\AppData\Local\Temp\ccBZnoYF.s 			page 2


  58 0088 090057E1 		cmp	r7, r9
  59 008c 0A6086E0 		add	r6, r6, r10
  60 0090 F2FFFF1A 		bne	.L5
  61 0094 F087BDE8 		pop	{r4, r5, r6, r7, r8, r9, r10, pc}
  62              		.size	_ZL11ClearArea16P8tagINTDCjjjj, .-_ZL11ClearArea16P8tagINTDCjjjj
  63              		.align	2
  64              		.syntax unified
  65              		.arm
  66              		.fpu vfp
  67              		.type	_ZL10VertLine16P8tagINTDCji, %function
  68              	_ZL10VertLine16P8tagINTDCji:
  69              		@ args = 0, pretend = 0, frame = 0
  70              		@ frame_needed = 0, uses_anonymous_args = 0
  71 0098 F0472DE9 		push	{r4, r5, r6, r7, r8, r9, r10, lr}
  72 009c 048090E5 		ldr	r8, [r0, #4]
  73 00a0 14A090E5 		ldr	r10, [r0, #20]
  74 00a4 8880A0E1 		lsl	r8, r8, #1
  75 00a8 9A080CE0 		mul	ip, r10, r8
  76 00ac 103090E5 		ldr	r3, [r0, #16]
  77 00b0 00E090E5 		ldr	lr, [r0]
  78 00b4 83308CE0 		add	r3, ip, r3, lsl #1
  79 00b8 000051E3 		cmp	r1, #0
  80 00bc 2260D0E5 		ldrb	r6, [r0, #34]	@ zero_extendqisi2
  81 00c0 2150D0E5 		ldrb	r5, [r0, #33]	@ zero_extendqisi2
  82 00c4 2070D0E5 		ldrb	r7, [r0, #32]	@ zero_extendqisi2
  83 00c8 0E3083E0 		add	r3, r3, lr
  84 00cc 1200000A 		beq	.L16
  85 00d0 2551A0E1 		lsr	r5, r5, #2
  86 00d4 079005E2 		and	r9, r5, #7
  87 00d8 A661A0E1 		lsr	r6, r6, #3
  88 00dc A771A0E1 		lsr	r7, r7, #3
  89 00e0 010052E3 		cmp	r2, #1
  90 00e4 0040A0E3 		mov	r4, #0
  91 00e8 1F7007E2 		and	r7, r7, #31
  92 00ec 8661A0E1 		lsl	r6, r6, #3
  93 00f0 8992A0E1 		lsl	r9, r9, #5
  94 00f4 A551A0E1 		lsr	r5, r5, #3
  95 00f8 0A00000A 		beq	.L18
  96              	.L17:
  97 00fc 014084E2 		add	r4, r4, #1
  98 0100 09E087E1 		orr	lr, r7, r9
  99 0104 05C086E1 		orr	ip, r6, r5
 100 0108 040051E1 		cmp	r1, r4
 101 010c 00E0C3E5 		strb	lr, [r3]
 102 0110 01C0C3E5 		strb	ip, [r3, #1]
 103 0114 083043E0 		sub	r3, r3, r8
 104 0118 F7FFFF1A 		bne	.L17
 105              	.L16:
 106 011c 91A221E0 		mla	r1, r1, r2, r10
 107 0120 141080E5 		str	r1, [r0, #20]
 108 0124 F087BDE8 		pop	{r4, r5, r6, r7, r8, r9, r10, pc}
 109              	.L18:
 110 0128 014084E2 		add	r4, r4, #1
 111 012c 09E087E1 		orr	lr, r7, r9
 112 0130 05C086E1 		orr	ip, r6, r5
 113 0134 040051E1 		cmp	r1, r4
 114 0138 00E0C3E5 		strb	lr, [r3]
ARM GAS  C:\Users\ldebo\AppData\Local\Temp\ccBZnoYF.s 			page 3


 115 013c 01C0C3E5 		strb	ip, [r3, #1]
 116 0140 083083E0 		add	r3, r3, r8
 117 0144 F7FFFF1A 		bne	.L18
 118 0148 F3FFFFEA 		b	.L16
 119              		.size	_ZL10VertLine16P8tagINTDCji, .-_ZL10VertLine16P8tagINTDCji
 120              		.align	2
 121              		.syntax unified
 122              		.arm
 123              		.fpu vfp
 124              		.type	_ZL10HorzLine16P8tagINTDCji, %function
 125              	_ZL10HorzLine16P8tagINTDCji:
 126              		@ args = 0, pretend = 0, frame = 0
 127              		@ frame_needed = 0, uses_anonymous_args = 0
 128 014c F0472DE9 		push	{r4, r5, r6, r7, r8, r9, r10, lr}
 129 0150 043090E5 		ldr	r3, [r0, #4]
 130 0154 109090E5 		ldr	r9, [r0, #16]
 131 0158 14E090E5 		ldr	lr, [r0, #20]
 132 015c 89C0A0E1 		lsl	ip, r9, #1
 133 0160 8330A0E1 		lsl	r3, r3, #1
 134 0164 9EC323E0 		mla	r3, lr, r3, ip
 135 0168 00C090E5 		ldr	ip, [r0]
 136 016c 000051E3 		cmp	r1, #0
 137 0170 2260D0E5 		ldrb	r6, [r0, #34]	@ zero_extendqisi2
 138 0174 2150D0E5 		ldrb	r5, [r0, #33]	@ zero_extendqisi2
 139 0178 2070D0E5 		ldrb	r7, [r0, #32]	@ zero_extendqisi2
 140 017c 0C3083E0 		add	r3, r3, ip
 141 0180 1100000A 		beq	.L25
 142 0184 0040A0E3 		mov	r4, #0
 143 0188 2551A0E1 		lsr	r5, r5, #2
 144 018c 078005E2 		and	r8, r5, #7
 145 0190 A661A0E1 		lsr	r6, r6, #3
 146 0194 A771A0E1 		lsr	r7, r7, #3
 147 0198 1F7007E2 		and	r7, r7, #31
 148 019c 8661A0E1 		lsl	r6, r6, #3
 149 01a0 8882A0E1 		lsl	r8, r8, #5
 150 01a4 A551A0E1 		lsr	r5, r5, #3
 151 01a8 82A0A0E1 		lsl	r10, r2, #1
 152              	.L26:
 153 01ac 014084E2 		add	r4, r4, #1
 154 01b0 08E087E1 		orr	lr, r7, r8
 155 01b4 05C086E1 		orr	ip, r6, r5
 156 01b8 040051E1 		cmp	r1, r4
 157 01bc 00E0C3E5 		strb	lr, [r3]
 158 01c0 01C0C3E5 		strb	ip, [r3, #1]
 159 01c4 0A3083E0 		add	r3, r3, r10
 160 01c8 F7FFFF1A 		bne	.L26
 161              	.L25:
 162 01cc 919221E0 		mla	r1, r1, r2, r9
 163 01d0 101080E5 		str	r1, [r0, #16]
 164 01d4 F087BDE8 		pop	{r4, r5, r6, r7, r8, r9, r10, pc}
 165              		.size	_ZL10HorzLine16P8tagINTDCji, .-_ZL10HorzLine16P8tagINTDCji
 166              		.align	2
 167              		.syntax unified
 168              		.arm
 169              		.fpu vfp
 170              		.type	_ZL10DiagLine16P8tagINTDCjjii, %function
 171              	_ZL10DiagLine16P8tagINTDCjjii:
ARM GAS  C:\Users\ldebo\AppData\Local\Temp\ccBZnoYF.s 			page 4


 172              		@ args = 4, pretend = 0, frame = 24
 173              		@ frame_needed = 0, uses_anonymous_args = 0
 174 01d8 F04F2DE9 		push	{r4, r5, r6, r7, r8, r9, r10, fp, lr}
 175 01dc 0040A0E1 		mov	r4, r0
 176 01e0 10C090E5 		ldr	ip, [r0, #16]
 177 01e4 1CD04DE2 		sub	sp, sp, #28
 178 01e8 0CE0A0E1 		mov	lr, ip
 179 01ec 0CC08DE5 		str	ip, [sp, #12]
 180 01f0 14C094E5 		ldr	ip, [r4, #20]
 181 01f4 14008DE5 		str	r0, [sp, #20]
 182 01f8 0C50A0E1 		mov	r5, ip
 183 01fc 040090E5 		ldr	r0, [r0, #4]
 184 0200 8EE0A0E1 		lsl	lr, lr, #1
 185 0204 10C08DE5 		str	ip, [sp, #16]
 186 0208 80C0A0E1 		lsl	ip, r0, #1
 187 020c 95EC2CE0 		mla	ip, r5, ip, lr
 188 0210 020051E1 		cmp	r1, r2
 189 0214 00E094E5 		ldr	lr, [r4]
 190 0218 0120A031 		movcc	r2, r1
 191 021c 000051E3 		cmp	r1, #0
 192 0220 2280D4E5 		ldrb	r8, [r4, #34]	@ zero_extendqisi2
 193 0224 2170D4E5 		ldrb	r7, [r4, #33]	@ zero_extendqisi2
 194 0228 2090D4E5 		ldrb	r9, [r4, #32]	@ zero_extendqisi2
 195 022c 08308DE5 		str	r3, [sp, #8]
 196 0230 0EC08CE0 		add	ip, ip, lr
 197 0234 2000000A 		beq	.L32
 198 0238 0040A0E3 		mov	r4, #0
 199 023c 0430A0E1 		mov	r3, r4
 200 0240 40E09DE5 		ldr	lr, [sp, #64]
 201 0244 2771A0E1 		lsr	r7, r7, #2
 202 0248 8EE0A0E1 		lsl	lr, lr, #1
 203 024c 900E00E0 		mul	r0, r0, lr
 204 0250 04008DE5 		str	r0, [sp, #4]
 205 0254 08009DE5 		ldr	r0, [sp, #8]
 206 0258 07A007E2 		and	r10, r7, #7
 207 025c A881A0E1 		lsr	r8, r8, #3
 208 0260 A991A0E1 		lsr	r9, r9, #3
 209 0264 1F9009E2 		and	r9, r9, #31
 210 0268 8881A0E1 		lsl	r8, r8, #3
 211 026c 8AA2A0E1 		lsl	r10, r10, #5
 212 0270 A771A0E1 		lsr	r7, r7, #3
 213 0274 80B0A0E1 		lsl	fp, r0, #1
 214              	.L33:
 215 0278 04009DE5 		ldr	r0, [sp, #4]
 216 027c 033082E0 		add	r3, r2, r3
 217 0280 0BE08CE0 		add	lr, ip, fp
 218 0284 0A6089E1 		orr	r6, r9, r10
 219 0288 030051E1 		cmp	r1, r3
 220 028c 0060CCE5 		strb	r6, [ip]
 221 0290 00508EE0 		add	r5, lr, r0
 222 0294 014084E2 		add	r4, r4, #1
 223 0298 070088E1 		orr	r0, r8, r7
 224 029c 016043E0 		sub	r6, r3, r1
 225 02a0 0100CCE5 		strb	r0, [ip, #1]
 226 02a4 0630A091 		movls	r3, r6
 227 02a8 0EC0A081 		movhi	ip, lr
 228 02ac 05C0A091 		movls	ip, r5
ARM GAS  C:\Users\ldebo\AppData\Local\Temp\ccBZnoYF.s 			page 5


 229 02b0 040051E1 		cmp	r1, r4
 230 02b4 EFFFFF1A 		bne	.L33
 231 02b8 08309DE5 		ldr	r3, [sp, #8]
 232              	.L32:
 233 02bc 0C009DE5 		ldr	r0, [sp, #12]
 234 02c0 910321E0 		mla	r1, r1, r3, r0
 235 02c4 40309DE5 		ldr	r3, [sp, #64]
 236 02c8 10009DE5 		ldr	r0, [sp, #16]
 237 02cc 920322E0 		mla	r2, r2, r3, r0
 238 02d0 14309DE5 		ldr	r3, [sp, #20]
 239 02d4 101083E5 		str	r1, [r3, #16]
 240 02d8 142083E5 		str	r2, [r3, #20]
 241 02dc 1CD08DE2 		add	sp, sp, #28
 242              		@ sp needed
 243 02e0 F08FBDE8 		pop	{r4, r5, r6, r7, r8, r9, r10, fp, pc}
 244              		.size	_ZL10DiagLine16P8tagINTDCjjii, .-_ZL10DiagLine16P8tagINTDCjjii
 245              		.align	2
 246              		.syntax unified
 247              		.arm
 248              		.fpu vfp
 249              		.type	_ZL11WriteChar16P8tagINTDCh, %function
 250              	_ZL11WriteChar16P8tagINTDCh:
 251              		@ args = 0, pretend = 0, frame = 16
 252              		@ frame_needed = 0, uses_anonymous_args = 0
 253 02e4 F04F2DE9 		push	{r4, r5, r6, r7, r8, r9, r10, fp, lr}
 254 02e8 102090E5 		ldr	r2, [r0, #16]
 255 02ec 14D04DE2 		sub	sp, sp, #20
 256 02f0 02C0A0E1 		mov	ip, r2
 257 02f4 08208DE5 		str	r2, [sp, #8]
 258 02f8 0020A0E1 		mov	r2, r0
 259 02fc 045090E5 		ldr	r5, [r0, #4]
 260 0300 0C008DE5 		str	r0, [sp, #12]
 261 0304 140090E5 		ldr	r0, [r0, #20]
 262 0308 8C30A0E1 		lsl	r3, ip, #1
 263 030c 8550A0E1 		lsl	r5, r5, #1
 264 0310 903520E0 		mla	r0, r0, r5, r3
 265 0314 0112A0E1 		lsl	r1, r1, #4
 266 0318 D4309FE5 		ldr	r3, .L43
 267 031c 00C092E5 		ldr	ip, [r2]
 268 0320 22B0D2E5 		ldrb	fp, [r2, #34]	@ zero_extendqisi2
 269 0324 21A0D2E5 		ldrb	r10, [r2, #33]	@ zero_extendqisi2
 270 0328 2090D2E5 		ldrb	r9, [r2, #32]	@ zero_extendqisi2
 271 032c 2680D2E5 		ldrb	r8, [r2, #38]	@ zero_extendqisi2
 272 0330 2570D2E5 		ldrb	r7, [r2, #37]	@ zero_extendqisi2
 273 0334 2460D2E5 		ldrb	r6, [r2, #36]	@ zero_extendqisi2
 274 0338 102081E2 		add	r2, r1, #16
 275 033c 022083E0 		add	r2, r3, r2
 276 0340 013083E0 		add	r3, r3, r1
 277 0344 0C0080E0 		add	r0, r0, ip
 278 0348 ABB1A0E1 		lsr	fp, fp, #3
 279 034c 2AA1A0E1 		lsr	r10, r10, #2
 280 0350 A991A0E1 		lsr	r9, r9, #3
 281 0354 A881A0E1 		lsr	r8, r8, #3
 282 0358 2771A0E1 		lsr	r7, r7, #2
 283 035c A661A0E1 		lsr	r6, r6, #3
 284 0360 04208DE5 		str	r2, [sp, #4]
 285 0364 00308DE5 		str	r3, [sp]
ARM GAS  C:\Users\ldebo\AppData\Local\Temp\ccBZnoYF.s 			page 6


 286              	.L39:
 287 0368 0010A0E3 		mov	r1, #0
 288 036c 04E093E4 		ldr	lr, [r3], #4
 289 0370 00308DE5 		str	r3, [sp]
 290              	.L38:
 291 0374 00005EE3 		cmp	lr, #0
 292 0378 0A40A0B1 		movlt	r4, r10
 293 037c 0740A0A1 		movge	r4, r7
 294 0380 09C0A0B1 		movlt	ip, r9
 295 0384 06C0A0A1 		movge	ip, r6
 296 0388 0B30A0B1 		movlt	r3, fp
 297 038c 0830A0A1 		movge	r3, r8
 298 0390 072004E2 		and	r2, r4, #7
 299 0394 82C28CE1 		orr	ip, ip, r2, lsl #5
 300 0398 072001E2 		and	r2, r1, #7
 301 039c 82C0C0E7 		strb	ip, [r0, r2, lsl #1]
 302 03a0 070052E3 		cmp	r2, #7
 303 03a4 8331A0E1 		lsl	r3, r3, #3
 304 03a8 011081E2 		add	r1, r1, #1
 305 03ac 05C080E0 		add	ip, r0, r5
 306 03b0 A43183E1 		orr	r3, r3, r4, lsr #3
 307 03b4 824080E0 		add	r4, r0, r2, lsl #1
 308 03b8 0C00A001 		moveq	r0, ip
 309 03bc 200051E3 		cmp	r1, #32
 310 03c0 8EE0A0E1 		lsl	lr, lr, #1
 311 03c4 0130C4E5 		strb	r3, [r4, #1]
 312 03c8 E9FFFF1A 		bne	.L38
 313 03cc 00309DE5 		ldr	r3, [sp]
 314 03d0 04209DE5 		ldr	r2, [sp, #4]
 315 03d4 020053E1 		cmp	r3, r2
 316 03d8 E2FFFF1A 		bne	.L39
 317 03dc 08309DE5 		ldr	r3, [sp, #8]
 318 03e0 0C209DE5 		ldr	r2, [sp, #12]
 319 03e4 083083E2 		add	r3, r3, #8
 320 03e8 103082E5 		str	r3, [r2, #16]
 321 03ec 14D08DE2 		add	sp, sp, #20
 322              		@ sp needed
 323 03f0 F08FBDE8 		pop	{r4, r5, r6, r7, r8, r9, r10, fp, pc}
 324              	.L44:
 325              		.align	2
 326              	.L43:
 327 03f4 00000000 		.word	.LANCHOR0
 328              		.size	_ZL11WriteChar16P8tagINTDCh, .-_ZL11WriteChar16P8tagINTDCh
 329              		.align	2
 330              		.syntax unified
 331              		.arm
 332              		.fpu vfp
 333              		.type	_ZL10PutImage16P8tagINTDCjj12tagIMAGE_PTRb, %function
 334              	_ZL10PutImage16P8tagINTDCjj12tagIMAGE_PTRb:
 335              		@ args = 4, pretend = 0, frame = 8
 336              		@ frame_needed = 0, uses_anonymous_args = 0
 337 03f8 F04F2DE9 		push	{r4, r5, r6, r7, r8, r9, r10, fp, lr}
 338 03fc 049090E5 		ldr	r9, [r0, #4]
 339 0400 14C090E5 		ldr	ip, [r0, #20]
 340 0404 8990A0E1 		lsl	r9, r9, #1
 341 0408 9C090CE0 		mul	ip, ip, r9
 342 040c 0CD04DE2 		sub	sp, sp, #12
ARM GAS  C:\Users\ldebo\AppData\Local\Temp\ccBZnoYF.s 			page 7


 343 0410 10E090E5 		ldr	lr, [r0, #16]
 344 0414 004090E5 		ldr	r4, [r0]
 345 0418 00A052E2 		subs	r10, r2, #0
 346 041c 3020DDE5 		ldrb	r2, [sp, #48]	@ zero_extendqisi2
 347 0420 8EC08CE0 		add	ip, ip, lr, lsl #1
 348 0424 04408CE0 		add	r4, ip, r4
 349 0428 04208DE5 		str	r2, [sp, #4]
 350 042c 1900000A 		beq	.L45
 351 0430 000051E3 		cmp	r1, #0
 352 0434 1700000A 		beq	.L45
 353 0438 0160A0E1 		mov	r6, r1
 354 043c 0080A0E3 		mov	r8, #0
 355 0440 0270A0E3 		mov	r7, #2
 356 0444 0350A0E1 		mov	r5, r3
 357 0448 8130A0E1 		lsl	r3, r1, #1
 358 044c 00308DE5 		str	r3, [sp]
 359              	.L48:
 360 0450 00B0A0E3 		mov	fp, #0
 361              	.L49:
 362 0454 8B00A0E1 		lsl	r0, fp, #1
 363 0458 001085E0 		add	r1, r5, r0
 364 045c 01B08BE2 		add	fp, fp, #1
 365 0460 000084E0 		add	r0, r4, r0
 366 0464 0720A0E1 		mov	r2, r7
 367 0468 FEFFFFEB 		bl	memcpy
 368 046c 0B0056E1 		cmp	r6, fp
 369 0470 F7FFFF1A 		bne	.L49
 370 0474 04309DE5 		ldr	r3, [sp, #4]
 371 0478 018088E2 		add	r8, r8, #1
 372 047c 000053E3 		cmp	r3, #0
 373 0480 0600000A 		beq	.L50
 374 0484 00309DE5 		ldr	r3, [sp]
 375 0488 08005AE1 		cmp	r10, r8
 376 048c 094044E0 		sub	r4, r4, r9
 377 0490 035085E0 		add	r5, r5, r3
 378 0494 EDFFFF1A 		bne	.L48
 379              	.L45:
 380 0498 0CD08DE2 		add	sp, sp, #12
 381              		@ sp needed
 382 049c F08FBDE8 		pop	{r4, r5, r6, r7, r8, r9, r10, fp, pc}
 383              	.L50:
 384 04a0 00309DE5 		ldr	r3, [sp]
 385 04a4 08005AE1 		cmp	r10, r8
 386 04a8 094084E0 		add	r4, r4, r9
 387 04ac 035085E0 		add	r5, r5, r3
 388 04b0 E6FFFF1A 		bne	.L48
 389 04b4 0CD08DE2 		add	sp, sp, #12
 390              		@ sp needed
 391 04b8 F08FBDE8 		pop	{r4, r5, r6, r7, r8, r9, r10, fp, pc}
 392              		.size	_ZL10PutImage16P8tagINTDCjj12tagIMAGE_PTRb, .-_ZL10PutImage16P8tagINTDCjj12tagIMAGE_PTRb
 393              		.align	2
 394              		.syntax unified
 395              		.arm
 396              		.fpu vfp
 397              		.type	_ZL11ClearArea24P8tagINTDCjjjj, %function
 398              	_ZL11ClearArea24P8tagINTDCjjjj:
 399              		@ args = 4, pretend = 0, frame = 0
ARM GAS  C:\Users\ldebo\AppData\Local\Temp\ccBZnoYF.s 			page 8


 400              		@ frame_needed = 0, uses_anonymous_args = 0
 401 04bc F84F2DE9 		push	{r3, r4, r5, r6, r7, r8, r9, r10, fp, lr}
 402 04c0 049090E5 		ldr	r9, [r0, #4]
 403 04c4 28A09DE5 		ldr	r10, [sp, #40]
 404 04c8 921925E0 		mla	r5, r2, r9, r1
 405 04cc 00C090E5 		ldr	ip, [r0]
 406 04d0 855085E0 		add	r5, r5, r5, lsl #1
 407 04d4 02A05AE0 		subs	r10, r10, r2
 408 04d8 0C5085E0 		add	r5, r5, ip
 409 04dc F88FBD08 		popeq	{r3, r4, r5, r6, r7, r8, r9, r10, fp, pc}
 410 04e0 017053E0 		subs	r7, r3, r1
 411 04e4 899089E0 		add	r9, r9, r9, lsl #1
 412 04e8 F88FBD08 		popeq	{r3, r4, r5, r6, r7, r8, r9, r10, fp, pc}
 413 04ec 00B0A0E3 		mov	fp, #0
 414 04f0 0380A0E3 		mov	r8, #3
 415 04f4 877087E0 		add	r7, r7, r7, lsl #1
 416 04f8 286080E2 		add	r6, r0, #40
 417              	.L61:
 418 04fc 0040A0E3 		mov	r4, #0
 419              	.L60:
 420 0500 040085E0 		add	r0, r5, r4
 421 0504 0820A0E1 		mov	r2, r8
 422 0508 0610A0E1 		mov	r1, r6
 423 050c 034084E2 		add	r4, r4, #3
 424 0510 FEFFFFEB 		bl	memcpy
 425 0514 070054E1 		cmp	r4, r7
 426 0518 F8FFFF1A 		bne	.L60
 427 051c 01B08BE2 		add	fp, fp, #1
 428 0520 0A005BE1 		cmp	fp, r10
 429 0524 095085E0 		add	r5, r5, r9
 430 0528 F3FFFF1A 		bne	.L61
 431 052c F88FBDE8 		pop	{r3, r4, r5, r6, r7, r8, r9, r10, fp, pc}
 432              		.size	_ZL11ClearArea24P8tagINTDCjjjj, .-_ZL11ClearArea24P8tagINTDCjjjj
 433              		.align	2
 434              		.syntax unified
 435              		.arm
 436              		.fpu vfp
 437              		.type	_ZL10VertLine24P8tagINTDCji, %function
 438              	_ZL10VertLine24P8tagINTDCji:
 439              		@ args = 0, pretend = 0, frame = 0
 440              		@ frame_needed = 0, uses_anonymous_args = 0
 441 0530 F84F2DE9 		push	{r3, r4, r5, r6, r7, r8, r9, r10, fp, lr}
 442 0534 044090E5 		ldr	r4, [r0, #4]
 443 0538 103090E5 		ldr	r3, [r0, #16]
 444 053c 149090E5 		ldr	r9, [r0, #20]
 445 0540 844084E0 		add	r4, r4, r4, lsl #1
 446 0544 833083E0 		add	r3, r3, r3, lsl #1
 447 0548 993423E0 		mla	r3, r9, r4, r3
 448 054c 0080A0E1 		mov	r8, r0
 449 0550 000090E5 		ldr	r0, [r0]
 450 0554 005051E2 		subs	r5, r1, #0
 451 0558 02A0A0E1 		mov	r10, r2
 452 055c 003083E0 		add	r3, r3, r0
 453 0560 0C00000A 		beq	.L71
 454 0564 010052E3 		cmp	r2, #1
 455 0568 00B0A0E3 		mov	fp, #0
 456 056c 0370A0E3 		mov	r7, #3
ARM GAS  C:\Users\ldebo\AppData\Local\Temp\ccBZnoYF.s 			page 9


 457 0570 206088E2 		add	r6, r8, #32
 458 0574 0A00000A 		beq	.L73
 459              	.L72:
 460 0578 0300A0E1 		mov	r0, r3
 461 057c 0720A0E1 		mov	r2, r7
 462 0580 0610A0E1 		mov	r1, r6
 463 0584 FEFFFFEB 		bl	memcpy
 464 0588 01B08BE2 		add	fp, fp, #1
 465 058c 0B0055E1 		cmp	r5, fp
 466 0590 043040E0 		sub	r3, r0, r4
 467 0594 F7FFFF1A 		bne	.L72
 468              	.L71:
 469 0598 959A25E0 		mla	r5, r5, r10, r9
 470 059c 145088E5 		str	r5, [r8, #20]
 471 05a0 F88FBDE8 		pop	{r3, r4, r5, r6, r7, r8, r9, r10, fp, pc}
 472              	.L73:
 473 05a4 0300A0E1 		mov	r0, r3
 474 05a8 0720A0E1 		mov	r2, r7
 475 05ac 0610A0E1 		mov	r1, r6
 476 05b0 FEFFFFEB 		bl	memcpy
 477 05b4 01B08BE2 		add	fp, fp, #1
 478 05b8 0B0055E1 		cmp	r5, fp
 479 05bc 043080E0 		add	r3, r0, r4
 480 05c0 F7FFFF1A 		bne	.L73
 481 05c4 F3FFFFEA 		b	.L71
 482              		.size	_ZL10VertLine24P8tagINTDCji, .-_ZL10VertLine24P8tagINTDCji
 483              		.align	2
 484              		.syntax unified
 485              		.arm
 486              		.fpu vfp
 487              		.type	_ZL10HorzLine24P8tagINTDCji, %function
 488              	_ZL10HorzLine24P8tagINTDCji:
 489              		@ args = 0, pretend = 0, frame = 0
 490              		@ frame_needed = 0, uses_anonymous_args = 0
 491 05c8 F84F2DE9 		push	{r3, r4, r5, r6, r7, r8, r9, r10, fp, lr}
 492 05cc 0060A0E1 		mov	r6, r0
 493 05d0 043090E5 		ldr	r3, [r0, #4]
 494 05d4 107090E5 		ldr	r7, [r0, #16]
 495 05d8 14C090E5 		ldr	ip, [r0, #20]
 496 05dc 833083E0 		add	r3, r3, r3, lsl #1
 497 05e0 870087E0 		add	r0, r7, r7, lsl #1
 498 05e4 9C0323E0 		mla	r3, ip, r3, r0
 499 05e8 000096E5 		ldr	r0, [r6]
 500 05ec 004051E2 		subs	r4, r1, #0
 501 05f0 0290A0E1 		mov	r9, r2
 502 05f4 003083E0 		add	r3, r3, r0
 503 05f8 00B0A013 		movne	fp, #0
 504 05fc 03A0A013 		movne	r10, #3
 505 0600 82808210 		addne	r8, r2, r2, lsl #1
 506 0604 20508612 		addne	r5, r6, #32
 507 0608 0700000A 		beq	.L78
 508              	.L79:
 509 060c 0300A0E1 		mov	r0, r3
 510 0610 0A20A0E1 		mov	r2, r10
 511 0614 0510A0E1 		mov	r1, r5
 512 0618 FEFFFFEB 		bl	memcpy
 513 061c 01B08BE2 		add	fp, fp, #1
ARM GAS  C:\Users\ldebo\AppData\Local\Temp\ccBZnoYF.s 			page 10


 514 0620 0B0054E1 		cmp	r4, fp
 515 0624 083080E0 		add	r3, r0, r8
 516 0628 F7FFFF1A 		bne	.L79
 517              	.L78:
 518 062c 947924E0 		mla	r4, r4, r9, r7
 519 0630 104086E5 		str	r4, [r6, #16]
 520 0634 F88FBDE8 		pop	{r3, r4, r5, r6, r7, r8, r9, r10, fp, pc}
 521              		.size	_ZL10HorzLine24P8tagINTDCji, .-_ZL10HorzLine24P8tagINTDCji
 522              		.align	2
 523              		.syntax unified
 524              		.arm
 525              		.fpu vfp
 526              		.type	_ZL10DiagLine24P8tagINTDCjjii, %function
 527              	_ZL10DiagLine24P8tagINTDCjjii:
 528              		@ args = 4, pretend = 0, frame = 16
 529              		@ frame_needed = 0, uses_anonymous_args = 0
 530 0638 00C0A0E1 		mov	ip, r0
 531 063c F04F2DE9 		push	{r4, r5, r6, r7, r8, r9, r10, fp, lr}
 532 0640 0150A0E1 		mov	r5, r1
 533 0644 14109CE5 		ldr	r1, [ip, #20]
 534 0648 14D04DE2 		sub	sp, sp, #20
 535 064c 01E0A0E1 		mov	lr, r1
 536 0650 00008DE5 		str	r0, [sp]
 537 0654 04609CE5 		ldr	r6, [ip, #4]
 538 0658 100090E5 		ldr	r0, [r0, #16]
 539 065c 0C108DE5 		str	r1, [sp, #12]
 540 0660 08008DE5 		str	r0, [sp, #8]
 541 0664 861086E0 		add	r1, r6, r6, lsl #1
 542 0668 800080E0 		add	r0, r0, r0, lsl #1
 543 066c 9E0121E0 		mla	r1, lr, r1, r0
 544 0670 020055E1 		cmp	r5, r2
 545 0674 00009CE5 		ldr	r0, [ip]
 546 0678 0570A031 		movcc	r7, r5
 547 067c 0270A021 		movcs	r7, r2
 548 0680 000055E3 		cmp	r5, #0
 549 0684 04308DE5 		str	r3, [sp, #4]
 550 0688 003081E0 		add	r3, r1, r0
 551 068c 1700000A 		beq	.L84
 552 0690 00B0A0E3 		mov	fp, #0
 553 0694 03A0A0E3 		mov	r10, #3
 554 0698 0B40A0E1 		mov	r4, fp
 555 069c 38209DE5 		ldr	r2, [sp, #56]
 556 06a0 822082E0 		add	r2, r2, r2, lsl #1
 557 06a4 960206E0 		mul	r6, r6, r2
 558 06a8 04209DE5 		ldr	r2, [sp, #4]
 559 06ac 829082E0 		add	r9, r2, r2, lsl #1
 560 06b0 00209DE5 		ldr	r2, [sp]
 561 06b4 208082E2 		add	r8, r2, #32
 562              	.L85:
 563 06b8 0A20A0E1 		mov	r2, r10
 564 06bc 0810A0E1 		mov	r1, r8
 565 06c0 0300A0E1 		mov	r0, r3
 566 06c4 FEFFFFEB 		bl	memcpy
 567 06c8 044087E0 		add	r4, r7, r4
 568 06cc 093080E0 		add	r3, r0, r9
 569 06d0 040055E1 		cmp	r5, r4
 570 06d4 01B08BE2 		add	fp, fp, #1
ARM GAS  C:\Users\ldebo\AppData\Local\Temp\ccBZnoYF.s 			page 11


 571 06d8 061083E0 		add	r1, r3, r6
 572 06dc 052044E0 		sub	r2, r4, r5
 573 06e0 0130A091 		movls	r3, r1
 574 06e4 0240A091 		movls	r4, r2
 575 06e8 0B0055E1 		cmp	r5, fp
 576 06ec F1FFFF1A 		bne	.L85
 577              	.L84:
 578 06f0 04309DE5 		ldr	r3, [sp, #4]
 579 06f4 08209DE5 		ldr	r2, [sp, #8]
 580 06f8 952325E0 		mla	r5, r5, r3, r2
 581 06fc 38309DE5 		ldr	r3, [sp, #56]
 582 0700 0C209DE5 		ldr	r2, [sp, #12]
 583 0704 972327E0 		mla	r7, r7, r3, r2
 584 0708 00309DE5 		ldr	r3, [sp]
 585 070c 105083E5 		str	r5, [r3, #16]
 586 0710 147083E5 		str	r7, [r3, #20]
 587 0714 14D08DE2 		add	sp, sp, #20
 588              		@ sp needed
 589 0718 F08FBDE8 		pop	{r4, r5, r6, r7, r8, r9, r10, fp, pc}
 590              		.size	_ZL10DiagLine24P8tagINTDCjjii, .-_ZL10DiagLine24P8tagINTDCjjii
 591              		.align	2
 592              		.syntax unified
 593              		.arm
 594              		.fpu vfp
 595              		.type	_ZL11WriteChar24P8tagINTDCh, %function
 596              	_ZL11WriteChar24P8tagINTDCh:
 597              		@ args = 0, pretend = 0, frame = 0
 598              		@ frame_needed = 0, uses_anonymous_args = 0
 599 071c F04F2DE9 		push	{r4, r5, r6, r7, r8, r9, r10, fp, lr}
 600 0720 10A090E5 		ldr	r10, [r0, #16]
 601 0724 048090E5 		ldr	r8, [r0, #4]
 602 0728 144090E5 		ldr	r4, [r0, #20]
 603 072c 8A308AE0 		add	r3, r10, r10, lsl #1
 604 0730 888088E0 		add	r8, r8, r8, lsl #1
 605 0734 943824E0 		mla	r4, r4, r8, r3
 606 0738 0112A0E1 		lsl	r1, r1, #4
 607 073c 78909FE5 		ldr	r9, .L96
 608 0740 003090E5 		ldr	r3, [r0]
 609 0744 10B081E2 		add	fp, r1, #16
 610 0748 0BB089E0 		add	fp, r9, fp
 611 074c 034084E0 		add	r4, r4, r3
 612 0750 019089E0 		add	r9, r9, r1
 613              	.L92:
 614 0754 0030A0E3 		mov	r3, #0
 615 0758 041099E4 		ldr	r1, [r9], #4
 616              	.L91:
 617 075c 000051E3 		cmp	r1, #0
 618 0760 2470D0E5 		ldrb	r7, [r0, #36]	@ zero_extendqisi2
 619 0764 072003E2 		and	r2, r3, #7
 620 0768 2070D0B5 		ldrblt	r7, [r0, #32]	@ zero_extendqisi2
 621 076c 2560D0E5 		ldrb	r6, [r0, #37]	@ zero_extendqisi2
 622 0770 2650D0E5 		ldrb	r5, [r0, #38]	@ zero_extendqisi2
 623 0774 2160D0B5 		ldrblt	r6, [r0, #33]	@ zero_extendqisi2
 624 0778 2250D0B5 		ldrblt	r5, [r0, #34]	@ zero_extendqisi2
 625 077c 82E082E0 		add	lr, r2, r2, lsl #1
 626 0780 070052E3 		cmp	r2, #7
 627 0784 013083E2 		add	r3, r3, #1
ARM GAS  C:\Users\ldebo\AppData\Local\Temp\ccBZnoYF.s 			page 12


 628 0788 0EC084E0 		add	ip, r4, lr
 629 078c 0E70C4E7 		strb	r7, [r4, lr]
 630 0790 08408400 		addeq	r4, r4, r8
 631 0794 200053E3 		cmp	r3, #32
 632 0798 8110A0E1 		lsl	r1, r1, #1
 633 079c 0160CCE5 		strb	r6, [ip, #1]
 634 07a0 0250CCE5 		strb	r5, [ip, #2]
 635 07a4 ECFFFF1A 		bne	.L91
 636 07a8 0B0059E1 		cmp	r9, fp
 637 07ac E8FFFF1A 		bne	.L92
 638 07b0 08A08AE2 		add	r10, r10, #8
 639 07b4 10A080E5 		str	r10, [r0, #16]
 640 07b8 F08FBDE8 		pop	{r4, r5, r6, r7, r8, r9, r10, fp, pc}
 641              	.L97:
 642              		.align	2
 643              	.L96:
 644 07bc 00000000 		.word	.LANCHOR0
 645              		.size	_ZL11WriteChar24P8tagINTDCh, .-_ZL11WriteChar24P8tagINTDCh
 646              		.align	2
 647              		.syntax unified
 648              		.arm
 649              		.fpu vfp
 650              		.type	_ZL10PutImage24P8tagINTDCjj12tagIMAGE_PTRb, %function
 651              	_ZL10PutImage24P8tagINTDCjj12tagIMAGE_PTRb:
 652              		@ args = 4, pretend = 0, frame = 8
 653              		@ frame_needed = 0, uses_anonymous_args = 0
 654 07c0 F04F2DE9 		push	{r4, r5, r6, r7, r8, r9, r10, fp, lr}
 655 07c4 049090E5 		ldr	r9, [r0, #4]
 656 07c8 10E090E5 		ldr	lr, [r0, #16]
 657 07cc 14C090E5 		ldr	ip, [r0, #20]
 658 07d0 899089E0 		add	r9, r9, r9, lsl #1
 659 07d4 8EE08EE0 		add	lr, lr, lr, lsl #1
 660 07d8 9CE92CE0 		mla	ip, ip, r9, lr
 661 07dc 0CD04DE2 		sub	sp, sp, #12
 662 07e0 004090E5 		ldr	r4, [r0]
 663 07e4 00A052E2 		subs	r10, r2, #0
 664 07e8 3020DDE5 		ldrb	r2, [sp, #48]	@ zero_extendqisi2
 665 07ec 04408CE0 		add	r4, ip, r4
 666 07f0 04208DE5 		str	r2, [sp, #4]
 667 07f4 1500000A 		beq	.L98
 668 07f8 000051E3 		cmp	r1, #0
 669 07fc 1300000A 		beq	.L98
 670 0800 0350A0E1 		mov	r5, r3
 671 0804 0080A0E3 		mov	r8, #0
 672 0808 0370A0E3 		mov	r7, #3
 673 080c 816081E0 		add	r6, r1, r1, lsl #1
 674              	.L101:
 675 0810 00B0A0E3 		mov	fp, #0
 676              	.L102:
 677 0814 0B1085E0 		add	r1, r5, fp
 678 0818 0B0084E0 		add	r0, r4, fp
 679 081c 0720A0E1 		mov	r2, r7
 680 0820 03B08BE2 		add	fp, fp, #3
 681 0824 FEFFFFEB 		bl	memcpy
 682 0828 06005BE1 		cmp	fp, r6
 683 082c F8FFFF1A 		bne	.L102
 684 0830 04309DE5 		ldr	r3, [sp, #4]
ARM GAS  C:\Users\ldebo\AppData\Local\Temp\ccBZnoYF.s 			page 13


 685 0834 018088E2 		add	r8, r8, #1
 686 0838 000053E3 		cmp	r3, #0
 687 083c 0500000A 		beq	.L103
 688 0840 08005AE1 		cmp	r10, r8
 689 0844 094044E0 		sub	r4, r4, r9
 690 0848 065085E0 		add	r5, r5, r6
 691 084c EFFFFF1A 		bne	.L101
 692              	.L98:
 693 0850 0CD08DE2 		add	sp, sp, #12
 694              		@ sp needed
 695 0854 F08FBDE8 		pop	{r4, r5, r6, r7, r8, r9, r10, fp, pc}
 696              	.L103:
 697 0858 08005AE1 		cmp	r10, r8
 698 085c 094084E0 		add	r4, r4, r9
 699 0860 065085E0 		add	r5, r5, r6
 700 0864 E9FFFF1A 		bne	.L101
 701 0868 0CD08DE2 		add	sp, sp, #12
 702              		@ sp needed
 703 086c F08FBDE8 		pop	{r4, r5, r6, r7, r8, r9, r10, fp, pc}
 704              		.size	_ZL10PutImage24P8tagINTDCjj12tagIMAGE_PTRb, .-_ZL10PutImage24P8tagINTDCjj12tagIMAGE_PTRb
 705              		.align	2
 706              		.syntax unified
 707              		.arm
 708              		.fpu vfp
 709              		.type	_ZL11ClearArea32P8tagINTDCjjjj, %function
 710              	_ZL11ClearArea32P8tagINTDCjjjj:
 711              		@ args = 4, pretend = 0, frame = 0
 712              		@ frame_needed = 0, uses_anonymous_args = 0
 713 0870 10402DE9 		push	{r4, lr}
 714 0874 04E090E5 		ldr	lr, [r0, #4]
 715 0878 02C1A0E1 		lsl	ip, r2, #2
 716 087c 9ECC2CE0 		mla	ip, lr, ip, ip
 717 0880 08409DE5 		ldr	r4, [sp, #8]
 718 0884 00E090E5 		ldr	lr, [r0]
 719 0888 024054E0 		subs	r4, r4, r2
 720 088c 0EC08CE0 		add	ip, ip, lr
 721 0890 1080BD08 		popeq	{r4, pc}
 722 0894 011053E0 		subs	r1, r3, r1
 723 0898 1080BD08 		popeq	{r4, pc}
 724 089c 00E0A0E3 		mov	lr, #0
 725              	.L114:
 726 08a0 0030A0E3 		mov	r3, #0
 727              	.L113:
 728 08a4 282090E5 		ldr	r2, [r0, #40]
 729 08a8 03218CE7 		str	r2, [ip, r3, lsl #2]
 730 08ac 013083E2 		add	r3, r3, #1
 731 08b0 030051E1 		cmp	r1, r3
 732 08b4 FAFFFF1A 		bne	.L113
 733 08b8 01E08EE2 		add	lr, lr, #1
 734 08bc 043090E5 		ldr	r3, [r0, #4]
 735 08c0 04005EE1 		cmp	lr, r4
 736 08c4 03C18CE0 		add	ip, ip, r3, lsl #2
 737 08c8 F4FFFF1A 		bne	.L114
 738 08cc 1080BDE8 		pop	{r4, pc}
 739              		.size	_ZL11ClearArea32P8tagINTDCjjjj, .-_ZL11ClearArea32P8tagINTDCjjjj
 740              		.align	2
 741              		.syntax unified
ARM GAS  C:\Users\ldebo\AppData\Local\Temp\ccBZnoYF.s 			page 14


 742              		.arm
 743              		.fpu vfp
 744              		.type	_ZL10VertLine32P8tagINTDCji, %function
 745              	_ZL10VertLine32P8tagINTDCji:
 746              		@ args = 0, pretend = 0, frame = 0
 747              		@ frame_needed = 0, uses_anonymous_args = 0
 748 08d0 043090E5 		ldr	r3, [r0, #4]
 749 08d4 10C090E5 		ldr	ip, [r0, #16]
 750 08d8 10402DE9 		push	{r4, lr}
 751 08dc 144090E5 		ldr	r4, [r0, #20]
 752 08e0 0CC1A0E1 		lsl	ip, ip, #2
 753 08e4 0331A0E1 		lsl	r3, r3, #2
 754 08e8 94C323E0 		mla	r3, r4, r3, ip
 755 08ec 00C090E5 		ldr	ip, [r0]
 756 08f0 000051E3 		cmp	r1, #0
 757 08f4 0C3083E0 		add	r3, r3, ip
 758 08f8 0900000A 		beq	.L123
 759 08fc 010052E3 		cmp	r2, #1
 760 0900 00C0A0E3 		mov	ip, #0
 761 0904 0900000A 		beq	.L125
 762              	.L124:
 763 0908 20E090E5 		ldr	lr, [r0, #32]
 764 090c 01C08CE2 		add	ip, ip, #1
 765 0910 00E083E5 		str	lr, [r3]
 766 0914 04E090E5 		ldr	lr, [r0, #4]
 767 0918 0C0051E1 		cmp	r1, ip
 768 091c 0E3143E0 		sub	r3, r3, lr, lsl #2
 769 0920 F8FFFF1A 		bne	.L124
 770              	.L123:
 771 0924 914221E0 		mla	r1, r1, r2, r4
 772 0928 141080E5 		str	r1, [r0, #20]
 773 092c 1080BDE8 		pop	{r4, pc}
 774              	.L125:
 775 0930 20E090E5 		ldr	lr, [r0, #32]
 776 0934 01C08CE2 		add	ip, ip, #1
 777 0938 00E083E5 		str	lr, [r3]
 778 093c 04E090E5 		ldr	lr, [r0, #4]
 779 0940 0C0051E1 		cmp	r1, ip
 780 0944 0E3183E0 		add	r3, r3, lr, lsl #2
 781 0948 F8FFFF1A 		bne	.L125
 782 094c F4FFFFEA 		b	.L123
 783              		.size	_ZL10VertLine32P8tagINTDCji, .-_ZL10VertLine32P8tagINTDCji
 784              		.align	2
 785              		.syntax unified
 786              		.arm
 787              		.fpu vfp
 788              		.type	_ZL10HorzLine32P8tagINTDCji, %function
 789              	_ZL10HorzLine32P8tagINTDCji:
 790              		@ args = 0, pretend = 0, frame = 0
 791              		@ frame_needed = 0, uses_anonymous_args = 0
 792 0950 30402DE9 		push	{r4, r5, lr}
 793 0954 04C090E5 		ldr	ip, [r0, #4]
 794 0958 104090E5 		ldr	r4, [r0, #16]
 795 095c 14E090E5 		ldr	lr, [r0, #20]
 796 0960 0431A0E1 		lsl	r3, r4, #2
 797 0964 0CC1A0E1 		lsl	ip, ip, #2
 798 0968 9E3C2CE0 		mla	ip, lr, ip, r3
ARM GAS  C:\Users\ldebo\AppData\Local\Temp\ccBZnoYF.s 			page 15


 799 096c 003090E5 		ldr	r3, [r0]
 800 0970 000051E3 		cmp	r1, #0
 801 0974 03C08CE0 		add	ip, ip, r3
 802 0978 0251A011 		lslne	r5, r2, #2
 803 097c 0030A013 		movne	r3, #0
 804 0980 0400000A 		beq	.L132
 805              	.L133:
 806 0984 013083E2 		add	r3, r3, #1
 807 0988 20E090E5 		ldr	lr, [r0, #32]
 808 098c 030051E1 		cmp	r1, r3
 809 0990 05E08CE6 		str	lr, [ip], r5
 810 0994 FAFFFF1A 		bne	.L133
 811              	.L132:
 812 0998 914221E0 		mla	r1, r1, r2, r4
 813 099c 101080E5 		str	r1, [r0, #16]
 814 09a0 3080BDE8 		pop	{r4, r5, pc}
 815              		.size	_ZL10HorzLine32P8tagINTDCji, .-_ZL10HorzLine32P8tagINTDCji
 816              		.align	2
 817              		.syntax unified
 818              		.arm
 819              		.fpu vfp
 820              		.type	_ZL10DiagLine32P8tagINTDCjjii, %function
 821              	_ZL10DiagLine32P8tagINTDCjjii:
 822              		@ args = 4, pretend = 0, frame = 0
 823              		@ frame_needed = 0, uses_anonymous_args = 0
 824 09a4 020051E1 		cmp	r1, r2
 825 09a8 0120A031 		movcc	r2, r1
 826 09ac 000051E3 		cmp	r1, #0
 827 09b0 F04F2DE9 		push	{r4, r5, r6, r7, r8, r9, r10, fp, lr}
 828 09b4 0040A013 		movne	r4, #0
 829 09b8 105090E5 		ldr	r5, [r0, #16]
 830 09bc 04C090E5 		ldr	ip, [r0, #4]
 831 09c0 146090E5 		ldr	r6, [r0, #20]
 832 09c4 05E1A0E1 		lsl	lr, r5, #2
 833 09c8 0CC1A0E1 		lsl	ip, ip, #2
 834 09cc 96EC2CE0 		mla	ip, r6, ip, lr
 835 09d0 24809DE5 		ldr	r8, [sp, #36]
 836 09d4 00E090E5 		ldr	lr, [r0]
 837 09d8 0391A011 		lslne	r9, r3, #2
 838 09dc 0EC08CE0 		add	ip, ip, lr
 839 09e0 0871A011 		lslne	r7, r8, #2
 840 09e4 04E0A011 		movne	lr, r4
 841 09e8 0B00000A 		beq	.L139
 842              	.L140:
 843 09ec 20A090E5 		ldr	r10, [r0, #32]
 844 09f0 02E08EE0 		add	lr, lr, r2
 845 09f4 09A08CE6 		str	r10, [ip], r9
 846 09f8 04B090E5 		ldr	fp, [r0, #4]
 847 09fc 0E0051E1 		cmp	r1, lr
 848 0a00 9BC72BE0 		mla	fp, fp, r7, ip
 849 0a04 014084E2 		add	r4, r4, #1
 850 0a08 01A04EE0 		sub	r10, lr, r1
 851 0a0c 0BC0A091 		movls	ip, fp
 852 0a10 0AE0A091 		movls	lr, r10
 853 0a14 040051E1 		cmp	r1, r4
 854 0a18 F3FFFF1A 		bne	.L140
 855              	.L139:
ARM GAS  C:\Users\ldebo\AppData\Local\Temp\ccBZnoYF.s 			page 16


 856 0a1c 915321E0 		mla	r1, r1, r3, r5
 857 0a20 926822E0 		mla	r2, r2, r8, r6
 858 0a24 101080E5 		str	r1, [r0, #16]
 859 0a28 142080E5 		str	r2, [r0, #20]
 860 0a2c F08FBDE8 		pop	{r4, r5, r6, r7, r8, r9, r10, fp, pc}
 861              		.size	_ZL10DiagLine32P8tagINTDCjjii, .-_ZL10DiagLine32P8tagINTDCjjii
 862              		.align	2
 863              		.syntax unified
 864              		.arm
 865              		.fpu vfp
 866              		.type	_ZL11WriteChar32P8tagINTDCh, %function
 867              	_ZL11WriteChar32P8tagINTDCh:
 868              		@ args = 0, pretend = 0, frame = 8
 869              		@ frame_needed = 0, uses_anonymous_args = 0
 870 0a30 70402DE9 		push	{r4, r5, r6, lr}
 871 0a34 106090E5 		ldr	r6, [r0, #16]
 872 0a38 04E090E5 		ldr	lr, [r0, #4]
 873 0a3c 142090E5 		ldr	r2, [r0, #20]
 874 0a40 0631A0E1 		lsl	r3, r6, #2
 875 0a44 0EE1A0E1 		lsl	lr, lr, #2
 876 0a48 923E2EE0 		mla	lr, r2, lr, r3
 877 0a4c 0112A0E1 		lsl	r1, r1, #4
 878 0a50 68409FE5 		ldr	r4, .L153
 879 0a54 003090E5 		ldr	r3, [r0]
 880 0a58 105081E2 		add	r5, r1, #16
 881 0a5c 055084E0 		add	r5, r4, r5
 882 0a60 08D04DE2 		sub	sp, sp, #8
 883 0a64 03E08EE0 		add	lr, lr, r3
 884 0a68 014084E0 		add	r4, r4, r1
 885              	.L149:
 886 0a6c 0030A0E3 		mov	r3, #0
 887 0a70 042094E4 		ldr	r2, [r4], #4
 888              	.L148:
 889 0a74 000052E3 		cmp	r2, #0
 890 0a78 24C090A5 		ldrge	ip, [r0, #36]
 891 0a7c 20C090B5 		ldrlt	ip, [r0, #32]
 892 0a80 071003E2 		and	r1, r3, #7
 893 0a84 070051E3 		cmp	r1, #7
 894 0a88 01C18EE7 		str	ip, [lr, r1, lsl #2]
 895 0a8c 04109005 		ldreq	r1, [r0, #4]
 896 0a90 013083E2 		add	r3, r3, #1
 897 0a94 01E18E00 		addeq	lr, lr, r1, lsl #2
 898 0a98 200053E3 		cmp	r3, #32
 899 0a9c 04C08DE5 		str	ip, [sp, #4]
 900 0aa0 8220A0E1 		lsl	r2, r2, #1
 901 0aa4 F2FFFF1A 		bne	.L148
 902 0aa8 040055E1 		cmp	r5, r4
 903 0aac EEFFFF1A 		bne	.L149
 904 0ab0 086086E2 		add	r6, r6, #8
 905 0ab4 106080E5 		str	r6, [r0, #16]
 906 0ab8 08D08DE2 		add	sp, sp, #8
 907              		@ sp needed
 908 0abc 7080BDE8 		pop	{r4, r5, r6, pc}
 909              	.L154:
 910              		.align	2
 911              	.L153:
 912 0ac0 00000000 		.word	.LANCHOR0
ARM GAS  C:\Users\ldebo\AppData\Local\Temp\ccBZnoYF.s 			page 17


 913              		.size	_ZL11WriteChar32P8tagINTDCh, .-_ZL11WriteChar32P8tagINTDCh
 914              		.align	2
 915              		.syntax unified
 916              		.arm
 917              		.fpu vfp
 918              		.type	_ZL10PutImage32P8tagINTDCjj12tagIMAGE_PTRb, %function
 919              	_ZL10PutImage32P8tagINTDCjj12tagIMAGE_PTRb:
 920              		@ args = 4, pretend = 0, frame = 0
 921              		@ frame_needed = 0, uses_anonymous_args = 0
 922 0ac4 F0402DE9 		push	{r4, r5, r6, r7, lr}
 923 0ac8 10C090E5 		ldr	ip, [r0, #16]
 924 0acc 044090E5 		ldr	r4, [r0, #4]
 925 0ad0 14E090E5 		ldr	lr, [r0, #20]
 926 0ad4 0CC1A0E1 		lsl	ip, ip, #2
 927 0ad8 0441A0E1 		lsl	r4, r4, #2
 928 0adc 9EC424E0 		mla	r4, lr, r4, ip
 929 0ae0 00C090E5 		ldr	ip, [r0]
 930 0ae4 000052E3 		cmp	r2, #0
 931 0ae8 0C4084E0 		add	r4, r4, ip
 932 0aec 1470DDE5 		ldrb	r7, [sp, #20]	@ zero_extendqisi2
 933 0af0 F080BD08 		popeq	{r4, r5, r6, r7, pc}
 934 0af4 000051E3 		cmp	r1, #0
 935 0af8 F080BD08 		popeq	{r4, r5, r6, r7, pc}
 936 0afc 0050A0E3 		mov	r5, #0
 937 0b00 0161A0E1 		lsl	r6, r1, #2
 938              	.L158:
 939 0b04 00C0A0E3 		mov	ip, #0
 940              	.L159:
 941 0b08 0CE193E7 		ldr	lr, [r3, ip, lsl #2]
 942 0b0c 0CE184E7 		str	lr, [r4, ip, lsl #2]
 943 0b10 01C08CE2 		add	ip, ip, #1
 944 0b14 0C0051E1 		cmp	r1, ip
 945 0b18 FAFFFF1A 		bne	.L159
 946 0b1c 000057E3 		cmp	r7, #0
 947 0b20 015085E2 		add	r5, r5, #1
 948 0b24 04C090E5 		ldr	ip, [r0, #4]
 949 0b28 0400000A 		beq	.L160
 950 0b2c 050052E1 		cmp	r2, r5
 951 0b30 063083E0 		add	r3, r3, r6
 952 0b34 0C4144E0 		sub	r4, r4, ip, lsl #2
 953 0b38 F1FFFF1A 		bne	.L158
 954 0b3c F080BDE8 		pop	{r4, r5, r6, r7, pc}
 955              	.L160:
 956 0b40 050052E1 		cmp	r2, r5
 957 0b44 063083E0 		add	r3, r3, r6
 958 0b48 0C4184E0 		add	r4, r4, ip, lsl #2
 959 0b4c ECFFFF1A 		bne	.L158
 960 0b50 F080BDE8 		pop	{r4, r5, r6, r7, pc}
 961              		.size	_ZL10PutImage32P8tagINTDCjj12tagIMAGE_PTRb, .-_ZL10PutImage32P8tagINTDCjj12tagIMAGE_PTRb
 962              		.align	2
 963              		.syntax unified
 964              		.arm
 965              		.fpu vfp
 966              		.type	mailbox_tag_message.constprop.4, %function
 967              	mailbox_tag_message.constprop.4:
 968              		@ args = 4, pretend = 12, frame = 8
 969              		@ frame_needed = 1, uses_anonymous_args = 1
ARM GAS  C:\Users\ldebo\AppData\Local\Temp\ccBZnoYF.s 			page 18


 970 0b54 0E002DE9 		push	{r1, r2, r3}
 971 0b58 2000A0E3 		mov	r0, #32
 972 0b5c 0020A0E3 		mov	r2, #0
 973 0b60 70482DE9 		push	{r4, r5, r6, fp, lr}
 974 0b64 10B08DE2 		add	fp, sp, #16
 975 0b68 08D04DE2 		sub	sp, sp, #8
 976 0b6c 90D04DE2 		sub	sp, sp, #144
 977 0b70 18109BE5 		ldr	r1, [fp, #24]
 978 0b74 08609BE5 		ldr	r6, [fp, #8]
 979 0b78 0C509BE5 		ldr	r5, [fp, #12]
 980 0b7c 10E09BE5 		ldr	lr, [fp, #16]
 981 0b80 14C09BE5 		ldr	ip, [fp, #20]
 982 0b84 0F408DE2 		add	r4, sp, #15
 983 0b88 0F40C4E3 		bic	r4, r4, #15
 984 0b8c 08308BE2 		add	r3, fp, #8
 985 0b90 000084E5 		str	r0, [r4]
 986 0b94 181084E5 		str	r1, [r4, #24]
 987 0b98 1C2084E5 		str	r2, [r4, #28]
 988 0b9c 042084E5 		str	r2, [r4, #4]
 989 0ba0 0400A0E1 		mov	r0, r4
 990 0ba4 086084E5 		str	r6, [r4, #8]
 991 0ba8 0C5084E5 		str	r5, [r4, #12]
 992 0bac 10E084E5 		str	lr, [r4, #16]
 993 0bb0 14C084E5 		str	ip, [r4, #20]
 994 0bb4 14300BE5 		str	r3, [fp, #-20]
 995 0bb8 FEFFFFEB 		bl	ARMaddrToGPUaddr
 996 0bbc 5C309FE5 		ldr	r3, .L175
 997 0bc0 0F10C0E3 		bic	r1, r0, #15
 998 0bc4 002093E5 		ldr	r2, [r3]
 999 0bc8 081081E3 		orr	r1, r1, #8
 1000 0bcc 2E2B82E2 		add	r2, r2, #47104
 1001 0bd0 802082E2 		add	r2, r2, #128
 1002              	.L168:
 1003 0bd4 383092E5 		ldr	r3, [r2, #56]
 1004 0bd8 000053E3 		cmp	r3, #0
 1005 0bdc FCFFFFBA 		blt	.L168
 1006 0be0 201082E5 		str	r1, [r2, #32]
 1007              	.L169:
 1008 0be4 183092E5 		ldr	r3, [r2, #24]
 1009 0be8 010113E3 		tst	r3, #1073741824
 1010 0bec FCFFFF1A 		bne	.L169
 1011 0bf0 003092E5 		ldr	r3, [r2]
 1012 0bf4 0F3003E2 		and	r3, r3, #15
 1013 0bf8 080053E3 		cmp	r3, #8
 1014 0bfc F8FFFF1A 		bne	.L169
 1015 0c00 040094E5 		ldr	r0, [r4, #4]
 1016 0c04 020140E2 		sub	r0, r0, #-2147483648
 1017 0c08 100F6FE1 		clz	r0, r0
 1018 0c0c A002A0E1 		lsr	r0, r0, #5
 1019 0c10 10D04BE2 		sub	sp, fp, #16
 1020              		@ sp needed
 1021 0c14 7048BDE8 		pop	{r4, r5, r6, fp, lr}
 1022 0c18 0CD08DE2 		add	sp, sp, #12
 1023 0c1c 1EFF2FE1 		bx	lr
 1024              	.L176:
 1025              		.align	2
 1026              	.L175:
ARM GAS  C:\Users\ldebo\AppData\Local\Temp\ccBZnoYF.s 			page 19


 1027 0c20 00000000 		.word	RPi_IO_Base_Addr
 1028              		.size	mailbox_tag_message.constprop.4, .-mailbox_tag_message.constprop.4
 1029              		.align	2
 1030              		.syntax unified
 1031              		.arm
 1032              		.fpu vfp
 1033              		.type	mailbox_tag_message.constprop.5, %function
 1034              	mailbox_tag_message.constprop.5:
 1035              		@ args = 4, pretend = 12, frame = 8
 1036              		@ frame_needed = 1, uses_anonymous_args = 1
 1037 0c24 0E002DE9 		push	{r1, r2, r3}
 1038 0c28 2010A0E3 		mov	r1, #32
 1039 0c2c 0020A0E3 		mov	r2, #0
 1040 0c30 F0482DE9 		push	{r4, r5, r6, r7, fp, lr}
 1041 0c34 14B08DE2 		add	fp, sp, #20
 1042 0c38 0CD04DE2 		sub	sp, sp, #12
 1043 0c3c 90D04DE2 		sub	sp, sp, #144
 1044 0c40 0F408DE2 		add	r4, sp, #15
 1045 0c44 0F40C4E3 		bic	r4, r4, #15
 1046 0c48 08709BE5 		ldr	r7, [fp, #8]
 1047 0c4c 0C609BE5 		ldr	r6, [fp, #12]
 1048 0c50 10E09BE5 		ldr	lr, [fp, #16]
 1049 0c54 14C09BE5 		ldr	ip, [fp, #20]
 1050 0c58 001084E5 		str	r1, [r4]
 1051 0c5c 18109BE5 		ldr	r1, [fp, #24]
 1052 0c60 08308BE2 		add	r3, fp, #8
 1053 0c64 181084E5 		str	r1, [r4, #24]
 1054 0c68 0050A0E1 		mov	r5, r0
 1055 0c6c 087084E5 		str	r7, [r4, #8]
 1056 0c70 0400A0E1 		mov	r0, r4
 1057 0c74 0C6084E5 		str	r6, [r4, #12]
 1058 0c78 10E084E5 		str	lr, [r4, #16]
 1059 0c7c 14C084E5 		str	ip, [r4, #20]
 1060 0c80 1C2084E5 		str	r2, [r4, #28]
 1061 0c84 042084E5 		str	r2, [r4, #4]
 1062 0c88 1C300BE5 		str	r3, [fp, #-28]
 1063 0c8c FEFFFFEB 		bl	ARMaddrToGPUaddr
 1064 0c90 88309FE5 		ldr	r3, .L190
 1065 0c94 0F10C0E3 		bic	r1, r0, #15
 1066 0c98 003093E5 		ldr	r3, [r3]
 1067 0c9c 081081E3 		orr	r1, r1, #8
 1068 0ca0 2E3B83E2 		add	r3, r3, #47104
 1069 0ca4 803083E2 		add	r3, r3, #128
 1070              	.L178:
 1071 0ca8 382093E5 		ldr	r2, [r3, #56]
 1072 0cac 000052E3 		cmp	r2, #0
 1073 0cb0 FCFFFFBA 		blt	.L178
 1074 0cb4 201083E5 		str	r1, [r3, #32]
 1075              	.L179:
 1076 0cb8 180093E5 		ldr	r0, [r3, #24]
 1077 0cbc 010110E2 		ands	r0, r0, #1073741824
 1078 0cc0 FCFFFF1A 		bne	.L179
 1079 0cc4 002093E5 		ldr	r2, [r3]
 1080 0cc8 0F2002E2 		and	r2, r2, #15
 1081 0ccc 080052E3 		cmp	r2, #8
 1082 0cd0 F8FFFF1A 		bne	.L179
 1083 0cd4 043094E5 		ldr	r3, [r4, #4]
ARM GAS  C:\Users\ldebo\AppData\Local\Temp\ccBZnoYF.s 			page 20


 1084 0cd8 020153E3 		cmp	r3, #-2147483648
 1085 0cdc 0300000A 		beq	.L189
 1086 0ce0 14D04BE2 		sub	sp, fp, #20
 1087              		@ sp needed
 1088 0ce4 F048BDE8 		pop	{r4, r5, r6, r7, fp, lr}
 1089 0ce8 0CD08DE2 		add	sp, sp, #12
 1090 0cec 1EFF2FE1 		bx	lr
 1091              	.L189:
 1092 0cf0 000055E3 		cmp	r5, #0
 1093 0cf4 0400000A 		beq	.L183
 1094 0cf8 0C0084E2 		add	r0, r4, #12
 1095 0cfc 0F0090E8 		ldm	r0, {r0, r1, r2, r3}
 1096 0d00 0F0085E9 		stmib	r5, {r0, r1, r2, r3}
 1097 0d04 08C094E5 		ldr	ip, [r4, #8]
 1098 0d08 00C085E5 		str	ip, [r5]
 1099              	.L183:
 1100 0d0c 0100A0E3 		mov	r0, #1
 1101 0d10 14D04BE2 		sub	sp, fp, #20
 1102              		@ sp needed
 1103 0d14 F048BDE8 		pop	{r4, r5, r6, r7, fp, lr}
 1104 0d18 0CD08DE2 		add	sp, sp, #12
 1105 0d1c 1EFF2FE1 		bx	lr
 1106              	.L191:
 1107              		.align	2
 1108              	.L190:
 1109 0d20 00000000 		.word	RPi_IO_Base_Addr
 1110              		.size	mailbox_tag_message.constprop.5, .-mailbox_tag_message.constprop.5
 1111              		.align	2
 1112              		.syntax unified
 1113              		.arm
 1114              		.fpu vfp
 1115              		.type	mailbox_tag_message.constprop.6, %function
 1116              	mailbox_tag_message.constprop.6:
 1117              		@ args = 4, pretend = 12, frame = 8
 1118              		@ frame_needed = 1, uses_anonymous_args = 1
 1119 0d24 0E002DE9 		push	{r1, r2, r3}
 1120 0d28 0020A0E3 		mov	r2, #0
 1121 0d2c F0482DE9 		push	{r4, r5, r6, r7, fp, lr}
 1122 0d30 1C70A0E3 		mov	r7, #28
 1123 0d34 14B08DE2 		add	fp, sp, #20
 1124 0d38 0CD04DE2 		sub	sp, sp, #12
 1125 0d3c 90D04DE2 		sub	sp, sp, #144
 1126 0d40 14109BE5 		ldr	r1, [fp, #20]
 1127 0d44 08609BE5 		ldr	r6, [fp, #8]
 1128 0d48 0CE09BE5 		ldr	lr, [fp, #12]
 1129 0d4c 10C09BE5 		ldr	ip, [fp, #16]
 1130 0d50 0F408DE2 		add	r4, sp, #15
 1131 0d54 0F40C4E3 		bic	r4, r4, #15
 1132 0d58 08308BE2 		add	r3, fp, #8
 1133 0d5c 141084E5 		str	r1, [r4, #20]
 1134 0d60 0050A0E1 		mov	r5, r0
 1135 0d64 007084E5 		str	r7, [r4]
 1136 0d68 0400A0E1 		mov	r0, r4
 1137 0d6c 086084E5 		str	r6, [r4, #8]
 1138 0d70 0CE084E5 		str	lr, [r4, #12]
 1139 0d74 10C084E5 		str	ip, [r4, #16]
 1140 0d78 182084E5 		str	r2, [r4, #24]
ARM GAS  C:\Users\ldebo\AppData\Local\Temp\ccBZnoYF.s 			page 21


 1141 0d7c 042084E5 		str	r2, [r4, #4]
 1142 0d80 1C300BE5 		str	r3, [fp, #-28]
 1143 0d84 FEFFFFEB 		bl	ARMaddrToGPUaddr
 1144 0d88 7C309FE5 		ldr	r3, .L205
 1145 0d8c 0F10C0E3 		bic	r1, r0, #15
 1146 0d90 003093E5 		ldr	r3, [r3]
 1147 0d94 081081E3 		orr	r1, r1, #8
 1148 0d98 2E3B83E2 		add	r3, r3, #47104
 1149 0d9c 803083E2 		add	r3, r3, #128
 1150              	.L193:
 1151 0da0 382093E5 		ldr	r2, [r3, #56]
 1152 0da4 000052E3 		cmp	r2, #0
 1153 0da8 FCFFFFBA 		blt	.L193
 1154 0dac 201083E5 		str	r1, [r3, #32]
 1155              	.L194:
 1156 0db0 180093E5 		ldr	r0, [r3, #24]
 1157 0db4 010110E2 		ands	r0, r0, #1073741824
 1158 0db8 FCFFFF1A 		bne	.L194
 1159 0dbc 002093E5 		ldr	r2, [r3]
 1160 0dc0 0F2002E2 		and	r2, r2, #15
 1161 0dc4 080052E3 		cmp	r2, #8
 1162 0dc8 F8FFFF1A 		bne	.L194
 1163 0dcc 043094E5 		ldr	r3, [r4, #4]
 1164 0dd0 020153E3 		cmp	r3, #-2147483648
 1165 0dd4 0300000A 		beq	.L204
 1166 0dd8 14D04BE2 		sub	sp, fp, #20
 1167              		@ sp needed
 1168 0ddc F048BDE8 		pop	{r4, r5, r6, r7, fp, lr}
 1169 0de0 0CD08DE2 		add	sp, sp, #12
 1170 0de4 1EFF2FE1 		bx	lr
 1171              	.L204:
 1172 0de8 000055E3 		cmp	r5, #0
 1173 0dec 08008412 		addne	r0, r4, #8
 1174 0df0 0F009018 		ldmne	r0, {r0, r1, r2, r3}
 1175 0df4 0F008518 		stmne	r5, {r0, r1, r2, r3}
 1176              	.L198:
 1177 0df8 0100A0E3 		mov	r0, #1
 1178 0dfc 14D04BE2 		sub	sp, fp, #20
 1179              		@ sp needed
 1180 0e00 F048BDE8 		pop	{r4, r5, r6, r7, fp, lr}
 1181 0e04 0CD08DE2 		add	sp, sp, #12
 1182 0e08 1EFF2FE1 		bx	lr
 1183              	.L206:
 1184              		.align	2
 1185              	.L205:
 1186 0e0c 00000000 		.word	RPi_IO_Base_Addr
 1187              		.size	mailbox_tag_message.constprop.6, .-mailbox_tag_message.constprop.6
 1188              		.align	2
 1189              		.syntax unified
 1190              		.arm
 1191              		.fpu vfp
 1192              		.type	mailbox_tag_message.constprop.7, %function
 1193              	mailbox_tag_message.constprop.7:
 1194              		@ args = 4, pretend = 12, frame = 8
 1195              		@ frame_needed = 1, uses_anonymous_args = 1
 1196 0e10 0E002DE9 		push	{r1, r2, r3}
 1197 0e14 F0482DE9 		push	{r4, r5, r6, r7, fp, lr}
ARM GAS  C:\Users\ldebo\AppData\Local\Temp\ccBZnoYF.s 			page 22


 1198 0e18 14B08DE2 		add	fp, sp, #20
 1199 0e1c 0CD04DE2 		sub	sp, sp, #12
 1200 0e20 90D04DE2 		sub	sp, sp, #144
 1201 0e24 0F708DE2 		add	r7, sp, #15
 1202 0e28 0F70C7E3 		bic	r7, r7, #15
 1203 0e2c 0030A0E3 		mov	r3, #0
 1204 0e30 5810A0E3 		mov	r1, #88
 1205 0e34 086087E2 		add	r6, r7, #8
 1206 0e38 0050A0E1 		mov	r5, r0
 1207 0e3c 0640A0E1 		mov	r4, r6
 1208 0e40 08208BE2 		add	r2, fp, #8
 1209 0e44 001087E5 		str	r1, [r7]
 1210 0e48 543087E5 		str	r3, [r7, #84]
 1211 0e4c 043087E5 		str	r3, [r7, #4]
 1212 0e50 541087E2 		add	r1, r7, #84
 1213 0e54 1C200BE5 		str	r2, [fp, #-28]
 1214 0e58 04308BE2 		add	r3, fp, #4
 1215              	.L208:
 1216 0e5c 0420B3E5 		ldr	r2, [r3, #4]!
 1217 0e60 042084E4 		str	r2, [r4], #4
 1218 0e64 010054E1 		cmp	r4, r1
 1219 0e68 FBFFFF1A 		bne	.L208
 1220 0e6c 0700A0E1 		mov	r0, r7
 1221 0e70 FEFFFFEB 		bl	ARMaddrToGPUaddr
 1222 0e74 88309FE5 		ldr	r3, .L223
 1223 0e78 0F10C0E3 		bic	r1, r0, #15
 1224 0e7c 003093E5 		ldr	r3, [r3]
 1225 0e80 081081E3 		orr	r1, r1, #8
 1226 0e84 2E3B83E2 		add	r3, r3, #47104
 1227 0e88 803083E2 		add	r3, r3, #128
 1228              	.L209:
 1229 0e8c 382093E5 		ldr	r2, [r3, #56]
 1230 0e90 000052E3 		cmp	r2, #0
 1231 0e94 FCFFFFBA 		blt	.L209
 1232 0e98 201083E5 		str	r1, [r3, #32]
 1233              	.L210:
 1234 0e9c 180093E5 		ldr	r0, [r3, #24]
 1235 0ea0 010110E2 		ands	r0, r0, #1073741824
 1236 0ea4 FCFFFF1A 		bne	.L210
 1237 0ea8 002093E5 		ldr	r2, [r3]
 1238 0eac 0F2002E2 		and	r2, r2, #15
 1239 0eb0 080052E3 		cmp	r2, #8
 1240 0eb4 F8FFFF1A 		bne	.L210
 1241 0eb8 043097E5 		ldr	r3, [r7, #4]
 1242 0ebc 020153E3 		cmp	r3, #-2147483648
 1243 0ec0 0300000A 		beq	.L222
 1244 0ec4 14D04BE2 		sub	sp, fp, #20
 1245              		@ sp needed
 1246 0ec8 F048BDE8 		pop	{r4, r5, r6, r7, fp, lr}
 1247 0ecc 0CD08DE2 		add	sp, sp, #12
 1248 0ed0 1EFF2FE1 		bx	lr
 1249              	.L222:
 1250 0ed4 000055E3 		cmp	r5, #0
 1251 0ed8 04504512 		subne	r5, r5, #4
 1252 0edc 0300000A 		beq	.L214
 1253              	.L215:
 1254 0ee0 043096E4 		ldr	r3, [r6], #4
ARM GAS  C:\Users\ldebo\AppData\Local\Temp\ccBZnoYF.s 			page 23


 1255 0ee4 040056E1 		cmp	r6, r4
 1256 0ee8 0430A5E5 		str	r3, [r5, #4]!
 1257 0eec FBFFFF1A 		bne	.L215
 1258              	.L214:
 1259 0ef0 0100A0E3 		mov	r0, #1
 1260 0ef4 14D04BE2 		sub	sp, fp, #20
 1261              		@ sp needed
 1262 0ef8 F048BDE8 		pop	{r4, r5, r6, r7, fp, lr}
 1263 0efc 0CD08DE2 		add	sp, sp, #12
 1264 0f00 1EFF2FE1 		bx	lr
 1265              	.L224:
 1266              		.align	2
 1267              	.L223:
 1268 0f04 00000000 		.word	RPi_IO_Base_Addr
 1269              		.size	mailbox_tag_message.constprop.7, .-mailbox_tag_message.constprop.7
 1270              		.align	2
 1271              		.global	gpio_setup
 1272              		.syntax unified
 1273              		.arm
 1274              		.fpu vfp
 1275              		.type	gpio_setup, %function
 1276              	gpio_setup:
 1277              		@ args = 0, pretend = 0, frame = 0
 1278              		@ frame_needed = 0, uses_anonymous_args = 0
 1279 0f08 360050E3 		cmp	r0, #54
 1280 0f0c 1200008A 		bhi	.L228
 1281 0f10 070051E3 		cmp	r1, #7
 1282 0f14 100000CA 		bgt	.L228
 1283 0f18 04E02DE5 		str	lr, [sp, #-4]!
 1284 0f1c 07E0A0E3 		mov	lr, #7
 1285 0f20 3C309FE5 		ldr	r3, .L233
 1286 0f24 3C209FE5 		ldr	r2, .L233+4
 1287 0f28 93C083E0 		umull	ip, r3, r3, r0
 1288 0f2c 00C092E5 		ldr	ip, [r2]
 1289 0f30 A331A0E1 		lsr	r3, r3, #3
 1290 0f34 032183E0 		add	r2, r3, r3, lsl #2
 1291 0f38 02C68CE2 		add	ip, ip, #2097152
 1292 0f3c 820040E0 		sub	r0, r0, r2, lsl #1
 1293 0f40 03219CE7 		ldr	r2, [ip, r3, lsl #2]
 1294 0f44 800080E0 		add	r0, r0, r0, lsl #1
 1295 0f48 1E20C2E1 		bic	r2, r2, lr, lsl r0
 1296 0f4c 110082E1 		orr	r0, r2, r1, lsl r0
 1297 0f50 03018CE7 		str	r0, [ip, r3, lsl #2]
 1298 0f54 0100A0E3 		mov	r0, #1
 1299 0f58 04F09DE4 		ldr	pc, [sp], #4
 1300              	.L228:
 1301 0f5c 0000A0E3 		mov	r0, #0
 1302 0f60 1EFF2FE1 		bx	lr
 1303              	.L234:
 1304              		.align	2
 1305              	.L233:
 1306 0f64 CDCCCCCC 		.word	-858993459
 1307 0f68 00000000 		.word	RPi_IO_Base_Addr
 1308              		.size	gpio_setup, .-gpio_setup
 1309              		.align	2
 1310              		.global	gpio_output
 1311              		.syntax unified
ARM GAS  C:\Users\ldebo\AppData\Local\Temp\ccBZnoYF.s 			page 24


 1312              		.arm
 1313              		.fpu vfp
 1314              		.type	gpio_output, %function
 1315              	gpio_output:
 1316              		@ args = 0, pretend = 0, frame = 0
 1317              		@ frame_needed = 0, uses_anonymous_args = 0
 1318              		@ link register save eliminated.
 1319 0f6c 360050E3 		cmp	r0, #54
 1320 0f70 1500008A 		bhi	.L238
 1321 0f74 0120A0E3 		mov	r2, #1
 1322 0f78 1F3000E2 		and	r3, r0, #31
 1323 0f7c 000051E3 		cmp	r1, #0
 1324 0f80 12C3A0E1 		lsl	ip, r2, r3
 1325 0f84 0700001A 		bne	.L239
 1326 0f88 44109FE5 		ldr	r1, .L240
 1327 0f8c A032A0E1 		lsr	r3, r0, #5
 1328 0f90 001091E5 		ldr	r1, [r1]
 1329 0f94 0A3083E2 		add	r3, r3, #10
 1330 0f98 021681E2 		add	r1, r1, #2097152
 1331 0f9c 0200A0E1 		mov	r0, r2
 1332 0fa0 03C181E7 		str	ip, [r1, r3, lsl #2]
 1333 0fa4 1EFF2FE1 		bx	lr
 1334              	.L239:
 1335 0fa8 24209FE5 		ldr	r2, .L240
 1336 0fac A032A0E1 		lsr	r3, r0, #5
 1337 0fb0 000092E5 		ldr	r0, [r2]
 1338 0fb4 063083E2 		add	r3, r3, #6
 1339 0fb8 020680E2 		add	r0, r0, #2097152
 1340 0fbc 033180E0 		add	r3, r0, r3, lsl #2
 1341 0fc0 04C083E5 		str	ip, [r3, #4]
 1342 0fc4 0100A0E1 		mov	r0, r1
 1343 0fc8 1EFF2FE1 		bx	lr
 1344              	.L238:
 1345 0fcc 0000A0E3 		mov	r0, #0
 1346 0fd0 1EFF2FE1 		bx	lr
 1347              	.L241:
 1348              		.align	2
 1349              	.L240:
 1350 0fd4 00000000 		.word	RPi_IO_Base_Addr
 1351              		.size	gpio_output, .-gpio_output
 1352              		.align	2
 1353              		.global	gpio_input
 1354              		.syntax unified
 1355              		.arm
 1356              		.fpu vfp
 1357              		.type	gpio_input, %function
 1358              	gpio_input:
 1359              		@ args = 0, pretend = 0, frame = 0
 1360              		@ frame_needed = 0, uses_anonymous_args = 0
 1361              		@ link register save eliminated.
 1362 0fd8 360050E3 		cmp	r0, #54
 1363 0fdc 0C00008A 		bhi	.L244
 1364 0fe0 0110A0E3 		mov	r1, #1
 1365 0fe4 30309FE5 		ldr	r3, .L245
 1366 0fe8 A022A0E1 		lsr	r2, r0, #5
 1367 0fec 003093E5 		ldr	r3, [r3]
 1368 0ff0 0C2082E2 		add	r2, r2, #12
ARM GAS  C:\Users\ldebo\AppData\Local\Temp\ccBZnoYF.s 			page 25


 1369 0ff4 023683E2 		add	r3, r3, #2097152
 1370 0ff8 023183E0 		add	r3, r3, r2, lsl #2
 1371 0ffc 043093E5 		ldr	r3, [r3, #4]
 1372 1000 1F0000E2 		and	r0, r0, #31
 1373 1004 113013E0 		ands	r3, r3, r1, lsl r0
 1374 1008 0100A011 		movne	r0, r1
 1375 100c 0000A003 		moveq	r0, #0
 1376 1010 1EFF2FE1 		bx	lr
 1377              	.L244:
 1378 1014 0000A0E3 		mov	r0, #0
 1379 1018 1EFF2FE1 		bx	lr
 1380              	.L246:
 1381              		.align	2
 1382              	.L245:
 1383 101c 00000000 		.word	RPi_IO_Base_Addr
 1384              		.size	gpio_input, .-gpio_input
 1385              		.align	2
 1386              		.global	gpio_checkEvent
 1387              		.syntax unified
 1388              		.arm
 1389              		.fpu vfp
 1390              		.type	gpio_checkEvent, %function
 1391              	gpio_checkEvent:
 1392              		@ args = 0, pretend = 0, frame = 0
 1393              		@ frame_needed = 0, uses_anonymous_args = 0
 1394              		@ link register save eliminated.
 1395 1020 360050E3 		cmp	r0, #54
 1396 1024 0B00008A 		bhi	.L249
 1397 1028 0110A0E3 		mov	r1, #1
 1398 102c 2C309FE5 		ldr	r3, .L250
 1399 1030 A022A0E1 		lsr	r2, r0, #5
 1400 1034 003093E5 		ldr	r3, [r3]
 1401 1038 102082E2 		add	r2, r2, #16
 1402 103c 023683E2 		add	r3, r3, #2097152
 1403 1040 023193E7 		ldr	r3, [r3, r2, lsl #2]
 1404 1044 1F0000E2 		and	r0, r0, #31
 1405 1048 113013E0 		ands	r3, r3, r1, lsl r0
 1406 104c 0100A011 		movne	r0, r1
 1407 1050 0000A003 		moveq	r0, #0
 1408 1054 1EFF2FE1 		bx	lr
 1409              	.L249:
 1410 1058 0000A0E3 		mov	r0, #0
 1411 105c 1EFF2FE1 		bx	lr
 1412              	.L251:
 1413              		.align	2
 1414              	.L250:
 1415 1060 00000000 		.word	RPi_IO_Base_Addr
 1416              		.size	gpio_checkEvent, .-gpio_checkEvent
 1417              		.align	2
 1418              		.global	gpio_clearEvent
 1419              		.syntax unified
 1420              		.arm
 1421              		.fpu vfp
 1422              		.type	gpio_clearEvent, %function
 1423              	gpio_clearEvent:
 1424              		@ args = 0, pretend = 0, frame = 0
 1425              		@ frame_needed = 0, uses_anonymous_args = 0
ARM GAS  C:\Users\ldebo\AppData\Local\Temp\ccBZnoYF.s 			page 26


 1426              		@ link register save eliminated.
 1427 1064 360050E3 		cmp	r0, #54
 1428 1068 0A00008A 		bhi	.L254
 1429 106c 0120A0E3 		mov	r2, #1
 1430 1070 28309FE5 		ldr	r3, .L255
 1431 1074 1FC000E2 		and	ip, r0, #31
 1432 1078 001093E5 		ldr	r1, [r3]
 1433 107c A032A0E1 		lsr	r3, r0, #5
 1434 1080 021681E2 		add	r1, r1, #2097152
 1435 1084 120CA0E1 		lsl	r0, r2, ip
 1436 1088 103083E2 		add	r3, r3, #16
 1437 108c 030181E7 		str	r0, [r1, r3, lsl #2]
 1438 1090 0200A0E1 		mov	r0, r2
 1439 1094 1EFF2FE1 		bx	lr
 1440              	.L254:
 1441 1098 0000A0E3 		mov	r0, #0
 1442 109c 1EFF2FE1 		bx	lr
 1443              	.L256:
 1444              		.align	2
 1445              	.L255:
 1446 10a0 00000000 		.word	RPi_IO_Base_Addr
 1447              		.size	gpio_clearEvent, .-gpio_clearEvent
 1448              		.align	2
 1449              		.global	gpio_edgeDetect
 1450              		.syntax unified
 1451              		.arm
 1452              		.fpu vfp
 1453              		.type	gpio_edgeDetect, %function
 1454              	gpio_edgeDetect:
 1455              		@ args = 0, pretend = 0, frame = 0
 1456              		@ frame_needed = 0, uses_anonymous_args = 0
 1457 10a4 360050E3 		cmp	r0, #54
 1458 10a8 1A00008A 		bhi	.L262
 1459 10ac 01C0A0E3 		mov	ip, #1
 1460 10b0 1F3000E2 		and	r3, r0, #31
 1461 10b4 000051E3 		cmp	r1, #0
 1462 10b8 04E02DE5 		str	lr, [sp, #-4]!
 1463 10bc 1CE3A0E1 		lsl	lr, ip, r3
 1464 10c0 0A00000A 		beq	.L259
 1465 10c4 000052E3 		cmp	r2, #0
 1466 10c8 1400000A 		beq	.L260
 1467 10cc 90109FE5 		ldr	r1, .L268
 1468 10d0 A032A0E1 		lsr	r3, r0, #5
 1469 10d4 000091E5 		ldr	r0, [r1]
 1470 10d8 1E3083E2 		add	r3, r3, #30
 1471 10dc 020680E2 		add	r0, r0, #2097152
 1472 10e0 033180E0 		add	r3, r0, r3, lsl #2
 1473 10e4 04E083E5 		str	lr, [r3, #4]
 1474 10e8 0200A0E1 		mov	r0, r2
 1475 10ec 04F09DE4 		ldr	pc, [sp], #4
 1476              	.L259:
 1477 10f0 000052E3 		cmp	r2, #0
 1478 10f4 1200001A 		bne	.L267
 1479 10f8 64209FE5 		ldr	r2, .L268
 1480 10fc A032A0E1 		lsr	r3, r0, #5
 1481 1100 002092E5 		ldr	r2, [r2]
 1482 1104 163083E2 		add	r3, r3, #22
ARM GAS  C:\Users\ldebo\AppData\Local\Temp\ccBZnoYF.s 			page 27


 1483 1108 022682E2 		add	r2, r2, #2097152
 1484 110c 0C00A0E1 		mov	r0, ip
 1485 1110 03E182E7 		str	lr, [r2, r3, lsl #2]
 1486 1114 04F09DE4 		ldr	pc, [sp], #4
 1487              	.L262:
 1488 1118 0000A0E3 		mov	r0, #0
 1489 111c 1EFF2FE1 		bx	lr
 1490              	.L260:
 1491 1120 3C209FE5 		ldr	r2, .L268
 1492 1124 A032A0E1 		lsr	r3, r0, #5
 1493 1128 000092E5 		ldr	r0, [r2]
 1494 112c 123083E2 		add	r3, r3, #18
 1495 1130 020680E2 		add	r0, r0, #2097152
 1496 1134 033180E0 		add	r3, r0, r3, lsl #2
 1497 1138 04E083E5 		str	lr, [r3, #4]
 1498 113c 0100A0E1 		mov	r0, r1
 1499 1140 04F09DE4 		ldr	pc, [sp], #4
 1500              	.L267:
 1501 1144 18109FE5 		ldr	r1, .L268
 1502 1148 A032A0E1 		lsr	r3, r0, #5
 1503 114c 001091E5 		ldr	r1, [r1]
 1504 1150 223083E2 		add	r3, r3, #34
 1505 1154 021681E2 		add	r1, r1, #2097152
 1506 1158 0200A0E1 		mov	r0, r2
 1507 115c 03E181E7 		str	lr, [r1, r3, lsl #2]
 1508 1160 04F09DE4 		ldr	pc, [sp], #4
 1509              	.L269:
 1510              		.align	2
 1511              	.L268:
 1512 1164 00000000 		.word	RPi_IO_Base_Addr
 1513              		.size	gpio_edgeDetect, .-gpio_edgeDetect
 1514              		.align	2
 1515              		.global	gpio_fixResistor
 1516              		.syntax unified
 1517              		.arm
 1518              		.fpu vfp
 1519              		.type	gpio_fixResistor, %function
 1520              	gpio_fixResistor:
 1521              		@ args = 0, pretend = 0, frame = 0
 1522              		@ frame_needed = 0, uses_anonymous_args = 0
 1523 1168 360050E3 		cmp	r0, #54
 1524 116c 4600008A 		bhi	.L279
 1525 1170 020051E3 		cmp	r1, #2
 1526 1174 440000CA 		bgt	.L279
 1527 1178 F04F2DE9 		push	{r4, r5, r6, r7, r8, r9, r10, fp, lr}
 1528 117c 00A0A0E1 		mov	r10, r0
 1529 1180 0C319FE5 		ldr	r3, .L290
 1530 1184 00C093E5 		ldr	ip, [r3]
 1531 1188 02B68CE2 		add	fp, ip, #2097152
 1532 118c 94108BE5 		str	r1, [fp, #148]
 1533 1190 03CA8CE2 		add	ip, ip, #12288
 1534              	.L272:
 1535 1194 0030A0E3 		mov	r3, #0
 1536 1198 0010A0E3 		mov	r1, #0
 1537 119c 08209CE5 		ldr	r2, [ip, #8]
 1538 11a0 04E09CE5 		ldr	lr, [ip, #4]
 1539 11a4 08009CE5 		ldr	r0, [ip, #8]
ARM GAS  C:\Users\ldebo\AppData\Local\Temp\ccBZnoYF.s 			page 28


 1540 11a8 010053E1 		cmp	r3, r1
 1541 11ac 00005201 		cmpeq	r2, r0
 1542 11b0 F7FFFF1A 		bne	.L272
 1543 11b4 0000A0E3 		mov	r0, #0
 1544 11b8 0E0080E1 		orr	r0, r0, lr
 1545 11bc 028090E2 		adds	r8, r0, #2
 1546 11c0 0090A2E2 		adc	r9, r2, #0
 1547              	.L273:
 1548 11c4 0030A0E3 		mov	r3, #0
 1549 11c8 0010A0E3 		mov	r1, #0
 1550 11cc 08209CE5 		ldr	r2, [ip, #8]
 1551 11d0 04E09CE5 		ldr	lr, [ip, #4]
 1552 11d4 08009CE5 		ldr	r0, [ip, #8]
 1553 11d8 010053E1 		cmp	r3, r1
 1554 11dc 00005201 		cmpeq	r2, r0
 1555 11e0 F7FFFF1A 		bne	.L273
 1556 11e4 0270A0E1 		mov	r7, r2
 1557 11e8 0060A0E3 		mov	r6, #0
 1558 11ec 070059E1 		cmp	r9, r7
 1559 11f0 0E2086E1 		orr	r2, r6, lr
 1560 11f4 02005801 		cmpeq	r8, r2
 1561 11f8 F1FFFF8A 		bhi	.L273
 1562 11fc 0130A0E3 		mov	r3, #1
 1563 1200 1F200AE2 		and	r2, r10, #31
 1564 1204 AAE2A0E1 		lsr	lr, r10, #5
 1565 1208 1332A0E1 		lsl	r3, r3, r2
 1566 120c 0EE18BE0 		add	lr, fp, lr, lsl #2
 1567 1210 98308EE5 		str	r3, [lr, #152]
 1568              	.L275:
 1569 1214 0030A0E3 		mov	r3, #0
 1570 1218 0010A0E3 		mov	r1, #0
 1571 121c 08209CE5 		ldr	r2, [ip, #8]
 1572 1220 04709CE5 		ldr	r7, [ip, #4]
 1573 1224 08009CE5 		ldr	r0, [ip, #8]
 1574 1228 010053E1 		cmp	r3, r1
 1575 122c 00005201 		cmpeq	r2, r0
 1576 1230 F7FFFF1A 		bne	.L275
 1577 1234 0000A0E3 		mov	r0, #0
 1578 1238 070080E1 		orr	r0, r0, r7
 1579 123c 026090E2 		adds	r6, r0, #2
 1580 1240 0070A2E2 		adc	r7, r2, #0
 1581              	.L276:
 1582 1244 0030A0E3 		mov	r3, #0
 1583 1248 0010A0E3 		mov	r1, #0
 1584 124c 08209CE5 		ldr	r2, [ip, #8]
 1585 1250 04809CE5 		ldr	r8, [ip, #4]
 1586 1254 08009CE5 		ldr	r0, [ip, #8]
 1587 1258 010053E1 		cmp	r3, r1
 1588 125c 00005201 		cmpeq	r2, r0
 1589 1260 F7FFFF1A 		bne	.L276
 1590 1264 0250A0E1 		mov	r5, r2
 1591 1268 0040A0E3 		mov	r4, #0
 1592 126c 050057E1 		cmp	r7, r5
 1593 1270 082084E1 		orr	r2, r4, r8
 1594 1274 02005601 		cmpeq	r6, r2
 1595 1278 F1FFFF8A 		bhi	.L276
 1596 127c 94408BE5 		str	r4, [fp, #148]
ARM GAS  C:\Users\ldebo\AppData\Local\Temp\ccBZnoYF.s 			page 29


 1597 1280 0100A0E3 		mov	r0, #1
 1598 1284 98408EE5 		str	r4, [lr, #152]
 1599 1288 F08FBDE8 		pop	{r4, r5, r6, r7, r8, r9, r10, fp, pc}
 1600              	.L279:
 1601 128c 0000A0E3 		mov	r0, #0
 1602 1290 1EFF2FE1 		bx	lr
 1603              	.L291:
 1604              		.align	2
 1605              	.L290:
 1606 1294 00000000 		.word	RPi_IO_Base_Addr
 1607              		.size	gpio_fixResistor, .-gpio_fixResistor
 1608              		.align	2
 1609              		.global	timer_getTickCount
 1610              		.syntax unified
 1611              		.arm
 1612              		.fpu vfp
 1613              		.type	timer_getTickCount, %function
 1614              	timer_getTickCount:
 1615              		@ args = 0, pretend = 0, frame = 0
 1616              		@ frame_needed = 0, uses_anonymous_args = 0
 1617              		@ link register save eliminated.
 1618 1298 44309FE5 		ldr	r3, .L296
 1619 129c 30002DE9 		push	{r4, r5}
 1620 12a0 001093E5 		ldr	r1, [r3]
 1621 12a4 031A81E2 		add	r1, r1, #12288
 1622              	.L293:
 1623 12a8 0030A0E3 		mov	r3, #0
 1624 12ac 0050A0E3 		mov	r5, #0
 1625 12b0 082091E5 		ldr	r2, [r1, #8]
 1626 12b4 040091E5 		ldr	r0, [r1, #4]
 1627 12b8 084091E5 		ldr	r4, [r1, #8]
 1628 12bc 050053E1 		cmp	r3, r5
 1629 12c0 04005201 		cmpeq	r2, r4
 1630 12c4 F7FFFF1A 		bne	.L293
 1631 12c8 0040A0E3 		mov	r4, #0
 1632 12cc 0250A0E1 		mov	r5, r2
 1633 12d0 004084E1 		orr	r4, r4, r0
 1634 12d4 0400A0E1 		mov	r0, r4
 1635 12d8 0510A0E1 		mov	r1, r5
 1636 12dc 3000BDE8 		pop	{r4, r5}
 1637 12e0 1EFF2FE1 		bx	lr
 1638              	.L297:
 1639              		.align	2
 1640              	.L296:
 1641 12e4 00000000 		.word	RPi_IO_Base_Addr
 1642              		.size	timer_getTickCount, .-timer_getTickCount
 1643              		.align	2
 1644              		.global	timer_wait
 1645              		.syntax unified
 1646              		.arm
 1647              		.fpu vfp
 1648              		.type	timer_wait, %function
 1649              	timer_wait:
 1650              		@ args = 0, pretend = 0, frame = 0
 1651              		@ frame_needed = 0, uses_anonymous_args = 0
 1652 12e8 74309FE5 		ldr	r3, .L306
 1653 12ec F0402DE9 		push	{r4, r5, r6, r7, lr}
ARM GAS  C:\Users\ldebo\AppData\Local\Temp\ccBZnoYF.s 			page 30


 1654 12f0 00C093E5 		ldr	ip, [r3]
 1655 12f4 03CA8CE2 		add	ip, ip, #12288
 1656              	.L299:
 1657 12f8 0030A0E3 		mov	r3, #0
 1658 12fc 0070A0E3 		mov	r7, #0
 1659 1300 08209CE5 		ldr	r2, [ip, #8]
 1660 1304 04E09CE5 		ldr	lr, [ip, #4]
 1661 1308 08609CE5 		ldr	r6, [ip, #8]
 1662 130c 070053E1 		cmp	r3, r7
 1663 1310 06005201 		cmpeq	r2, r6
 1664 1314 F7FFFF1A 		bne	.L299
 1665 1318 0060A0E3 		mov	r6, #0
 1666 131c 0E6086E1 		orr	r6, r6, lr
 1667 1320 006096E0 		adds	r6, r6, r0
 1668 1324 0170A2E0 		adc	r7, r2, r1
 1669              	.L300:
 1670 1328 0030A0E3 		mov	r3, #0
 1671 132c 0010A0E3 		mov	r1, #0
 1672 1330 08209CE5 		ldr	r2, [ip, #8]
 1673 1334 04E09CE5 		ldr	lr, [ip, #4]
 1674 1338 08009CE5 		ldr	r0, [ip, #8]
 1675 133c 010053E1 		cmp	r3, r1
 1676 1340 00005201 		cmpeq	r2, r0
 1677 1344 F7FFFF1A 		bne	.L300
 1678 1348 0250A0E1 		mov	r5, r2
 1679 134c 0040A0E3 		mov	r4, #0
 1680 1350 050057E1 		cmp	r7, r5
 1681 1354 0E2084E1 		orr	r2, r4, lr
 1682 1358 02005601 		cmpeq	r6, r2
 1683 135c F1FFFF8A 		bhi	.L300
 1684 1360 F080BDE8 		pop	{r4, r5, r6, r7, pc}
 1685              	.L307:
 1686              		.align	2
 1687              	.L306:
 1688 1364 00000000 		.word	RPi_IO_Base_Addr
 1689              		.size	timer_wait, .-timer_wait
 1690              		.align	2
 1691              		.global	tick_difference
 1692              		.syntax unified
 1693              		.arm
 1694              		.fpu vfp
 1695              		.type	tick_difference, %function
 1696              	tick_difference:
 1697              		@ args = 0, pretend = 0, frame = 0
 1698              		@ frame_needed = 0, uses_anonymous_args = 0
 1699              		@ link register save eliminated.
 1700 1368 000052E0 		subs	r0, r2, r0
 1701 136c 0110C3E0 		sbc	r1, r3, r1
 1702 1370 1EFF2FE1 		bx	lr
 1703              		.size	tick_difference, .-tick_difference
 1704              		.align	2
 1705              		.global	mailbox_write
 1706              		.syntax unified
 1707              		.arm
 1708              		.fpu vfp
 1709              		.type	mailbox_write, %function
 1710              	mailbox_write:
ARM GAS  C:\Users\ldebo\AppData\Local\Temp\ccBZnoYF.s 			page 31


 1711              		@ args = 0, pretend = 0, frame = 0
 1712              		@ frame_needed = 0, uses_anonymous_args = 0
 1713              		@ link register save eliminated.
 1714 1374 090050E3 		cmp	r0, #9
 1715 1378 0B0000CA 		bgt	.L312
 1716 137c 30309FE5 		ldr	r3, .L314
 1717 1380 0F10C1E3 		bic	r1, r1, #15
 1718 1384 002093E5 		ldr	r2, [r3]
 1719 1388 010080E1 		orr	r0, r0, r1
 1720 138c 2E2B82E2 		add	r2, r2, #47104
 1721 1390 802082E2 		add	r2, r2, #128
 1722              	.L311:
 1723 1394 383092E5 		ldr	r3, [r2, #56]
 1724 1398 000053E3 		cmp	r3, #0
 1725 139c FCFFFFBA 		blt	.L311
 1726 13a0 200082E5 		str	r0, [r2, #32]
 1727 13a4 0100A0E3 		mov	r0, #1
 1728 13a8 1EFF2FE1 		bx	lr
 1729              	.L312:
 1730 13ac 0000A0E3 		mov	r0, #0
 1731 13b0 1EFF2FE1 		bx	lr
 1732              	.L315:
 1733              		.align	2
 1734              	.L314:
 1735 13b4 00000000 		.word	RPi_IO_Base_Addr
 1736              		.size	mailbox_write, .-mailbox_write
 1737              		.align	2
 1738              		.global	mailbox_read
 1739              		.syntax unified
 1740              		.arm
 1741              		.fpu vfp
 1742              		.type	mailbox_read, %function
 1743              	mailbox_read:
 1744              		@ args = 0, pretend = 0, frame = 0
 1745              		@ frame_needed = 0, uses_anonymous_args = 0
 1746              		@ link register save eliminated.
 1747 13b8 090050E3 		cmp	r0, #9
 1748 13bc 010000DA 		ble	.L323
 1749 13c0 34009FE5 		ldr	r0, .L324
 1750 13c4 1EFF2FE1 		bx	lr
 1751              	.L323:
 1752 13c8 30309FE5 		ldr	r3, .L324+4
 1753 13cc 002093E5 		ldr	r2, [r3]
 1754 13d0 2E2B82E2 		add	r2, r2, #47104
 1755 13d4 802082E2 		add	r2, r2, #128
 1756              	.L318:
 1757 13d8 183092E5 		ldr	r3, [r2, #24]
 1758 13dc 010113E3 		tst	r3, #1073741824
 1759 13e0 FCFFFF1A 		bne	.L318
 1760 13e4 003092E5 		ldr	r3, [r2]
 1761 13e8 0F1003E2 		and	r1, r3, #15
 1762 13ec 010050E1 		cmp	r0, r1
 1763 13f0 F8FFFF1A 		bne	.L318
 1764 13f4 0F00C3E3 		bic	r0, r3, #15
 1765 13f8 1EFF2FE1 		bx	lr
 1766              	.L325:
 1767              		.align	2
ARM GAS  C:\Users\ldebo\AppData\Local\Temp\ccBZnoYF.s 			page 32


 1768              	.L324:
 1769 13fc ADDEEDFE 		.word	-17965395
 1770 1400 00000000 		.word	RPi_IO_Base_Addr
 1771              		.size	mailbox_read, .-mailbox_read
 1772              		.align	2
 1773              		.global	mailbox_tag_message
 1774              		.syntax unified
 1775              		.arm
 1776              		.fpu vfp
 1777              		.type	mailbox_tag_message, %function
 1778              	mailbox_tag_message:
 1779              		@ args = 4, pretend = 12, frame = 8
 1780              		@ frame_needed = 1, uses_anonymous_args = 1
 1781 1404 0E002DE9 		push	{r1, r2, r3}
 1782 1408 70482DE9 		push	{r4, r5, r6, fp, lr}
 1783 140c 10B08DE2 		add	fp, sp, #16
 1784 1410 08D04DE2 		sub	sp, sp, #8
 1785 1414 0020A0E3 		mov	r2, #0
 1786 1418 0460DBE5 		ldrb	r6, [fp, #4]	@ zero_extendqisi2
 1787 141c 90D04DE2 		sub	sp, sp, #144
 1788 1420 020056E1 		cmp	r6, r2
 1789 1424 0F508DE2 		add	r5, sp, #15
 1790 1428 033086E2 		add	r3, r6, #3
 1791 142c 0F50C5E3 		bic	r5, r5, #15
 1792 1430 0331A0E1 		lsl	r3, r3, #2
 1793 1434 0040A0E1 		mov	r4, r0
 1794 1438 021086E2 		add	r1, r6, #2
 1795 143c 08C08BE2 		add	ip, fp, #8
 1796 1440 01008612 		addne	r0, r6, #1
 1797 1444 003085E5 		str	r3, [r5]
 1798 1448 14C00BE5 		str	ip, [fp, #-20]
 1799 144c 012185E7 		str	r2, [r5, r1, lsl #2]
 1800 1450 00018510 		addne	r0, r5, r0, lsl #2
 1801 1454 042085E5 		str	r2, [r5, #4]
 1802 1458 04308512 		addne	r3, r5, #4
 1803 145c 04208B12 		addne	r2, fp, #4
 1804 1460 0300000A 		beq	.L329
 1805              	.L330:
 1806 1464 0410B2E5 		ldr	r1, [r2, #4]!
 1807 1468 0410A3E5 		str	r1, [r3, #4]!
 1808 146c 000053E1 		cmp	r3, r0
 1809 1470 FBFFFF1A 		bne	.L330
 1810              	.L329:
 1811 1474 0500A0E1 		mov	r0, r5
 1812 1478 FEFFFFEB 		bl	ARMaddrToGPUaddr
 1813 147c 9C309FE5 		ldr	r3, .L348
 1814 1480 0F10C0E3 		bic	r1, r0, #15
 1815 1484 003093E5 		ldr	r3, [r3]
 1816 1488 081081E3 		orr	r1, r1, #8
 1817 148c 2E3B83E2 		add	r3, r3, #47104
 1818 1490 803083E2 		add	r3, r3, #128
 1819              	.L328:
 1820 1494 382093E5 		ldr	r2, [r3, #56]
 1821 1498 000052E3 		cmp	r2, #0
 1822 149c FCFFFFBA 		blt	.L328
 1823 14a0 201083E5 		str	r1, [r3, #32]
 1824              	.L331:
ARM GAS  C:\Users\ldebo\AppData\Local\Temp\ccBZnoYF.s 			page 33


 1825 14a4 180093E5 		ldr	r0, [r3, #24]
 1826 14a8 010110E2 		ands	r0, r0, #1073741824
 1827 14ac FCFFFF1A 		bne	.L331
 1828 14b0 002093E5 		ldr	r2, [r3]
 1829 14b4 0F2002E2 		and	r2, r2, #15
 1830 14b8 080052E3 		cmp	r2, #8
 1831 14bc F8FFFF1A 		bne	.L331
 1832 14c0 043095E5 		ldr	r3, [r5, #4]
 1833 14c4 020153E3 		cmp	r3, #-2147483648
 1834 14c8 0300000A 		beq	.L347
 1835 14cc 10D04BE2 		sub	sp, fp, #16
 1836              		@ sp needed
 1837 14d0 7048BDE8 		pop	{r4, r5, r6, fp, lr}
 1838 14d4 0CD08DE2 		add	sp, sp, #12
 1839 14d8 1EFF2FE1 		bx	lr
 1840              	.L347:
 1841 14dc 000054E3 		cmp	r4, #0
 1842 14e0 0900000A 		beq	.L335
 1843 14e4 000056E3 		cmp	r6, #0
 1844 14e8 0700000A 		beq	.L335
 1845 14ec 012086E2 		add	r2, r6, #1
 1846 14f0 022185E0 		add	r2, r5, r2, lsl #2
 1847 14f4 044044E2 		sub	r4, r4, #4
 1848 14f8 045085E2 		add	r5, r5, #4
 1849              	.L336:
 1850 14fc 0430B5E5 		ldr	r3, [r5, #4]!
 1851 1500 020055E1 		cmp	r5, r2
 1852 1504 0430A4E5 		str	r3, [r4, #4]!
 1853 1508 FBFFFF1A 		bne	.L336
 1854              	.L335:
 1855 150c 0100A0E3 		mov	r0, #1
 1856 1510 10D04BE2 		sub	sp, fp, #16
 1857              		@ sp needed
 1858 1514 7048BDE8 		pop	{r4, r5, r6, fp, lr}
 1859 1518 0CD08DE2 		add	sp, sp, #12
 1860 151c 1EFF2FE1 		bx	lr
 1861              	.L349:
 1862              		.align	2
 1863              	.L348:
 1864 1520 00000000 		.word	RPi_IO_Base_Addr
 1865              		.size	mailbox_tag_message, .-mailbox_tag_message
 1866              		.align	2
 1867              		.global	set_Activity_LED
 1868              		.syntax unified
 1869              		.arm
 1870              		.fpu vfp
 1871              		.type	set_Activity_LED, %function
 1872              	set_Activity_LED:
 1873              		@ args = 0, pretend = 0, frame = 16
 1874              		@ frame_needed = 0, uses_anonymous_args = 0
 1875 1524 4C219FE5 		ldr	r2, .L373
 1876 1528 4C319FE5 		ldr	r3, .L373+4
 1877 152c 001092E5 		ldr	r1, [r2]
 1878 1530 48219FE5 		ldr	r2, .L373+8
 1879 1534 213203E0 		and	r3, r3, r1, lsr #4
 1880 1538 020053E1 		cmp	r3, r2
 1881 153c 2E00000A 		beq	.L352
ARM GAS  C:\Users\ldebo\AppData\Local\Temp\ccBZnoYF.s 			page 34


 1882 1540 10402DE9 		push	{r4, lr}
 1883 1544 FC2082E2 		add	r2, r2, #252
 1884 1548 020053E1 		cmp	r3, r2
 1885 154c 20D04DE2 		sub	sp, sp, #32
 1886 1550 0040A0E1 		mov	r4, r0
 1887 1554 1E00000A 		beq	.L353
 1888 1558 24219FE5 		ldr	r2, .L373+12
 1889 155c 020053E1 		cmp	r3, r2
 1890 1560 0000A013 		movne	r0, #0
 1891 1564 0100000A 		beq	.L371
 1892              	.L351:
 1893 1568 20D08DE2 		add	sp, sp, #32
 1894              		@ sp needed
 1895 156c 1080BDE8 		pop	{r4, pc}
 1896              	.L371:
 1897 1570 10C19FE5 		ldr	ip, .L373+16
 1898 1574 0020DCE5 		ldrb	r2, [ip]	@ zero_extendqisi2
 1899 1578 000052E3 		cmp	r2, #0
 1900 157c 2900000A 		beq	.L372
 1901              	.L370:
 1902 1580 04319FE5 		ldr	r3, .L373+20
 1903 1584 003093E5 		ldr	r3, [r3]
 1904 1588 360053E3 		cmp	r3, #54
 1905 158c 0100A083 		movhi	r0, #1
 1906 1590 F4FFFF8A 		bhi	.L351
 1907              	.L365:
 1908 1594 0100A0E3 		mov	r0, #1
 1909 1598 F0109FE5 		ldr	r1, .L373+24
 1910 159c 000054E3 		cmp	r4, #0
 1911 15a0 001091E5 		ldr	r1, [r1]
 1912 15a4 1F2003E2 		and	r2, r3, #31
 1913 15a8 A332A0E1 		lsr	r3, r3, #5
 1914 15ac 06308312 		addne	r3, r3, #6
 1915 15b0 02168112 		addne	r1, r1, #2097152
 1916 15b4 1022A0E1 		lsl	r2, r0, r2
 1917 15b8 03318110 		addne	r3, r1, r3, lsl #2
 1918 15bc 0A308302 		addeq	r3, r3, #10
 1919 15c0 02168102 		addeq	r1, r1, #2097152
 1920 15c4 0400A011 		movne	r0, r4
 1921 15c8 04208315 		strne	r2, [r3, #4]
 1922 15cc 03218107 		streq	r2, [r1, r3, lsl #2]
 1923 15d0 E4FFFFEA 		b	.L351
 1924              	.L353:
 1925 15d4 0830A0E3 		mov	r3, #8
 1926 15d8 8220A0E3 		mov	r2, #130
 1927 15dc 00308DE5 		str	r3, [sp]
 1928 15e0 14008DE9 		stmib	sp, {r2, r4}
 1929 15e4 0510A0E3 		mov	r1, #5
 1930 15e8 A4209FE5 		ldr	r2, .L373+28
 1931 15ec 0000A0E3 		mov	r0, #0
 1932 15f0 57FDFFEB 		bl	mailbox_tag_message.constprop.4
 1933 15f4 20D08DE2 		add	sp, sp, #32
 1934              		@ sp needed
 1935 15f8 1080BDE8 		pop	{r4, pc}
 1936              	.L352:
 1937 15fc 0229A0E3 		mov	r2, #32768
 1938 1600 88309FE5 		ldr	r3, .L373+24
ARM GAS  C:\Users\ldebo\AppData\Local\Temp\ccBZnoYF.s 			page 35


 1939 1604 000050E3 		cmp	r0, #0
 1940 1608 00309315 		ldrne	r3, [r3]
 1941 160c 00309305 		ldreq	r3, [r3]
 1942 1610 02368312 		addne	r3, r3, #2097152
 1943 1614 02368302 		addeq	r3, r3, #2097152
 1944 1618 20208315 		strne	r2, [r3, #32]
 1945 161c 0100A003 		moveq	r0, #1
 1946 1620 2C208305 		streq	r2, [r3, #44]
 1947 1624 1EFF2FE1 		bx	lr
 1948              	.L372:
 1949 1628 0430A0E3 		mov	r3, #4
 1950 162c 01E0A0E3 		mov	lr, #1
 1951 1630 04208DE5 		str	r2, [sp, #4]
 1952 1634 00208DE5 		str	r2, [sp]
 1953 1638 0310A0E1 		mov	r1, r3
 1954 163c 54209FE5 		ldr	r2, .L373+32
 1955 1640 10008DE2 		add	r0, sp, #16
 1956 1644 00E0CCE5 		strb	lr, [ip]
 1957 1648 B5FDFFEB 		bl	mailbox_tag_message.constprop.6
 1958 164c 000050E3 		cmp	r0, #0
 1959 1650 CAFFFF0A 		beq	.L370
 1960 1654 1C309DE5 		ldr	r3, [sp, #28]
 1961 1658 2C109FE5 		ldr	r1, .L373+20
 1962 165c 023043E2 		sub	r3, r3, #2
 1963 1660 0D0053E3 		cmp	r3, #13
 1964 1664 1020A093 		movls	r2, #16
 1965 1668 2F20A083 		movhi	r2, #47
 1966 166c 0230A0E1 		mov	r3, r2
 1967 1670 002081E5 		str	r2, [r1]
 1968 1674 C6FFFFEA 		b	.L365
 1969              	.L374:
 1970              		.align	2
 1971              	.L373:
 1972 1678 00000000 		.word	RPi_CpuId
 1973 167c FF0F0000 		.word	4095
 1974 1680 070C0000 		.word	3079
 1975 1684 760B0000 		.word	2934
 1976 1688 00000000 		.word	.LANCHOR1
 1977 168c 00000000 		.word	.LANCHOR2
 1978 1690 00000000 		.word	RPi_IO_Base_Addr
 1979 1694 41800300 		.word	229441
 1980 1698 02000100 		.word	65538
 1981              		.size	set_Activity_LED, .-set_Activity_LED
 1982              		.align	2
 1983              		.global	ARM_setmaxspeed
 1984              		.syntax unified
 1985              		.arm
 1986              		.fpu vfp
 1987              		.type	ARM_setmaxspeed, %function
 1988              	ARM_setmaxspeed:
 1989              		@ args = 0, pretend = 0, frame = 24
 1990              		@ frame_needed = 0, uses_anonymous_args = 0
 1991 169c 70402DE9 		push	{r4, r5, r6, lr}
 1992 16a0 0030A0E3 		mov	r3, #0
 1993 16a4 0840A0E3 		mov	r4, #8
 1994 16a8 0350A0E3 		mov	r5, #3
 1995 16ac 28D04DE2 		sub	sp, sp, #40
ARM GAS  C:\Users\ldebo\AppData\Local\Temp\ccBZnoYF.s 			page 36


 1996 16b0 08308DE5 		str	r3, [sp, #8]
 1997 16b4 0060A0E1 		mov	r6, r0
 1998 16b8 30008DE8 		stm	sp, {r4, r5}
 1999 16bc 0430A0E1 		mov	r3, r4
 2000 16c0 14008DE2 		add	r0, sp, #20
 2001 16c4 64209FE5 		ldr	r2, .L386
 2002 16c8 0510A0E3 		mov	r1, #5
 2003 16cc 54FDFFEB 		bl	mailbox_tag_message.constprop.5
 2004 16d0 000050E3 		cmp	r0, #0
 2005 16d4 0300001A 		bne	.L376
 2006              	.L378:
 2007 16d8 0040A0E3 		mov	r4, #0
 2008              	.L377:
 2009 16dc 0400A0E1 		mov	r0, r4
 2010 16e0 28D08DE2 		add	sp, sp, #40
 2011              		@ sp needed
 2012 16e4 7080BDE8 		pop	{r4, r5, r6, pc}
 2013              	.L376:
 2014 16e8 24209DE5 		ldr	r2, [sp, #36]
 2015 16ec 30008DE8 		stm	sp, {r4, r5}
 2016 16f0 0430A0E1 		mov	r3, r4
 2017 16f4 08208DE5 		str	r2, [sp, #8]
 2018 16f8 14008DE2 		add	r0, sp, #20
 2019 16fc 30209FE5 		ldr	r2, .L386+4
 2020 1700 0510A0E3 		mov	r1, #5
 2021 1704 46FDFFEB 		bl	mailbox_tag_message.constprop.5
 2022 1708 004050E2 		subs	r4, r0, #0
 2023 170c F1FFFF0A 		beq	.L378
 2024 1710 000056E3 		cmp	r6, #0
 2025 1714 F0FFFF0A 		beq	.L377
 2026 1718 24109DE5 		ldr	r1, [sp, #36]
 2027 171c 14009FE5 		ldr	r0, .L386+8
 2028 1720 36FF2FE1 		blx	r6
 2029 1724 0400A0E1 		mov	r0, r4
 2030 1728 28D08DE2 		add	sp, sp, #40
 2031              		@ sp needed
 2032 172c 7080BDE8 		pop	{r4, r5, r6, pc}
 2033              	.L387:
 2034              		.align	2
 2035              	.L386:
 2036 1730 04000300 		.word	196612
 2037 1734 02800300 		.word	229378
 2038 1738 00000000 		.word	.LC0
 2039              		.size	ARM_setmaxspeed, .-ARM_setmaxspeed
 2040              		.align	2
 2041              		.global	displaySmartStart
 2042              		.syntax unified
 2043              		.arm
 2044              		.fpu vfp
 2045              		.type	displaySmartStart, %function
 2046              	displaySmartStart:
 2047              		@ args = 0, pretend = 0, frame = 0
 2048              		@ frame_needed = 0, uses_anonymous_args = 0
 2049 173c 10402DE9 		push	{r4, lr}
 2050 1740 004050E2 		subs	r4, r0, #0
 2051 1744 1080BD08 		popeq	{r4, pc}
 2052 1748 5C309FE5 		ldr	r3, .L391
ARM GAS  C:\Users\ldebo\AppData\Local\Temp\ccBZnoYF.s 			page 37


 2053 174c 5C009FE5 		ldr	r0, .L391+4
 2054 1750 0010D3E5 		ldrb	r1, [r3]	@ zero_extendqisi2
 2055 1754 0020D3E5 		ldrb	r2, [r3]	@ zero_extendqisi2
 2056 1758 003093E5 		ldr	r3, [r3]
 2057 175c 2222A0E1 		lsr	r2, r2, #4
 2058 1760 012002E2 		and	r2, r2, #1
 2059 1764 012082E2 		add	r2, r2, #1
 2060 1768 A332A0E1 		lsr	r3, r3, #5
 2061 176c 0F1001E2 		and	r1, r1, #15
 2062 1770 8222A0E1 		lsl	r2, r2, #5
 2063 1774 073003E2 		and	r3, r3, #7
 2064 1778 34FF2FE1 		blx	r4
 2065 177c FEFFFFEB 		bl	RPi_CpuIdString
 2066 1780 2C309FE5 		ldr	r3, .L391+8
 2067 1784 2C209FE5 		ldr	r2, .L391+12
 2068 1788 00C093E5 		ldr	ip, [r3]
 2069 178c 28309FE5 		ldr	r3, .L391+16
 2070 1790 0010A0E1 		mov	r1, r0
 2071 1794 2C2202E0 		and	r2, r2, ip, lsr #4
 2072 1798 003093E5 		ldr	r3, [r3]
 2073 179c 04C0A0E1 		mov	ip, r4
 2074 17a0 1040BDE8 		pop	{r4, lr}
 2075 17a4 14009FE5 		ldr	r0, .L391+20
 2076 17a8 1CFF2FE1 		bx	ip
 2077              	.L392:
 2078              		.align	2
 2079              	.L391:
 2080 17ac 00000000 		.word	RPi_CompileMode
 2081 17b0 1C000000 		.word	.LC1
 2082 17b4 00000000 		.word	RPi_CpuId
 2083 17b8 FF0F0000 		.word	4095
 2084 17bc 00000000 		.word	RPi_CoresReady
 2085 17c0 64000000 		.word	.LC2
 2086              		.size	displaySmartStart, .-displaySmartStart
 2087              		.align	2
 2088              		.global	Embedded_Console_WriteChar
 2089              		.syntax unified
 2090              		.arm
 2091              		.fpu vfp
 2092              		.type	Embedded_Console_WriteChar, %function
 2093              	Embedded_Console_WriteChar:
 2094              		@ args = 0, pretend = 0, frame = 0
 2095              		@ frame_needed = 0, uses_anonymous_args = 0
 2096 17c4 0A0050E3 		cmp	r0, #10
 2097 17c8 2200000A 		beq	.L395
 2098 17cc 0D0050E3 		cmp	r0, #13
 2099 17d0 1C00000A 		beq	.L396
 2100 17d4 090050E3 		cmp	r0, #9
 2101 17d8 0F00000A 		beq	.L404
 2102 17dc 10402DE9 		push	{r4, lr}
 2103 17e0 8C409FE5 		ldr	r4, .L405
 2104 17e4 0010A0E1 		mov	r1, r0
 2105 17e8 1C2094E5 		ldr	r2, [r4, #28]
 2106 17ec 203094E5 		ldr	r3, [r4, #32]
 2107 17f0 8221A0E1 		lsl	r2, r2, #3
 2108 17f4 0332A0E1 		lsl	r3, r3, #4
 2109 17f8 183084E5 		str	r3, [r4, #24]
ARM GAS  C:\Users\ldebo\AppData\Local\Temp\ccBZnoYF.s 			page 38


 2110 17fc 142084E5 		str	r2, [r4, #20]
 2111 1800 403094E5 		ldr	r3, [r4, #64]
 2112 1804 040084E2 		add	r0, r4, #4
 2113 1808 33FF2FE1 		blx	r3
 2114 180c 1C3094E5 		ldr	r3, [r4, #28]
 2115 1810 013083E2 		add	r3, r3, #1
 2116 1814 1C3084E5 		str	r3, [r4, #28]
 2117 1818 1080BDE8 		pop	{r4, pc}
 2118              	.L404:
 2119 181c 50009FE5 		ldr	r0, .L405
 2120 1820 1C3090E5 		ldr	r3, [r0, #28]
 2121 1824 053083E2 		add	r3, r3, #5
 2122 1828 C32FA0E1 		asr	r2, r3, #31
 2123 182c 221FA0E1 		lsr	r1, r2, #30
 2124 1830 012083E0 		add	r2, r3, r1
 2125 1834 032002E2 		and	r2, r2, #3
 2126 1838 012042E0 		sub	r2, r2, r1
 2127 183c 023043E0 		sub	r3, r3, r2
 2128 1840 1C3080E5 		str	r3, [r0, #28]
 2129 1844 1EFF2FE1 		bx	lr
 2130              	.L396:
 2131 1848 0020A0E3 		mov	r2, #0
 2132 184c 20309FE5 		ldr	r3, .L405
 2133 1850 1C2083E5 		str	r2, [r3, #28]
 2134 1854 1EFF2FE1 		bx	lr
 2135              	.L395:
 2136 1858 0010A0E3 		mov	r1, #0
 2137 185c 10309FE5 		ldr	r3, .L405
 2138 1860 202093E5 		ldr	r2, [r3, #32]
 2139 1864 1C1083E5 		str	r1, [r3, #28]
 2140 1868 012082E2 		add	r2, r2, #1
 2141 186c 202083E5 		str	r2, [r3, #32]
 2142 1870 1EFF2FE1 		bx	lr
 2143              	.L406:
 2144              		.align	2
 2145              	.L405:
 2146 1874 00000000 		.word	.LANCHOR1
 2147              		.size	Embedded_Console_WriteChar, .-Embedded_Console_WriteChar
 2148              		.align	2
 2149              		.global	WriteText
 2150              		.syntax unified
 2151              		.arm
 2152              		.fpu vfp
 2153              		.type	WriteText, %function
 2154              	WriteText:
 2155              		@ args = 0, pretend = 0, frame = 0
 2156              		@ frame_needed = 0, uses_anonymous_args = 0
 2157 1878 F0412DE9 		push	{r4, r5, r6, r7, r8, lr}
 2158 187c 004052E2 		subs	r4, r2, #0
 2159 1880 F081BD08 		popeq	{r4, r5, r6, r7, r8, pc}
 2160 1884 0030A0E1 		mov	r3, r0
 2161 1888 C0509FE5 		ldr	r5, .L425
 2162 188c 0400A0E1 		mov	r0, r4
 2163 1890 1C3085E5 		str	r3, [r5, #28]
 2164 1894 201085E5 		str	r1, [r5, #32]
 2165 1898 FEFFFFEB 		bl	strlen
 2166 189c 000050E3 		cmp	r0, #0
ARM GAS  C:\Users\ldebo\AppData\Local\Temp\ccBZnoYF.s 			page 39


 2167 18a0 F081BD08 		popeq	{r4, r5, r6, r7, r8, pc}
 2168 18a4 0080A0E3 		mov	r8, #0
 2169 18a8 007084E0 		add	r7, r4, r0
 2170 18ac 046085E2 		add	r6, r5, #4
 2171 18b0 120000EA 		b	.L415
 2172              	.L424:
 2173 18b4 0D0051E3 		cmp	r1, #13
 2174 18b8 1C808505 		streq	r8, [r5, #28]
 2175 18bc 0D00000A 		beq	.L414
 2176 18c0 090051E3 		cmp	r1, #9
 2177 18c4 1700000A 		beq	.L422
 2178 18c8 1C2095E5 		ldr	r2, [r5, #28]
 2179 18cc 203095E5 		ldr	r3, [r5, #32]
 2180 18d0 8221A0E1 		lsl	r2, r2, #3
 2181 18d4 0332A0E1 		lsl	r3, r3, #4
 2182 18d8 183085E5 		str	r3, [r5, #24]
 2183 18dc 142085E5 		str	r2, [r5, #20]
 2184 18e0 403095E5 		ldr	r3, [r5, #64]
 2185 18e4 0600A0E1 		mov	r0, r6
 2186 18e8 33FF2FE1 		blx	r3
 2187 18ec 1C3095E5 		ldr	r3, [r5, #28]
 2188 18f0 013083E2 		add	r3, r3, #1
 2189 18f4 1C3085E5 		str	r3, [r5, #28]
 2190              	.L414:
 2191 18f8 040057E1 		cmp	r7, r4
 2192 18fc 0800000A 		beq	.L423
 2193              	.L415:
 2194 1900 0110D4E4 		ldrb	r1, [r4], #1	@ zero_extendqisi2
 2195 1904 0A0051E3 		cmp	r1, #10
 2196 1908 E9FFFF1A 		bne	.L424
 2197 190c 203095E5 		ldr	r3, [r5, #32]
 2198 1910 040057E1 		cmp	r7, r4
 2199 1914 013083E2 		add	r3, r3, #1
 2200 1918 1C8085E5 		str	r8, [r5, #28]
 2201 191c 203085E5 		str	r3, [r5, #32]
 2202 1920 F6FFFF1A 		bne	.L415
 2203              	.L423:
 2204 1924 F081BDE8 		pop	{r4, r5, r6, r7, r8, pc}
 2205              	.L422:
 2206 1928 1C3095E5 		ldr	r3, [r5, #28]
 2207 192c 053083E2 		add	r3, r3, #5
 2208 1930 C32FA0E1 		asr	r2, r3, #31
 2209 1934 221FA0E1 		lsr	r1, r2, #30
 2210 1938 012083E0 		add	r2, r3, r1
 2211 193c 032002E2 		and	r2, r2, #3
 2212 1940 012042E0 		sub	r2, r2, r1
 2213 1944 023043E0 		sub	r3, r3, r2
 2214 1948 1C3085E5 		str	r3, [r5, #28]
 2215 194c E9FFFFEA 		b	.L414
 2216              	.L426:
 2217              		.align	2
 2218              	.L425:
 2219 1950 00000000 		.word	.LANCHOR1
 2220              		.size	WriteText, .-WriteText
 2221              		.align	2
 2222              		.global	SetDCPenColor
 2223              		.syntax unified
ARM GAS  C:\Users\ldebo\AppData\Local\Temp\ccBZnoYF.s 			page 40


 2224              		.arm
 2225              		.fpu vfp
 2226              		.type	SetDCPenColor, %function
 2227              	SetDCPenColor:
 2228              		@ args = 0, pretend = 0, frame = 0
 2229              		@ frame_needed = 0, uses_anonymous_args = 0
 2230              		@ link register save eliminated.
 2231 1954 003050E2 		subs	r3, r0, #0
 2232 1958 20009315 		ldrne	r0, [r3, #32]
 2233 195c 20108315 		strne	r1, [r3, #32]
 2234 1960 0300A001 		moveq	r0, r3
 2235 1964 1EFF2FE1 		bx	lr
 2236              		.size	SetDCPenColor, .-SetDCPenColor
 2237              		.align	2
 2238              		.global	SetDCBrushColor
 2239              		.syntax unified
 2240              		.arm
 2241              		.fpu vfp
 2242              		.type	SetDCBrushColor, %function
 2243              	SetDCBrushColor:
 2244              		@ args = 0, pretend = 0, frame = 0
 2245              		@ frame_needed = 0, uses_anonymous_args = 0
 2246              		@ link register save eliminated.
 2247 1968 003050E2 		subs	r3, r0, #0
 2248 196c 28009315 		ldrne	r0, [r3, #40]
 2249 1970 28108315 		strne	r1, [r3, #40]
 2250 1974 0300A001 		moveq	r0, r3
 2251 1978 1EFF2FE1 		bx	lr
 2252              		.size	SetDCBrushColor, .-SetDCBrushColor
 2253              		.align	2
 2254              		.global	MoveToEx
 2255              		.syntax unified
 2256              		.arm
 2257              		.fpu vfp
 2258              		.type	MoveToEx, %function
 2259              	MoveToEx:
 2260              		@ args = 0, pretend = 0, frame = 0
 2261              		@ frame_needed = 0, uses_anonymous_args = 0
 2262 197c 00C050E2 		subs	ip, r0, #0
 2263 1980 0900000A 		beq	.L436
 2264 1984 04E02DE5 		str	lr, [sp, #-4]!
 2265 1988 01E0A0E1 		mov	lr, r1
 2266 198c 000053E3 		cmp	r3, #0
 2267 1990 10108C12 		addne	r1, ip, #16
 2268 1994 03009118 		ldmne	r1, {r0, r1}
 2269 1998 03008318 		stmne	r3, {r0, r1}
 2270 199c 10E08CE5 		str	lr, [ip, #16]
 2271 19a0 14208CE5 		str	r2, [ip, #20]
 2272 19a4 0100A0E3 		mov	r0, #1
 2273 19a8 04F09DE4 		ldr	pc, [sp], #4
 2274              	.L436:
 2275 19ac 0C00A0E1 		mov	r0, ip
 2276 19b0 1EFF2FE1 		bx	lr
 2277              		.size	MoveToEx, .-MoveToEx
 2278              		.align	2
 2279              		.global	LineTo
 2280              		.syntax unified
ARM GAS  C:\Users\ldebo\AppData\Local\Temp\ccBZnoYF.s 			page 41


 2281              		.arm
 2282              		.fpu vfp
 2283              		.type	LineTo, %function
 2284              	LineTo:
 2285              		@ args = 0, pretend = 0, frame = 0
 2286              		@ frame_needed = 0, uses_anonymous_args = 0
 2287 19b4 000050E3 		cmp	r0, #0
 2288 19b8 1EFF2F01 		bxeq	lr
 2289 19bc 10C090E5 		ldr	ip, [r0, #16]
 2290 19c0 10402DE9 		push	{r4, lr}
 2291 19c4 01005CE1 		cmp	ip, r1
 2292 19c8 01104CC0 		subgt	r1, ip, r1
 2293 19cc 0C1041D0 		suble	r1, r1, ip
 2294 19d0 14C090E5 		ldr	ip, [r0, #20]
 2295 19d4 0030E0C3 		mvngt	r3, #0
 2296 19d8 0130A0D3 		movle	r3, #1
 2297 19dc 02005CE1 		cmp	ip, r2
 2298 19e0 02C04CC0 		subgt	ip, ip, r2
 2299 19e4 00E0E0C3 		mvngt	lr, #0
 2300 19e8 01E0A0D3 		movle	lr, #1
 2301 19ec 0CC042D0 		suble	ip, r2, ip
 2302 19f0 000051E3 		cmp	r1, #0
 2303 19f4 08D04DE2 		sub	sp, sp, #8
 2304 19f8 0E00000A 		beq	.L457
 2305 19fc 00005CE3 		cmp	ip, #0
 2306 1a00 0600000A 		beq	.L458
 2307 1a04 00E08DE5 		str	lr, [sp]
 2308 1a08 384090E5 		ldr	r4, [r0, #56]
 2309 1a0c 0C20A0E1 		mov	r2, ip
 2310 1a10 34FF2FE1 		blx	r4
 2311 1a14 0100A0E3 		mov	r0, #1
 2312 1a18 08D08DE2 		add	sp, sp, #8
 2313              		@ sp needed
 2314 1a1c 1080BDE8 		pop	{r4, pc}
 2315              	.L458:
 2316 1a20 0320A0E1 		mov	r2, r3
 2317 1a24 343090E5 		ldr	r3, [r0, #52]
 2318 1a28 33FF2FE1 		blx	r3
 2319 1a2c 0100A0E3 		mov	r0, #1
 2320 1a30 08D08DE2 		add	sp, sp, #8
 2321              		@ sp needed
 2322 1a34 1080BDE8 		pop	{r4, pc}
 2323              	.L457:
 2324 1a38 303090E5 		ldr	r3, [r0, #48]
 2325 1a3c 0E20A0E1 		mov	r2, lr
 2326 1a40 0C10A0E1 		mov	r1, ip
 2327 1a44 33FF2FE1 		blx	r3
 2328 1a48 0100A0E3 		mov	r0, #1
 2329 1a4c 08D08DE2 		add	sp, sp, #8
 2330              		@ sp needed
 2331 1a50 1080BDE8 		pop	{r4, pc}
 2332              		.size	LineTo, .-LineTo
 2333              		.align	2
 2334              		.global	TextOut
 2335              		.syntax unified
 2336              		.arm
 2337              		.fpu vfp
ARM GAS  C:\Users\ldebo\AppData\Local\Temp\ccBZnoYF.s 			page 42


 2338              		.type	TextOut, %function
 2339              	TextOut:
 2340              		@ args = 4, pretend = 0, frame = 0
 2341              		@ frame_needed = 0, uses_anonymous_args = 0
 2342 1a54 F0472DE9 		push	{r4, r5, r6, r7, r8, r9, r10, lr}
 2343 1a58 20709DE5 		ldr	r7, [sp, #32]
 2344 1a5c 000057E3 		cmp	r7, #0
 2345 1a60 00005313 		cmpne	r3, #0
 2346 1a64 0100A013 		movne	r0, #1
 2347 1a68 0000A003 		moveq	r0, #0
 2348 1a6c F087BD08 		popeq	{r4, r5, r6, r7, r8, r9, r10, pc}
 2349 1a70 000057E3 		cmp	r7, #0
 2350 1a74 0E0000DA 		ble	.L462
 2351 1a78 0160A0E1 		mov	r6, r1
 2352 1a7c 0280A0E1 		mov	r8, r2
 2353 1a80 0340A0E1 		mov	r4, r3
 2354 1a84 30509FE5 		ldr	r5, .L466
 2355 1a88 077083E0 		add	r7, r3, r7
 2356 1a8c 049085E2 		add	r9, r5, #4
 2357              	.L463:
 2358 1a90 146085E5 		str	r6, [r5, #20]
 2359 1a94 188085E5 		str	r8, [r5, #24]
 2360 1a98 0110D4E4 		ldrb	r1, [r4], #1	@ zero_extendqisi2
 2361 1a9c 403095E5 		ldr	r3, [r5, #64]
 2362 1aa0 0900A0E1 		mov	r0, r9
 2363 1aa4 33FF2FE1 		blx	r3
 2364 1aa8 070054E1 		cmp	r4, r7
 2365 1aac 086086E2 		add	r6, r6, #8
 2366 1ab0 F6FFFF1A 		bne	.L463
 2367              	.L462:
 2368 1ab4 0100A0E3 		mov	r0, #1
 2369 1ab8 F087BDE8 		pop	{r4, r5, r6, r7, r8, r9, r10, pc}
 2370              	.L467:
 2371              		.align	2
 2372              	.L466:
 2373 1abc 00000000 		.word	.LANCHOR1
 2374              		.size	TextOut, .-TextOut
 2375              		.align	2
 2376              		.global	BmpOut
 2377              		.syntax unified
 2378              		.arm
 2379              		.fpu vfp
 2380              		.type	BmpOut, %function
 2381              	BmpOut:
 2382              		@ args = 8, pretend = 0, frame = 0
 2383              		@ frame_needed = 0, uses_anonymous_args = 0
 2384 1ac0 00C050E2 		subs	ip, r0, #0
 2385 1ac4 0F00000A 		beq	.L470
 2386 1ac8 30402DE9 		push	{r4, r5, lr}
 2387 1acc 0140A0E3 		mov	r4, #1
 2388 1ad0 0CD04DE2 		sub	sp, sp, #12
 2389 1ad4 18E09DE5 		ldr	lr, [sp, #24]
 2390 1ad8 10108CE5 		str	r1, [ip, #16]
 2391 1adc 0E2082E0 		add	r2, r2, lr
 2392 1ae0 14208CE5 		str	r2, [ip, #20]
 2393 1ae4 00408DE5 		str	r4, [sp]
 2394 1ae8 0310A0E1 		mov	r1, r3
ARM GAS  C:\Users\ldebo\AppData\Local\Temp\ccBZnoYF.s 			page 43


 2395 1aec 40509CE5 		ldr	r5, [ip, #64]
 2396 1af0 1C309DE5 		ldr	r3, [sp, #28]
 2397 1af4 0E20A0E1 		mov	r2, lr
 2398 1af8 35FF2FE1 		blx	r5
 2399 1afc 0400A0E1 		mov	r0, r4
 2400 1b00 0CD08DE2 		add	sp, sp, #12
 2401              		@ sp needed
 2402 1b04 3080BDE8 		pop	{r4, r5, pc}
 2403              	.L470:
 2404 1b08 0C00A0E1 		mov	r0, ip
 2405 1b0c 1EFF2FE1 		bx	lr
 2406              		.size	BmpOut, .-BmpOut
 2407              		.align	2
 2408              		.global	CvtBmpLine
 2409              		.syntax unified
 2410              		.arm
 2411              		.fpu vfp
 2412              		.type	CvtBmpLine, %function
 2413              	CvtBmpLine:
 2414              		@ args = 8, pretend = 0, frame = 4096
 2415              		@ frame_needed = 0, uses_anonymous_args = 0
 2416 1b10 70402DE9 		push	{r4, r5, r6, lr}
 2417 1b14 01DA4DE2 		sub	sp, sp, #4096
 2418 1b18 08D04DE2 		sub	sp, sp, #8
 2419 1b1c 01CA8DE2 		add	ip, sp, #4096
 2420 1b20 18C08CE2 		add	ip, ip, #24
 2421 1b24 000050E3 		cmp	r0, #0
 2422 1b28 00E09CE5 		ldr	lr, [ip]
 2423 1b2c 1200000A 		beq	.L475
 2424 1b30 0CC090E5 		ldr	ip, [r0, #12]
 2425 1b34 101080E5 		str	r1, [r0, #16]
 2426 1b38 0E005CE1 		cmp	ip, lr
 2427 1b3c 142080E5 		str	r2, [r0, #20]
 2428 1b40 0500000A 		beq	.L478
 2429 1b44 18005CE3 		cmp	ip, #24
 2430 1b48 0E00000A 		beq	.L479
 2431 1b4c 20005CE3 		cmp	ip, #32
 2432 1b50 3F00000A 		beq	.L480
 2433 1b54 10005CE3 		cmp	ip, #16
 2434 1b58 1E00000A 		beq	.L523
 2435              	.L478:
 2436 1b5c 0140A0E3 		mov	r4, #1
 2437 1b60 00408DE5 		str	r4, [sp]
 2438 1b64 0310A0E1 		mov	r1, r3
 2439 1b68 405090E5 		ldr	r5, [r0, #64]
 2440 1b6c 08308DE2 		add	r3, sp, #8
 2441 1b70 0420A0E1 		mov	r2, r4
 2442 1b74 35FF2FE1 		blx	r5
 2443 1b78 0400A0E1 		mov	r0, r4
 2444              	.L475:
 2445 1b7c 01DA8DE2 		add	sp, sp, #4096
 2446 1b80 08D08DE2 		add	sp, sp, #8
 2447              		@ sp needed
 2448 1b84 7080BDE8 		pop	{r4, r5, r6, pc}
 2449              	.L479:
 2450 1b88 10005EE3 		cmp	lr, #16
 2451 1b8c 4400000A 		beq	.L487
ARM GAS  C:\Users\ldebo\AppData\Local\Temp\ccBZnoYF.s 			page 44


 2452 1b90 000053E3 		cmp	r3, #0
 2453 1b94 F0FFFF0A 		beq	.L478
 2454 1b98 012A8DE2 		add	r2, sp, #4096
 2455 1b9c 1C2082E2 		add	r2, r2, #28
 2456 1ba0 001092E5 		ldr	r1, [r2]
 2457 1ba4 834083E0 		add	r4, r3, r3, lsl #1
 2458 1ba8 08208DE2 		add	r2, sp, #8
 2459 1bac 044082E0 		add	r4, r2, r4
 2460              	.L490:
 2461 1bb0 041081E2 		add	r1, r1, #4
 2462 1bb4 04C051E5 		ldrb	ip, [r1, #-4]	@ zero_extendqisi2
 2463 1bb8 03E051E5 		ldrb	lr, [r1, #-3]	@ zero_extendqisi2
 2464 1bbc 03C0C2E4 		strb	ip, [r2], #3
 2465 1bc0 02C051E5 		ldrb	ip, [r1, #-2]	@ zero_extendqisi2
 2466 1bc4 040052E1 		cmp	r2, r4
 2467 1bc8 02E042E5 		strb	lr, [r2, #-2]
 2468 1bcc 01C042E5 		strb	ip, [r2, #-1]
 2469 1bd0 F6FFFF1A 		bne	.L490
 2470 1bd4 E0FFFFEA 		b	.L478
 2471              	.L523:
 2472 1bd8 18005EE3 		cmp	lr, #24
 2473 1bdc 5E00000A 		beq	.L482
 2474 1be0 000053E3 		cmp	r3, #0
 2475 1be4 DCFFFF0A 		beq	.L478
 2476 1be8 0010A0E3 		mov	r1, #0
 2477 1bec 012A8DE2 		add	r2, sp, #4096
 2478 1bf0 1C2082E2 		add	r2, r2, #28
 2479 1bf4 002092E5 		ldr	r2, [r2]
 2480 1bf8 08C08DE2 		add	ip, sp, #8
 2481              	.L486:
 2482 1bfc 00E0DCE5 		ldrb	lr, [ip]	@ zero_extendqisi2
 2483 1c00 042082E2 		add	r2, r2, #4
 2484 1c04 044052E5 		ldrb	r4, [r2, #-4]	@ zero_extendqisi2
 2485 1c08 1FE0CEE3 		bic	lr, lr, #31
 2486 1c0c A4E18EE1 		orr	lr, lr, r4, lsr #3
 2487 1c10 00E0CCE5 		strb	lr, [ip]
 2488 1c14 B0E0DCE1 		ldrh	lr, [ip]
 2489 1c18 035052E5 		ldrb	r5, [r2, #-3]	@ zero_extendqisi2
 2490 1c1c 024052E5 		ldrb	r4, [r2, #-2]	@ zero_extendqisi2
 2491 1c20 2551A0E1 		lsr	r5, r5, #2
 2492 1c24 7EEECEE3 		bic	lr, lr, #2016
 2493 1c28 85E28EE1 		orr	lr, lr, r5, lsl #5
 2494 1c2c 011081E2 		add	r1, r1, #1
 2495 1c30 F84004E2 		and	r4, r4, #248
 2496 1c34 8E5AA0E1 		lsl	r5, lr, #21
 2497 1c38 A54E84E1 		orr	r4, r4, r5, lsr #29
 2498 1c3c 010053E1 		cmp	r3, r1
 2499 1c40 B0E0CCE1 		strh	lr, [ip]	@ movhi
 2500 1c44 0140CCE5 		strb	r4, [ip, #1]
 2501 1c48 02C08CE2 		add	ip, ip, #2
 2502 1c4c EAFFFF1A 		bne	.L486
 2503 1c50 C1FFFFEA 		b	.L478
 2504              	.L480:
 2505 1c54 10005EE3 		cmp	lr, #16
 2506 1c58 2800000A 		beq	.L491
 2507 1c5c 000053E3 		cmp	r3, #0
 2508 1c60 BDFFFF0A 		beq	.L478
ARM GAS  C:\Users\ldebo\AppData\Local\Temp\ccBZnoYF.s 			page 45


 2509 1c64 012A8DE2 		add	r2, sp, #4096
 2510 1c68 1C2082E2 		add	r2, r2, #28
 2511 1c6c 002092E5 		ldr	r2, [r2]
 2512 1c70 83C083E0 		add	ip, r3, r3, lsl #1
 2513 1c74 08108DE2 		add	r1, sp, #8
 2514 1c78 0CC082E0 		add	ip, r2, ip
 2515              	.L494:
 2516 1c7c 032082E2 		add	r2, r2, #3
 2517 1c80 035052E5 		ldrb	r5, [r2, #-3]	@ zero_extendqisi2
 2518 1c84 024052E5 		ldrb	r4, [r2, #-2]	@ zero_extendqisi2
 2519 1c88 01E052E5 		ldrb	lr, [r2, #-1]	@ zero_extendqisi2
 2520 1c8c 0450C1E4 		strb	r5, [r1], #4
 2521 1c90 0C0052E1 		cmp	r2, ip
 2522 1c94 034041E5 		strb	r4, [r1, #-3]
 2523 1c98 02E041E5 		strb	lr, [r1, #-2]
 2524 1c9c F6FFFF1A 		bne	.L494
 2525 1ca0 ADFFFFEA 		b	.L478
 2526              	.L487:
 2527 1ca4 000053E3 		cmp	r3, #0
 2528 1ca8 ABFFFF0A 		beq	.L478
 2529 1cac 012A8DE2 		add	r2, sp, #4096
 2530 1cb0 1C2082E2 		add	r2, r2, #28
 2531 1cb4 08108DE2 		add	r1, sp, #8
 2532 1cb8 836083E0 		add	r6, r3, r3, lsl #1
 2533 1cbc 00E092E5 		ldr	lr, [r2]
 2534 1cc0 066081E0 		add	r6, r1, r6
 2535              	.L489:
 2536 1cc4 01C0DEE5 		ldrb	ip, [lr, #1]	@ zero_extendqisi2
 2537 1cc8 0040DEE5 		ldrb	r4, [lr]	@ zero_extendqisi2
 2538 1ccc 07200CE2 		and	r2, ip, #7
 2539 1cd0 8221A0E1 		lsl	r2, r2, #3
 2540 1cd4 8451A0E1 		lsl	r5, r4, #3
 2541 1cd8 0350C1E4 		strb	r5, [r1], #3
 2542 1cdc A42282E1 		orr	r2, r2, r4, lsr #5
 2543 1ce0 F8C00CE2 		and	ip, ip, #248
 2544 1ce4 0221A0E1 		lsl	r2, r2, #2
 2545 1ce8 060051E1 		cmp	r1, r6
 2546 1cec 01C041E5 		strb	ip, [r1, #-1]
 2547 1cf0 022041E5 		strb	r2, [r1, #-2]
 2548 1cf4 02E08EE2 		add	lr, lr, #2
 2549 1cf8 F1FFFF1A 		bne	.L489
 2550 1cfc 96FFFFEA 		b	.L478
 2551              	.L491:
 2552 1d00 000053E3 		cmp	r3, #0
 2553 1d04 94FFFF0A 		beq	.L478
 2554 1d08 0050A0E3 		mov	r5, #0
 2555 1d0c 012A8DE2 		add	r2, sp, #4096
 2556 1d10 1C2082E2 		add	r2, r2, #28
 2557 1d14 004092E5 		ldr	r4, [r2]
 2558 1d18 08E08DE2 		add	lr, sp, #8
 2559              	.L493:
 2560 1d1c 0110D4E5 		ldrb	r1, [r4, #1]	@ zero_extendqisi2
 2561 1d20 00C0D4E5 		ldrb	ip, [r4]	@ zero_extendqisi2
 2562 1d24 072001E2 		and	r2, r1, #7
 2563 1d28 8221A0E1 		lsl	r2, r2, #3
 2564 1d2c AC2282E1 		orr	r2, r2, ip, lsr #5
 2565 1d30 015085E2 		add	r5, r5, #1
ARM GAS  C:\Users\ldebo\AppData\Local\Temp\ccBZnoYF.s 			page 46


 2566 1d34 8CC1A0E1 		lsl	ip, ip, #3
 2567 1d38 04C0CEE4 		strb	ip, [lr], #4
 2568 1d3c F81001E2 		and	r1, r1, #248
 2569 1d40 0221A0E1 		lsl	r2, r2, #2
 2570 1d44 050053E1 		cmp	r3, r5
 2571 1d48 02104EE5 		strb	r1, [lr, #-2]
 2572 1d4c 03204EE5 		strb	r2, [lr, #-3]
 2573 1d50 024084E2 		add	r4, r4, #2
 2574 1d54 F0FFFF1A 		bne	.L493
 2575 1d58 7FFFFFEA 		b	.L478
 2576              	.L482:
 2577 1d5c 000053E3 		cmp	r3, #0
 2578 1d60 7DFFFF0A 		beq	.L478
 2579 1d64 012A8DE2 		add	r2, sp, #4096
 2580 1d68 1C2082E2 		add	r2, r2, #28
 2581 1d6c 00E092E5 		ldr	lr, [r2]
 2582 1d70 831083E0 		add	r1, r3, r3, lsl #1
 2583 1d74 08C08DE2 		add	ip, sp, #8
 2584 1d78 01108EE0 		add	r1, lr, r1
 2585              	.L485:
 2586 1d7c 03E08EE2 		add	lr, lr, #3
 2587 1d80 0020DCE5 		ldrb	r2, [ip]	@ zero_extendqisi2
 2588 1d84 03405EE5 		ldrb	r4, [lr, #-3]	@ zero_extendqisi2
 2589 1d88 1F20C2E3 		bic	r2, r2, #31
 2590 1d8c A42182E1 		orr	r2, r2, r4, lsr #3
 2591 1d90 0020CCE5 		strb	r2, [ip]
 2592 1d94 B020DCE1 		ldrh	r2, [ip]
 2593 1d98 02505EE5 		ldrb	r5, [lr, #-2]	@ zero_extendqisi2
 2594 1d9c 01405EE5 		ldrb	r4, [lr, #-1]	@ zero_extendqisi2
 2595 1da0 2551A0E1 		lsr	r5, r5, #2
 2596 1da4 7E2EC2E3 		bic	r2, r2, #2016
 2597 1da8 852282E1 		orr	r2, r2, r5, lsl #5
 2598 1dac F84004E2 		and	r4, r4, #248
 2599 1db0 825AA0E1 		lsl	r5, r2, #21
 2600 1db4 A54E84E1 		orr	r4, r4, r5, lsr #29
 2601 1db8 01005EE1 		cmp	lr, r1
 2602 1dbc B020CCE1 		strh	r2, [ip]	@ movhi
 2603 1dc0 0140CCE5 		strb	r4, [ip, #1]
 2604 1dc4 02C08CE2 		add	ip, ip, #2
 2605 1dc8 EBFFFF1A 		bne	.L485
 2606 1dcc 62FFFFEA 		b	.L478
 2607              		.size	CvtBmpLine, .-CvtBmpLine
 2608              		.align	2
 2609              		.global	Rectangle
 2610              		.syntax unified
 2611              		.arm
 2612              		.fpu vfp
 2613              		.type	Rectangle, %function
 2614              	Rectangle:
 2615              		@ args = 4, pretend = 0, frame = 0
 2616              		@ frame_needed = 0, uses_anonymous_args = 0
 2617 1dd0 00C050E2 		subs	ip, r0, #0
 2618 1dd4 0800000A 		beq	.L526
 2619 1dd8 10402DE9 		push	{r4, lr}
 2620 1ddc 08D04DE2 		sub	sp, sp, #8
 2621 1de0 10E09DE5 		ldr	lr, [sp, #16]
 2622 1de4 00E08DE5 		str	lr, [sp]
ARM GAS  C:\Users\ldebo\AppData\Local\Temp\ccBZnoYF.s 			page 47


 2623 1de8 2C409CE5 		ldr	r4, [ip, #44]
 2624 1dec 34FF2FE1 		blx	r4
 2625 1df0 0100A0E3 		mov	r0, #1
 2626 1df4 08D08DE2 		add	sp, sp, #8
 2627              		@ sp needed
 2628 1df8 1080BDE8 		pop	{r4, pc}
 2629              	.L526:
 2630 1dfc 0C00A0E1 		mov	r0, ip
 2631 1e00 1EFF2FE1 		bx	lr
 2632              		.size	Rectangle, .-Rectangle
 2633              		.align	2
 2634              		.global	PiConsole_Init
 2635              		.syntax unified
 2636              		.arm
 2637              		.fpu vfp
 2638              		.type	PiConsole_Init, %function
 2639              	PiConsole_Init:
 2640              		@ args = 0, pretend = 0, frame = 80
 2641              		@ frame_needed = 0, uses_anonymous_args = 0
 2642 1e04 000051E3 		cmp	r1, #0
 2643 1e08 00005013 		cmpne	r0, #0
 2644 1e0c F0432DE9 		push	{r4, r5, r6, r7, r8, r9, lr}
 2645 1e10 9CD04DE2 		sub	sp, sp, #156
 2646 1e14 0240A0E1 		mov	r4, r2
 2647 1e18 0380A0E1 		mov	r8, r3
 2648 1e1c 0050A0E1 		mov	r5, r0
 2649 1e20 0160A0E1 		mov	r6, r1
 2650 1e24 4C908D12 		addne	r9, sp, #76
 2651 1e28 5300000A 		beq	.L556
 2652              	.L532:
 2653 1e2c 000054E3 		cmp	r4, #0
 2654 1e30 0800001A 		bne	.L536
 2655 1e34 0430A0E3 		mov	r3, #4
 2656 1e38 F0219FE5 		ldr	r2, .L558
 2657 1e3c 18008DE8 		stm	sp, {r3, r4}
 2658 1e40 0310A0E1 		mov	r1, r3
 2659 1e44 0900A0E1 		mov	r0, r9
 2660 1e48 B5FBFFEB 		bl	mailbox_tag_message.constprop.6
 2661 1e4c 000050E3 		cmp	r0, #0
 2662 1e50 1D00000A 		beq	.L537
 2663 1e54 58409DE5 		ldr	r4, [sp, #88]
 2664              	.L536:
 2665 1e58 0420A0E3 		mov	r2, #4
 2666 1e5c 0830A0E3 		mov	r3, #8
 2667 1e60 10C0A0E3 		mov	ip, #16
 2668 1e64 0070A0E3 		mov	r7, #0
 2669 1e68 C4E19FE5 		ldr	lr, .L558+4
 2670 1e6c C4119FE5 		ldr	r1, .L558+8
 2671 1e70 38208DE5 		str	r2, [sp, #56]
 2672 1e74 28208DE5 		str	r2, [sp, #40]
 2673 1e78 24208DE5 		str	r2, [sp, #36]
 2674 1e7c 122982E2 		add	r2, r2, #294912
 2675 1e80 0900A0E1 		mov	r0, r9
 2676 1e84 20108DE5 		str	r1, [sp, #32]
 2677 1e88 0C208DE5 		str	r2, [sp, #12]
 2678 1e8c 2C408DE5 		str	r4, [sp, #44]
 2679 1e90 1C608DE5 		str	r6, [sp, #28]
ARM GAS  C:\Users\ldebo\AppData\Local\Temp\ccBZnoYF.s 			page 48


 2680 1e94 18508DE5 		str	r5, [sp, #24]
 2681 1e98 60008DE9 		stmib	sp, {r5, r6}
 2682 1e9c 34308DE5 		str	r3, [sp, #52]
 2683 1ea0 14308DE5 		str	r3, [sp, #20]
 2684 1ea4 10308DE5 		str	r3, [sp, #16]
 2685 1ea8 00308DE5 		str	r3, [sp]
 2686 1eac 30E08DE5 		str	lr, [sp, #48]
 2687 1eb0 012042E2 		sub	r2, r2, #1
 2688 1eb4 1310A0E3 		mov	r1, #19
 2689 1eb8 40708DE5 		str	r7, [sp, #64]
 2690 1ebc 3CC08DE5 		str	ip, [sp, #60]
 2691 1ec0 D2FBFFEB 		bl	mailbox_tag_message.constprop.7
 2692 1ec4 009050E2 		subs	r9, r0, #0
 2693 1ec8 0300001A 		bne	.L557
 2694              	.L537:
 2695 1ecc 0090A0E3 		mov	r9, #0
 2696              	.L534:
 2697 1ed0 0900A0E1 		mov	r0, r9
 2698 1ed4 9CD08DE2 		add	sp, sp, #156
 2699              		@ sp needed
 2700 1ed8 F083BDE8 		pop	{r4, r5, r6, r7, r8, r9, pc}
 2701              	.L557:
 2702 1edc 90009DE5 		ldr	r0, [sp, #144]
 2703 1ee0 FEFFFFEB 		bl	GPUaddrToARMaddr
 2704 1ee4 0010E0E3 		mvn	r1, #0
 2705 1ee8 4C319FE5 		ldr	r3, .L558+12
 2706 1eec 4C219FE5 		ldr	r2, .L558+16
 2707 1ef0 180054E3 		cmp	r4, #24
 2708 1ef4 040083E5 		str	r0, [r3, #4]
 2709 1ef8 287083E5 		str	r7, [r3, #40]
 2710 1efc 085083E5 		str	r5, [r3, #8]
 2711 1f00 0C6083E5 		str	r6, [r3, #12]
 2712 1f04 104083E5 		str	r4, [r3, #16]
 2713 1f08 241083E5 		str	r1, [r3, #36]
 2714 1f0c 2C2083E5 		str	r2, [r3, #44]
 2715 1f10 3900000A 		beq	.L539
 2716 1f14 200054E3 		cmp	r4, #32
 2717 1f18 2A00000A 		beq	.L540
 2718 1f1c 100054E3 		cmp	r4, #16
 2719 1f20 0B00001A 		bne	.L538
 2720 1f24 18119FE5 		ldr	r1, .L558+20
 2721 1f28 18219FE5 		ldr	r2, .L558+24
 2722 1f2c 301083E5 		str	r1, [r3, #48]
 2723 1f30 342083E5 		str	r2, [r3, #52]
 2724 1f34 10119FE5 		ldr	r1, .L558+28
 2725 1f38 10219FE5 		ldr	r2, .L558+32
 2726 1f3c 381083E5 		str	r1, [r3, #56]
 2727 1f40 3C2083E5 		str	r2, [r3, #60]
 2728 1f44 08119FE5 		ldr	r1, .L558+36
 2729 1f48 08219FE5 		ldr	r2, .L558+40
 2730 1f4c 401083E5 		str	r1, [r3, #64]
 2731 1f50 442083E5 		str	r2, [r3, #68]
 2732              	.L538:
 2733 1f54 000058E3 		cmp	r8, #0
 2734 1f58 DCFFFF0A 		beq	.L534
 2735 1f5c 0430A0E1 		mov	r3, r4
 2736 1f60 0620A0E1 		mov	r2, r6
ARM GAS  C:\Users\ldebo\AppData\Local\Temp\ccBZnoYF.s 			page 49


 2737 1f64 0510A0E1 		mov	r1, r5
 2738 1f68 EC009FE5 		ldr	r0, .L558+44
 2739 1f6c 38FF2FE1 		blx	r8
 2740 1f70 0900A0E1 		mov	r0, r9
 2741 1f74 9CD08DE2 		add	sp, sp, #156
 2742              		@ sp needed
 2743 1f78 F083BDE8 		pop	{r4, r5, r6, r7, r8, r9, pc}
 2744              	.L556:
 2745 1f7c 0030A0E3 		mov	r3, #0
 2746 1f80 4C908DE2 		add	r9, sp, #76
 2747 1f84 08308DE5 		str	r3, [sp, #8]
 2748 1f88 04308DE5 		str	r3, [sp, #4]
 2749 1f8c 00308DE5 		str	r3, [sp]
 2750 1f90 0900A0E1 		mov	r0, r9
 2751 1f94 0830A0E3 		mov	r3, #8
 2752 1f98 C0209FE5 		ldr	r2, .L558+48
 2753 1f9c 0510A0E3 		mov	r1, #5
 2754 1fa0 1FFBFFEB 		bl	mailbox_tag_message.constprop.5
 2755 1fa4 000050E3 		cmp	r0, #0
 2756 1fa8 C7FFFF0A 		beq	.L537
 2757 1fac 000055E3 		cmp	r5, #0
 2758 1fb0 0200001A 		bne	.L535
 2759 1fb4 000056E3 		cmp	r6, #0
 2760 1fb8 58509DE5 		ldr	r5, [sp, #88]
 2761 1fbc 9AFFFF1A 		bne	.L532
 2762              	.L535:
 2763 1fc0 5C609DE5 		ldr	r6, [sp, #92]
 2764 1fc4 98FFFFEA 		b	.L532
 2765              	.L540:
 2766 1fc8 94109FE5 		ldr	r1, .L558+52
 2767 1fcc 94209FE5 		ldr	r2, .L558+56
 2768 1fd0 301083E5 		str	r1, [r3, #48]
 2769 1fd4 342083E5 		str	r2, [r3, #52]
 2770 1fd8 8C109FE5 		ldr	r1, .L558+60
 2771 1fdc 8C209FE5 		ldr	r2, .L558+64
 2772 1fe0 381083E5 		str	r1, [r3, #56]
 2773 1fe4 3C2083E5 		str	r2, [r3, #60]
 2774 1fe8 84109FE5 		ldr	r1, .L558+68
 2775 1fec 84209FE5 		ldr	r2, .L558+72
 2776 1ff0 401083E5 		str	r1, [r3, #64]
 2777 1ff4 442083E5 		str	r2, [r3, #68]
 2778 1ff8 D5FFFFEA 		b	.L538
 2779              	.L539:
 2780 1ffc 78109FE5 		ldr	r1, .L558+76
 2781 2000 78209FE5 		ldr	r2, .L558+80
 2782 2004 301083E5 		str	r1, [r3, #48]
 2783 2008 342083E5 		str	r2, [r3, #52]
 2784 200c 70109FE5 		ldr	r1, .L558+84
 2785 2010 70209FE5 		ldr	r2, .L558+88
 2786 2014 381083E5 		str	r1, [r3, #56]
 2787 2018 3C2083E5 		str	r2, [r3, #60]
 2788 201c 68109FE5 		ldr	r1, .L558+92
 2789 2020 68209FE5 		ldr	r2, .L558+96
 2790 2024 401083E5 		str	r1, [r3, #64]
 2791 2028 442083E5 		str	r2, [r3, #68]
 2792 202c C8FFFFEA 		b	.L538
 2793              	.L559:
ARM GAS  C:\Users\ldebo\AppData\Local\Temp\ccBZnoYF.s 			page 50


 2794              		.align	2
 2795              	.L558:
 2796 2030 05000400 		.word	262149
 2797 2034 01000400 		.word	262145
 2798 2038 05800400 		.word	294917
 2799 203c 00000000 		.word	.LANCHOR1
 2800 2040 00FF00FF 		.word	-16711936
 2801 2044 00000000 		.word	_ZL11ClearArea16P8tagINTDCjjjj
 2802 2048 00000000 		.word	_ZL10VertLine16P8tagINTDCji
 2803 204c 00000000 		.word	_ZL10HorzLine16P8tagINTDCji
 2804 2050 00000000 		.word	_ZL10DiagLine16P8tagINTDCjjii
 2805 2054 00000000 		.word	_ZL11WriteChar16P8tagINTDCh
 2806 2058 00000000 		.word	_ZL10PutImage16P8tagINTDCjj12tagIMAGE_PTRb
 2807 205c A4000000 		.word	.LC3
 2808 2060 03000400 		.word	262147
 2809 2064 00000000 		.word	_ZL11ClearArea32P8tagINTDCjjjj
 2810 2068 00000000 		.word	_ZL10VertLine32P8tagINTDCji
 2811 206c 00000000 		.word	_ZL10HorzLine32P8tagINTDCji
 2812 2070 00000000 		.word	_ZL10DiagLine32P8tagINTDCjjii
 2813 2074 00000000 		.word	_ZL11WriteChar32P8tagINTDCh
 2814 2078 00000000 		.word	_ZL10PutImage32P8tagINTDCjj12tagIMAGE_PTRb
 2815 207c 00000000 		.word	_ZL11ClearArea24P8tagINTDCjjjj
 2816 2080 00000000 		.word	_ZL10VertLine24P8tagINTDCji
 2817 2084 00000000 		.word	_ZL10HorzLine24P8tagINTDCji
 2818 2088 00000000 		.word	_ZL10DiagLine24P8tagINTDCjjii
 2819 208c 00000000 		.word	_ZL11WriteChar24P8tagINTDCh
 2820 2090 00000000 		.word	_ZL10PutImage24P8tagINTDCjj12tagIMAGE_PTRb
 2821              		.size	PiConsole_Init, .-PiConsole_Init
 2822              		.align	2
 2823              		.global	GetConsoleDC
 2824              		.syntax unified
 2825              		.arm
 2826              		.fpu vfp
 2827              		.type	GetConsoleDC, %function
 2828              	GetConsoleDC:
 2829              		@ args = 0, pretend = 0, frame = 0
 2830              		@ frame_needed = 0, uses_anonymous_args = 0
 2831              		@ link register save eliminated.
 2832 2094 00009FE5 		ldr	r0, .L561
 2833 2098 1EFF2FE1 		bx	lr
 2834              	.L562:
 2835              		.align	2
 2836              	.L561:
 2837 209c 04000000 		.word	.LANCHOR1+4
 2838              		.size	GetConsoleDC, .-GetConsoleDC
 2839              		.align	2
 2840              		.global	GetConsole_FrameBuffer
 2841              		.syntax unified
 2842              		.arm
 2843              		.fpu vfp
 2844              		.type	GetConsole_FrameBuffer, %function
 2845              	GetConsole_FrameBuffer:
 2846              		@ args = 0, pretend = 0, frame = 0
 2847              		@ frame_needed = 0, uses_anonymous_args = 0
 2848              		@ link register save eliminated.
 2849 20a0 04309FE5 		ldr	r3, .L564
 2850 20a4 040093E5 		ldr	r0, [r3, #4]
ARM GAS  C:\Users\ldebo\AppData\Local\Temp\ccBZnoYF.s 			page 51


 2851 20a8 1EFF2FE1 		bx	lr
 2852              	.L565:
 2853              		.align	2
 2854              	.L564:
 2855 20ac 00000000 		.word	.LANCHOR1
 2856              		.size	GetConsole_FrameBuffer, .-GetConsole_FrameBuffer
 2857              		.align	2
 2858              		.global	GetConsole_Width
 2859              		.syntax unified
 2860              		.arm
 2861              		.fpu vfp
 2862              		.type	GetConsole_Width, %function
 2863              	GetConsole_Width:
 2864              		@ args = 0, pretend = 0, frame = 0
 2865              		@ frame_needed = 0, uses_anonymous_args = 0
 2866              		@ link register save eliminated.
 2867 20b0 04309FE5 		ldr	r3, .L567
 2868 20b4 080093E5 		ldr	r0, [r3, #8]
 2869 20b8 1EFF2FE1 		bx	lr
 2870              	.L568:
 2871              		.align	2
 2872              	.L567:
 2873 20bc 00000000 		.word	.LANCHOR1
 2874              		.size	GetConsole_Width, .-GetConsole_Width
 2875              		.align	2
 2876              		.global	GetConsole_Height
 2877              		.syntax unified
 2878              		.arm
 2879              		.fpu vfp
 2880              		.type	GetConsole_Height, %function
 2881              	GetConsole_Height:
 2882              		@ args = 0, pretend = 0, frame = 0
 2883              		@ frame_needed = 0, uses_anonymous_args = 0
 2884              		@ link register save eliminated.
 2885 20c0 04309FE5 		ldr	r3, .L570
 2886 20c4 0C0093E5 		ldr	r0, [r3, #12]
 2887 20c8 1EFF2FE1 		bx	lr
 2888              	.L571:
 2889              		.align	2
 2890              	.L570:
 2891 20cc 00000000 		.word	.LANCHOR1
 2892              		.size	GetConsole_Height, .-GetConsole_Height
 2893              		.align	2
 2894              		.weak	_sbrk
 2895              		.syntax unified
 2896              		.arm
 2897              		.fpu vfp
 2898              		.type	_sbrk, %function
 2899              	_sbrk:
 2900              		@ args = 0, pretend = 0, frame = 0
 2901              		@ frame_needed = 0, uses_anonymous_args = 0
 2902              		@ link register save eliminated.
 2903 20d0 1C209FE5 		ldr	r2, .L575
 2904 20d4 1C109FE5 		ldr	r1, .L575+4
 2905 20d8 483092E5 		ldr	r3, [r2, #72]
 2906 20dc 000053E3 		cmp	r3, #0
 2907 20e0 0130A001 		moveq	r3, r1
ARM GAS  C:\Users\ldebo\AppData\Local\Temp\ccBZnoYF.s 			page 52


 2908 20e4 000083E0 		add	r0, r3, r0
 2909 20e8 480082E5 		str	r0, [r2, #72]
 2910 20ec 0300A0E1 		mov	r0, r3
 2911 20f0 1EFF2FE1 		bx	lr
 2912              	.L576:
 2913              		.align	2
 2914              	.L575:
 2915 20f4 00000000 		.word	.LANCHOR1
 2916 20f8 00000000 		.word	_end
 2917              		.size	_sbrk, .-_sbrk
 2918              		.align	2
 2919              		.weak	_kill
 2920              		.syntax unified
 2921              		.arm
 2922              		.fpu vfp
 2923              		.type	_kill, %function
 2924              	_kill:
 2925              		@ args = 0, pretend = 0, frame = 0
 2926              		@ frame_needed = 0, uses_anonymous_args = 0
 2927              		@ link register save eliminated.
 2928 20fc 1620A0E3 		mov	r2, #22
 2929 2100 08309FE5 		ldr	r3, .L578
 2930 2104 0000E0E3 		mvn	r0, #0
 2931 2108 002083E5 		str	r2, [r3]
 2932 210c 1EFF2FE1 		bx	lr
 2933              	.L579:
 2934              		.align	2
 2935              	.L578:
 2936 2110 00000000 		.word	errno
 2937              		.size	_kill, .-_kill
 2938              		.align	2
 2939              		.weak	_getpid
 2940              		.syntax unified
 2941              		.arm
 2942              		.fpu vfp
 2943              		.type	_getpid, %function
 2944              	_getpid:
 2945              		@ args = 0, pretend = 0, frame = 0
 2946              		@ frame_needed = 0, uses_anonymous_args = 0
 2947              		@ link register save eliminated.
 2948 2114 0100A0E3 		mov	r0, #1
 2949 2118 1EFF2FE1 		bx	lr
 2950              		.size	_getpid, .-_getpid
 2951              		.align	2
 2952              		.weak	_read
 2953              		.syntax unified
 2954              		.arm
 2955              		.fpu vfp
 2956              		.type	_read, %function
 2957              	_read:
 2958              		@ args = 0, pretend = 0, frame = 0
 2959              		@ frame_needed = 0, uses_anonymous_args = 0
 2960              		@ link register save eliminated.
 2961 211c 0000A0E3 		mov	r0, #0
 2962 2120 1EFF2FE1 		bx	lr
 2963              		.size	_read, .-_read
 2964              		.align	2
ARM GAS  C:\Users\ldebo\AppData\Local\Temp\ccBZnoYF.s 			page 53


 2965              		.weak	_close
 2966              		.syntax unified
 2967              		.arm
 2968              		.fpu vfp
 2969              		.type	_close, %function
 2970              	_close:
 2971              		@ args = 0, pretend = 0, frame = 0
 2972              		@ frame_needed = 0, uses_anonymous_args = 0
 2973              		@ link register save eliminated.
 2974 2124 0000E0E3 		mvn	r0, #0
 2975 2128 1EFF2FE1 		bx	lr
 2976              		.size	_close, .-_close
 2977              		.align	2
 2978              		.weak	_lseek
 2979              		.syntax unified
 2980              		.arm
 2981              		.fpu vfp
 2982              		.type	_lseek, %function
 2983              	_lseek:
 2984              		@ args = 0, pretend = 0, frame = 0
 2985              		@ frame_needed = 0, uses_anonymous_args = 0
 2986              		@ link register save eliminated.
 2987 212c 0000A0E3 		mov	r0, #0
 2988 2130 1EFF2FE1 		bx	lr
 2989              		.size	_lseek, .-_lseek
 2990              		.align	2
 2991              		.weak	_isatty
 2992              		.syntax unified
 2993              		.arm
 2994              		.fpu vfp
 2995              		.type	_isatty, %function
 2996              	_isatty:
 2997              		@ args = 0, pretend = 0, frame = 0
 2998              		@ frame_needed = 0, uses_anonymous_args = 0
 2999              		@ link register save eliminated.
 3000 2134 0100A0E3 		mov	r0, #1
 3001 2138 1EFF2FE1 		bx	lr
 3002              		.size	_isatty, .-_isatty
 3003              		.align	2
 3004              		.weak	_fstat
 3005              		.syntax unified
 3006              		.arm
 3007              		.fpu vfp
 3008              		.type	_fstat, %function
 3009              	_fstat:
 3010              		@ args = 0, pretend = 0, frame = 0
 3011              		@ frame_needed = 0, uses_anonymous_args = 0
 3012              		@ link register save eliminated.
 3013 213c 023AA0E3 		mov	r3, #8192
 3014 2140 0000A0E3 		mov	r0, #0
 3015 2144 043081E5 		str	r3, [r1, #4]
 3016 2148 1EFF2FE1 		bx	lr
 3017              		.size	_fstat, .-_fstat
 3018              		.align	2
 3019              		.weak	_exit
 3020              		.syntax unified
 3021              		.arm
ARM GAS  C:\Users\ldebo\AppData\Local\Temp\ccBZnoYF.s 			page 54


 3022              		.fpu vfp
 3023              		.type	_exit, %function
 3024              	_exit:
 3025              		@ args = 0, pretend = 0, frame = 0
 3026              		@ frame_needed = 0, uses_anonymous_args = 0
 3027              		@ link register save eliminated.
 3028              	.L587:
 3029 214c FEFFFFEA 		b	.L587
 3030              		.size	_exit, .-_exit
 3031              		.align	2
 3032              		.global	_write
 3033              		.syntax unified
 3034              		.arm
 3035              		.fpu vfp
 3036              		.type	_write, %function
 3037              	_write:
 3038              		@ args = 0, pretend = 0, frame = 0
 3039              		@ frame_needed = 0, uses_anonymous_args = 0
 3040 2150 F0472DE9 		push	{r4, r5, r6, r7, r8, r9, r10, lr}
 3041 2154 007052E2 		subs	r7, r2, #0
 3042 2158 210000DA 		ble	.L597
 3043 215c B0409FE5 		ldr	r4, .L603
 3044 2160 0150A0E1 		mov	r5, r1
 3045 2164 0090A0E3 		mov	r9, #0
 3046 2168 078081E0 		add	r8, r1, r7
 3047 216c 046084E2 		add	r6, r4, #4
 3048 2170 120000EA 		b	.L596
 3049              	.L602:
 3050 2174 0D0051E3 		cmp	r1, #13
 3051 2178 1C908405 		streq	r9, [r4, #28]
 3052 217c 0D00000A 		beq	.L594
 3053 2180 090051E3 		cmp	r1, #9
 3054 2184 1800000A 		beq	.L601
 3055 2188 1C2094E5 		ldr	r2, [r4, #28]
 3056 218c 203094E5 		ldr	r3, [r4, #32]
 3057 2190 8221A0E1 		lsl	r2, r2, #3
 3058 2194 0332A0E1 		lsl	r3, r3, #4
 3059 2198 183084E5 		str	r3, [r4, #24]
 3060 219c 142084E5 		str	r2, [r4, #20]
 3061 21a0 403094E5 		ldr	r3, [r4, #64]
 3062 21a4 0600A0E1 		mov	r0, r6
 3063 21a8 33FF2FE1 		blx	r3
 3064 21ac 1C3094E5 		ldr	r3, [r4, #28]
 3065 21b0 013083E2 		add	r3, r3, #1
 3066 21b4 1C3084E5 		str	r3, [r4, #28]
 3067              	.L594:
 3068 21b8 080055E1 		cmp	r5, r8
 3069 21bc 0800000A 		beq	.L597
 3070              	.L596:
 3071 21c0 0110D5E4 		ldrb	r1, [r5], #1	@ zero_extendqisi2
 3072 21c4 0A0051E3 		cmp	r1, #10
 3073 21c8 E9FFFF1A 		bne	.L602
 3074 21cc 203094E5 		ldr	r3, [r4, #32]
 3075 21d0 080055E1 		cmp	r5, r8
 3076 21d4 013083E2 		add	r3, r3, #1
 3077 21d8 1C9084E5 		str	r9, [r4, #28]
 3078 21dc 203084E5 		str	r3, [r4, #32]
ARM GAS  C:\Users\ldebo\AppData\Local\Temp\ccBZnoYF.s 			page 55


 3079 21e0 F6FFFF1A 		bne	.L596
 3080              	.L597:
 3081 21e4 0700A0E1 		mov	r0, r7
 3082 21e8 F087BDE8 		pop	{r4, r5, r6, r7, r8, r9, r10, pc}
 3083              	.L601:
 3084 21ec 1C3094E5 		ldr	r3, [r4, #28]
 3085 21f0 053083E2 		add	r3, r3, #5
 3086 21f4 C32FA0E1 		asr	r2, r3, #31
 3087 21f8 221FA0E1 		lsr	r1, r2, #30
 3088 21fc 012083E0 		add	r2, r3, r1
 3089 2200 032002E2 		and	r2, r2, #3
 3090 2204 012042E0 		sub	r2, r2, r1
 3091 2208 023043E0 		sub	r3, r3, r2
 3092 220c 1C3084E5 		str	r3, [r4, #28]
 3093 2210 E8FFFFEA 		b	.L594
 3094              	.L604:
 3095              		.align	2
 3096              	.L603:
 3097 2214 00000000 		.word	.LANCHOR1
 3098              		.size	_write, .-_write
 3099              		.global	console
 3100              		.section	.rodata
 3101              		.align	2
 3102              		.set	.LANCHOR0,. + 0
 3103              		.type	_ZL7BitFont, %object
 3104              		.size	_ZL7BitFont, 4096
 3105              	_ZL7BitFont:
 3106 0000 00000000 		.word	0
 3107 0004 00000000 		.word	0
 3108 0008 00000000 		.word	0
 3109 000c 00000000 		.word	0
 3110 0010 817E0000 		.word	32385
 3111 0014 BD8181A5 		.word	-1518239299
 3112 0018 7E818199 		.word	-1719565954
 3113 001c 00000000 		.word	0
 3114 0020 FF7E0000 		.word	32511
 3115 0024 C3FFFFDB 		.word	-603979837
 3116 0028 7EFFFFE7 		.word	-402653314
 3117 002c 00000000 		.word	0
 3118 0030 00000000 		.word	0
 3119 0034 FEFEFE6C 		.word	1828650750
 3120 0038 10387CFE 		.word	-25413616
 3121 003c 00000000 		.word	0
 3122 0040 00000000 		.word	0
 3123 0044 FE7C3810 		.word	272137470
 3124 0048 0010387C 		.word	2084048896
 3125 004c 00000000 		.word	0
 3126 0050 18000000 		.word	24
 3127 0054 E7E73C3C 		.word	1010624487
 3128 0058 3C1818E7 		.word	-417851332
 3129 005c 00000000 		.word	0
 3130 0060 18000000 		.word	24
 3131 0064 FFFF7E3C 		.word	1014956031
 3132 0068 3C18187E 		.word	2115508284
 3133 006c 00000000 		.word	0
 3134 0070 00000000 		.word	0
 3135 0074 3C180000 		.word	6204
ARM GAS  C:\Users\ldebo\AppData\Local\Temp\ccBZnoYF.s 			page 56


 3136 0078 0000183C 		.word	1008205824
 3137 007c 00000000 		.word	0
 3138 0080 FFFFFFFF 		.word	-1
 3139 0084 C3E7FFFF 		.word	-6205
 3140 0088 FFFFE7C3 		.word	-1008205825
 3141 008c FFFFFFFF 		.word	-1
 3142 0090 00000000 		.word	0
 3143 0094 42663C00 		.word	3958338
 3144 0098 003C6642 		.word	1113996288
 3145 009c 00000000 		.word	0
 3146 00a0 FFFFFFFF 		.word	-1
 3147 00a4 BD99C3FF 		.word	-3958339
 3148 00a8 FFC399BD 		.word	-1113996289
 3149 00ac FFFFFFFF 		.word	-1
 3150 00b0 0E1E0000 		.word	7694
 3151 00b4 CC78321A 		.word	439515340
 3152 00b8 78CCCCCC 		.word	-858993544
 3153 00bc 00000000 		.word	0
 3154 00c0 663C0000 		.word	15462
 3155 00c4 3C666666 		.word	1717986876
 3156 00c8 18187E18 		.word	410916888
 3157 00cc 00000000 		.word	0
 3158 00d0 333F0000 		.word	16179
 3159 00d4 3030303F 		.word	1060122672
 3160 00d8 E0F07030 		.word	812708064
 3161 00dc 00000000 		.word	0
 3162 00e0 637F0000 		.word	32611
 3163 00e4 6363637F 		.word	2137219939
 3164 00e8 E6E76763 		.word	1667753958
 3165 00ec 000000C0 		.word	-1073741824
 3166 00f0 18000000 		.word	24
 3167 00f4 E73CDB18 		.word	417021159
 3168 00f8 1818DB3C 		.word	1020991512
 3169 00fc 00000000 		.word	0
 3170 0100 E0C08000 		.word	8437984
 3171 0104 F8FEF8F0 		.word	-252117256
 3172 0108 80C0E0F0 		.word	-253706112
 3173 010c 00000000 		.word	0
 3174 0110 0E060200 		.word	132622
 3175 0114 3EFE3E1E 		.word	507444798
 3176 0118 02060E1E 		.word	504235522
 3177 011c 00000000 		.word	0
 3178 0120 3C180000 		.word	6204
 3179 0124 1818187E 		.word	2115508248
 3180 0128 00183C7E 		.word	2117867520
 3181 012c 00000000 		.word	0
 3182 0130 66660000 		.word	26214
 3183 0134 66666666 		.word	1717986918
 3184 0138 66660066 		.word	1711302246
 3185 013c 00000000 		.word	0
 3186 0140 DB7F0000 		.word	32731
 3187 0144 1B7BDBDB 		.word	-606373093
 3188 0148 1B1B1B1B 		.word	454761243
 3189 014c 00000000 		.word	0
 3190 0150 60C67C00 		.word	8177248
 3191 0154 C6C66C38 		.word	946652870
 3192 0158 C60C386C 		.word	1815612614
ARM GAS  C:\Users\ldebo\AppData\Local\Temp\ccBZnoYF.s 			page 57


 3193 015c 0000007C 		.word	2080374784
 3194 0160 00000000 		.word	0
 3195 0164 00000000 		.word	0
 3196 0168 FEFEFEFE 		.word	-16843010
 3197 016c 00000000 		.word	0
 3198 0170 3C180000 		.word	6204
 3199 0174 1818187E 		.word	2115508248
 3200 0178 7E183C7E 		.word	2117867646
 3201 017c 00000000 		.word	0
 3202 0180 3C180000 		.word	6204
 3203 0184 1818187E 		.word	2115508248
 3204 0188 18181818 		.word	404232216
 3205 018c 00000000 		.word	0
 3206 0190 18180000 		.word	6168
 3207 0194 18181818 		.word	404232216
 3208 0198 183C7E18 		.word	410926104
 3209 019c 00000000 		.word	0
 3210 01a0 00000000 		.word	0
 3211 01a4 FE0C1800 		.word	1576190
 3212 01a8 0000180C 		.word	202899456
 3213 01ac 00000000 		.word	0
 3214 01b0 00000000 		.word	0
 3215 01b4 FE603000 		.word	3170558
 3216 01b8 00003060 		.word	1613758464
 3217 01bc 00000000 		.word	0
 3218 01c0 00000000 		.word	0
 3219 01c4 C0C00000 		.word	49344
 3220 01c8 0000FEC0 		.word	-1057095680
 3221 01cc 00000000 		.word	0
 3222 01d0 00000000 		.word	0
 3223 01d4 FE6C2800 		.word	2649342
 3224 01d8 0000286C 		.word	1814560768
 3225 01dc 00000000 		.word	0
 3226 01e0 00000000 		.word	0
 3227 01e4 7C383810 		.word	272119932
 3228 01e8 00FEFE7C 		.word	2097085952
 3229 01ec 00000000 		.word	0
 3230 01f0 00000000 		.word	0
 3231 01f4 7C7CFEFE 		.word	-16876420
 3232 01f8 00103838 		.word	943198208
 3233 01fc 00000000 		.word	0
 3234 0200 00000000 		.word	0
 3235 0204 00000000 		.word	0
 3236 0208 00000000 		.word	0
 3237 020c 00000000 		.word	0
 3238 0210 3C180000 		.word	6204
 3239 0214 18183C3C 		.word	1010571288
 3240 0218 18180018 		.word	402659352
 3241 021c 00000000 		.word	0
 3242 0220 66666600 		.word	6710886
 3243 0224 00000024 		.word	603979776
 3244 0228 00000000 		.word	0
 3245 022c 00000000 		.word	0
 3246 0230 6C000000 		.word	108
 3247 0234 6C6CFE6C 		.word	1828613228
 3248 0238 6C6CFE6C 		.word	1828613228
 3249 023c 00000000 		.word	0
ARM GAS  C:\Users\ldebo\AppData\Local\Temp\ccBZnoYF.s 			page 58


 3250 0240 C67C1818 		.word	404257990
 3251 0244 067CC0C2 		.word	-1027572730
 3252 0248 7CC68606 		.word	109495932
 3253 024c 00001818 		.word	404226048
 3254 0250 00000000 		.word	0
 3255 0254 180CC6C2 		.word	-1027208168
 3256 0258 86C66030 		.word	811648646
 3257 025c 00000000 		.word	0
 3258 0260 6C380000 		.word	14444
 3259 0264 DC76386C 		.word	1815639772
 3260 0268 76CCCCCC 		.word	-858993546
 3261 026c 00000000 		.word	0
 3262 0270 30303000 		.word	3158064
 3263 0274 00000060 		.word	1610612736
 3264 0278 00000000 		.word	0
 3265 027c 00000000 		.word	0
 3266 0280 180C0000 		.word	3096
 3267 0284 30303030 		.word	808464432
 3268 0288 0C183030 		.word	808458252
 3269 028c 00000000 		.word	0
 3270 0290 18300000 		.word	12312
 3271 0294 0C0C0C0C 		.word	202116108
 3272 0298 30180C0C 		.word	202119216
 3273 029c 00000000 		.word	0
 3274 02a0 00000000 		.word	0
 3275 02a4 FF3C6600 		.word	6700287
 3276 02a8 0000663C 		.word	1013317632
 3277 02ac 00000000 		.word	0
 3278 02b0 00000000 		.word	0
 3279 02b4 7E181800 		.word	1579134
 3280 02b8 00001818 		.word	404226048
 3281 02bc 00000000 		.word	0
 3282 02c0 00000000 		.word	0
 3283 02c4 00000000 		.word	0
 3284 02c8 18181800 		.word	1579032
 3285 02cc 00000030 		.word	805306368
 3286 02d0 00000000 		.word	0
 3287 02d4 FE000000 		.word	254
 3288 02d8 00000000 		.word	0
 3289 02dc 00000000 		.word	0
 3290 02e0 00000000 		.word	0
 3291 02e4 00000000 		.word	0
 3292 02e8 18180000 		.word	6168
 3293 02ec 00000000 		.word	0
 3294 02f0 00000000 		.word	0
 3295 02f4 180C0602 		.word	33950744
 3296 02f8 80C06030 		.word	811647104
 3297 02fc 00000000 		.word	0
 3298 0300 6C380000 		.word	14444
 3299 0304 D6D6C6C6 		.word	-960047402
 3300 0308 386CC6C6 		.word	-960074696
 3301 030c 00000000 		.word	0
 3302 0310 38180000 		.word	6200
 3303 0314 18181878 		.word	2014844952
 3304 0318 7E181818 		.word	404232318
 3305 031c 00000000 		.word	0
 3306 0320 C67C0000 		.word	31942
ARM GAS  C:\Users\ldebo\AppData\Local\Temp\ccBZnoYF.s 			page 59


 3307 0324 30180C06 		.word	101455920
 3308 0328 FEC6C060 		.word	1623246590
 3309 032c 00000000 		.word	0
 3310 0330 C67C0000 		.word	31942
 3311 0334 063C0606 		.word	101071878
 3312 0338 7CC60606 		.word	101107324
 3313 033c 00000000 		.word	0
 3314 0340 1C0C0000 		.word	3100
 3315 0344 FECC6C3C 		.word	1013763326
 3316 0348 1E0C0C0C 		.word	202116126
 3317 034c 00000000 		.word	0
 3318 0350 C0FE0000 		.word	65216
 3319 0354 06FCC0C0 		.word	-1061094394
 3320 0358 7CC60606 		.word	101107324
 3321 035c 00000000 		.word	0
 3322 0360 60380000 		.word	14432
 3323 0364 C6FCC0C0 		.word	-1061094202
 3324 0368 7CC6C6C6 		.word	-960051588
 3325 036c 00000000 		.word	0
 3326 0370 C6FE0000 		.word	65222
 3327 0374 180C0606 		.word	101059608
 3328 0378 30303030 		.word	808464432
 3329 037c 00000000 		.word	0
 3330 0380 C67C0000 		.word	31942
 3331 0384 C67CC6C6 		.word	-960070458
 3332 0388 7CC6C6C6 		.word	-960051588
 3333 038c 00000000 		.word	0
 3334 0390 C67C0000 		.word	31942
 3335 0394 067EC6C6 		.word	-960070138
 3336 0398 780C0606 		.word	101059704
 3337 039c 00000000 		.word	0
 3338 03a0 00000000 		.word	0
 3339 03a4 00001818 		.word	404226048
 3340 03a8 00181800 		.word	1579008
 3341 03ac 00000000 		.word	0
 3342 03b0 00000000 		.word	0
 3343 03b4 00001818 		.word	404226048
 3344 03b8 30181800 		.word	1579056
 3345 03bc 00000000 		.word	0
 3346 03c0 06000000 		.word	6
 3347 03c4 6030180C 		.word	202911840
 3348 03c8 060C1830 		.word	806882310
 3349 03cc 00000000 		.word	0
 3350 03d0 00000000 		.word	0
 3351 03d4 00007E00 		.word	8257536
 3352 03d8 0000007E 		.word	2113929216
 3353 03dc 00000000 		.word	0
 3354 03e0 60000000 		.word	96
 3355 03e4 060C1830 		.word	806882310
 3356 03e8 6030180C 		.word	202911840
 3357 03ec 00000000 		.word	0
 3358 03f0 C67C0000 		.word	31942
 3359 03f4 18180CC6 		.word	-972285928
 3360 03f8 18180018 		.word	402659352
 3361 03fc 00000000 		.word	0
 3362 0400 7C000000 		.word	124
 3363 0404 DEDEC6C6 		.word	-960045346
ARM GAS  C:\Users\ldebo\AppData\Local\Temp\ccBZnoYF.s 			page 60


 3364 0408 7CC0DCDE 		.word	-555958148
 3365 040c 00000000 		.word	0
 3366 0410 38100000 		.word	4152
 3367 0414 FEC6C66C 		.word	1824966398
 3368 0418 C6C6C6C6 		.word	-960051514
 3369 041c 00000000 		.word	0
 3370 0420 66FC0000 		.word	64614
 3371 0424 667C6666 		.word	1717992550
 3372 0428 FC666666 		.word	1717987068
 3373 042c 00000000 		.word	0
 3374 0430 663C0000 		.word	15462
 3375 0434 C0C0C0C2 		.word	-1027555136
 3376 0438 3C66C2C0 		.word	-1061001668
 3377 043c 00000000 		.word	0
 3378 0440 6CF80000 		.word	63596
 3379 0444 66666666 		.word	1717986918
 3380 0448 F86C6666 		.word	1717988600
 3381 044c 00000000 		.word	0
 3382 0450 66FE0000 		.word	65126
 3383 0454 68786862 		.word	1651013736
 3384 0458 FE666260 		.word	1617061630
 3385 045c 00000000 		.word	0
 3386 0460 66FE0000 		.word	65126
 3387 0464 68786862 		.word	1651013736
 3388 0468 F0606060 		.word	1616929008
 3389 046c 00000000 		.word	0
 3390 0470 663C0000 		.word	15462
 3391 0474 DEC0C0C2 		.word	-1027555106
 3392 0478 3A66C6C6 		.word	-960076230
 3393 047c 00000000 		.word	0
 3394 0480 C6C60000 		.word	50886
 3395 0484 C6FEC6C6 		.word	-960037178
 3396 0488 C6C6C6C6 		.word	-960051514
 3397 048c 00000000 		.word	0
 3398 0490 183C0000 		.word	15384
 3399 0494 18181818 		.word	404232216
 3400 0498 3C181818 		.word	404232252
 3401 049c 00000000 		.word	0
 3402 04a0 0C1E0000 		.word	7692
 3403 04a4 0C0C0C0C 		.word	202116108
 3404 04a8 78CCCCCC 		.word	-858993544
 3405 04ac 00000000 		.word	0
 3406 04b0 66E60000 		.word	58982
 3407 04b4 78786C66 		.word	1718384760
 3408 04b8 E666666C 		.word	1818650342
 3409 04bc 00000000 		.word	0
 3410 04c0 60F00000 		.word	61536
 3411 04c4 60606060 		.word	1616928864
 3412 04c8 FE666260 		.word	1617061630
 3413 04cc 00000000 		.word	0
 3414 04d0 EEC60000 		.word	50926
 3415 04d4 C6D6FEFE 		.word	-16853306
 3416 04d8 C6C6C6C6 		.word	-960051514
 3417 04dc 00000000 		.word	0
 3418 04e0 E6C60000 		.word	50918
 3419 04e4 CEDEFEF6 		.word	-151068978
 3420 04e8 C6C6C6C6 		.word	-960051514
ARM GAS  C:\Users\ldebo\AppData\Local\Temp\ccBZnoYF.s 			page 61


 3421 04ec 00000000 		.word	0
 3422 04f0 C67C0000 		.word	31942
 3423 04f4 C6C6C6C6 		.word	-960051514
 3424 04f8 7CC6C6C6 		.word	-960051588
 3425 04fc 00000000 		.word	0
 3426 0500 66FC0000 		.word	64614
 3427 0504 607C6666 		.word	1717992544
 3428 0508 F0606060 		.word	1616929008
 3429 050c 00000000 		.word	0
 3430 0510 C67C0000 		.word	31942
 3431 0514 C6C6C6C6 		.word	-960051514
 3432 0518 7CDED6C6 		.word	-958996868
 3433 051c 00000E0C 		.word	202244096
 3434 0520 66FC0000 		.word	64614
 3435 0524 6C7C6666 		.word	1717992556
 3436 0528 E6666666 		.word	1717987046
 3437 052c 00000000 		.word	0
 3438 0530 C67C0000 		.word	31942
 3439 0534 0C3860C6 		.word	-966772724
 3440 0538 7CC6C606 		.word	113690236
 3441 053c 00000000 		.word	0
 3442 0540 7E7E0000 		.word	32382
 3443 0544 1818185A 		.word	1511528472
 3444 0548 3C181818 		.word	404232252
 3445 054c 00000000 		.word	0
 3446 0550 C6C60000 		.word	50886
 3447 0554 C6C6C6C6 		.word	-960051514
 3448 0558 7CC6C6C6 		.word	-960051588
 3449 055c 00000000 		.word	0
 3450 0560 C6C60000 		.word	50886
 3451 0564 C6C6C6C6 		.word	-960051514
 3452 0568 10386CC6 		.word	-965986288
 3453 056c 00000000 		.word	0
 3454 0570 C6C60000 		.word	50886
 3455 0574 D6D6C6C6 		.word	-960047402
 3456 0578 6CEEFED6 		.word	-687935892
 3457 057c 00000000 		.word	0
 3458 0580 C6C60000 		.word	50886
 3459 0584 38387C6C 		.word	1820080184
 3460 0588 C6C66C7C 		.word	2087503558
 3461 058c 00000000 		.word	0
 3462 0590 66660000 		.word	26214
 3463 0594 183C6666 		.word	1717976088
 3464 0598 3C181818 		.word	404232252
 3465 059c 00000000 		.word	0
 3466 05a0 C6FE0000 		.word	65222
 3467 05a4 30180C86 		.word	-2046027728
 3468 05a8 FEC6C260 		.word	1623377662
 3469 05ac 00000000 		.word	0
 3470 05b0 303C0000 		.word	15408
 3471 05b4 30303030 		.word	808464432
 3472 05b8 3C303030 		.word	808464444
 3473 05bc 00000000 		.word	0
 3474 05c0 80000000 		.word	128
 3475 05c4 3870E0C0 		.word	-1059033032
 3476 05c8 02060E1C 		.word	470681090
 3477 05cc 00000000 		.word	0
ARM GAS  C:\Users\ldebo\AppData\Local\Temp\ccBZnoYF.s 			page 62


 3478 05d0 0C3C0000 		.word	15372
 3479 05d4 0C0C0C0C 		.word	202116108
 3480 05d8 3C0C0C0C 		.word	202116156
 3481 05dc 00000000 		.word	0
 3482 05e0 C66C3810 		.word	272133318
 3483 05e4 00000000 		.word	0
 3484 05e8 00000000 		.word	0
 3485 05ec 00000000 		.word	0
 3486 05f0 00000000 		.word	0
 3487 05f4 00000000 		.word	0
 3488 05f8 00000000 		.word	0
 3489 05fc 0000FF00 		.word	16711680
 3490 0600 00183030 		.word	808458240
 3491 0604 00000000 		.word	0
 3492 0608 00000000 		.word	0
 3493 060c 00000000 		.word	0
 3494 0610 00000000 		.word	0
 3495 0614 7C0C7800 		.word	7867516
 3496 0618 76CCCCCC 		.word	-858993546
 3497 061c 00000000 		.word	0
 3498 0620 60E00000 		.word	57440
 3499 0624 666C7860 		.word	1618504806
 3500 0628 7C666666 		.word	1717986940
 3501 062c 00000000 		.word	0
 3502 0630 00000000 		.word	0
 3503 0634 C0C67C00 		.word	8177344
 3504 0638 7CC6C0C0 		.word	-1061108100
 3505 063c 00000000 		.word	0
 3506 0640 0C1C0000 		.word	7180
 3507 0644 CC6C3C0C 		.word	205286604
 3508 0648 76CCCCCC 		.word	-858993546
 3509 064c 00000000 		.word	0
 3510 0650 00000000 		.word	0
 3511 0654 FEC67C00 		.word	8177406
 3512 0658 7CC6C0C0 		.word	-1061108100
 3513 065c 00000000 		.word	0
 3514 0660 6C380000 		.word	14444
 3515 0664 60F06064 		.word	1684074592
 3516 0668 F0606060 		.word	1616929008
 3517 066c 00000000 		.word	0
 3518 0670 00000000 		.word	0
 3519 0674 CCCC7600 		.word	7785676
 3520 0678 7CCCCCCC 		.word	-858993540
 3521 067c 0078CC0C 		.word	214726656
 3522 0680 60E00000 		.word	57440
 3523 0684 66766C60 		.word	1617720934
 3524 0688 E6666666 		.word	1717987046
 3525 068c 00000000 		.word	0
 3526 0690 18180000 		.word	6168
 3527 0694 18183800 		.word	3676184
 3528 0698 3C181818 		.word	404232252
 3529 069c 00000000 		.word	0
 3530 06a0 06060000 		.word	1542
 3531 06a4 06060E00 		.word	919046
 3532 06a8 06060606 		.word	101058054
 3533 06ac 003C6666 		.word	1717976064
 3534 06b0 60E00000 		.word	57440
ARM GAS  C:\Users\ldebo\AppData\Local\Temp\ccBZnoYF.s 			page 63


 3535 06b4 786C6660 		.word	1617325176
 3536 06b8 E6666C78 		.word	2020370150
 3537 06bc 00000000 		.word	0
 3538 06c0 18380000 		.word	14360
 3539 06c4 18181818 		.word	404232216
 3540 06c8 3C181818 		.word	404232252
 3541 06cc 00000000 		.word	0
 3542 06d0 00000000 		.word	0
 3543 06d4 D6FEEC00 		.word	15531734
 3544 06d8 C6D6D6D6 		.word	-690563386
 3545 06dc 00000000 		.word	0
 3546 06e0 00000000 		.word	0
 3547 06e4 6666DC00 		.word	14444134
 3548 06e8 66666666 		.word	1717986918
 3549 06ec 00000000 		.word	0
 3550 06f0 00000000 		.word	0
 3551 06f4 C6C67C00 		.word	8177350
 3552 06f8 7CC6C6C6 		.word	-960051588
 3553 06fc 00000000 		.word	0
 3554 0700 00000000 		.word	0
 3555 0704 6666DC00 		.word	14444134
 3556 0708 7C666666 		.word	1717986940
 3557 070c 00F06060 		.word	1616965632
 3558 0710 00000000 		.word	0
 3559 0714 CCCC7600 		.word	7785676
 3560 0718 7CCCCCCC 		.word	-858993540
 3561 071c 001E0C0C 		.word	202120704
 3562 0720 00000000 		.word	0
 3563 0724 6676DC00 		.word	14448230
 3564 0728 F0606060 		.word	1616929008
 3565 072c 00000000 		.word	0
 3566 0730 00000000 		.word	0
 3567 0734 60C67C00 		.word	8177248
 3568 0738 7CC60C38 		.word	940361340
 3569 073c 00000000 		.word	0
 3570 0740 30100000 		.word	4144
 3571 0744 3030FC30 		.word	821833776
 3572 0748 1C363030 		.word	808465948
 3573 074c 00000000 		.word	0
 3574 0750 00000000 		.word	0
 3575 0754 CCCCCC00 		.word	13421772
 3576 0758 76CCCCCC 		.word	-858993546
 3577 075c 00000000 		.word	0
 3578 0760 00000000 		.word	0
 3579 0764 66666600 		.word	6710886
 3580 0768 183C6666 		.word	1717976088
 3581 076c 00000000 		.word	0
 3582 0770 00000000 		.word	0
 3583 0774 D6C6C600 		.word	13027030
 3584 0778 6CFED6D6 		.word	-690553236
 3585 077c 00000000 		.word	0
 3586 0780 00000000 		.word	0
 3587 0784 386CC600 		.word	13003832
 3588 0788 C66C3838 		.word	943221958
 3589 078c 00000000 		.word	0
 3590 0790 00000000 		.word	0
 3591 0794 C6C6C600 		.word	13027014
ARM GAS  C:\Users\ldebo\AppData\Local\Temp\ccBZnoYF.s 			page 64


 3592 0798 7EC6C6C6 		.word	-960051586
 3593 079c 00F80C06 		.word	101513216
 3594 07a0 00000000 		.word	0
 3595 07a4 18CCFE00 		.word	16698392
 3596 07a8 FEC66030 		.word	811648766
 3597 07ac 00000000 		.word	0
 3598 07b0 180E0000 		.word	3608
 3599 07b4 18701818 		.word	404254744
 3600 07b8 0E181818 		.word	404232206
 3601 07bc 00000000 		.word	0
 3602 07c0 18180000 		.word	6168
 3603 07c4 18001818 		.word	404226072
 3604 07c8 18181818 		.word	404232216
 3605 07cc 00000000 		.word	0
 3606 07d0 18700000 		.word	28696
 3607 07d4 180E1818 		.word	404229656
 3608 07d8 70181818 		.word	404232304
 3609 07dc 00000000 		.word	0
 3610 07e0 DC760000 		.word	30428
 3611 07e4 00000000 		.word	0
 3612 07e8 00000000 		.word	0
 3613 07ec 00000000 		.word	0
 3614 07f0 00000000 		.word	0
 3615 07f4 C66C3810 		.word	272133318
 3616 07f8 00FEC6C6 		.word	-960037376
 3617 07fc 00000000 		.word	0
 3618 0800 663C0000 		.word	15462
 3619 0804 C0C0C0C2 		.word	-1027555136
 3620 0808 0C3C66C2 		.word	-1033487348
 3621 080c 00007C06 		.word	108789760
 3622 0810 00CC0000 		.word	52224
 3623 0814 CCCCCC00 		.word	13421772
 3624 0818 76CCCCCC 		.word	-858993546
 3625 081c 00000000 		.word	0
 3626 0820 30180C00 		.word	792624
 3627 0824 FEC67C00 		.word	8177406
 3628 0828 7CC6C0C0 		.word	-1061108100
 3629 082c 00000000 		.word	0
 3630 0830 6C381000 		.word	1063020
 3631 0834 7C0C7800 		.word	7867516
 3632 0838 76CCCCCC 		.word	-858993546
 3633 083c 00000000 		.word	0
 3634 0840 00CC0000 		.word	52224
 3635 0844 7C0C7800 		.word	7867516
 3636 0848 76CCCCCC 		.word	-858993546
 3637 084c 00000000 		.word	0
 3638 0850 18306000 		.word	6303768
 3639 0854 7C0C7800 		.word	7867516
 3640 0858 76CCCCCC 		.word	-858993546
 3641 085c 00000000 		.word	0
 3642 0860 386C3800 		.word	3697720
 3643 0864 7C0C7800 		.word	7867516
 3644 0868 76CCCCCC 		.word	-858993546
 3645 086c 00000000 		.word	0
 3646 0870 00000000 		.word	0
 3647 0874 6060663C 		.word	1013342304
 3648 0878 060C3C66 		.word	1715211270
ARM GAS  C:\Users\ldebo\AppData\Local\Temp\ccBZnoYF.s 			page 65


 3649 087c 0000003C 		.word	1006632960
 3650 0880 6C381000 		.word	1063020
 3651 0884 FEC67C00 		.word	8177406
 3652 0888 7CC6C0C0 		.word	-1061108100
 3653 088c 00000000 		.word	0
 3654 0890 00C60000 		.word	50688
 3655 0894 FEC67C00 		.word	8177406
 3656 0898 7CC6C0C0 		.word	-1061108100
 3657 089c 00000000 		.word	0
 3658 08a0 18306000 		.word	6303768
 3659 08a4 FEC67C00 		.word	8177406
 3660 08a8 7CC6C0C0 		.word	-1061108100
 3661 08ac 00000000 		.word	0
 3662 08b0 00660000 		.word	26112
 3663 08b4 18183800 		.word	3676184
 3664 08b8 3C181818 		.word	404232252
 3665 08bc 00000000 		.word	0
 3666 08c0 663C1800 		.word	1588326
 3667 08c4 18183800 		.word	3676184
 3668 08c8 3C181818 		.word	404232252
 3669 08cc 00000000 		.word	0
 3670 08d0 18306000 		.word	6303768
 3671 08d4 18183800 		.word	3676184
 3672 08d8 3C181818 		.word	404232252
 3673 08dc 00000000 		.word	0
 3674 08e0 1000C600 		.word	12976144
 3675 08e4 C6C66C38 		.word	946652870
 3676 08e8 C6C6C6FE 		.word	-20527418
 3677 08ec 00000000 		.word	0
 3678 08f0 00386C38 		.word	946616320
 3679 08f4 C6C66C38 		.word	946652870
 3680 08f8 C6C6C6FE 		.word	-20527418
 3681 08fc 00000000 		.word	0
 3682 0900 00603018 		.word	405823488
 3683 0904 7C6066FE 		.word	-26845060
 3684 0908 FE666060 		.word	1616930558
 3685 090c 00000000 		.word	0
 3686 0910 00000000 		.word	0
 3687 0914 3676CC00 		.word	13399606
 3688 0918 6ED8D87E 		.word	2128140398
 3689 091c 00000000 		.word	0
 3690 0920 6C3E0000 		.word	15980
 3691 0924 CCFECCCC 		.word	-858980660
 3692 0928 CECCCCCC 		.word	-858993458
 3693 092c 00000000 		.word	0
 3694 0930 6C381000 		.word	1063020
 3695 0934 C6C67C00 		.word	8177350
 3696 0938 7CC6C6C6 		.word	-960051588
 3697 093c 00000000 		.word	0
 3698 0940 00C60000 		.word	50688
 3699 0944 C6C67C00 		.word	8177350
 3700 0948 7CC6C6C6 		.word	-960051588
 3701 094c 00000000 		.word	0
 3702 0950 18306000 		.word	6303768
 3703 0954 C6C67C00 		.word	8177350
 3704 0958 7CC6C6C6 		.word	-960051588
 3705 095c 00000000 		.word	0
ARM GAS  C:\Users\ldebo\AppData\Local\Temp\ccBZnoYF.s 			page 66


 3706 0960 CC783000 		.word	3176652
 3707 0964 CCCCCC00 		.word	13421772
 3708 0968 76CCCCCC 		.word	-858993546
 3709 096c 00000000 		.word	0
 3710 0970 18306000 		.word	6303768
 3711 0974 CCCCCC00 		.word	13421772
 3712 0978 76CCCCCC 		.word	-858993546
 3713 097c 00000000 		.word	0
 3714 0980 00C60000 		.word	50688
 3715 0984 C6C6C600 		.word	13027014
 3716 0988 7EC6C6C6 		.word	-960051586
 3717 098c 00780C06 		.word	101480448
 3718 0990 7C00C600 		.word	12976252
 3719 0994 C6C6C6C6 		.word	-960051514
 3720 0998 7CC6C6C6 		.word	-960051588
 3721 099c 00000000 		.word	0
 3722 09a0 C600C600 		.word	12976326
 3723 09a4 C6C6C6C6 		.word	-960051514
 3724 09a8 7CC6C6C6 		.word	-960051588
 3725 09ac 00000000 		.word	0
 3726 09b0 3C181800 		.word	1579068
 3727 09b4 60606066 		.word	1717592160
 3728 09b8 18183C66 		.word	1715214360
 3729 09bc 00000000 		.word	0
 3730 09c0 646C3800 		.word	3697764
 3731 09c4 6060F060 		.word	1626366048
 3732 09c8 FCE66060 		.word	1616963324
 3733 09cc 00000000 		.word	0
 3734 09d0 66660000 		.word	26214
 3735 09d4 187E183C 		.word	1008238104
 3736 09d8 1818187E 		.word	2115508248
 3737 09dc 00000000 		.word	0
 3738 09e0 CCCCF800 		.word	16305356
 3739 09e4 DECCC4F8 		.word	-121320226
 3740 09e8 C6CCCCCC 		.word	-858993466
 3741 09ec 00000000 		.word	0
 3742 09f0 181B0E00 		.word	924440
 3743 09f4 187E1818 		.word	404258328
 3744 09f8 18181818 		.word	404232216
 3745 09fc 000070D8 		.word	-663748608
 3746 0a00 60301800 		.word	1585248
 3747 0a04 7C0C7800 		.word	7867516
 3748 0a08 76CCCCCC 		.word	-858993546
 3749 0a0c 00000000 		.word	0
 3750 0a10 30180C00 		.word	792624
 3751 0a14 18183800 		.word	3676184
 3752 0a18 3C181818 		.word	404232252
 3753 0a1c 00000000 		.word	0
 3754 0a20 60301800 		.word	1585248
 3755 0a24 C6C67C00 		.word	8177350
 3756 0a28 7CC6C6C6 		.word	-960051588
 3757 0a2c 00000000 		.word	0
 3758 0a30 60301800 		.word	1585248
 3759 0a34 CCCCCC00 		.word	13421772
 3760 0a38 76CCCCCC 		.word	-858993546
 3761 0a3c 00000000 		.word	0
 3762 0a40 DC760000 		.word	30428
ARM GAS  C:\Users\ldebo\AppData\Local\Temp\ccBZnoYF.s 			page 67


 3763 0a44 6666DC00 		.word	14444134
 3764 0a48 66666666 		.word	1717986918
 3765 0a4c 00000000 		.word	0
 3766 0a50 C600DC76 		.word	1994129606
 3767 0a54 DEFEF6E6 		.word	-420020514
 3768 0a58 C6C6C6CE 		.word	-825833786
 3769 0a5c 00000000 		.word	0
 3770 0a60 6C6C3C00 		.word	3959916
 3771 0a64 007E003E 		.word	1040219648
 3772 0a68 00000000 		.word	0
 3773 0a6c 00000000 		.word	0
 3774 0a70 6C6C3800 		.word	3697772
 3775 0a74 007C0038 		.word	939555840
 3776 0a78 00000000 		.word	0
 3777 0a7c 00000000 		.word	0
 3778 0a80 30300000 		.word	12336
 3779 0a84 60303000 		.word	3158112
 3780 0a88 7CC6C6C0 		.word	-1060714884
 3781 0a8c 00000000 		.word	0
 3782 0a90 00000000 		.word	0
 3783 0a94 C0FE0000 		.word	65216
 3784 0a98 00C0C0C0 		.word	-1061109760
 3785 0a9c 00000000 		.word	0
 3786 0aa0 00000000 		.word	0
 3787 0aa4 06FE0000 		.word	65030
 3788 0aa8 00060606 		.word	101058048
 3789 0aac 00000000 		.word	0
 3790 0ab0 C2C0C000 		.word	12632258
 3791 0ab4 3018CCC6 		.word	-959702992
 3792 0ab8 0C86DC60 		.word	1625064972
 3793 0abc 00003E18 		.word	406716416
 3794 0ac0 C2C0C000 		.word	12632258
 3795 0ac4 3018CCC6 		.word	-959702992
 3796 0ac8 3E9ECE66 		.word	1724816958
 3797 0acc 00000606 		.word	101056512
 3798 0ad0 18180000 		.word	6168
 3799 0ad4 18181800 		.word	1579032
 3800 0ad8 183C3C3C 		.word	1010580504
 3801 0adc 00000000 		.word	0
 3802 0ae0 00000000 		.word	0
 3803 0ae4 D86C3600 		.word	3566808
 3804 0ae8 0000366C 		.word	1815478272
 3805 0aec 00000000 		.word	0
 3806 0af0 00000000 		.word	0
 3807 0af4 366CD800 		.word	14183478
 3808 0af8 0000D86C 		.word	1826095104
 3809 0afc 00000000 		.word	0
 3810 0b00 44114411 		.word	289673540
 3811 0b04 44114411 		.word	289673540
 3812 0b08 44114411 		.word	289673540
 3813 0b0c 44114411 		.word	289673540
 3814 0b10 AA55AA55 		.word	1437226410
 3815 0b14 AA55AA55 		.word	1437226410
 3816 0b18 AA55AA55 		.word	1437226410
 3817 0b1c AA55AA55 		.word	1437226410
 3818 0b20 77DD77DD 		.word	-579347081
 3819 0b24 77DD77DD 		.word	-579347081
ARM GAS  C:\Users\ldebo\AppData\Local\Temp\ccBZnoYF.s 			page 68


 3820 0b28 77DD77DD 		.word	-579347081
 3821 0b2c 77DD77DD 		.word	-579347081
 3822 0b30 18181818 		.word	404232216
 3823 0b34 18181818 		.word	404232216
 3824 0b38 18181818 		.word	404232216
 3825 0b3c 18181818 		.word	404232216
 3826 0b40 18181818 		.word	404232216
 3827 0b44 F8181818 		.word	404232440
 3828 0b48 18181818 		.word	404232216
 3829 0b4c 18181818 		.word	404232216
 3830 0b50 18181818 		.word	404232216
 3831 0b54 F818F818 		.word	418912504
 3832 0b58 18181818 		.word	404232216
 3833 0b5c 18181818 		.word	404232216
 3834 0b60 36363636 		.word	909522486
 3835 0b64 F6363636 		.word	909522678
 3836 0b68 36363636 		.word	909522486
 3837 0b6c 36363636 		.word	909522486
 3838 0b70 00000000 		.word	0
 3839 0b74 FE000000 		.word	254
 3840 0b78 36363636 		.word	909522486
 3841 0b7c 36363636 		.word	909522486
 3842 0b80 00000000 		.word	0
 3843 0b84 F818F800 		.word	16259320
 3844 0b88 18181818 		.word	404232216
 3845 0b8c 18181818 		.word	404232216
 3846 0b90 36363636 		.word	909522486
 3847 0b94 F606F636 		.word	922093302
 3848 0b98 36363636 		.word	909522486
 3849 0b9c 36363636 		.word	909522486
 3850 0ba0 36363636 		.word	909522486
 3851 0ba4 36363636 		.word	909522486
 3852 0ba8 36363636 		.word	909522486
 3853 0bac 36363636 		.word	909522486
 3854 0bb0 00000000 		.word	0
 3855 0bb4 F606FE00 		.word	16647926
 3856 0bb8 36363636 		.word	909522486
 3857 0bbc 36363636 		.word	909522486
 3858 0bc0 36363636 		.word	909522486
 3859 0bc4 FE06F636 		.word	922093310
 3860 0bc8 00000000 		.word	0
 3861 0bcc 00000000 		.word	0
 3862 0bd0 36363636 		.word	909522486
 3863 0bd4 FE363636 		.word	909522686
 3864 0bd8 00000000 		.word	0
 3865 0bdc 00000000 		.word	0
 3866 0be0 18181818 		.word	404232216
 3867 0be4 F818F818 		.word	418912504
 3868 0be8 00000000 		.word	0
 3869 0bec 00000000 		.word	0
 3870 0bf0 00000000 		.word	0
 3871 0bf4 F8000000 		.word	248
 3872 0bf8 18181818 		.word	404232216
 3873 0bfc 18181818 		.word	404232216
 3874 0c00 18181818 		.word	404232216
 3875 0c04 1F181818 		.word	404232223
 3876 0c08 00000000 		.word	0
ARM GAS  C:\Users\ldebo\AppData\Local\Temp\ccBZnoYF.s 			page 69


 3877 0c0c 00000000 		.word	0
 3878 0c10 18181818 		.word	404232216
 3879 0c14 FF181818 		.word	404232447
 3880 0c18 00000000 		.word	0
 3881 0c1c 00000000 		.word	0
 3882 0c20 00000000 		.word	0
 3883 0c24 FF000000 		.word	255
 3884 0c28 18181818 		.word	404232216
 3885 0c2c 18181818 		.word	404232216
 3886 0c30 18181818 		.word	404232216
 3887 0c34 1F181818 		.word	404232223
 3888 0c38 18181818 		.word	404232216
 3889 0c3c 18181818 		.word	404232216
 3890 0c40 00000000 		.word	0
 3891 0c44 FF000000 		.word	255
 3892 0c48 00000000 		.word	0
 3893 0c4c 00000000 		.word	0
 3894 0c50 18181818 		.word	404232216
 3895 0c54 FF181818 		.word	404232447
 3896 0c58 18181818 		.word	404232216
 3897 0c5c 18181818 		.word	404232216
 3898 0c60 18181818 		.word	404232216
 3899 0c64 1F181F18 		.word	404690975
 3900 0c68 18181818 		.word	404232216
 3901 0c6c 18181818 		.word	404232216
 3902 0c70 36363636 		.word	909522486
 3903 0c74 37363636 		.word	909522487
 3904 0c78 36363636 		.word	909522486
 3905 0c7c 36363636 		.word	909522486
 3906 0c80 36363636 		.word	909522486
 3907 0c84 3F303736 		.word	909586495
 3908 0c88 00000000 		.word	0
 3909 0c8c 00000000 		.word	0
 3910 0c90 00000000 		.word	0
 3911 0c94 37303F00 		.word	4141111
 3912 0c98 36363636 		.word	909522486
 3913 0c9c 36363636 		.word	909522486
 3914 0ca0 36363636 		.word	909522486
 3915 0ca4 FF00F736 		.word	922157311
 3916 0ca8 00000000 		.word	0
 3917 0cac 00000000 		.word	0
 3918 0cb0 00000000 		.word	0
 3919 0cb4 F700FF00 		.word	16711927
 3920 0cb8 36363636 		.word	909522486
 3921 0cbc 36363636 		.word	909522486
 3922 0cc0 36363636 		.word	909522486
 3923 0cc4 37303736 		.word	909586487
 3924 0cc8 36363636 		.word	909522486
 3925 0ccc 36363636 		.word	909522486
 3926 0cd0 00000000 		.word	0
 3927 0cd4 FF00FF00 		.word	16711935
 3928 0cd8 00000000 		.word	0
 3929 0cdc 00000000 		.word	0
 3930 0ce0 36363636 		.word	909522486
 3931 0ce4 F700F736 		.word	922157303
 3932 0ce8 36363636 		.word	909522486
 3933 0cec 36363636 		.word	909522486
ARM GAS  C:\Users\ldebo\AppData\Local\Temp\ccBZnoYF.s 			page 70


 3934 0cf0 18181818 		.word	404232216
 3935 0cf4 FF00FF18 		.word	419365119
 3936 0cf8 00000000 		.word	0
 3937 0cfc 00000000 		.word	0
 3938 0d00 36363636 		.word	909522486
 3939 0d04 FF363636 		.word	909522687
 3940 0d08 00000000 		.word	0
 3941 0d0c 00000000 		.word	0
 3942 0d10 00000000 		.word	0
 3943 0d14 FF00FF00 		.word	16711935
 3944 0d18 18181818 		.word	404232216
 3945 0d1c 18181818 		.word	404232216
 3946 0d20 00000000 		.word	0
 3947 0d24 FF000000 		.word	255
 3948 0d28 36363636 		.word	909522486
 3949 0d2c 36363636 		.word	909522486
 3950 0d30 36363636 		.word	909522486
 3951 0d34 3F363636 		.word	909522495
 3952 0d38 00000000 		.word	0
 3953 0d3c 00000000 		.word	0
 3954 0d40 18181818 		.word	404232216
 3955 0d44 1F181F18 		.word	404690975
 3956 0d48 00000000 		.word	0
 3957 0d4c 00000000 		.word	0
 3958 0d50 00000000 		.word	0
 3959 0d54 1F181F00 		.word	2037791
 3960 0d58 18181818 		.word	404232216
 3961 0d5c 18181818 		.word	404232216
 3962 0d60 00000000 		.word	0
 3963 0d64 3F000000 		.word	63
 3964 0d68 36363636 		.word	909522486
 3965 0d6c 36363636 		.word	909522486
 3966 0d70 36363636 		.word	909522486
 3967 0d74 FF363636 		.word	909522687
 3968 0d78 36363636 		.word	909522486
 3969 0d7c 36363636 		.word	909522486
 3970 0d80 18181818 		.word	404232216
 3971 0d84 FF18FF18 		.word	419371263
 3972 0d88 18181818 		.word	404232216
 3973 0d8c 18181818 		.word	404232216
 3974 0d90 18181818 		.word	404232216
 3975 0d94 F8181818 		.word	404232440
 3976 0d98 00000000 		.word	0
 3977 0d9c 00000000 		.word	0
 3978 0da0 00000000 		.word	0
 3979 0da4 1F000000 		.word	31
 3980 0da8 18181818 		.word	404232216
 3981 0dac 18181818 		.word	404232216
 3982 0db0 FFFFFFFF 		.word	-1
 3983 0db4 FFFFFFFF 		.word	-1
 3984 0db8 FFFFFFFF 		.word	-1
 3985 0dbc FFFFFFFF 		.word	-1
 3986 0dc0 00000000 		.word	0
 3987 0dc4 FF000000 		.word	255
 3988 0dc8 FFFFFFFF 		.word	-1
 3989 0dcc FFFFFFFF 		.word	-1
 3990 0dd0 F0F0F0F0 		.word	-252645136
ARM GAS  C:\Users\ldebo\AppData\Local\Temp\ccBZnoYF.s 			page 71


 3991 0dd4 F0F0F0F0 		.word	-252645136
 3992 0dd8 F0F0F0F0 		.word	-252645136
 3993 0ddc F0F0F0F0 		.word	-252645136
 3994 0de0 0F0F0F0F 		.word	252645135
 3995 0de4 0F0F0F0F 		.word	252645135
 3996 0de8 0F0F0F0F 		.word	252645135
 3997 0dec 0F0F0F0F 		.word	252645135
 3998 0df0 FFFFFFFF 		.word	-1
 3999 0df4 00FFFFFF 		.word	-256
 4000 0df8 00000000 		.word	0
 4001 0dfc 00000000 		.word	0
 4002 0e00 00000000 		.word	0
 4003 0e04 D8DC7600 		.word	7789784
 4004 0e08 76DCD8D8 		.word	-656876426
 4005 0e0c 00000000 		.word	0
 4006 0e10 CC780000 		.word	30924
 4007 0e14 CCD8CCCC 		.word	-858990388
 4008 0e18 CCC6C6C6 		.word	-960051508
 4009 0e1c 00000000 		.word	0
 4010 0e20 C6FE0000 		.word	65222
 4011 0e24 C0C0C0C6 		.word	-960446272
 4012 0e28 C0C0C0C0 		.word	-1061109568
 4013 0e2c 00000000 		.word	0
 4014 0e30 00000000 		.word	0
 4015 0e34 6C6C6CFE 		.word	-26448788
 4016 0e38 6C6C6C6C 		.word	1819044972
 4017 0e3c 00000000 		.word	0
 4018 0e40 FE000000 		.word	254
 4019 0e44 183060C6 		.word	-966774760
 4020 0e48 FEC66030 		.word	811648766
 4021 0e4c 00000000 		.word	0
 4022 0e50 00000000 		.word	0
 4023 0e54 D8D87E00 		.word	8313048
 4024 0e58 70D8D8D8 		.word	-656877456
 4025 0e5c 00000000 		.word	0
 4026 0e60 00000000 		.word	0
 4027 0e64 66666666 		.word	1717986918
 4028 0e68 60607C66 		.word	1719427168
 4029 0e6c 000000C0 		.word	-1073741824
 4030 0e70 00000000 		.word	0
 4031 0e74 1818DC76 		.word	1994135576
 4032 0e78 18181818 		.word	404232216
 4033 0e7c 00000000 		.word	0
 4034 0e80 7E000000 		.word	126
 4035 0e84 66663C18 		.word	406611558
 4036 0e88 7E183C66 		.word	1715214462
 4037 0e8c 00000000 		.word	0
 4038 0e90 38000000 		.word	56
 4039 0e94 FEC6C66C 		.word	1824966398
 4040 0e98 386CC6C6 		.word	-960074696
 4041 0e9c 00000000 		.word	0
 4042 0ea0 6C380000 		.word	14444
 4043 0ea4 6CC6C6C6 		.word	-960051604
 4044 0ea8 EE6C6C6C 		.word	1819045102
 4045 0eac 00000000 		.word	0
 4046 0eb0 301E0000 		.word	7728
 4047 0eb4 663E0C18 		.word	403455590
ARM GAS  C:\Users\ldebo\AppData\Local\Temp\ccBZnoYF.s 			page 72


 4048 0eb8 3C666666 		.word	1717986876
 4049 0ebc 00000000 		.word	0
 4050 0ec0 00000000 		.word	0
 4051 0ec4 DBDB7E00 		.word	8313819
 4052 0ec8 00007EDB 		.word	-612499456
 4053 0ecc 00000000 		.word	0
 4054 0ed0 03000000 		.word	3
 4055 0ed4 DBDB7E06 		.word	108977115
 4056 0ed8 C0607EF3 		.word	-209821504
 4057 0edc 00000000 		.word	0
 4058 0ee0 301C0000 		.word	7216
 4059 0ee4 607C6060 		.word	1616936032
 4060 0ee8 1C306060 		.word	1616916508
 4061 0eec 00000000 		.word	0
 4062 0ef0 7C000000 		.word	124
 4063 0ef4 C6C6C6C6 		.word	-960051514
 4064 0ef8 C6C6C6C6 		.word	-960051514
 4065 0efc 00000000 		.word	0
 4066 0f00 00000000 		.word	0
 4067 0f04 FE0000FE 		.word	-33554178
 4068 0f08 00FE0000 		.word	65024
 4069 0f0c 00000000 		.word	0
 4070 0f10 00000000 		.word	0
 4071 0f14 187E1818 		.word	404258328
 4072 0f18 FF000018 		.word	402653439
 4073 0f1c 00000000 		.word	0
 4074 0f20 30000000 		.word	48
 4075 0f24 0C060C18 		.word	403441164
 4076 0f28 7E003018 		.word	405799038
 4077 0f2c 00000000 		.word	0
 4078 0f30 0C000000 		.word	12
 4079 0f34 30603018 		.word	405823536
 4080 0f38 7E000C18 		.word	403439742
 4081 0f3c 00000000 		.word	0
 4082 0f40 1B0E0000 		.word	3611
 4083 0f44 1818181B 		.word	454563864
 4084 0f48 18181818 		.word	404232216
 4085 0f4c 18181818 		.word	404232216
 4086 0f50 18181818 		.word	404232216
 4087 0f54 18181818 		.word	404232216
 4088 0f58 70D8D8D8 		.word	-656877456
 4089 0f5c 00000000 		.word	0
 4090 0f60 00000000 		.word	0
 4091 0f64 7E001818 		.word	404226174
 4092 0f68 00181800 		.word	1579008
 4093 0f6c 00000000 		.word	0
 4094 0f70 00000000 		.word	0
 4095 0f74 00DC7600 		.word	7789568
 4096 0f78 0000DC76 		.word	1994129408
 4097 0f7c 00000000 		.word	0
 4098 0f80 6C6C3800 		.word	3697772
 4099 0f84 00000038 		.word	939524096
 4100 0f88 00000000 		.word	0
 4101 0f8c 00000000 		.word	0
 4102 0f90 00000000 		.word	0
 4103 0f94 18000000 		.word	24
 4104 0f98 00000018 		.word	402653184
ARM GAS  C:\Users\ldebo\AppData\Local\Temp\ccBZnoYF.s 			page 73


 4105 0f9c 00000000 		.word	0
 4106 0fa0 00000000 		.word	0
 4107 0fa4 00000000 		.word	0
 4108 0fa8 00000018 		.word	402653184
 4109 0fac 00000000 		.word	0
 4110 0fb0 0C0C0F00 		.word	986124
 4111 0fb4 EC0C0C0C 		.word	202116332
 4112 0fb8 1C3C6C6C 		.word	1819032604
 4113 0fbc 00000000 		.word	0
 4114 0fc0 6C6CD800 		.word	14183532
 4115 0fc4 006C6C6C 		.word	1819044864
 4116 0fc8 00000000 		.word	0
 4117 0fcc 00000000 		.word	0
 4118 0fd0 30D87000 		.word	7395376
 4119 0fd4 00F8C860 		.word	1623783424
 4120 0fd8 00000000 		.word	0
 4121 0fdc 00000000 		.word	0
 4122 0fe0 00000000 		.word	0
 4123 0fe4 7C7C7C7C 		.word	2088533116
 4124 0fe8 007C7C7C 		.word	2088532992
 4125 0fec 00000000 		.word	0
 4126 0ff0 00000000 		.word	0
 4127 0ff4 00000000 		.word	0
 4128 0ff8 00000000 		.word	0
 4129 0ffc 00000000 		.word	0
 4130              		.data
 4131              		.align	2
 4132              		.set	.LANCHOR2,. + 0
 4133              		.type	_ZL16ActivityGPIOPort, %object
 4134              		.size	_ZL16ActivityGPIOPort, 4
 4135              	_ZL16ActivityGPIOPort:
 4136 0000 2F000000 		.word	47
 4137              		.bss
 4138              		.align	2
 4139              		.set	.LANCHOR1,. + 0
 4140              		.type	_ZL16ModelCheckHasRun, %object
 4141              		.size	_ZL16ModelCheckHasRun, 1
 4142              	_ZL16ModelCheckHasRun:
 4143 0000 00       		.space	1
 4144 0001 000000   		.space	3
 4145              		.type	console, %object
 4146              		.size	console, 68
 4147              	console:
 4148 0004 00000000 		.space	68
 4148      00000000 
 4148      00000000 
 4148      00000000 
 4148      00000000 
 4149              		.type	_ZZ5_sbrkE8heap_end, %object
 4150              		.size	_ZZ5_sbrkE8heap_end, 4
 4151              	_ZZ5_sbrkE8heap_end:
 4152 0048 00000000 		.space	4
 4153              		.section	.rodata.str1.4,"aMS",%progbits,1
 4154              		.align	2
 4155              	.LC0:
 4156 0000 43505520 		.ascii	"CPU frequency set to %u Hz\012\000"
 4156      66726571 
ARM GAS  C:\Users\ldebo\AppData\Local\Temp\ccBZnoYF.s 			page 74


 4156      75656E63 
 4156      79207365 
 4156      7420746F 
 4157              	.LC1:
 4158 001c 536D6172 		.ascii	"SmartStart v2.02 compiled for Arm%d, AARCH%d with %"
 4158      74537461 
 4158      72742076 
 4158      322E3032 
 4158      20636F6D 
 4159 004f 7520636F 		.ascii	"u core s/w support\012\000"
 4159      72652073 
 4159      2F772073 
 4159      7570706F 
 4159      72740A00 
 4160 0063 00       		.space	1
 4161              	.LC2:
 4162 0064 44657465 		.ascii	"Detected %s CPU, part id: 0x%03X, Cores made ready "
 4162      63746564 
 4162      20257320 
 4162      4350552C 
 4162      20706172 
 4163 0097 666F7220 		.ascii	"for use: %u\012\000"
 4163      7573653A 
 4163      2025750A 
 4163      00
 4164              	.LC3:
 4165 00a4 53637265 		.ascii	"Screen resolution %i x %i Colour Depth: %i\012\000"
 4165      656E2072 
 4165      65736F6C 
 4165      7574696F 
 4165      6E202569 
 4166              		.ident	"GCC: (GNU Tools for ARM Embedded Processors 6-2017-q2-update) 6.3.1 20170620 (release) [AR
ARM GAS  C:\Users\ldebo\AppData\Local\Temp\ccBZnoYF.s 			page 75


DEFINED SYMBOLS
                            *ABS*:00000000 rpi-SmartStart.C
C:\Users\ldebo\AppData\Local\Temp\ccBZnoYF.s:14     .text:00000000 $a
C:\Users\ldebo\AppData\Local\Temp\ccBZnoYF.s:19     .text:00000000 _ZL11ClearArea16P8tagINTDCjjjj
C:\Users\ldebo\AppData\Local\Temp\ccBZnoYF.s:68     .text:00000098 _ZL10VertLine16P8tagINTDCji
C:\Users\ldebo\AppData\Local\Temp\ccBZnoYF.s:125    .text:0000014c _ZL10HorzLine16P8tagINTDCji
C:\Users\ldebo\AppData\Local\Temp\ccBZnoYF.s:171    .text:000001d8 _ZL10DiagLine16P8tagINTDCjjii
C:\Users\ldebo\AppData\Local\Temp\ccBZnoYF.s:250    .text:000002e4 _ZL11WriteChar16P8tagINTDCh
C:\Users\ldebo\AppData\Local\Temp\ccBZnoYF.s:327    .text:000003f4 $d
C:\Users\ldebo\AppData\Local\Temp\ccBZnoYF.s:329    .text:000003f8 $a
C:\Users\ldebo\AppData\Local\Temp\ccBZnoYF.s:334    .text:000003f8 _ZL10PutImage16P8tagINTDCjj12tagIMAGE_PTRb
C:\Users\ldebo\AppData\Local\Temp\ccBZnoYF.s:398    .text:000004bc _ZL11ClearArea24P8tagINTDCjjjj
C:\Users\ldebo\AppData\Local\Temp\ccBZnoYF.s:438    .text:00000530 _ZL10VertLine24P8tagINTDCji
C:\Users\ldebo\AppData\Local\Temp\ccBZnoYF.s:488    .text:000005c8 _ZL10HorzLine24P8tagINTDCji
C:\Users\ldebo\AppData\Local\Temp\ccBZnoYF.s:527    .text:00000638 _ZL10DiagLine24P8tagINTDCjjii
C:\Users\ldebo\AppData\Local\Temp\ccBZnoYF.s:596    .text:0000071c _ZL11WriteChar24P8tagINTDCh
C:\Users\ldebo\AppData\Local\Temp\ccBZnoYF.s:644    .text:000007bc $d
C:\Users\ldebo\AppData\Local\Temp\ccBZnoYF.s:646    .text:000007c0 $a
C:\Users\ldebo\AppData\Local\Temp\ccBZnoYF.s:651    .text:000007c0 _ZL10PutImage24P8tagINTDCjj12tagIMAGE_PTRb
C:\Users\ldebo\AppData\Local\Temp\ccBZnoYF.s:710    .text:00000870 _ZL11ClearArea32P8tagINTDCjjjj
C:\Users\ldebo\AppData\Local\Temp\ccBZnoYF.s:745    .text:000008d0 _ZL10VertLine32P8tagINTDCji
C:\Users\ldebo\AppData\Local\Temp\ccBZnoYF.s:789    .text:00000950 _ZL10HorzLine32P8tagINTDCji
C:\Users\ldebo\AppData\Local\Temp\ccBZnoYF.s:821    .text:000009a4 _ZL10DiagLine32P8tagINTDCjjii
C:\Users\ldebo\AppData\Local\Temp\ccBZnoYF.s:867    .text:00000a30 _ZL11WriteChar32P8tagINTDCh
C:\Users\ldebo\AppData\Local\Temp\ccBZnoYF.s:912    .text:00000ac0 $d
C:\Users\ldebo\AppData\Local\Temp\ccBZnoYF.s:914    .text:00000ac4 $a
C:\Users\ldebo\AppData\Local\Temp\ccBZnoYF.s:919    .text:00000ac4 _ZL10PutImage32P8tagINTDCjj12tagIMAGE_PTRb
C:\Users\ldebo\AppData\Local\Temp\ccBZnoYF.s:967    .text:00000b54 mailbox_tag_message.constprop.4
C:\Users\ldebo\AppData\Local\Temp\ccBZnoYF.s:1027   .text:00000c20 $d
C:\Users\ldebo\AppData\Local\Temp\ccBZnoYF.s:1029   .text:00000c24 $a
C:\Users\ldebo\AppData\Local\Temp\ccBZnoYF.s:1034   .text:00000c24 mailbox_tag_message.constprop.5
C:\Users\ldebo\AppData\Local\Temp\ccBZnoYF.s:1109   .text:00000d20 $d
C:\Users\ldebo\AppData\Local\Temp\ccBZnoYF.s:1111   .text:00000d24 $a
C:\Users\ldebo\AppData\Local\Temp\ccBZnoYF.s:1116   .text:00000d24 mailbox_tag_message.constprop.6
C:\Users\ldebo\AppData\Local\Temp\ccBZnoYF.s:1186   .text:00000e0c $d
C:\Users\ldebo\AppData\Local\Temp\ccBZnoYF.s:1188   .text:00000e10 $a
C:\Users\ldebo\AppData\Local\Temp\ccBZnoYF.s:1193   .text:00000e10 mailbox_tag_message.constprop.7
C:\Users\ldebo\AppData\Local\Temp\ccBZnoYF.s:1268   .text:00000f04 $d
C:\Users\ldebo\AppData\Local\Temp\ccBZnoYF.s:1270   .text:00000f08 $a
C:\Users\ldebo\AppData\Local\Temp\ccBZnoYF.s:1276   .text:00000f08 gpio_setup
C:\Users\ldebo\AppData\Local\Temp\ccBZnoYF.s:1306   .text:00000f64 $d
C:\Users\ldebo\AppData\Local\Temp\ccBZnoYF.s:1309   .text:00000f6c $a
C:\Users\ldebo\AppData\Local\Temp\ccBZnoYF.s:1315   .text:00000f6c gpio_output
C:\Users\ldebo\AppData\Local\Temp\ccBZnoYF.s:1350   .text:00000fd4 $d
C:\Users\ldebo\AppData\Local\Temp\ccBZnoYF.s:1352   .text:00000fd8 $a
C:\Users\ldebo\AppData\Local\Temp\ccBZnoYF.s:1358   .text:00000fd8 gpio_input
C:\Users\ldebo\AppData\Local\Temp\ccBZnoYF.s:1383   .text:0000101c $d
C:\Users\ldebo\AppData\Local\Temp\ccBZnoYF.s:1385   .text:00001020 $a
C:\Users\ldebo\AppData\Local\Temp\ccBZnoYF.s:1391   .text:00001020 gpio_checkEvent
C:\Users\ldebo\AppData\Local\Temp\ccBZnoYF.s:1415   .text:00001060 $d
C:\Users\ldebo\AppData\Local\Temp\ccBZnoYF.s:1417   .text:00001064 $a
C:\Users\ldebo\AppData\Local\Temp\ccBZnoYF.s:1423   .text:00001064 gpio_clearEvent
C:\Users\ldebo\AppData\Local\Temp\ccBZnoYF.s:1446   .text:000010a0 $d
C:\Users\ldebo\AppData\Local\Temp\ccBZnoYF.s:1448   .text:000010a4 $a
C:\Users\ldebo\AppData\Local\Temp\ccBZnoYF.s:1454   .text:000010a4 gpio_edgeDetect
C:\Users\ldebo\AppData\Local\Temp\ccBZnoYF.s:1512   .text:00001164 $d
C:\Users\ldebo\AppData\Local\Temp\ccBZnoYF.s:1514   .text:00001168 $a
ARM GAS  C:\Users\ldebo\AppData\Local\Temp\ccBZnoYF.s 			page 76


C:\Users\ldebo\AppData\Local\Temp\ccBZnoYF.s:1520   .text:00001168 gpio_fixResistor
C:\Users\ldebo\AppData\Local\Temp\ccBZnoYF.s:1606   .text:00001294 $d
C:\Users\ldebo\AppData\Local\Temp\ccBZnoYF.s:1608   .text:00001298 $a
C:\Users\ldebo\AppData\Local\Temp\ccBZnoYF.s:1614   .text:00001298 timer_getTickCount
C:\Users\ldebo\AppData\Local\Temp\ccBZnoYF.s:1641   .text:000012e4 $d
C:\Users\ldebo\AppData\Local\Temp\ccBZnoYF.s:1643   .text:000012e8 $a
C:\Users\ldebo\AppData\Local\Temp\ccBZnoYF.s:1649   .text:000012e8 timer_wait
C:\Users\ldebo\AppData\Local\Temp\ccBZnoYF.s:1688   .text:00001364 $d
C:\Users\ldebo\AppData\Local\Temp\ccBZnoYF.s:1690   .text:00001368 $a
C:\Users\ldebo\AppData\Local\Temp\ccBZnoYF.s:1696   .text:00001368 tick_difference
C:\Users\ldebo\AppData\Local\Temp\ccBZnoYF.s:1710   .text:00001374 mailbox_write
C:\Users\ldebo\AppData\Local\Temp\ccBZnoYF.s:1735   .text:000013b4 $d
C:\Users\ldebo\AppData\Local\Temp\ccBZnoYF.s:1737   .text:000013b8 $a
C:\Users\ldebo\AppData\Local\Temp\ccBZnoYF.s:1743   .text:000013b8 mailbox_read
C:\Users\ldebo\AppData\Local\Temp\ccBZnoYF.s:1769   .text:000013fc $d
C:\Users\ldebo\AppData\Local\Temp\ccBZnoYF.s:1772   .text:00001404 $a
C:\Users\ldebo\AppData\Local\Temp\ccBZnoYF.s:1778   .text:00001404 mailbox_tag_message
C:\Users\ldebo\AppData\Local\Temp\ccBZnoYF.s:1864   .text:00001520 $d
C:\Users\ldebo\AppData\Local\Temp\ccBZnoYF.s:1866   .text:00001524 $a
C:\Users\ldebo\AppData\Local\Temp\ccBZnoYF.s:1872   .text:00001524 set_Activity_LED
C:\Users\ldebo\AppData\Local\Temp\ccBZnoYF.s:1972   .text:00001678 $d
C:\Users\ldebo\AppData\Local\Temp\ccBZnoYF.s:1982   .text:0000169c $a
C:\Users\ldebo\AppData\Local\Temp\ccBZnoYF.s:1988   .text:0000169c ARM_setmaxspeed
C:\Users\ldebo\AppData\Local\Temp\ccBZnoYF.s:2036   .text:00001730 $d
C:\Users\ldebo\AppData\Local\Temp\ccBZnoYF.s:2040   .text:0000173c $a
C:\Users\ldebo\AppData\Local\Temp\ccBZnoYF.s:2046   .text:0000173c displaySmartStart
C:\Users\ldebo\AppData\Local\Temp\ccBZnoYF.s:2080   .text:000017ac $d
C:\Users\ldebo\AppData\Local\Temp\ccBZnoYF.s:2087   .text:000017c4 $a
C:\Users\ldebo\AppData\Local\Temp\ccBZnoYF.s:2093   .text:000017c4 Embedded_Console_WriteChar
C:\Users\ldebo\AppData\Local\Temp\ccBZnoYF.s:2146   .text:00001874 $d
C:\Users\ldebo\AppData\Local\Temp\ccBZnoYF.s:2148   .text:00001878 $a
C:\Users\ldebo\AppData\Local\Temp\ccBZnoYF.s:2154   .text:00001878 WriteText
C:\Users\ldebo\AppData\Local\Temp\ccBZnoYF.s:2219   .text:00001950 $d
C:\Users\ldebo\AppData\Local\Temp\ccBZnoYF.s:2221   .text:00001954 $a
C:\Users\ldebo\AppData\Local\Temp\ccBZnoYF.s:2227   .text:00001954 SetDCPenColor
C:\Users\ldebo\AppData\Local\Temp\ccBZnoYF.s:2243   .text:00001968 SetDCBrushColor
C:\Users\ldebo\AppData\Local\Temp\ccBZnoYF.s:2259   .text:0000197c MoveToEx
C:\Users\ldebo\AppData\Local\Temp\ccBZnoYF.s:2284   .text:000019b4 LineTo
C:\Users\ldebo\AppData\Local\Temp\ccBZnoYF.s:2339   .text:00001a54 TextOut
C:\Users\ldebo\AppData\Local\Temp\ccBZnoYF.s:2373   .text:00001abc $d
C:\Users\ldebo\AppData\Local\Temp\ccBZnoYF.s:2375   .text:00001ac0 $a
C:\Users\ldebo\AppData\Local\Temp\ccBZnoYF.s:2381   .text:00001ac0 BmpOut
C:\Users\ldebo\AppData\Local\Temp\ccBZnoYF.s:2413   .text:00001b10 CvtBmpLine
C:\Users\ldebo\AppData\Local\Temp\ccBZnoYF.s:2614   .text:00001dd0 Rectangle
C:\Users\ldebo\AppData\Local\Temp\ccBZnoYF.s:2639   .text:00001e04 PiConsole_Init
C:\Users\ldebo\AppData\Local\Temp\ccBZnoYF.s:2796   .text:00002030 $d
C:\Users\ldebo\AppData\Local\Temp\ccBZnoYF.s:2822   .text:00002094 $a
C:\Users\ldebo\AppData\Local\Temp\ccBZnoYF.s:2828   .text:00002094 GetConsoleDC
C:\Users\ldebo\AppData\Local\Temp\ccBZnoYF.s:2837   .text:0000209c $d
C:\Users\ldebo\AppData\Local\Temp\ccBZnoYF.s:2839   .text:000020a0 $a
C:\Users\ldebo\AppData\Local\Temp\ccBZnoYF.s:2845   .text:000020a0 GetConsole_FrameBuffer
C:\Users\ldebo\AppData\Local\Temp\ccBZnoYF.s:2855   .text:000020ac $d
C:\Users\ldebo\AppData\Local\Temp\ccBZnoYF.s:2857   .text:000020b0 $a
C:\Users\ldebo\AppData\Local\Temp\ccBZnoYF.s:2863   .text:000020b0 GetConsole_Width
C:\Users\ldebo\AppData\Local\Temp\ccBZnoYF.s:2873   .text:000020bc $d
C:\Users\ldebo\AppData\Local\Temp\ccBZnoYF.s:2875   .text:000020c0 $a
C:\Users\ldebo\AppData\Local\Temp\ccBZnoYF.s:2881   .text:000020c0 GetConsole_Height
ARM GAS  C:\Users\ldebo\AppData\Local\Temp\ccBZnoYF.s 			page 77


C:\Users\ldebo\AppData\Local\Temp\ccBZnoYF.s:2891   .text:000020cc $d
C:\Users\ldebo\AppData\Local\Temp\ccBZnoYF.s:2893   .text:000020d0 $a
C:\Users\ldebo\AppData\Local\Temp\ccBZnoYF.s:2899   .text:000020d0 _sbrk
C:\Users\ldebo\AppData\Local\Temp\ccBZnoYF.s:2915   .text:000020f4 $d
C:\Users\ldebo\AppData\Local\Temp\ccBZnoYF.s:2918   .text:000020fc $a
C:\Users\ldebo\AppData\Local\Temp\ccBZnoYF.s:2924   .text:000020fc _kill
C:\Users\ldebo\AppData\Local\Temp\ccBZnoYF.s:2936   .text:00002110 $d
C:\Users\ldebo\AppData\Local\Temp\ccBZnoYF.s:2938   .text:00002114 $a
C:\Users\ldebo\AppData\Local\Temp\ccBZnoYF.s:2944   .text:00002114 _getpid
C:\Users\ldebo\AppData\Local\Temp\ccBZnoYF.s:2957   .text:0000211c _read
C:\Users\ldebo\AppData\Local\Temp\ccBZnoYF.s:2970   .text:00002124 _close
C:\Users\ldebo\AppData\Local\Temp\ccBZnoYF.s:2983   .text:0000212c _lseek
C:\Users\ldebo\AppData\Local\Temp\ccBZnoYF.s:2996   .text:00002134 _isatty
C:\Users\ldebo\AppData\Local\Temp\ccBZnoYF.s:3009   .text:0000213c _fstat
C:\Users\ldebo\AppData\Local\Temp\ccBZnoYF.s:3024   .text:0000214c _exit
C:\Users\ldebo\AppData\Local\Temp\ccBZnoYF.s:3037   .text:00002150 _write
C:\Users\ldebo\AppData\Local\Temp\ccBZnoYF.s:3097   .text:00002214 $d
C:\Users\ldebo\AppData\Local\Temp\ccBZnoYF.s:4147   .bss:00000004 console
C:\Users\ldebo\AppData\Local\Temp\ccBZnoYF.s:3101   .rodata:00000000 $d
C:\Users\ldebo\AppData\Local\Temp\ccBZnoYF.s:3105   .rodata:00000000 _ZL7BitFont
C:\Users\ldebo\AppData\Local\Temp\ccBZnoYF.s:4131   .data:00000000 $d
C:\Users\ldebo\AppData\Local\Temp\ccBZnoYF.s:4135   .data:00000000 _ZL16ActivityGPIOPort
C:\Users\ldebo\AppData\Local\Temp\ccBZnoYF.s:4138   .bss:00000000 $d
C:\Users\ldebo\AppData\Local\Temp\ccBZnoYF.s:4142   .bss:00000000 _ZL16ModelCheckHasRun
C:\Users\ldebo\AppData\Local\Temp\ccBZnoYF.s:4151   .bss:00000048 _ZZ5_sbrkE8heap_end
C:\Users\ldebo\AppData\Local\Temp\ccBZnoYF.s:4154   .rodata.str1.4:00000000 $d

UNDEFINED SYMBOLS
memcpy
ARMaddrToGPUaddr
RPi_IO_Base_Addr
RPi_CpuId
RPi_CpuIdString
RPi_CompileMode
RPi_CoresReady
strlen
GPUaddrToARMaddr
_end
errno
ARM GAS  C:\Users\ldebo\AppData\Local\Temp\ccBZnoYF.s 			page 1


   1              		.arch armv6zk
   2              		.eabi_attribute 28, 1
   3              		.eabi_attribute 20, 1
   4              		.eabi_attribute 21, 1
   5              		.eabi_attribute 23, 3
   6              		.eabi_attribute 24, 1
   7              		.eabi_attribute 25, 1
   8              		.eabi_attribute 26, 1
   9              		.eabi_attribute 30, 2
  10              		.eabi_attribute 34, 0
  11              		.eabi_attribute 18, 4
  12              		.file	"emb-stdio.c"
  13              		.global	__aeabi_uidiv
  14              		.global	__aeabi_uidivmod
  15              		.text
  16              		.align	2
  17              		.syntax unified
  18              		.arm
  19              		.fpu vfp
  20              		.type	number, %function
  21              	number:
  22              		@ args = 8, pretend = 0, frame = 88
  23              		@ frame_needed = 0, uses_anonymous_args = 0
  24 0000 F04F2DE9 		push	{r4, r5, r6, r7, r8, r9, r10, fp, lr}
  25 0004 5CD04DE2 		sub	sp, sp, #92
  26 0008 00A0A0E1 		mov	r10, r0
  27 000c 84009DE5 		ldr	r0, [sp, #132]
  28 0010 00308DE5 		str	r3, [sp]
  29 0014 100010E3 		tst	r0, #16
  30 0018 0030A011 		movne	r3, r0
  31 001c 0130C313 		bicne	r3, r3, #1
  32 0020 84308D15 		strne	r3, [sp, #132]
  33 0024 023042E2 		sub	r3, r2, #2
  34 0028 0E0053E3 		cmp	r3, #14
  35 002c 0150A0E1 		mov	r5, r1
  36 0030 0260A0E1 		mov	r6, r2
  37 0034 207000E2 		and	r7, r0, #32
  38 0038 9901008A 		bhi	.L56
  39 003c 84309DE5 		ldr	r3, [sp, #132]
  40 0040 010013E3 		tst	r3, #1
  41 0044 2030A003 		moveq	r3, #32
  42 0048 3030A013 		movne	r3, #48
  43 004c 04308DE5 		str	r3, [sp, #4]
  44 0050 84309DE5 		ldr	r3, [sp, #132]
  45 0054 023013E2 		ands	r3, r3, #2
  46 0058 0C00000A 		beq	.L59
  47 005c 000051E3 		cmp	r1, #0
  48 0060 880100BA 		blt	.L148
  49 0064 84309DE5 		ldr	r3, [sp, #132]
  50 0068 040013E3 		tst	r3, #4
  51 006c 7101001A 		bne	.L149
  52 0070 083013E2 		ands	r3, r3, #8
  53 0074 0500000A 		beq	.L59
  54 0078 00309DE5 		ldr	r3, [sp]
  55 007c 013043E2 		sub	r3, r3, #1
  56 0080 00308DE5 		str	r3, [sp]
  57 0084 2030A0E3 		mov	r3, #32
ARM GAS  C:\Users\ldebo\AppData\Local\Temp\ccBZnoYF.s 			page 2


  58 0088 0C308DE5 		str	r3, [sp, #12]
  59 008c 000000EA 		b	.L5
  60              	.L59:
  61 0090 0C308DE5 		str	r3, [sp, #12]
  62              	.L5:
  63 0094 84309DE5 		ldr	r3, [sp, #132]
  64 0098 403013E2 		ands	r3, r3, #64
  65 009c 08308DE5 		str	r3, [sp, #8]
  66 00a0 0500000A 		beq	.L8
  67 00a4 100056E3 		cmp	r6, #16
  68 00a8 7001000A 		beq	.L150
  69 00ac 080056E3 		cmp	r6, #8
  70 00b0 00309D05 		ldreq	r3, [sp]
  71 00b4 01304302 		subeq	r3, r3, #1
  72 00b8 00308D05 		streq	r3, [sp]
  73              	.L8:
  74 00bc 000055E3 		cmp	r5, #0
  75 00c0 4301001A 		bne	.L10
  76              	.L155:
  77 00c4 0130A0E3 		mov	r3, #1
  78 00c8 3020A0E3 		mov	r2, #48
  79 00cc 0340A0E1 		mov	r4, r3
  80 00d0 1420CDE5 		strb	r2, [sp, #20]
  81              	.L11:
  82 00d4 80209DE5 		ldr	r2, [sp, #128]
  83 00d8 84109DE5 		ldr	r1, [sp, #132]
  84 00dc 020053E1 		cmp	r3, r2
  85 00e0 0320A0A1 		movge	r2, r3
  86 00e4 110011E3 		tst	r1, #17
  87 00e8 00109DE5 		ldr	r1, [sp]
  88 00ec 029041E0 		sub	r9, r1, r2
  89 00f0 4600001A 		bne	.L13
  90 00f4 01E049E2 		sub	lr, r9, #1
  91 00f8 000059E3 		cmp	r9, #0
  92 00fc 0E00A0E1 		mov	r0, lr
  93 0100 710100DA 		ble	.L61
  94 0104 00106AE2 		rsb	r1, r10, #0
  95 0108 031001E2 		and	r1, r1, #3
  96 010c 090051E1 		cmp	r1, r9
  97 0110 0910A021 		movcs	r1, r9
  98 0114 060059E3 		cmp	r9, #6
  99 0118 0910A0D1 		movle	r1, r9
 100 011c 4B0100CA 		bgt	.L151
 101              	.L14:
 102 0120 20C0A0E3 		mov	ip, #32
 103 0124 010051E3 		cmp	r1, #1
 104 0128 00C0CAE5 		strb	ip, [r10]
 105 012c 01808AE2 		add	r8, r10, #1
 106 0130 020049E2 		sub	r0, r9, #2
 107 0134 1500000A 		beq	.L16
 108 0138 020051E3 		cmp	r1, #2
 109 013c 01C0CAE5 		strb	ip, [r10, #1]
 110 0140 02808AE2 		add	r8, r10, #2
 111 0144 030049E2 		sub	r0, r9, #3
 112 0148 1000000A 		beq	.L16
 113 014c 030051E3 		cmp	r1, #3
 114 0150 02C0CAE5 		strb	ip, [r10, #2]
ARM GAS  C:\Users\ldebo\AppData\Local\Temp\ccBZnoYF.s 			page 3


 115 0154 03808AE2 		add	r8, r10, #3
 116 0158 040049E2 		sub	r0, r9, #4
 117 015c 0B00000A 		beq	.L16
 118 0160 040051E3 		cmp	r1, #4
 119 0164 03C0CAE5 		strb	ip, [r10, #3]
 120 0168 04808AE2 		add	r8, r10, #4
 121 016c 050049E2 		sub	r0, r9, #5
 122 0170 0600000A 		beq	.L16
 123 0174 060051E3 		cmp	r1, #6
 124 0178 05808AE2 		add	r8, r10, #5
 125 017c 060049E2 		sub	r0, r9, #6
 126 0180 04C0CAE5 		strb	ip, [r10, #4]
 127 0184 05C0CA05 		strbeq	ip, [r10, #5]
 128 0188 06808A02 		addeq	r8, r10, #6
 129 018c 07004902 		subeq	r0, r9, #7
 130              	.L16:
 131 0190 010059E1 		cmp	r9, r1
 132 0194 1B00000A 		beq	.L17
 133              	.L15:
 134 0198 01C049E0 		sub	ip, r9, r1
 135 019c 00C08DE5 		str	ip, [sp]
 136 01a0 04C04CE2 		sub	ip, ip, #4
 137 01a4 01E04EE0 		sub	lr, lr, r1
 138 01a8 2CC1A0E1 		lsr	ip, ip, #2
 139 01ac 01C08CE2 		add	ip, ip, #1
 140 01b0 02005EE3 		cmp	lr, #2
 141 01b4 0C51A0E1 		lsl	r5, ip, #2
 142 01b8 0B00009A 		bls	.L18
 143 01bc 00E0A0E3 		mov	lr, #0
 144 01c0 14B59FE5 		ldr	fp, .L156
 145 01c4 01108AE0 		add	r1, r10, r1
 146              	.L19:
 147 01c8 01E08EE2 		add	lr, lr, #1
 148 01cc 0E005CE1 		cmp	ip, lr
 149 01d0 04B081E4 		str	fp, [r1], #4
 150 01d4 FBFFFF8A 		bhi	.L19
 151 01d8 00109DE5 		ldr	r1, [sp]
 152 01dc 058088E0 		add	r8, r8, r5
 153 01e0 050051E1 		cmp	r1, r5
 154 01e4 050040E0 		sub	r0, r0, r5
 155 01e8 0600000A 		beq	.L17
 156              	.L18:
 157 01ec 2010A0E3 		mov	r1, #32
 158 01f0 000050E3 		cmp	r0, #0
 159 01f4 0010C8E5 		strb	r1, [r8]
 160 01f8 020000DA 		ble	.L17
 161 01fc 010050E3 		cmp	r0, #1
 162 0200 0110C8E5 		strb	r1, [r8, #1]
 163 0204 0210C8C5 		strbgt	r1, [r8, #2]
 164              	.L17:
 165 0208 09A08AE0 		add	r10, r10, r9
 166 020c 0090E0E3 		mvn	r9, #0
 167              	.L13:
 168 0210 0C109DE5 		ldr	r1, [sp, #12]
 169 0214 000051E3 		cmp	r1, #0
 170 0218 0010CA15 		strbne	r1, [r10]
 171 021c 08109DE5 		ldr	r1, [sp, #8]
ARM GAS  C:\Users\ldebo\AppData\Local\Temp\ccBZnoYF.s 			page 4


 172 0220 01A08A12 		addne	r10, r10, #1
 173 0224 000051E3 		cmp	r1, #0
 174 0228 0600000A 		beq	.L24
 175 022c 080056E3 		cmp	r6, #8
 176 0230 3010A003 		moveq	r1, #48
 177 0234 0010CA05 		strbeq	r1, [r10]
 178 0238 01A08A02 		addeq	r10, r10, #1
 179 023c 0100000A 		beq	.L24
 180 0240 100056E3 		cmp	r6, #16
 181 0244 1901000A 		beq	.L152
 182              	.L24:
 183 0248 84109DE5 		ldr	r1, [sp, #132]
 184 024c 100011E3 		tst	r1, #16
 185 0250 4900001A 		bne	.L26
 186 0254 01E049E2 		sub	lr, r9, #1
 187 0258 000059E3 		cmp	r9, #0
 188 025c 0E00A0E1 		mov	r0, lr
 189 0260 1B0100DA 		ble	.L64
 190 0264 00106AE2 		rsb	r1, r10, #0
 191 0268 031001E2 		and	r1, r1, #3
 192 026c 090051E1 		cmp	r1, r9
 193 0270 0910A021 		movcs	r1, r9
 194 0274 060059E3 		cmp	r9, #6
 195 0278 0910A0D1 		movle	r1, r9
 196 027c F70000CA 		bgt	.L153
 197              	.L27:
 198 0280 04509DE5 		ldr	r5, [sp, #4]
 199 0284 010051E3 		cmp	r1, #1
 200 0288 0050CAE5 		strb	r5, [r10]
 201 028c 01C08AE2 		add	ip, r10, #1
 202 0290 020049E2 		sub	r0, r9, #2
 203 0294 1600000A 		beq	.L29
 204 0298 020051E3 		cmp	r1, #2
 205 029c 0150CAE5 		strb	r5, [r10, #1]
 206 02a0 02C08AE2 		add	ip, r10, #2
 207 02a4 030049E2 		sub	r0, r9, #3
 208 02a8 1100000A 		beq	.L29
 209 02ac 030051E3 		cmp	r1, #3
 210 02b0 0250CAE5 		strb	r5, [r10, #2]
 211 02b4 03C08AE2 		add	ip, r10, #3
 212 02b8 040049E2 		sub	r0, r9, #4
 213 02bc 0C00000A 		beq	.L29
 214 02c0 040051E3 		cmp	r1, #4
 215 02c4 0350CAE5 		strb	r5, [r10, #3]
 216 02c8 04C08AE2 		add	ip, r10, #4
 217 02cc 050049E2 		sub	r0, r9, #5
 218 02d0 0700000A 		beq	.L29
 219 02d4 060051E3 		cmp	r1, #6
 220 02d8 060049E2 		sub	r0, r9, #6
 221 02dc 0500A001 		moveq	r0, r5
 222 02e0 05C08AE2 		add	ip, r10, #5
 223 02e4 0500CA05 		strbeq	r0, [r10, #5]
 224 02e8 0450CAE5 		strb	r5, [r10, #4]
 225 02ec 06C08A02 		addeq	ip, r10, #6
 226 02f0 07004902 		subeq	r0, r9, #7
 227              	.L29:
 228 02f4 010059E1 		cmp	r9, r1
ARM GAS  C:\Users\ldebo\AppData\Local\Temp\ccBZnoYF.s 			page 5


 229 02f8 1D00000A 		beq	.L30
 230              	.L28:
 231 02fc 01B049E0 		sub	fp, r9, r1
 232 0300 04504BE2 		sub	r5, fp, #4
 233 0304 01604EE0 		sub	r6, lr, r1
 234 0308 25E1A0E1 		lsr	lr, r5, #2
 235 030c 01E08EE2 		add	lr, lr, #1
 236 0310 020056E3 		cmp	r6, #2
 237 0314 0E81A0E1 		lsl	r8, lr, #2
 238 0318 0D00009A 		bls	.L31
 239 031c 0050A0E3 		mov	r5, #0
 240 0320 0470DDE5 		ldrb	r7, [sp, #4]	@ zero_extendqisi2
 241 0324 01108AE0 		add	r1, r10, r1
 242 0328 076487E1 		orr	r6, r7, r7, lsl #8
 243 032c 076886E1 		orr	r6, r6, r7, lsl #16
 244 0330 076C86E1 		orr	r6, r6, r7, lsl #24
 245              	.L32:
 246 0334 015085E2 		add	r5, r5, #1
 247 0338 05005EE1 		cmp	lr, r5
 248 033c 046081E4 		str	r6, [r1], #4
 249 0340 FBFFFF8A 		bhi	.L32
 250 0344 08005BE1 		cmp	fp, r8
 251 0348 08C08CE0 		add	ip, ip, r8
 252 034c 080040E0 		sub	r0, r0, r8
 253 0350 0700000A 		beq	.L30
 254              	.L31:
 255 0354 04109DE5 		ldr	r1, [sp, #4]
 256 0358 000050E3 		cmp	r0, #0
 257 035c 0010CCE5 		strb	r1, [ip]
 258 0360 030000DA 		ble	.L30
 259 0364 010050E3 		cmp	r0, #1
 260 0368 0110CCE5 		strb	r1, [ip, #1]
 261 036c 0410DDC5 		ldrbgt	r1, [sp, #4]	@ zero_extendqisi2
 262 0370 0210CCC5 		strbgt	r1, [ip, #2]
 263              	.L30:
 264 0374 09A08AE0 		add	r10, r10, r9
 265 0378 0090E0E3 		mvn	r9, #0
 266              	.L26:
 267 037c 020053E1 		cmp	r3, r2
 268 0380 01C042E2 		sub	ip, r2, #1
 269 0384 430000AA 		bge	.L36
 270 0388 00106AE2 		rsb	r1, r10, #0
 271 038c 031001E2 		and	r1, r1, #3
 272 0390 03E042E0 		sub	lr, r2, r3
 273 0394 0E0051E1 		cmp	r1, lr
 274 0398 0E10A021 		movcs	r1, lr
 275 039c 06005EE3 		cmp	lr, #6
 276 03a0 0E10A091 		movls	r1, lr
 277 03a4 000051E3 		cmp	r1, #0
 278 03a8 A000000A 		beq	.L67
 279 03ac 3000A0E3 		mov	r0, #48
 280 03b0 010051E3 		cmp	r1, #1
 281 03b4 0000CAE5 		strb	r0, [r10]
 282 03b8 01508AE2 		add	r5, r10, #1
 283 03bc 02C042E2 		sub	ip, r2, #2
 284 03c0 1500000A 		beq	.L39
 285 03c4 020051E3 		cmp	r1, #2
ARM GAS  C:\Users\ldebo\AppData\Local\Temp\ccBZnoYF.s 			page 6


 286 03c8 0100CAE5 		strb	r0, [r10, #1]
 287 03cc 02508AE2 		add	r5, r10, #2
 288 03d0 03C042E2 		sub	ip, r2, #3
 289 03d4 1000000A 		beq	.L39
 290 03d8 030051E3 		cmp	r1, #3
 291 03dc 0200CAE5 		strb	r0, [r10, #2]
 292 03e0 03508AE2 		add	r5, r10, #3
 293 03e4 04C042E2 		sub	ip, r2, #4
 294 03e8 0B00000A 		beq	.L39
 295 03ec 040051E3 		cmp	r1, #4
 296 03f0 0300CAE5 		strb	r0, [r10, #3]
 297 03f4 04508AE2 		add	r5, r10, #4
 298 03f8 05C042E2 		sub	ip, r2, #5
 299 03fc 0600000A 		beq	.L39
 300 0400 060051E3 		cmp	r1, #6
 301 0404 05508AE2 		add	r5, r10, #5
 302 0408 06C042E2 		sub	ip, r2, #6
 303 040c 0400CAE5 		strb	r0, [r10, #4]
 304 0410 0500CA05 		strbeq	r0, [r10, #5]
 305 0414 07C04202 		subeq	ip, r2, #7
 306 0418 06508A02 		addeq	r5, r10, #6
 307              	.L39:
 308 041c 01005EE1 		cmp	lr, r1
 309 0420 1B00000A 		beq	.L40
 310              	.L38:
 311 0424 01604EE0 		sub	r6, lr, r1
 312 0428 040046E2 		sub	r0, r6, #4
 313 042c 01204EE2 		sub	r2, lr, #1
 314 0430 2001A0E1 		lsr	r0, r0, #2
 315 0434 012042E0 		sub	r2, r2, r1
 316 0438 010080E2 		add	r0, r0, #1
 317 043c 020052E3 		cmp	r2, #2
 318 0440 0071A0E1 		lsl	r7, r0, #2
 319 0444 0A00009A 		bls	.L41
 320 0448 0020A0E3 		mov	r2, #0
 321 044c 8C829FE5 		ldr	r8, .L156+4
 322 0450 01108AE0 		add	r1, r10, r1
 323              	.L42:
 324 0454 012082E2 		add	r2, r2, #1
 325 0458 020050E1 		cmp	r0, r2
 326 045c 048081E4 		str	r8, [r1], #4
 327 0460 FBFFFF8A 		bhi	.L42
 328 0464 070056E1 		cmp	r6, r7
 329 0468 075085E0 		add	r5, r5, r7
 330 046c 07C04CE0 		sub	ip, ip, r7
 331 0470 0700000A 		beq	.L40
 332              	.L41:
 333 0474 3010A0E3 		mov	r1, #48
 334 0478 0C0053E1 		cmp	r3, ip
 335 047c 01204CE2 		sub	r2, ip, #1
 336 0480 0010C5E5 		strb	r1, [r5]
 337 0484 020000AA 		bge	.L40
 338 0488 020053E1 		cmp	r3, r2
 339 048c 0110C5E5 		strb	r1, [r5, #1]
 340 0490 0210C5B5 		strblt	r1, [r5, #2]
 341              	.L40:
 342 0494 0EA08AE0 		add	r10, r10, lr
ARM GAS  C:\Users\ldebo\AppData\Local\Temp\ccBZnoYF.s 			page 7


 343              	.L36:
 344 0498 14C08DE2 		add	ip, sp, #20
 345 049c 04308CE0 		add	r3, ip, r4
 346 04a0 01204AE2 		sub	r2, r10, #1
 347              	.L46:
 348 04a4 011073E5 		ldrb	r1, [r3, #-1]!	@ zero_extendqisi2
 349 04a8 0C0043E0 		sub	r0, r3, ip
 350 04ac 000050E3 		cmp	r0, #0
 351 04b0 0110E2E5 		strb	r1, [r2, #1]!
 352 04b4 FAFFFFCA 		bgt	.L46
 353 04b8 01E049E2 		sub	lr, r9, #1
 354 04bc 000059E3 		cmp	r9, #0
 355 04c0 04008AE0 		add	r0, r10, r4
 356 04c4 0EC0A0E1 		mov	ip, lr
 357 04c8 3F0000DA 		ble	.L1
 358 04cc 003060E2 		rsb	r3, r0, #0
 359 04d0 033003E2 		and	r3, r3, #3
 360 04d4 090053E1 		cmp	r3, r9
 361 04d8 0930A021 		movcs	r3, r9
 362 04dc 060059E3 		cmp	r9, #6
 363 04e0 0930A0D1 		movle	r3, r9
 364 04e4 4D0000CA 		bgt	.L154
 365              	.L47:
 366 04e8 2020A0E3 		mov	r2, #32
 367 04ec 010053E3 		cmp	r3, #1
 368 04f0 0020C0E5 		strb	r2, [r0]
 369 04f4 011080E2 		add	r1, r0, #1
 370 04f8 02C049E2 		sub	ip, r9, #2
 371 04fc 1500000A 		beq	.L49
 372 0500 020053E3 		cmp	r3, #2
 373 0504 0120C0E5 		strb	r2, [r0, #1]
 374 0508 021080E2 		add	r1, r0, #2
 375 050c 03C049E2 		sub	ip, r9, #3
 376 0510 1000000A 		beq	.L49
 377 0514 030053E3 		cmp	r3, #3
 378 0518 0220C0E5 		strb	r2, [r0, #2]
 379 051c 031080E2 		add	r1, r0, #3
 380 0520 04C049E2 		sub	ip, r9, #4
 381 0524 0B00000A 		beq	.L49
 382 0528 040053E3 		cmp	r3, #4
 383 052c 0320C0E5 		strb	r2, [r0, #3]
 384 0530 041080E2 		add	r1, r0, #4
 385 0534 05C049E2 		sub	ip, r9, #5
 386 0538 0600000A 		beq	.L49
 387 053c 060053E3 		cmp	r3, #6
 388 0540 051080E2 		add	r1, r0, #5
 389 0544 06C049E2 		sub	ip, r9, #6
 390 0548 0420C0E5 		strb	r2, [r0, #4]
 391 054c 0520C005 		strbeq	r2, [r0, #5]
 392 0550 06108002 		addeq	r1, r0, #6
 393 0554 07C04902 		subeq	ip, r9, #7
 394              	.L49:
 395 0558 030059E1 		cmp	r9, r3
 396 055c 1900000A 		beq	.L50
 397              	.L48:
 398 0560 035049E0 		sub	r5, r9, r3
 399 0564 042045E2 		sub	r2, r5, #4
ARM GAS  C:\Users\ldebo\AppData\Local\Temp\ccBZnoYF.s 			page 8


 400 0568 03E04EE0 		sub	lr, lr, r3
 401 056c 2221A0E1 		lsr	r2, r2, #2
 402 0570 012082E2 		add	r2, r2, #1
 403 0574 02005EE3 		cmp	lr, #2
 404 0578 0241A0E1 		lsl	r4, r2, #2
 405 057c 0A00009A 		bls	.L51
 406 0580 00E0A0E3 		mov	lr, #0
 407 0584 50619FE5 		ldr	r6, .L156
 408 0588 033080E0 		add	r3, r0, r3
 409              	.L52:
 410 058c 01E08EE2 		add	lr, lr, #1
 411 0590 0E0052E1 		cmp	r2, lr
 412 0594 046083E4 		str	r6, [r3], #4
 413 0598 FBFFFF8A 		bhi	.L52
 414 059c 050054E1 		cmp	r4, r5
 415 05a0 041081E0 		add	r1, r1, r4
 416 05a4 04C04CE0 		sub	ip, ip, r4
 417 05a8 0600000A 		beq	.L50
 418              	.L51:
 419 05ac 2030A0E3 		mov	r3, #32
 420 05b0 00005CE3 		cmp	ip, #0
 421 05b4 0030C1E5 		strb	r3, [r1]
 422 05b8 020000DA 		ble	.L50
 423 05bc 01005CE3 		cmp	ip, #1
 424 05c0 0130C1E5 		strb	r3, [r1, #1]
 425 05c4 0230C1C5 		strbgt	r3, [r1, #2]
 426              	.L50:
 427 05c8 090080E0 		add	r0, r0, r9
 428              	.L1:
 429 05cc 5CD08DE2 		add	sp, sp, #92
 430              		@ sp needed
 431 05d0 F08FBDE8 		pop	{r4, r5, r6, r7, r8, r9, r10, fp, pc}
 432              	.L10:
 433 05d4 0040A0E3 		mov	r4, #0
 434 05d8 04819FE5 		ldr	r8, .L156+8
 435 05dc 13908DE2 		add	r9, sp, #19
 436              	.L12:
 437 05e0 0500A0E1 		mov	r0, r5
 438 05e4 0610A0E1 		mov	r1, r6
 439 05e8 FEFFFFEB 		bl	__aeabi_uidiv
 440 05ec 05B0A0E1 		mov	fp, r5
 441 05f0 0610A0E1 		mov	r1, r6
 442 05f4 0050A0E1 		mov	r5, r0
 443 05f8 0B00A0E1 		mov	r0, fp
 444 05fc FEFFFFEB 		bl	__aeabi_uidivmod
 445 0600 0130D8E7 		ldrb	r3, [r8, r1]	@ zero_extendqisi2
 446 0604 014084E2 		add	r4, r4, #1
 447 0608 033087E1 		orr	r3, r7, r3
 448 060c 000055E3 		cmp	r5, #0
 449 0610 0130E9E5 		strb	r3, [r9, #1]!
 450 0614 0430A0E1 		mov	r3, r4
 451 0618 F0FFFF1A 		bne	.L12
 452 061c ACFEFFEA 		b	.L11
 453              	.L154:
 454 0620 000053E3 		cmp	r3, #0
 455 0624 0010A001 		moveq	r1, r0
 456 0628 CCFFFF0A 		beq	.L48
ARM GAS  C:\Users\ldebo\AppData\Local\Temp\ccBZnoYF.s 			page 9


 457 062c ADFFFFEA 		b	.L47
 458              	.L67:
 459 0630 0A50A0E1 		mov	r5, r10
 460 0634 7AFFFFEA 		b	.L38
 461              	.L149:
 462 0638 00309DE5 		ldr	r3, [sp]
 463 063c 013043E2 		sub	r3, r3, #1
 464 0640 00308DE5 		str	r3, [sp]
 465 0644 2B30A0E3 		mov	r3, #43
 466 0648 0C308DE5 		str	r3, [sp, #12]
 467 064c 90FEFFEA 		b	.L5
 468              	.L151:
 469 0650 000051E3 		cmp	r1, #0
 470 0654 0A80A001 		moveq	r8, r10
 471 0658 CEFEFF0A 		beq	.L15
 472 065c AFFEFFEA 		b	.L14
 473              	.L153:
 474 0660 000051E3 		cmp	r1, #0
 475 0664 0AC0A001 		moveq	ip, r10
 476 0668 23FFFF0A 		beq	.L28
 477 066c 03FFFFEA 		b	.L27
 478              	.L150:
 479 0670 00309DE5 		ldr	r3, [sp]
 480 0674 000055E3 		cmp	r5, #0
 481 0678 023043E2 		sub	r3, r3, #2
 482 067c 00308DE5 		str	r3, [sp]
 483 0680 D3FFFF1A 		bne	.L10
 484 0684 8EFEFFEA 		b	.L155
 485              	.L148:
 486 0688 00309DE5 		ldr	r3, [sp]
 487 068c 005061E2 		rsb	r5, r1, #0
 488 0690 013043E2 		sub	r3, r3, #1
 489 0694 00308DE5 		str	r3, [sp]
 490 0698 2D30A0E3 		mov	r3, #45
 491 069c 0C308DE5 		str	r3, [sp, #12]
 492 06a0 7BFEFFEA 		b	.L5
 493              	.L56:
 494 06a4 0000A0E3 		mov	r0, #0
 495 06a8 5CD08DE2 		add	sp, sp, #92
 496              		@ sp needed
 497 06ac F08FBDE8 		pop	{r4, r5, r6, r7, r8, r9, r10, fp, pc}
 498              	.L152:
 499 06b0 0A10A0E1 		mov	r1, r10
 500 06b4 3000A0E3 		mov	r0, #48
 501 06b8 587087E3 		orr	r7, r7, #88
 502 06bc 0200C1E4 		strb	r0, [r1], #2
 503 06c0 0170CAE5 		strb	r7, [r10, #1]
 504 06c4 01A0A0E1 		mov	r10, r1
 505 06c8 DEFEFFEA 		b	.L24
 506              	.L61:
 507 06cc 0E90A0E1 		mov	r9, lr
 508 06d0 CEFEFFEA 		b	.L13
 509              	.L64:
 510 06d4 0E90A0E1 		mov	r9, lr
 511 06d8 27FFFFEA 		b	.L26
 512              	.L157:
 513              		.align	2
ARM GAS  C:\Users\ldebo\AppData\Local\Temp\ccBZnoYF.s 			page 10


 514              	.L156:
 515 06dc 20202020 		.word	538976288
 516 06e0 30303030 		.word	808464432
 517 06e4 00000000 		.word	.LANCHOR0
 518              		.size	number, .-number
 519              		.align	2
 520              		.global	vsprintf
 521              		.syntax unified
 522              		.arm
 523              		.fpu vfp
 524              		.type	vsprintf, %function
 525              	vsprintf:
 526              		@ args = 0, pretend = 0, frame = 8
 527              		@ frame_needed = 0, uses_anonymous_args = 0
 528 06e8 F04F2DE9 		push	{r4, r5, r6, r7, r8, r9, r10, fp, lr}
 529 06ec 0030D1E5 		ldrb	r3, [r1]	@ zero_extendqisi2
 530 06f0 14D04DE2 		sub	sp, sp, #20
 531 06f4 000053E3 		cmp	r3, #0
 532 06f8 0050A0E1 		mov	r5, r0
 533 06fc 0003000A 		beq	.L253
 534 0700 0190A0E1 		mov	r9, r1
 535 0704 0270A0E1 		mov	r7, r2
 536 0708 08008DE5 		str	r0, [sp, #8]
 537 070c 0080E0E3 		mvn	r8, #0
 538 0710 050000EA 		b	.L251
 539              	.L354:
 540 0714 0030C5E5 		strb	r3, [r5]
 541 0718 0130D9E5 		ldrb	r3, [r9, #1]	@ zero_extendqisi2
 542 071c 015085E2 		add	r5, r5, #1
 543              	.L162:
 544 0720 000053E3 		cmp	r3, #0
 545 0724 019089E2 		add	r9, r9, #1
 546 0728 1101000A 		beq	.L245
 547              	.L251:
 548 072c 250053E3 		cmp	r3, #37
 549 0730 0060A003 		moveq	r6, #0
 550 0734 F6FFFF1A 		bne	.L354
 551              	.L161:
 552 0738 0130D9E5 		ldrb	r3, [r9, #1]	@ zero_extendqisi2
 553 073c 014089E2 		add	r4, r9, #1
 554 0740 203043E2 		sub	r3, r3, #32
 555 0744 100053E3 		cmp	r3, #16
 556 0748 03F19F97 		ldrls	pc, [pc, r3, asl #2]
 557 074c 1B0000EA 		b	.L163
 558              	.L165:
 559 0750 B8070000 		.word	.L164
 560 0754 C0070000 		.word	.L163
 561 0758 C0070000 		.word	.L163
 562 075c B0070000 		.word	.L166
 563 0760 C0070000 		.word	.L163
 564 0764 C0070000 		.word	.L163
 565 0768 C0070000 		.word	.L163
 566 076c C0070000 		.word	.L163
 567 0770 C0070000 		.word	.L163
 568 0774 C0070000 		.word	.L163
 569 0778 C0070000 		.word	.L163
 570 077c A8070000 		.word	.L167
ARM GAS  C:\Users\ldebo\AppData\Local\Temp\ccBZnoYF.s 			page 11


 571 0780 C0070000 		.word	.L163
 572 0784 A0070000 		.word	.L168
 573 0788 C0070000 		.word	.L163
 574 078c C0070000 		.word	.L163
 575 0790 94070000 		.word	.L169
 576              	.L169:
 577 0794 016086E3 		orr	r6, r6, #1
 578              	.L170:
 579 0798 0490A0E1 		mov	r9, r4
 580 079c E5FFFFEA 		b	.L161
 581              	.L168:
 582 07a0 106086E3 		orr	r6, r6, #16
 583 07a4 FBFFFFEA 		b	.L170
 584              	.L167:
 585 07a8 046086E3 		orr	r6, r6, #4
 586 07ac F9FFFFEA 		b	.L170
 587              	.L166:
 588 07b0 406086E3 		orr	r6, r6, #64
 589 07b4 F7FFFFEA 		b	.L170
 590              	.L164:
 591 07b8 086086E3 		orr	r6, r6, #8
 592 07bc F5FFFFEA 		b	.L170
 593              	.L163:
 594 07c0 FEFFFFEB 		bl	__locale_ctype_ptr
 595 07c4 0020D4E5 		ldrb	r2, [r4]	@ zero_extendqisi2
 596 07c8 020080E0 		add	r0, r0, r2
 597 07cc 0130D0E5 		ldrb	r3, [r0, #1]	@ zero_extendqisi2
 598 07d0 040013E3 		tst	r3, #4
 599 07d4 0490A011 		movne	r9, r4
 600 07d8 00A0A013 		movne	r10, #0
 601 07dc 6200001A 		bne	.L172
 602 07e0 2A0052E3 		cmp	r2, #42
 603 07e4 00A0E013 		mvnne	r10, #0
 604 07e8 7102000A 		beq	.L355
 605              	.L174:
 606 07ec 2E0052E3 		cmp	r2, #46
 607 07f0 08C0A011 		movne	ip, r8
 608 07f4 6800000A 		beq	.L356
 609              	.L176:
 610 07f8 DF3002E2 		and	r3, r2, #223
 611 07fc 680052E3 		cmp	r2, #104
 612 0800 4C005313 		cmpne	r3, #76
 613 0804 7800000A 		beq	.L357
 614              	.L181:
 615 0808 252042E2 		sub	r2, r2, #37
 616 080c 530052E3 		cmp	r2, #83
 617 0810 02F19F97 		ldrls	pc, [pc, r2, asl #2]
 618 0814 D00000EA 		b	.L182
 619              	.L252:
 620 0818 6C110000 		.word	.L183
 621 081c 5C0B0000 		.word	.L182
 622 0820 5C0B0000 		.word	.L182
 623 0824 5C0B0000 		.word	.L182
 624 0828 5C0B0000 		.word	.L182
 625 082c 5C0B0000 		.word	.L182
 626 0830 5C0B0000 		.word	.L182
 627 0834 5C0B0000 		.word	.L182
ARM GAS  C:\Users\ldebo\AppData\Local\Temp\ccBZnoYF.s 			page 12


 628 0838 5C0B0000 		.word	.L182
 629 083c 5C0B0000 		.word	.L182
 630 0840 5C0B0000 		.word	.L182
 631 0844 5C0B0000 		.word	.L182
 632 0848 5C0B0000 		.word	.L182
 633 084c 5C0B0000 		.word	.L182
 634 0850 5C0B0000 		.word	.L182
 635 0854 5C0B0000 		.word	.L182
 636 0858 5C0B0000 		.word	.L182
 637 085c 5C0B0000 		.word	.L182
 638 0860 5C0B0000 		.word	.L182
 639 0864 5C0B0000 		.word	.L182
 640 0868 5C0B0000 		.word	.L182
 641 086c 5C0B0000 		.word	.L182
 642 0870 5C0B0000 		.word	.L182
 643 0874 5C0B0000 		.word	.L182
 644 0878 5C0B0000 		.word	.L182
 645 087c 5C0B0000 		.word	.L182
 646 0880 5C0B0000 		.word	.L182
 647 0884 5C0B0000 		.word	.L182
 648 0888 5C0B0000 		.word	.L182
 649 088c 5C0B0000 		.word	.L182
 650 0890 5C0B0000 		.word	.L182
 651 0894 5C0B0000 		.word	.L182
 652 0898 5C0B0000 		.word	.L182
 653 089c 5C0B0000 		.word	.L182
 654 08a0 5C0B0000 		.word	.L182
 655 08a4 5C0B0000 		.word	.L182
 656 08a8 5C0B0000 		.word	.L182
 657 08ac 5C0B0000 		.word	.L182
 658 08b0 5C0B0000 		.word	.L182
 659 08b4 5C0B0000 		.word	.L182
 660 08b8 5C0B0000 		.word	.L182
 661 08bc 5C0B0000 		.word	.L182
 662 08c0 5C0B0000 		.word	.L182
 663 08c4 5C0B0000 		.word	.L182
 664 08c8 5C0B0000 		.word	.L182
 665 08cc 5C0B0000 		.word	.L182
 666 08d0 5C0B0000 		.word	.L182
 667 08d4 5C0B0000 		.word	.L182
 668 08d8 5C0B0000 		.word	.L182
 669 08dc 5C0B0000 		.word	.L182
 670 08e0 5C0B0000 		.word	.L182
 671 08e4 D4110000 		.word	.L272
 672 08e8 5C0B0000 		.word	.L182
 673 08ec 5C0B0000 		.word	.L182
 674 08f0 5C0B0000 		.word	.L182
 675 08f4 5C0B0000 		.word	.L182
 676 08f8 5C0B0000 		.word	.L182
 677 08fc 5C0B0000 		.word	.L182
 678 0900 5C0B0000 		.word	.L182
 679 0904 5C0B0000 		.word	.L182
 680 0908 5C0B0000 		.word	.L182
 681 090c 5C0B0000 		.word	.L182
 682 0910 F40E0000 		.word	.L186
 683 0914 3C120000 		.word	.L273
 684 0918 5C0B0000 		.word	.L182
ARM GAS  C:\Users\ldebo\AppData\Local\Temp\ccBZnoYF.s 			page 13


 685 091c 5C0B0000 		.word	.L182
 686 0920 5C0B0000 		.word	.L182
 687 0924 5C0B0000 		.word	.L182
 688 0928 3C120000 		.word	.L273
 689 092c 5C0B0000 		.word	.L182
 690 0930 5C0B0000 		.word	.L182
 691 0934 5C0B0000 		.word	.L182
 692 0938 5C0B0000 		.word	.L182
 693 093c 54120000 		.word	.L243
 694 0940 30120000 		.word	.L274
 695 0944 B40E0000 		.word	.L190
 696 0948 5C0B0000 		.word	.L182
 697 094c 5C0B0000 		.word	.L182
 698 0950 900B0000 		.word	.L191
 699 0954 5C0B0000 		.word	.L182
 700 0958 18120000 		.word	.L275
 701 095c 5C0B0000 		.word	.L182
 702 0960 5C0B0000 		.word	.L182
 703 0964 24120000 		.word	.L276
 704              	.L173:
 705 0968 30A043E2 		sub	r10, r3, #48
 706              	.L172:
 707 096c FEFFFFEB 		bl	__locale_ctype_ptr
 708 0970 0940A0E1 		mov	r4, r9
 709 0974 0120D9E4 		ldrb	r2, [r9], #1	@ zero_extendqisi2
 710 0978 0A318AE0 		add	r3, r10, r10, lsl #2
 711 097c 020080E0 		add	r0, r0, r2
 712 0980 0110D0E5 		ldrb	r1, [r0, #1]	@ zero_extendqisi2
 713 0984 833082E0 		add	r3, r2, r3, lsl #1
 714 0988 040011E3 		tst	r1, #4
 715 098c F5FFFF1A 		bne	.L173
 716 0990 2E0052E3 		cmp	r2, #46
 717 0994 08C0A011 		movne	ip, r8
 718 0998 96FFFF1A 		bne	.L176
 719              	.L356:
 720 099c FEFFFFEB 		bl	__locale_ctype_ptr
 721 09a0 0120D4E5 		ldrb	r2, [r4, #1]	@ zero_extendqisi2
 722 09a4 019084E2 		add	r9, r4, #1
 723 09a8 020080E0 		add	r0, r0, r2
 724 09ac 01C0D0E5 		ldrb	ip, [r0, #1]	@ zero_extendqisi2
 725 09b0 04C01CE2 		ands	ip, ip, #4
 726 09b4 00B0A013 		movne	fp, #0
 727 09b8 F201001A 		bne	.L178
 728 09bc 2A0052E3 		cmp	r2, #42
 729 09c0 0940A011 		movne	r4, r9
 730 09c4 8BFFFF1A 		bne	.L176
 731 09c8 00B097E5 		ldr	fp, [r7]
 732 09cc 0220D4E5 		ldrb	r2, [r4, #2]	@ zero_extendqisi2
 733 09d0 047087E2 		add	r7, r7, #4
 734 09d4 024084E2 		add	r4, r4, #2
 735 09d8 CBCFCBE1 		bic	ip, fp, fp, asr #31
 736              	.L360:
 737 09dc DF3002E2 		and	r3, r2, #223
 738 09e0 680052E3 		cmp	r2, #104
 739 09e4 4C005313 		cmpne	r3, #76
 740 09e8 86FFFF1A 		bne	.L181
 741              	.L357:
ARM GAS  C:\Users\ldebo\AppData\Local\Temp\ccBZnoYF.s 			page 14


 742 09ec 0130D4E5 		ldrb	r3, [r4, #1]	@ zero_extendqisi2
 743 09f0 0210A0E1 		mov	r1, r2
 744 09f4 253043E2 		sub	r3, r3, #37
 745 09f8 019084E2 		add	r9, r4, #1
 746 09fc 530053E3 		cmp	r3, #83
 747 0a00 03F19F97 		ldrls	pc, [pc, r3, asl #2]
 748 0a04 530000EA 		b	.L257
 749              	.L184:
 750 0a08 68110000 		.word	.L258
 751 0a0c 580B0000 		.word	.L257
 752 0a10 580B0000 		.word	.L257
 753 0a14 580B0000 		.word	.L257
 754 0a18 580B0000 		.word	.L257
 755 0a1c 580B0000 		.word	.L257
 756 0a20 580B0000 		.word	.L257
 757 0a24 580B0000 		.word	.L257
 758 0a28 580B0000 		.word	.L257
 759 0a2c 580B0000 		.word	.L257
 760 0a30 580B0000 		.word	.L257
 761 0a34 580B0000 		.word	.L257
 762 0a38 580B0000 		.word	.L257
 763 0a3c 580B0000 		.word	.L257
 764 0a40 580B0000 		.word	.L257
 765 0a44 580B0000 		.word	.L257
 766 0a48 580B0000 		.word	.L257
 767 0a4c 580B0000 		.word	.L257
 768 0a50 580B0000 		.word	.L257
 769 0a54 580B0000 		.word	.L257
 770 0a58 580B0000 		.word	.L257
 771 0a5c 580B0000 		.word	.L257
 772 0a60 580B0000 		.word	.L257
 773 0a64 580B0000 		.word	.L257
 774 0a68 580B0000 		.word	.L257
 775 0a6c 580B0000 		.word	.L257
 776 0a70 580B0000 		.word	.L257
 777 0a74 580B0000 		.word	.L257
 778 0a78 580B0000 		.word	.L257
 779 0a7c 580B0000 		.word	.L257
 780 0a80 580B0000 		.word	.L257
 781 0a84 580B0000 		.word	.L257
 782 0a88 580B0000 		.word	.L257
 783 0a8c 580B0000 		.word	.L257
 784 0a90 580B0000 		.word	.L257
 785 0a94 580B0000 		.word	.L257
 786 0a98 580B0000 		.word	.L257
 787 0a9c 580B0000 		.word	.L257
 788 0aa0 580B0000 		.word	.L257
 789 0aa4 580B0000 		.word	.L257
 790 0aa8 580B0000 		.word	.L257
 791 0aac 580B0000 		.word	.L257
 792 0ab0 580B0000 		.word	.L257
 793 0ab4 580B0000 		.word	.L257
 794 0ab8 580B0000 		.word	.L257
 795 0abc 580B0000 		.word	.L257
 796 0ac0 580B0000 		.word	.L257
 797 0ac4 580B0000 		.word	.L257
 798 0ac8 580B0000 		.word	.L257
ARM GAS  C:\Users\ldebo\AppData\Local\Temp\ccBZnoYF.s 			page 15


 799 0acc 580B0000 		.word	.L257
 800 0ad0 580B0000 		.word	.L257
 801 0ad4 8C120000 		.word	.L259
 802 0ad8 580B0000 		.word	.L257
 803 0adc 580B0000 		.word	.L257
 804 0ae0 580B0000 		.word	.L257
 805 0ae4 580B0000 		.word	.L257
 806 0ae8 580B0000 		.word	.L257
 807 0aec 580B0000 		.word	.L257
 808 0af0 580B0000 		.word	.L257
 809 0af4 580B0000 		.word	.L257
 810 0af8 580B0000 		.word	.L257
 811 0afc 580B0000 		.word	.L257
 812 0b00 F00E0000 		.word	.L260
 813 0b04 74120000 		.word	.L261
 814 0b08 580B0000 		.word	.L257
 815 0b0c 580B0000 		.word	.L257
 816 0b10 580B0000 		.word	.L257
 817 0b14 580B0000 		.word	.L257
 818 0b18 74120000 		.word	.L261
 819 0b1c 580B0000 		.word	.L257
 820 0b20 580B0000 		.word	.L257
 821 0b24 580B0000 		.word	.L257
 822 0b28 580B0000 		.word	.L257
 823 0b2c 9C120000 		.word	.L188
 824 0b30 7C120000 		.word	.L262
 825 0b34 B00E0000 		.word	.L263
 826 0b38 580B0000 		.word	.L257
 827 0b3c 580B0000 		.word	.L257
 828 0b40 8C0B0000 		.word	.L264
 829 0b44 580B0000 		.word	.L257
 830 0b48 94120000 		.word	.L192
 831 0b4c 580B0000 		.word	.L257
 832 0b50 580B0000 		.word	.L257
 833 0b54 84120000 		.word	.L265
 834              	.L257:
 835 0b58 0940A0E1 		mov	r4, r9
 836              	.L182:
 837 0b5c 2530A0E3 		mov	r3, #37
 838 0b60 0030C5E5 		strb	r3, [r5]
 839 0b64 0030D4E5 		ldrb	r3, [r4]	@ zero_extendqisi2
 840 0b68 000053E3 		cmp	r3, #0
 841 0b6c D301001A 		bne	.L358
 842 0b70 015085E2 		add	r5, r5, #1
 843              	.L245:
 844 0b74 08309DE5 		ldr	r3, [sp, #8]
 845 0b78 030045E0 		sub	r0, r5, r3
 846              	.L159:
 847 0b7c 0030A0E3 		mov	r3, #0
 848 0b80 0030C5E5 		strb	r3, [r5]
 849 0b84 14D08DE2 		add	sp, sp, #20
 850              		@ sp needed
 851 0b88 F08FBDE8 		pop	{r4, r5, r6, r7, r8, r9, r10, fp, pc}
 852              	.L264:
 853 0b8c 0940A0E1 		mov	r4, r9
 854              	.L191:
 855 0b90 009097E5 		ldr	r9, [r7]
ARM GAS  C:\Users\ldebo\AppData\Local\Temp\ccBZnoYF.s 			page 16


 856 0b94 0C10A0E1 		mov	r1, ip
 857 0b98 0900A0E1 		mov	r0, r9
 858 0b9c FEFFFFEB 		bl	strnlen
 859 0ba0 100016E3 		tst	r6, #16
 860 0ba4 047087E2 		add	r7, r7, #4
 861 0ba8 4900001A 		bne	.L214
 862 0bac 00005AE1 		cmp	r10, r0
 863 0bb0 01204AE2 		sub	r2, r10, #1
 864 0bb4 E40100DA 		ble	.L268
 865 0bb8 003065E2 		rsb	r3, r5, #0
 866 0bbc 033003E2 		and	r3, r3, #3
 867 0bc0 00104AE0 		sub	r1, r10, r0
 868 0bc4 010053E1 		cmp	r3, r1
 869 0bc8 0130A021 		movcs	r3, r1
 870 0bcc 060051E3 		cmp	r1, #6
 871 0bd0 0130A091 		movls	r3, r1
 872 0bd4 000053E3 		cmp	r3, #0
 873 0bd8 D501000A 		beq	.L269
 874 0bdc 20E0A0E3 		mov	lr, #32
 875 0be0 010053E3 		cmp	r3, #1
 876 0be4 00E0C5E5 		strb	lr, [r5]
 877 0be8 01C085E2 		add	ip, r5, #1
 878 0bec 02204AE2 		sub	r2, r10, #2
 879 0bf0 1500000A 		beq	.L217
 880 0bf4 020053E3 		cmp	r3, #2
 881 0bf8 01E0C5E5 		strb	lr, [r5, #1]
 882 0bfc 02C085E2 		add	ip, r5, #2
 883 0c00 03204AE2 		sub	r2, r10, #3
 884 0c04 1000000A 		beq	.L217
 885 0c08 030053E3 		cmp	r3, #3
 886 0c0c 02E0C5E5 		strb	lr, [r5, #2]
 887 0c10 03C085E2 		add	ip, r5, #3
 888 0c14 04204AE2 		sub	r2, r10, #4
 889 0c18 0B00000A 		beq	.L217
 890 0c1c 040053E3 		cmp	r3, #4
 891 0c20 03E0C5E5 		strb	lr, [r5, #3]
 892 0c24 04C085E2 		add	ip, r5, #4
 893 0c28 05204AE2 		sub	r2, r10, #5
 894 0c2c 0600000A 		beq	.L217
 895 0c30 060053E3 		cmp	r3, #6
 896 0c34 05C085E2 		add	ip, r5, #5
 897 0c38 06204AE2 		sub	r2, r10, #6
 898 0c3c 04E0C5E5 		strb	lr, [r5, #4]
 899 0c40 05E0C505 		strbeq	lr, [r5, #5]
 900 0c44 07204A02 		subeq	r2, r10, #7
 901 0c48 06C08502 		addeq	ip, r5, #6
 902              	.L217:
 903 0c4c 030051E1 		cmp	r1, r3
 904 0c50 1D00000A 		beq	.L218
 905              	.L216:
 906 0c54 03B041E0 		sub	fp, r1, r3
 907 0c58 04E04BE2 		sub	lr, fp, #4
 908 0c5c 016041E2 		sub	r6, r1, #1
 909 0c60 2EE1A0E1 		lsr	lr, lr, #2
 910 0c64 036046E0 		sub	r6, r6, r3
 911 0c68 01E08EE2 		add	lr, lr, #1
 912 0c6c 020056E3 		cmp	r6, #2
ARM GAS  C:\Users\ldebo\AppData\Local\Temp\ccBZnoYF.s 			page 17


 913 0c70 0EA1A0E1 		lsl	r10, lr, #2
 914 0c74 0C00009A 		bls	.L219
 915 0c78 0060A0E3 		mov	r6, #0
 916 0c7c 033085E0 		add	r3, r5, r3
 917 0c80 0C208DE5 		str	r2, [sp, #12]
 918              	.L220:
 919 0c84 016086E2 		add	r6, r6, #1
 920 0c88 CC269FE5 		ldr	r2, .L363
 921 0c8c 0E0056E1 		cmp	r6, lr
 922 0c90 042083E4 		str	r2, [r3], #4
 923 0c94 FAFFFF3A 		bcc	.L220
 924 0c98 0C209DE5 		ldr	r2, [sp, #12]
 925 0c9c 0A005BE1 		cmp	fp, r10
 926 0ca0 0AC08CE0 		add	ip, ip, r10
 927 0ca4 0A2042E0 		sub	r2, r2, r10
 928 0ca8 0700000A 		beq	.L218
 929              	.L219:
 930 0cac 2030A0E3 		mov	r3, #32
 931 0cb0 020050E1 		cmp	r0, r2
 932 0cb4 0030CCE5 		strb	r3, [ip]
 933 0cb8 012042E2 		sub	r2, r2, #1
 934 0cbc 020000AA 		bge	.L218
 935 0cc0 020050E1 		cmp	r0, r2
 936 0cc4 0130CCE5 		strb	r3, [ip, #1]
 937 0cc8 0230CCB5 		strblt	r3, [ip, #2]
 938              	.L218:
 939 0ccc 015085E0 		add	r5, r5, r1
 940 0cd0 01A040E2 		sub	r10, r0, #1
 941              	.L214:
 942 0cd4 000050E3 		cmp	r0, #0
 943 0cd8 2A0000DA 		ble	.L224
 944 0cdc 043085E2 		add	r3, r5, #4
 945 0ce0 042089E2 		add	r2, r9, #4
 946 0ce4 020055E1 		cmp	r5, r2
 947 0ce8 03005931 		cmpcc	r9, r3
 948 0cec 0130A023 		movcs	r3, #1
 949 0cf0 0030A033 		movcc	r3, #0
 950 0cf4 052089E1 		orr	r2, r9, r5
 951 0cf8 090050E3 		cmp	r0, #9
 952 0cfc 0030A093 		movls	r3, #0
 953 0d00 01300382 		andhi	r3, r3, #1
 954 0d04 030012E3 		tst	r2, #3
 955 0d08 0030A013 		movne	r3, #0
 956 0d0c 01300302 		andeq	r3, r3, #1
 957 0d10 000053E3 		cmp	r3, #0
 958 0d14 7C01000A 		beq	.L225
 959 0d18 05E0A0E1 		mov	lr, r5
 960 0d1c 0010A0E3 		mov	r1, #0
 961 0d20 043040E2 		sub	r3, r0, #4
 962 0d24 2331A0E1 		lsr	r3, r3, #2
 963 0d28 013083E2 		add	r3, r3, #1
 964 0d2c 0321A0E1 		lsl	r2, r3, #2
 965 0d30 04C049E2 		sub	ip, r9, #4
 966              	.L226:
 967 0d34 011081E2 		add	r1, r1, #1
 968 0d38 0460BCE5 		ldr	r6, [ip, #4]!
 969 0d3c 010053E1 		cmp	r3, r1
ARM GAS  C:\Users\ldebo\AppData\Local\Temp\ccBZnoYF.s 			page 18


 970 0d40 04608EE4 		str	r6, [lr], #4
 971 0d44 FAFFFF8A 		bhi	.L226
 972 0d48 020050E1 		cmp	r0, r2
 973 0d4c 021085E0 		add	r1, r5, r2
 974 0d50 02C089E0 		add	ip, r9, r2
 975 0d54 0A00000A 		beq	.L231
 976 0d58 03E1D9E7 		ldrb	lr, [r9, r3, lsl #2]	@ zero_extendqisi2
 977 0d5c 016082E2 		add	r6, r2, #1
 978 0d60 060050E1 		cmp	r0, r6
 979 0d64 03E1C5E7 		strb	lr, [r5, r3, lsl #2]
 980 0d68 050000DA 		ble	.L231
 981 0d6c 022082E2 		add	r2, r2, #2
 982 0d70 0130DCE5 		ldrb	r3, [ip, #1]	@ zero_extendqisi2
 983 0d74 020050E1 		cmp	r0, r2
 984 0d78 0130C1E5 		strb	r3, [r1, #1]
 985 0d7c 0230DCC5 		ldrbgt	r3, [ip, #2]	@ zero_extendqisi2
 986 0d80 0230C1C5 		strbgt	r3, [r1, #2]
 987              	.L231:
 988 0d84 005085E0 		add	r5, r5, r0
 989              	.L224:
 990 0d88 00005AE1 		cmp	r10, r0
 991 0d8c 01204AE2 		sub	r2, r10, #1
 992 0d90 430000DA 		ble	.L348
 993 0d94 003065E2 		rsb	r3, r5, #0
 994 0d98 033003E2 		and	r3, r3, #3
 995 0d9c 00104AE0 		sub	r1, r10, r0
 996 0da0 010053E1 		cmp	r3, r1
 997 0da4 0130A021 		movcs	r3, r1
 998 0da8 060051E3 		cmp	r1, #6
 999 0dac 0130A091 		movls	r3, r1
 1000 0db0 000053E3 		cmp	r3, #0
 1001 0db4 4601000A 		beq	.L270
 1002 0db8 20E0A0E3 		mov	lr, #32
 1003 0dbc 010053E3 		cmp	r3, #1
 1004 0dc0 00E0C5E5 		strb	lr, [r5]
 1005 0dc4 01C085E2 		add	ip, r5, #1
 1006 0dc8 02204AE2 		sub	r2, r10, #2
 1007 0dcc 1500000A 		beq	.L235
 1008 0dd0 020053E3 		cmp	r3, #2
 1009 0dd4 01E0C5E5 		strb	lr, [r5, #1]
 1010 0dd8 02C085E2 		add	ip, r5, #2
 1011 0ddc 03204AE2 		sub	r2, r10, #3
 1012 0de0 1000000A 		beq	.L235
 1013 0de4 030053E3 		cmp	r3, #3
 1014 0de8 02E0C5E5 		strb	lr, [r5, #2]
 1015 0dec 03C085E2 		add	ip, r5, #3
 1016 0df0 04204AE2 		sub	r2, r10, #4
 1017 0df4 0B00000A 		beq	.L235
 1018 0df8 040053E3 		cmp	r3, #4
 1019 0dfc 03E0C5E5 		strb	lr, [r5, #3]
 1020 0e00 04C085E2 		add	ip, r5, #4
 1021 0e04 05204AE2 		sub	r2, r10, #5
 1022 0e08 0600000A 		beq	.L235
 1023 0e0c 060053E3 		cmp	r3, #6
 1024 0e10 05C085E2 		add	ip, r5, #5
 1025 0e14 06204AE2 		sub	r2, r10, #6
 1026 0e18 04E0C5E5 		strb	lr, [r5, #4]
ARM GAS  C:\Users\ldebo\AppData\Local\Temp\ccBZnoYF.s 			page 19


 1027 0e1c 05E0C505 		strbeq	lr, [r5, #5]
 1028 0e20 07204A02 		subeq	r2, r10, #7
 1029 0e24 06C08502 		addeq	ip, r5, #6
 1030              	.L235:
 1031 0e28 030051E1 		cmp	r1, r3
 1032 0e2c 1B00000A 		beq	.L236
 1033              	.L234:
 1034 0e30 036041E0 		sub	r6, r1, r3
 1035 0e34 049046E2 		sub	r9, r6, #4
 1036 0e38 01E041E2 		sub	lr, r1, #1
 1037 0e3c 2991A0E1 		lsr	r9, r9, #2
 1038 0e40 03E04EE0 		sub	lr, lr, r3
 1039 0e44 019089E2 		add	r9, r9, #1
 1040 0e48 02005EE3 		cmp	lr, #2
 1041 0e4c 09A1A0E1 		lsl	r10, r9, #2
 1042 0e50 0A00009A 		bls	.L237
 1043 0e54 00E0A0E3 		mov	lr, #0
 1044 0e58 033085E0 		add	r3, r5, r3
 1045              	.L238:
 1046 0e5c 01E08EE2 		add	lr, lr, #1
 1047 0e60 F4B49FE5 		ldr	fp, .L363
 1048 0e64 0E0059E1 		cmp	r9, lr
 1049 0e68 04B083E4 		str	fp, [r3], #4
 1050 0e6c FAFFFF8A 		bhi	.L238
 1051 0e70 0A0056E1 		cmp	r6, r10
 1052 0e74 0AC08CE0 		add	ip, ip, r10
 1053 0e78 0A2042E0 		sub	r2, r2, r10
 1054 0e7c 0700000A 		beq	.L236
 1055              	.L237:
 1056 0e80 20E0A0E3 		mov	lr, #32
 1057 0e84 020050E1 		cmp	r0, r2
 1058 0e88 013042E2 		sub	r3, r2, #1
 1059 0e8c 00E0CCE5 		strb	lr, [ip]
 1060 0e90 020000AA 		bge	.L236
 1061 0e94 030050E1 		cmp	r0, r3
 1062 0e98 01E0CCE5 		strb	lr, [ip, #1]
 1063 0e9c 02E0CCB5 		strblt	lr, [ip, #2]
 1064              	.L236:
 1065 0ea0 015085E0 		add	r5, r5, r1
 1066              	.L348:
 1067 0ea4 0130D4E5 		ldrb	r3, [r4, #1]	@ zero_extendqisi2
 1068 0ea8 0490A0E1 		mov	r9, r4
 1069 0eac 1BFEFFEA 		b	.L162
 1070              	.L263:
 1071 0eb0 0940A0E1 		mov	r4, r9
 1072              	.L190:
 1073 0eb4 01007AE3 		cmn	r10, #1
 1074 0eb8 08A0A003 		moveq	r10, #8
 1075 0ebc 01608603 		orreq	r6, r6, #1
 1076 0ec0 001097E5 		ldr	r1, [r7]
 1077 0ec4 0A30A0E1 		mov	r3, r10
 1078 0ec8 0500A0E1 		mov	r0, r5
 1079 0ecc 04608DE5 		str	r6, [sp, #4]
 1080 0ed0 00C08DE5 		str	ip, [sp]
 1081 0ed4 1020A0E3 		mov	r2, #16
 1082 0ed8 48FCFFEB 		bl	number
 1083 0edc 047087E2 		add	r7, r7, #4
ARM GAS  C:\Users\ldebo\AppData\Local\Temp\ccBZnoYF.s 			page 20


 1084 0ee0 0050A0E1 		mov	r5, r0
 1085 0ee4 0130D4E5 		ldrb	r3, [r4, #1]	@ zero_extendqisi2
 1086 0ee8 0490A0E1 		mov	r9, r4
 1087 0eec 0BFEFFEA 		b	.L162
 1088              	.L260:
 1089 0ef0 0940A0E1 		mov	r4, r9
 1090              	.L186:
 1091 0ef4 100016E3 		tst	r6, #16
 1092 0ef8 4A00001A 		bne	.L194
 1093 0efc 01204AE2 		sub	r2, r10, #1
 1094 0f00 000052E3 		cmp	r2, #0
 1095 0f04 120100DA 		ble	.L266
 1096 0f08 003065E2 		rsb	r3, r5, #0
 1097 0f0c 033003E2 		and	r3, r3, #3
 1098 0f10 020053E1 		cmp	r3, r2
 1099 0f14 0230A021 		movcs	r3, r2
 1100 0f18 060052E3 		cmp	r2, #6
 1101 0f1c 0230A091 		movls	r3, r2
 1102 0f20 000053E3 		cmp	r3, #0
 1103 0f24 0260A0E1 		mov	r6, r2
 1104 0f28 FE00000A 		beq	.L267
 1105 0f2c 20C0A0E3 		mov	ip, #32
 1106 0f30 02004AE2 		sub	r0, r10, #2
 1107 0f34 010053E3 		cmp	r3, #1
 1108 0f38 00C0C5E5 		strb	ip, [r5]
 1109 0f3c 0020A0E1 		mov	r2, r0
 1110 0f40 011085E2 		add	r1, r5, #1
 1111 0f44 1500000A 		beq	.L197
 1112 0f48 020053E3 		cmp	r3, #2
 1113 0f4c 01C0C5E5 		strb	ip, [r5, #1]
 1114 0f50 021085E2 		add	r1, r5, #2
 1115 0f54 03204AE2 		sub	r2, r10, #3
 1116 0f58 1000000A 		beq	.L197
 1117 0f5c 030053E3 		cmp	r3, #3
 1118 0f60 02C0C5E5 		strb	ip, [r5, #2]
 1119 0f64 031085E2 		add	r1, r5, #3
 1120 0f68 04204AE2 		sub	r2, r10, #4
 1121 0f6c 0B00000A 		beq	.L197
 1122 0f70 040053E3 		cmp	r3, #4
 1123 0f74 03C0C5E5 		strb	ip, [r5, #3]
 1124 0f78 041085E2 		add	r1, r5, #4
 1125 0f7c 05204AE2 		sub	r2, r10, #5
 1126 0f80 0600000A 		beq	.L197
 1127 0f84 060053E3 		cmp	r3, #6
 1128 0f88 051085E2 		add	r1, r5, #5
 1129 0f8c 06204AE2 		sub	r2, r10, #6
 1130 0f90 04C0C5E5 		strb	ip, [r5, #4]
 1131 0f94 05C0C505 		strbeq	ip, [r5, #5]
 1132 0f98 06108502 		addeq	r1, r5, #6
 1133 0f9c 07204A02 		subeq	r2, r10, #7
 1134              	.L197:
 1135 0fa0 030056E1 		cmp	r6, r3
 1136 0fa4 1C00000A 		beq	.L198
 1137              	.L196:
 1138 0fa8 03B046E0 		sub	fp, r6, r3
 1139 0fac 04C04BE2 		sub	ip, fp, #4
 1140 0fb0 2CC1A0E1 		lsr	ip, ip, #2
ARM GAS  C:\Users\ldebo\AppData\Local\Temp\ccBZnoYF.s 			page 21


 1141 0fb4 03E040E0 		sub	lr, r0, r3
 1142 0fb8 01C08CE2 		add	ip, ip, #1
 1143 0fbc 02005EE3 		cmp	lr, #2
 1144 0fc0 0C91A0E1 		lsl	r9, ip, #2
 1145 0fc4 0C00009A 		bls	.L199
 1146 0fc8 00E0A0E3 		mov	lr, #0
 1147 0fcc 033085E0 		add	r3, r5, r3
 1148 0fd0 0C208DE5 		str	r2, [sp, #12]
 1149              	.L200:
 1150 0fd4 01E08EE2 		add	lr, lr, #1
 1151 0fd8 7C239FE5 		ldr	r2, .L363
 1152 0fdc 0E005CE1 		cmp	ip, lr
 1153 0fe0 042083E4 		str	r2, [r3], #4
 1154 0fe4 FAFFFF8A 		bhi	.L200
 1155 0fe8 0C209DE5 		ldr	r2, [sp, #12]
 1156 0fec 09005BE1 		cmp	fp, r9
 1157 0ff0 091081E0 		add	r1, r1, r9
 1158 0ff4 092042E0 		sub	r2, r2, r9
 1159 0ff8 0700000A 		beq	.L198
 1160              	.L199:
 1161 0ffc 2030A0E3 		mov	r3, #32
 1162 1000 01C042E2 		sub	ip, r2, #1
 1163 1004 00005CE3 		cmp	ip, #0
 1164 1008 0030C1E5 		strb	r3, [r1]
 1165 100c 020000DA 		ble	.L198
 1166 1010 020052E3 		cmp	r2, #2
 1167 1014 0130C1E5 		strb	r3, [r1, #1]
 1168 1018 0230C115 		strbne	r3, [r1, #2]
 1169              	.L198:
 1170 101c 02A06AE2 		rsb	r10, r10, #2
 1171 1020 0AA080E0 		add	r10, r0, r10
 1172 1024 065085E0 		add	r5, r5, r6
 1173              	.L194:
 1174 1028 003097E5 		ldr	r3, [r7]
 1175 102c 01204AE2 		sub	r2, r10, #1
 1176 1030 000052E3 		cmp	r2, #0
 1177 1034 0030C5E5 		strb	r3, [r5]
 1178 1038 047087E2 		add	r7, r7, #4
 1179 103c 011085E2 		add	r1, r5, #1
 1180 1040 BD0000DA 		ble	.L359
 1181 1044 003061E2 		rsb	r3, r1, #0
 1182 1048 033003E2 		and	r3, r3, #3
 1183 104c 020053E1 		cmp	r3, r2
 1184 1050 0230A021 		movcs	r3, r2
 1185 1054 060052E3 		cmp	r2, #6
 1186 1058 0230A091 		movls	r3, r2
 1187 105c 000053E3 		cmp	r3, #0
 1188 1060 02C0A0E1 		mov	ip, r2
 1189 1064 02004A02 		subeq	r0, r10, #2
 1190 1068 1E00000A 		beq	.L206
 1191 106c 20E0A0E3 		mov	lr, #32
 1192 1070 02004AE2 		sub	r0, r10, #2
 1193 1074 010053E3 		cmp	r3, #1
 1194 1078 01E0C5E5 		strb	lr, [r5, #1]
 1195 107c 0020A0E1 		mov	r2, r0
 1196 1080 021085E2 		add	r1, r5, #2
 1197 1084 1500000A 		beq	.L207
ARM GAS  C:\Users\ldebo\AppData\Local\Temp\ccBZnoYF.s 			page 22


 1198 1088 020053E3 		cmp	r3, #2
 1199 108c 02E0C5E5 		strb	lr, [r5, #2]
 1200 1090 031085E2 		add	r1, r5, #3
 1201 1094 03204AE2 		sub	r2, r10, #3
 1202 1098 1000000A 		beq	.L207
 1203 109c 030053E3 		cmp	r3, #3
 1204 10a0 03E0C5E5 		strb	lr, [r5, #3]
 1205 10a4 041085E2 		add	r1, r5, #4
 1206 10a8 04204AE2 		sub	r2, r10, #4
 1207 10ac 0B00000A 		beq	.L207
 1208 10b0 040053E3 		cmp	r3, #4
 1209 10b4 04E0C5E5 		strb	lr, [r5, #4]
 1210 10b8 051085E2 		add	r1, r5, #5
 1211 10bc 05204AE2 		sub	r2, r10, #5
 1212 10c0 0600000A 		beq	.L207
 1213 10c4 060053E3 		cmp	r3, #6
 1214 10c8 061085E2 		add	r1, r5, #6
 1215 10cc 06204AE2 		sub	r2, r10, #6
 1216 10d0 05E0C5E5 		strb	lr, [r5, #5]
 1217 10d4 06E0C505 		strbeq	lr, [r5, #6]
 1218 10d8 07108502 		addeq	r1, r5, #7
 1219 10dc 07204A02 		subeq	r2, r10, #7
 1220              	.L207:
 1221 10e0 0C0053E1 		cmp	r3, ip
 1222 10e4 1B00000A 		beq	.L208
 1223              	.L206:
 1224 10e8 03C04CE0 		sub	ip, ip, r3
 1225 10ec 04E04CE2 		sub	lr, ip, #4
 1226 10f0 036040E0 		sub	r6, r0, r3
 1227 10f4 2E01A0E1 		lsr	r0, lr, #2
 1228 10f8 020056E3 		cmp	r6, #2
 1229 10fc 010080E2 		add	r0, r0, #1
 1230 1100 0061A0E1 		lsl	r6, r0, #2
 1231 1104 0B00009A 		bls	.L209
 1232 1108 00E0A0E3 		mov	lr, #0
 1233 110c 013083E2 		add	r3, r3, #1
 1234 1110 033085E0 		add	r3, r5, r3
 1235              	.L210:
 1236 1114 01E08EE2 		add	lr, lr, #1
 1237 1118 3C929FE5 		ldr	r9, .L363
 1238 111c 0E0050E1 		cmp	r0, lr
 1239 1120 049083E4 		str	r9, [r3], #4
 1240 1124 FAFFFF8A 		bhi	.L210
 1241 1128 0C0056E1 		cmp	r6, ip
 1242 112c 061081E0 		add	r1, r1, r6
 1243 1130 062042E0 		sub	r2, r2, r6
 1244 1134 0700000A 		beq	.L208
 1245              	.L209:
 1246 1138 2030A0E3 		mov	r3, #32
 1247 113c 010042E2 		sub	r0, r2, #1
 1248 1140 000050E3 		cmp	r0, #0
 1249 1144 0030C1E5 		strb	r3, [r1]
 1250 1148 020000DA 		ble	.L208
 1251 114c 020052E3 		cmp	r2, #2
 1252 1150 0130C1E5 		strb	r3, [r1, #1]
 1253 1154 0230C115 		strbne	r3, [r1, #2]
 1254              	.L208:
ARM GAS  C:\Users\ldebo\AppData\Local\Temp\ccBZnoYF.s 			page 23


 1255 1158 0A5085E0 		add	r5, r5, r10
 1256 115c 0130D4E5 		ldrb	r3, [r4, #1]	@ zero_extendqisi2
 1257 1160 0490A0E1 		mov	r9, r4
 1258 1164 6DFDFFEA 		b	.L162
 1259              	.L258:
 1260 1168 0940A0E1 		mov	r4, r9
 1261              	.L183:
 1262 116c 2530A0E3 		mov	r3, #37
 1263 1170 0030C5E5 		strb	r3, [r5]
 1264 1174 0130D4E5 		ldrb	r3, [r4, #1]	@ zero_extendqisi2
 1265 1178 015085E2 		add	r5, r5, #1
 1266 117c 0490A0E1 		mov	r9, r4
 1267 1180 66FDFFEA 		b	.L162
 1268              	.L179:
 1269 1184 30B043E2 		sub	fp, r3, #48
 1270              	.L178:
 1271 1188 FEFFFFEB 		bl	__locale_ctype_ptr
 1272 118c 0940A0E1 		mov	r4, r9
 1273 1190 0120D9E4 		ldrb	r2, [r9], #1	@ zero_extendqisi2
 1274 1194 0B318BE0 		add	r3, fp, fp, lsl #2
 1275 1198 020080E0 		add	r0, r0, r2
 1276 119c 0110D0E5 		ldrb	r1, [r0, #1]	@ zero_extendqisi2
 1277 11a0 833082E0 		add	r3, r2, r3, lsl #1
 1278 11a4 040011E3 		tst	r1, #4
 1279 11a8 F5FFFF1A 		bne	.L179
 1280 11ac CBCFCBE1 		bic	ip, fp, fp, asr #31
 1281 11b0 09FEFFEA 		b	.L360
 1282              	.L355:
 1283 11b4 00A097E5 		ldr	r10, [r7]
 1284 11b8 024089E2 		add	r4, r9, #2
 1285 11bc 00005AE3 		cmp	r10, #0
 1286 11c0 047087E2 		add	r7, r7, #4
 1287 11c4 00A06AB2 		rsblt	r10, r10, #0
 1288 11c8 106086B3 		orrlt	r6, r6, #16
 1289 11cc 0220D9E5 		ldrb	r2, [r9, #2]	@ zero_extendqisi2
 1290 11d0 85FDFFEA 		b	.L174
 1291              	.L272:
 1292 11d4 0810A0E1 		mov	r1, r8
 1293              	.L347:
 1294 11d8 0490A0E1 		mov	r9, r4
 1295 11dc 1020A0E3 		mov	r2, #16
 1296              	.L189:
 1297 11e0 6C0051E3 		cmp	r1, #108
 1298 11e4 3C00000A 		beq	.L361
 1299 11e8 680051E3 		cmp	r1, #104
 1300 11ec 3D00000A 		beq	.L362
 1301              	.L248:
 1302 11f0 001097E5 		ldr	r1, [r7]
 1303 11f4 047087E2 		add	r7, r7, #4
 1304              	.L247:
 1305 11f8 0A30A0E1 		mov	r3, r10
 1306 11fc 0500A0E1 		mov	r0, r5
 1307 1200 04608DE5 		str	r6, [sp, #4]
 1308 1204 00C08DE5 		str	ip, [sp]
 1309 1208 7CFBFFEB 		bl	number
 1310 120c 0130D9E5 		ldrb	r3, [r9, #1]	@ zero_extendqisi2
 1311 1210 0050A0E1 		mov	r5, r0
ARM GAS  C:\Users\ldebo\AppData\Local\Temp\ccBZnoYF.s 			page 24


 1312 1214 41FDFFEA 		b	.L162
 1313              	.L275:
 1314 1218 0490A0E1 		mov	r9, r4
 1315 121c 0A20A0E3 		mov	r2, #10
 1316 1220 F2FFFFEA 		b	.L248
 1317              	.L276:
 1318 1224 0810A0E1 		mov	r1, r8
 1319              	.L193:
 1320 1228 206086E3 		orr	r6, r6, #32
 1321 122c E9FFFFEA 		b	.L347
 1322              	.L274:
 1323 1230 0490A0E1 		mov	r9, r4
 1324 1234 0820A0E3 		mov	r2, #8
 1325 1238 ECFFFFEA 		b	.L248
 1326              	.L273:
 1327 123c 0810A0E1 		mov	r1, r8
 1328              	.L187:
 1329 1240 026086E3 		orr	r6, r6, #2
 1330 1244 0490A0E1 		mov	r9, r4
 1331 1248 0A20A0E3 		mov	r2, #10
 1332 124c E3FFFFEA 		b	.L189
 1333              	.L271:
 1334 1250 0940A0E1 		mov	r4, r9
 1335              	.L243:
 1336 1254 08209DE5 		ldr	r2, [sp, #8]
 1337 1258 003097E5 		ldr	r3, [r7]
 1338 125c 022045E0 		sub	r2, r5, r2
 1339 1260 002083E5 		str	r2, [r3]
 1340 1264 047087E2 		add	r7, r7, #4
 1341 1268 0130D4E5 		ldrb	r3, [r4, #1]	@ zero_extendqisi2
 1342 126c 0490A0E1 		mov	r9, r4
 1343 1270 2AFDFFEA 		b	.L162
 1344              	.L261:
 1345 1274 0940A0E1 		mov	r4, r9
 1346 1278 F0FFFFEA 		b	.L187
 1347              	.L262:
 1348 127c 0820A0E3 		mov	r2, #8
 1349 1280 D6FFFFEA 		b	.L189
 1350              	.L265:
 1351 1284 0940A0E1 		mov	r4, r9
 1352 1288 E6FFFFEA 		b	.L193
 1353              	.L259:
 1354 128c 0940A0E1 		mov	r4, r9
 1355 1290 D0FFFFEA 		b	.L347
 1356              	.L192:
 1357 1294 0A20A0E3 		mov	r2, #10
 1358 1298 D0FFFFEA 		b	.L189
 1359              	.L188:
 1360 129c 6C0052E3 		cmp	r2, #108
 1361 12a0 EAFFFF1A 		bne	.L271
 1362 12a4 08209DE5 		ldr	r2, [sp, #8]
 1363 12a8 003097E5 		ldr	r3, [r7]
 1364 12ac 022045E0 		sub	r2, r5, r2
 1365 12b0 002083E5 		str	r2, [r3]
 1366 12b4 047087E2 		add	r7, r7, #4
 1367 12b8 0230D4E5 		ldrb	r3, [r4, #2]	@ zero_extendqisi2
 1368 12bc 17FDFFEA 		b	.L162
ARM GAS  C:\Users\ldebo\AppData\Local\Temp\ccBZnoYF.s 			page 25


 1369              	.L358:
 1370 12c0 0130C5E5 		strb	r3, [r5, #1]
 1371 12c4 0130D4E5 		ldrb	r3, [r4, #1]	@ zero_extendqisi2
 1372 12c8 025085E2 		add	r5, r5, #2
 1373 12cc 0490A0E1 		mov	r9, r4
 1374 12d0 12FDFFEA 		b	.L162
 1375              	.L270:
 1376 12d4 05C0A0E1 		mov	ip, r5
 1377 12d8 D4FEFFEA 		b	.L234
 1378              	.L361:
 1379 12dc 001097E5 		ldr	r1, [r7]
 1380 12e0 047087E2 		add	r7, r7, #4
 1381 12e4 C3FFFFEA 		b	.L247
 1382              	.L362:
 1383 12e8 001097E5 		ldr	r1, [r7]
 1384 12ec 020016E3 		tst	r6, #2
 1385 12f0 043087E2 		add	r3, r7, #4
 1386 12f4 7110FF06 		uxtheq	r1, r1
 1387 12f8 7110BF16 		sxthne	r1, r1
 1388 12fc 0370A0E1 		mov	r7, r3
 1389 1300 BCFFFFEA 		b	.L247
 1390              	.L253:
 1391 1304 0300A0E1 		mov	r0, r3
 1392 1308 1BFEFFEA 		b	.L159
 1393              	.L225:
 1394 130c 013045E2 		sub	r3, r5, #1
 1395 1310 001089E0 		add	r1, r9, r0
 1396              	.L230:
 1397 1314 0120D9E4 		ldrb	r2, [r9], #1	@ zero_extendqisi2
 1398 1318 010059E1 		cmp	r9, r1
 1399 131c 0120E3E5 		strb	r2, [r3, #1]!
 1400 1320 FBFFFF1A 		bne	.L230
 1401 1324 96FEFFEA 		b	.L231
 1402              	.L267:
 1403 1328 0510A0E1 		mov	r1, r5
 1404 132c 02004AE2 		sub	r0, r10, #2
 1405 1330 1CFFFFEA 		b	.L196
 1406              	.L269:
 1407 1334 05C0A0E1 		mov	ip, r5
 1408 1338 45FEFFEA 		b	.L216
 1409              	.L359:
 1410 133c 0150A0E1 		mov	r5, r1
 1411 1340 0130D4E5 		ldrb	r3, [r4, #1]	@ zero_extendqisi2
 1412 1344 0490A0E1 		mov	r9, r4
 1413 1348 F4FCFFEA 		b	.L162
 1414              	.L268:
 1415 134c 02A0A0E1 		mov	r10, r2
 1416 1350 5FFEFFEA 		b	.L214
 1417              	.L266:
 1418 1354 02A0A0E1 		mov	r10, r2
 1419 1358 32FFFFEA 		b	.L194
 1420              	.L364:
 1421              		.align	2
 1422              	.L363:
 1423 135c 20202020 		.word	538976288
 1424              		.size	vsprintf, .-vsprintf
 1425              		.align	2
ARM GAS  C:\Users\ldebo\AppData\Local\Temp\ccBZnoYF.s 			page 26


 1426              		.global	sprintf
 1427              		.syntax unified
 1428              		.arm
 1429              		.fpu vfp
 1430              		.type	sprintf, %function
 1431              	sprintf:
 1432              		@ args = 4, pretend = 12, frame = 8
 1433              		@ frame_needed = 0, uses_anonymous_args = 1
 1434 1360 0E002DE9 		push	{r1, r2, r3}
 1435 1364 04E02DE5 		str	lr, [sp, #-4]!
 1436 1368 08D04DE2 		sub	sp, sp, #8
 1437 136c 10308DE2 		add	r3, sp, #16
 1438 1370 0320A0E1 		mov	r2, r3
 1439 1374 0C109DE5 		ldr	r1, [sp, #12]
 1440 1378 04308DE5 		str	r3, [sp, #4]
 1441 137c FEFFFFEB 		bl	vsprintf
 1442 1380 08D08DE2 		add	sp, sp, #8
 1443              		@ sp needed
 1444 1384 04E09DE4 		ldr	lr, [sp], #4
 1445 1388 0CD08DE2 		add	sp, sp, #12
 1446 138c 1EFF2FE1 		bx	lr
 1447              		.size	sprintf, .-sprintf
 1448              		.align	2
 1449              		.global	printf
 1450              		.syntax unified
 1451              		.arm
 1452              		.fpu vfp
 1453              		.type	printf, %function
 1454              	printf:
 1455              		@ args = 4, pretend = 16, frame = 520
 1456              		@ frame_needed = 0, uses_anonymous_args = 1
 1457 1390 0F002DE9 		push	{r0, r1, r2, r3}
 1458 1394 70402DE9 		push	{r4, r5, r6, lr}
 1459 1398 82DF4DE2 		sub	sp, sp, #520
 1460 139c 873F8DE2 		add	r3, sp, #540
 1461 13a0 0320A0E1 		mov	r2, r3
 1462 13a4 08008DE2 		add	r0, sp, #8
 1463 13a8 18129DE5 		ldr	r1, [sp, #536]
 1464 13ac 04308DE5 		str	r3, [sp, #4]
 1465 13b0 FEFFFFEB 		bl	vsprintf
 1466 13b4 006050E2 		subs	r6, r0, #0
 1467 13b8 070000DA 		ble	.L367
 1468 13bc 08308DE2 		add	r3, sp, #8
 1469 13c0 015046E2 		sub	r5, r6, #1
 1470 13c4 055083E0 		add	r5, r3, r5
 1471 13c8 014043E2 		sub	r4, r3, #1
 1472              	.L369:
 1473 13cc 0100F4E5 		ldrb	r0, [r4, #1]!	@ zero_extendqisi2
 1474 13d0 FEFFFFEB 		bl	Embedded_Console_WriteChar
 1475 13d4 050054E1 		cmp	r4, r5
 1476 13d8 FBFFFF1A 		bne	.L369
 1477              	.L367:
 1478 13dc 0600A0E1 		mov	r0, r6
 1479 13e0 82DF8DE2 		add	sp, sp, #520
 1480              		@ sp needed
 1481 13e4 7040BDE8 		pop	{r4, r5, r6, lr}
 1482 13e8 10D08DE2 		add	sp, sp, #16
ARM GAS  C:\Users\ldebo\AppData\Local\Temp\ccBZnoYF.s 			page 27


 1483 13ec 1EFF2FE1 		bx	lr
 1484              		.size	printf, .-printf
 1485              		.section	.rodata
 1486              		.align	2
 1487              		.set	.LANCHOR0,. + 0
 1488              		.type	digits.5895, %object
 1489              		.size	digits.5895, 16
 1490              	digits.5895:
 1491 0000 30313233 		.ascii	"0123456789ABCDEF"
 1491      34353637 
 1491      38394142 
 1491      43444546 
 1492              		.ident	"GCC: (GNU Tools for ARM Embedded Processors 6-2017-q2-update) 6.3.1 20170620 (release) [AR
ARM GAS  C:\Users\ldebo\AppData\Local\Temp\ccBZnoYF.s 			page 28


DEFINED SYMBOLS
                            *ABS*:00000000 emb-stdio.c
C:\Users\ldebo\AppData\Local\Temp\ccBZnoYF.s:16     .text:00000000 $a
C:\Users\ldebo\AppData\Local\Temp\ccBZnoYF.s:21     .text:00000000 number
C:\Users\ldebo\AppData\Local\Temp\ccBZnoYF.s:515    .text:000006dc $d
C:\Users\ldebo\AppData\Local\Temp\ccBZnoYF.s:519    .text:000006e8 $a
C:\Users\ldebo\AppData\Local\Temp\ccBZnoYF.s:525    .text:000006e8 vsprintf
C:\Users\ldebo\AppData\Local\Temp\ccBZnoYF.s:559    .text:00000750 $d
C:\Users\ldebo\AppData\Local\Temp\ccBZnoYF.s:577    .text:00000794 $a
C:\Users\ldebo\AppData\Local\Temp\ccBZnoYF.s:620    .text:00000818 $d
C:\Users\ldebo\AppData\Local\Temp\ccBZnoYF.s:705    .text:00000968 $a
C:\Users\ldebo\AppData\Local\Temp\ccBZnoYF.s:750    .text:00000a08 $d
C:\Users\ldebo\AppData\Local\Temp\ccBZnoYF.s:835    .text:00000b58 $a
C:\Users\ldebo\AppData\Local\Temp\ccBZnoYF.s:1423   .text:0000135c $d
C:\Users\ldebo\AppData\Local\Temp\ccBZnoYF.s:1425   .text:00001360 $a
C:\Users\ldebo\AppData\Local\Temp\ccBZnoYF.s:1431   .text:00001360 sprintf
C:\Users\ldebo\AppData\Local\Temp\ccBZnoYF.s:1454   .text:00001390 printf
C:\Users\ldebo\AppData\Local\Temp\ccBZnoYF.s:1486   .rodata:00000000 $d
C:\Users\ldebo\AppData\Local\Temp\ccBZnoYF.s:1490   .rodata:00000000 digits.5895

UNDEFINED SYMBOLS
__aeabi_uidiv
__aeabi_uidivmod
__locale_ctype_ptr
strnlen
Embedded_Console_WriteChar
ARM GAS  C:\Users\ldebo\AppData\Local\Temp\ccBZnoYF.s 			page 1


   1              		.arch armv6zk
   2              		.eabi_attribute 28, 1
   3              		.eabi_attribute 20, 1
   4              		.eabi_attribute 21, 1
   5              		.eabi_attribute 23, 3
   6              		.eabi_attribute 24, 1
   7              		.eabi_attribute 25, 1
   8              		.eabi_attribute 26, 1
   9              		.eabi_attribute 30, 2
  10              		.eabi_attribute 34, 0
  11              		.eabi_attribute 18, 4
  12              		.file	"SDCard.c"
  13              		.text
  14              		.align	2
  15              		.syntax unified
  16              		.arm
  17              		.fpu vfp
  18              		.type	sdWaitForData, %function
  19              	sdWaitForData:
  20              		@ args = 0, pretend = 0, frame = 0
  21              		@ frame_needed = 0, uses_anonymous_args = 0
  22 0000 F84F2DE9 		push	{r3, r4, r5, r6, r7, r8, r9, r10, fp, lr}
  23 0004 DC908FE2 		adr	r9, .L17
  24 0008 D080C9E1 		ldrd	r8, [r9]
  25 000c 0040A0E3 		mov	r4, #0
  26 0010 0050A0E3 		mov	r5, #0
  27 0014 0460A0E1 		mov	r6, r4
  28 0018 0570A0E1 		mov	r7, r5
  29 001c CCA09FE5 		ldr	r10, .L17+8
  30 0020 CCB09FE5 		ldr	fp, .L17+12
  31              	.L2:
  32 0024 00309AE5 		ldr	r3, [r10]
  33 0028 033683E2 		add	r3, r3, #3145728
  34 002c 242093E5 		ldr	r2, [r3, #36]
  35 0030 241083E2 		add	r1, r3, #36
  36 0034 020012E3 		tst	r2, #2
  37 0038 1400000A 		beq	.L5
  38 003c 302093E5 		ldr	r2, [r3, #48]
  39 0040 0B0012E1 		tst	r2, fp
  40 0044 1100001A 		bne	.L5
  41 0048 090057E1 		cmp	r7, r9
  42 004c 08005601 		cmpeq	r6, r8
  43 0050 1800008A 		bhi	.L9
  44 0054 053094E1 		orrs	r3, r4, r5
  45 0058 0300001A 		bne	.L3
  46 005c FEFFFFEB 		bl	timer_getTickCount
  47 0060 0040A0E1 		mov	r4, r0
  48 0064 0150A0E1 		mov	r5, r1
  49 0068 EDFFFFEA 		b	.L2
  50              	.L3:
  51 006c FEFFFFEB 		bl	timer_getTickCount
  52 0070 0020A0E1 		mov	r2, r0
  53 0074 0130A0E1 		mov	r3, r1
  54 0078 0400A0E1 		mov	r0, r4
  55 007c 0510A0E1 		mov	r1, r5
  56 0080 FEFFFFEB 		bl	tick_difference
  57 0084 0060A0E1 		mov	r6, r0
ARM GAS  C:\Users\ldebo\AppData\Local\Temp\ccBZnoYF.s 			page 2


  58 0088 0170A0E1 		mov	r7, r1
  59 008c E4FFFFEA 		b	.L2
  60              	.L5:
  61 0090 50508FE2 		adr	r5, .L17
  62 0094 D040C5E1 		ldrd	r4, [r5]
  63 0098 050057E1 		cmp	r7, r5
  64 009c 04005601 		cmpeq	r6, r4
  65 00a0 0400008A 		bhi	.L9
  66 00a4 302093E5 		ldr	r2, [r3, #48]
  67 00a8 44009FE5 		ldr	r0, .L17+12
  68 00ac 020000E0 		and	r0, r0, r2
  69 00b0 000050E3 		cmp	r0, #0
  70 00b4 0A00000A 		beq	.L16
  71              	.L9:
  72 00b8 38209FE5 		ldr	r2, .L17+16
  73 00bc 004092E5 		ldr	r4, [r2]
  74 00c0 000054E3 		cmp	r4, #0
  75 00c4 0400000A 		beq	.L14
  76 00c8 001091E5 		ldr	r1, [r1]
  77 00cc 28009FE5 		ldr	r0, .L17+20
  78 00d0 302093E5 		ldr	r2, [r3, #48]
  79 00d4 103093E5 		ldr	r3, [r3, #16]
  80 00d8 34FF2FE1 		blx	r4
  81              	.L14:
  82 00dc 0300A0E3 		mov	r0, #3
  83 00e0 F88FBDE8 		pop	{r3, r4, r5, r6, r7, r8, r9, r10, fp, pc}
  84              	.L16:
  85 00e4 F88FBDE8 		pop	{r3, r4, r5, r6, r7, r8, r9, r10, fp, pc}
  86              	.L18:
  87              		.align	3
  88              	.L17:
  89 00e8 1FA10700 		.word	499999
  90 00ec 00000000 		.word	0
  91 00f0 00000000 		.word	RPi_IO_Base_Addr
  92 00f4 00807E01 		.word	25067520
  93 00f8 00000000 		.word	.LANCHOR0
  94 00fc 00000000 		.word	.LC0
  95              		.size	sdWaitForData, .-sdWaitForData
  96              		.align	2
  97              		.syntax unified
  98              		.arm
  99              		.fpu vfp
 100              		.type	sdWaitForInterrupt, %function
 101              	sdWaitForInterrupt:
 102              		@ args = 0, pretend = 0, frame = 8
 103              		@ frame_needed = 0, uses_anonymous_args = 0
 104 0100 F04F2DE9 		push	{r4, r5, r6, r7, r8, r9, r10, fp, lr}
 105 0104 539F8FE2 		adr	r9, .L43
 106 0108 D080C9E1 		ldrd	r8, [r9]
 107 010c 0040A0E3 		mov	r4, #0
 108 0110 0050A0E3 		mov	r5, #0
 109 0114 04A0A0E1 		mov	r10, r4
 110 0118 05B0A0E1 		mov	fp, r5
 111 011c 14D04DE2 		sub	sp, sp, #20
 112 0120 5F6780E3 		orr	r6, r0, #24903680
 113 0124 34719FE5 		ldr	r7, .L43+8
 114 0128 0C008DE5 		str	r0, [sp, #12]
ARM GAS  C:\Users\ldebo\AppData\Local\Temp\ccBZnoYF.s 			page 3


 115 012c 0A6986E3 		orr	r6, r6, #163840
 116              	.L20:
 117 0130 00C097E5 		ldr	ip, [r7]
 118 0134 03C68CE2 		add	ip, ip, #3145728
 119 0138 30109CE5 		ldr	r1, [ip, #48]
 120 013c 30E08CE2 		add	lr, ip, #48
 121 0140 010016E1 		tst	r6, r1
 122 0144 1100001A 		bne	.L23
 123 0148 09005BE1 		cmp	fp, r9
 124 014c 08005A01 		cmpeq	r10, r8
 125 0150 2800008A 		bhi	.L42
 126 0154 053094E1 		orrs	r3, r4, r5
 127 0158 0300001A 		bne	.L21
 128 015c FEFFFFEB 		bl	timer_getTickCount
 129 0160 0040A0E1 		mov	r4, r0
 130 0164 0150A0E1 		mov	r5, r1
 131 0168 F0FFFFEA 		b	.L20
 132              	.L21:
 133 016c FEFFFFEB 		bl	timer_getTickCount
 134 0170 0020A0E1 		mov	r2, r0
 135 0174 0130A0E1 		mov	r3, r1
 136 0178 0400A0E1 		mov	r0, r4
 137 017c 0510A0E1 		mov	r1, r5
 138 0180 FEFFFFEB 		bl	tick_difference
 139 0184 00A0A0E1 		mov	r10, r0
 140 0188 01B0A0E1 		mov	fp, r1
 141 018c E7FFFFEA 		b	.L20
 142              	.L23:
 143 0190 C0108FE2 		adr	r1, .L43
 144 0194 D000C1E1 		ldrd	r0, [r1]
 145 0198 01005BE1 		cmp	fp, r1
 146 019c 00005A01 		cmpeq	r10, r0
 147 01a0 00409EE5 		ldr	r4, [lr]
 148 01a4 0100008A 		bhi	.L26
 149 01a8 110814E3 		tst	r4, #1114112
 150 01ac 1300000A 		beq	.L27
 151              	.L26:
 152 01b0 AC309FE5 		ldr	r3, .L43+12
 153 01b4 005093E5 		ldr	r5, [r3]
 154 01b8 000055E3 		cmp	r5, #0
 155 01bc 0900000A 		beq	.L28
 156 01c0 24209CE5 		ldr	r2, [ip, #36]
 157 01c4 10309CE5 		ldr	r3, [ip, #16]
 158 01c8 0C109DE5 		ldr	r1, [sp, #12]
 159 01cc 00308DE5 		str	r3, [sp]
 160 01d0 90009FE5 		ldr	r0, .L43+16
 161 01d4 0430A0E1 		mov	r3, r4
 162 01d8 35FF2FE1 		blx	r5
 163 01dc 00E097E5 		ldr	lr, [r7]
 164 01e0 03E68EE2 		add	lr, lr, #3145728
 165 01e4 30E08EE2 		add	lr, lr, #48
 166              	.L28:
 167 01e8 0200A0E3 		mov	r0, #2
 168 01ec 00408EE5 		str	r4, [lr]
 169              	.L39:
 170 01f0 14D08DE2 		add	sp, sp, #20
 171              		@ sp needed
ARM GAS  C:\Users\ldebo\AppData\Local\Temp\ccBZnoYF.s 			page 4


 172 01f4 F08FBDE8 		pop	{r4, r5, r6, r7, r8, r9, r10, fp, pc}
 173              	.L42:
 174 01f8 00409EE5 		ldr	r4, [lr]
 175 01fc EBFFFFEA 		b	.L26
 176              	.L27:
 177 0200 64009FE5 		ldr	r0, .L43+20
 178 0204 040000E0 		and	r0, r0, r4
 179 0208 000050E3 		cmp	r0, #0
 180 020c 0E00000A 		beq	.L30
 181 0210 4C309FE5 		ldr	r3, .L43+12
 182 0214 005093E5 		ldr	r5, [r3]
 183 0218 000055E3 		cmp	r5, #0
 184 021c 0700000A 		beq	.L31
 185 0220 24109CE5 		ldr	r1, [ip, #36]
 186 0224 0420A0E1 		mov	r2, r4
 187 0228 10309CE5 		ldr	r3, [ip, #16]
 188 022c 3C009FE5 		ldr	r0, .L43+24
 189 0230 35FF2FE1 		blx	r5
 190 0234 00E097E5 		ldr	lr, [r7]
 191 0238 03E68EE2 		add	lr, lr, #3145728
 192 023c 30E08EE2 		add	lr, lr, #48
 193              	.L31:
 194 0240 00408EE5 		str	r4, [lr]
 195 0244 0100A0E3 		mov	r0, #1
 196 0248 E8FFFFEA 		b	.L39
 197              	.L30:
 198 024c 0C309DE5 		ldr	r3, [sp, #12]
 199 0250 00308EE5 		str	r3, [lr]
 200 0254 E5FFFFEA 		b	.L39
 201              	.L44:
 202              		.align	3
 203              	.L43:
 204 0258 3F420F00 		.word	999999
 205 025c 00000000 		.word	0
 206 0260 00000000 		.word	RPi_IO_Base_Addr
 207 0264 00000000 		.word	.LANCHOR0
 208 0268 30000000 		.word	.LC1
 209 026c 00807E01 		.word	25067520
 210 0270 68000000 		.word	.LC2
 211              		.size	sdWaitForInterrupt, .-sdWaitForInterrupt
 212              		.global	__aeabi_uidiv
 213              		.align	2
 214              		.syntax unified
 215              		.arm
 216              		.fpu vfp
 217              		.type	sdSetClock, %function
 218              	sdSetClock:
 219              		@ args = 0, pretend = 0, frame = 0
 220              		@ frame_needed = 0, uses_anonymous_args = 0
 221 0274 F84F2DE9 		push	{r3, r4, r5, r6, r7, r8, r9, r10, fp, lr}
 222 0278 299E8FE2 		adr	r9, .L84
 223 027c D080C9E1 		ldrd	r8, [r9]
 224 0280 0040A0E3 		mov	r4, #0
 225 0284 0050A0E3 		mov	r5, #0
 226 0288 00B0A0E1 		mov	fp, r0
 227 028c 0460A0E1 		mov	r6, r4
 228 0290 0570A0E1 		mov	r7, r5
ARM GAS  C:\Users\ldebo\AppData\Local\Temp\ccBZnoYF.s 			page 5


 229 0294 7CA29FE5 		ldr	r10, .L84+8
 230              	.L46:
 231 0298 00309AE5 		ldr	r3, [r10]
 232 029c 033683E2 		add	r3, r3, #3145728
 233 02a0 242093E5 		ldr	r2, [r3, #36]
 234 02a4 241083E2 		add	r1, r3, #36
 235 02a8 010012E3 		tst	r2, #1
 236 02ac 0200001A 		bne	.L49
 237 02b0 242093E5 		ldr	r2, [r3, #36]
 238 02b4 020012E3 		tst	r2, #2
 239 02b8 2200000A 		beq	.L50
 240              	.L49:
 241 02bc 090057E1 		cmp	r7, r9
 242 02c0 08005601 		cmpeq	r6, r8
 243 02c4 0E00008A 		bhi	.L52
 244 02c8 053094E1 		orrs	r3, r4, r5
 245 02cc 0300001A 		bne	.L47
 246 02d0 FEFFFFEB 		bl	timer_getTickCount
 247 02d4 0040A0E1 		mov	r4, r0
 248 02d8 0150A0E1 		mov	r5, r1
 249 02dc EDFFFFEA 		b	.L46
 250              	.L47:
 251 02e0 FEFFFFEB 		bl	timer_getTickCount
 252 02e4 0020A0E1 		mov	r2, r0
 253 02e8 0130A0E1 		mov	r3, r1
 254 02ec 0400A0E1 		mov	r0, r4
 255 02f0 0510A0E1 		mov	r1, r5
 256 02f4 FEFFFFEB 		bl	tick_difference
 257 02f8 0060A0E1 		mov	r6, r0
 258 02fc 0170A0E1 		mov	r7, r1
 259 0300 E4FFFFEA 		b	.L46
 260              	.L52:
 261 0304 10329FE5 		ldr	r3, .L84+12
 262 0308 003093E5 		ldr	r3, [r3]
 263 030c 000053E3 		cmp	r3, #0
 264 0310 0A00000A 		beq	.L82
 265 0314 001091E5 		ldr	r1, [r1]
 266 0318 00029FE5 		ldr	r0, .L84+16
 267 031c 33FF2FE1 		blx	r3
 268 0320 0700A0E3 		mov	r0, #7
 269 0324 F88FBDE8 		pop	{r3, r4, r5, r6, r7, r8, r9, r10, fp, pc}
 270              	.L71:
 271 0328 EC319FE5 		ldr	r3, .L84+12
 272 032c 003093E5 		ldr	r3, [r3]
 273 0330 000053E3 		cmp	r3, #0
 274 0334 0100000A 		beq	.L82
 275 0338 E4019FE5 		ldr	r0, .L84+20
 276 033c 33FF2FE1 		blx	r3
 277              	.L82:
 278 0340 0700A0E3 		mov	r0, #7
 279 0344 F88FBDE8 		pop	{r3, r4, r5, r6, r7, r8, r9, r10, fp, pc}
 280              	.L50:
 281 0348 075D8FE2 		adr	r5, .L84
 282 034c D040C5E1 		ldrd	r4, [r5]
 283 0350 050057E1 		cmp	r7, r5
 284 0354 04005601 		cmpeq	r6, r4
 285 0358 E9FFFF8A 		bhi	.L52
ARM GAS  C:\Users\ldebo\AppData\Local\Temp\ccBZnoYF.s 			page 6


 286 035c 2C2093E5 		ldr	r2, [r3, #44]
 287 0360 0A00A0E3 		mov	r0, #10
 288 0364 0420C2E3 		bic	r2, r2, #4
 289 0368 2C2083E5 		str	r2, [r3, #44]
 290 036c 0010A0E3 		mov	r1, #0
 291 0370 FEFFFFEB 		bl	timer_wait
 292 0374 AC019FE5 		ldr	r0, .L84+24
 293 0378 0B10A0E1 		mov	r1, fp
 294 037c 00008BE0 		add	r0, fp, r0
 295 0380 FEFFFFEB 		bl	__aeabi_uidiv
 296 0384 00209AE5 		ldr	r2, [r10]
 297 0388 010B50E3 		cmp	r0, #1024
 298 038c 032682E2 		add	r2, r2, #3145728
 299 0390 FC3092E5 		ldr	r3, [r2, #252]
 300 0394 2338A0E1 		lsr	r3, r3, #16
 301 0398 7330EFE6 		uxtb	r3, r3
 302 039c 2900002A 		bcs	.L56
 303 03a0 010053E3 		cmp	r3, #1
 304 03a4 3B00009A 		bls	.L83
 305 03a8 020050E3 		cmp	r0, #2
 306 03ac 011BA093 		movls	r1, #1024
 307 03b0 74119F85 		ldrhi	r1, .L84+28
 308 03b4 2031A081 		lsrhi	r3, r0, #2
 309 03b8 00140180 		andhi	r1, r1, r0, lsl #8
 310 03bc C0300382 		andhi	r3, r3, #192
 311 03c0 01108381 		orrhi	r1, r3, r1
 312              	.L65:
 313 03c4 0040A0E3 		mov	r4, #0
 314 03c8 057D8FE2 		adr	r7, .L84
 315 03cc D060C7E1 		ldrd	r6, [r7]
 316 03d0 0050A0E3 		mov	r5, #0
 317 03d4 0480A0E1 		mov	r8, r4
 318 03d8 0590A0E1 		mov	r9, r5
 319 03dc 2C3092E5 		ldr	r3, [r2, #44]
 320 03e0 0A00A0E3 		mov	r0, #10
 321 03e4 FF3CC3E3 		bic	r3, r3, #65280
 322 03e8 E030C3E3 		bic	r3, r3, #224
 323 03ec 013083E1 		orr	r3, r3, r1
 324 03f0 2C3082E5 		str	r3, [r2, #44]
 325 03f4 0010A0E3 		mov	r1, #0
 326 03f8 FEFFFFEB 		bl	timer_wait
 327 03fc 00309AE5 		ldr	r3, [r10]
 328 0400 033683E2 		add	r3, r3, #3145728
 329 0404 2C2093E5 		ldr	r2, [r3, #44]
 330 0408 042082E3 		orr	r2, r2, #4
 331 040c 2C2083E5 		str	r2, [r3, #44]
 332              	.L66:
 333 0410 00309AE5 		ldr	r3, [r10]
 334 0414 033683E2 		add	r3, r3, #3145728
 335 0418 2C3093E5 		ldr	r3, [r3, #44]
 336 041c 020013E3 		tst	r3, #2
 337 0420 1500001A 		bne	.L69
 338 0424 070059E1 		cmp	r9, r7
 339 0428 06005801 		cmpeq	r8, r6
 340 042c BDFFFF8A 		bhi	.L71
 341 0430 053094E1 		orrs	r3, r4, r5
 342 0434 0700001A 		bne	.L67
ARM GAS  C:\Users\ldebo\AppData\Local\Temp\ccBZnoYF.s 			page 7


 343 0438 FEFFFFEB 		bl	timer_getTickCount
 344 043c 0040A0E1 		mov	r4, r0
 345 0440 0150A0E1 		mov	r5, r1
 346 0444 F1FFFFEA 		b	.L66
 347              	.L56:
 348 0448 010053E3 		cmp	r3, #1
 349 044c 2A00009A 		bls	.L76
 350 0450 D8109FE5 		ldr	r1, .L84+32
 351 0454 DAFFFFEA 		b	.L65
 352              	.L67:
 353 0458 FEFFFFEB 		bl	timer_getTickCount
 354 045c 0020A0E1 		mov	r2, r0
 355 0460 0130A0E1 		mov	r3, r1
 356 0464 0400A0E1 		mov	r0, r4
 357 0468 0510A0E1 		mov	r1, r5
 358 046c FEFFFFEB 		bl	tick_difference
 359 0470 0080A0E1 		mov	r8, r0
 360 0474 0190A0E1 		mov	r9, r1
 361 0478 E4FFFFEA 		b	.L66
 362              	.L69:
 363 047c 8C308FE2 		adr	r3, .L84
 364 0480 D020C3E1 		ldrd	r2, [r3]
 365 0484 030059E1 		cmp	r9, r3
 366 0488 02005801 		cmpeq	r8, r2
 367 048c A5FFFF8A 		bhi	.L71
 368 0490 0000A0E3 		mov	r0, #0
 369 0494 F88FBDE8 		pop	{r3, r4, r5, r6, r7, r8, r9, r10, fp, pc}
 370              	.L83:
 371 0498 000050E3 		cmp	r0, #0
 372 049c 011CA003 		moveq	r1, #256
 373 04a0 C7FFFF0A 		beq	.L65
 374 04a4 0038A0E1 		lsl	r3, r0, #16
 375 04a8 FF0413E3 		tst	r3, #-16777216
 376 04ac 003AA011 		lslne	r3, r0, #20
 377 04b0 0C10A013 		movne	r1, #12
 378 04b4 1200001A 		bne	.L60
 379 04b8 003CA0E1 		lsl	r3, r0, #24
 380 04bc 0F0213E3 		tst	r3, #-268435456
 381 04c0 003EA001 		lsleq	r3, r0, #28
 382 04c4 03010312 		andne	r0, r3, #-1073741824
 383 04c8 03010302 		andeq	r0, r3, #-1073741824
 384 04cc 0810A013 		movne	r1, #8
 385 04d0 0410A003 		moveq	r1, #4
 386 04d4 000050E3 		cmp	r0, #0
 387 04d8 0900000A 		beq	.L60
 388              	.L63:
 389 04dc 000053E3 		cmp	r3, #0
 390 04e0 011041A2 		subge	r1, r1, #1
 391 04e4 011041E2 		sub	r1, r1, #1
 392 04e8 070051E3 		cmp	r1, #7
 393 04ec 0710A023 		movcs	r1, #7
 394 04f0 013CA0E3 		mov	r3, #256
 395 04f4 1311A0E1 		lsl	r1, r3, r1
 396 04f8 B1FFFFEA 		b	.L65
 397              	.L76:
 398 04fc 0C10A0E3 		mov	r1, #12
 399 0500 2C309FE5 		ldr	r3, .L84+36
ARM GAS  C:\Users\ldebo\AppData\Local\Temp\ccBZnoYF.s 			page 8


 400              	.L60:
 401 0504 0331A0E1 		lsl	r3, r3, #2
 402 0508 021041E2 		sub	r1, r1, #2
 403 050c F2FFFFEA 		b	.L63
 404              	.L85:
 405              		.align	3
 406              	.L84:
 407 0510 9F860100 		.word	99999
 408 0514 00000000 		.word	0
 409 0518 00000000 		.word	RPi_IO_Base_Addr
 410 051c 00000000 		.word	.LANCHOR0
 411 0520 9C000000 		.word	.LC3
 412 0524 E0000000 		.word	.LC4
 413 0528 6AC87B02 		.word	41666666
 414 052c FFFF0000 		.word	65535
 415 0530 C0FF0000 		.word	65472
 416 0534 0000F03F 		.word	1072693248
 417              		.size	sdSetClock, .-sdSetClock
 418              		.align	2
 419              		.syntax unified
 420              		.arm
 421              		.fpu vfp
 422              		.type	ReadLFNEntry, %function
 423              	ReadLFNEntry:
 424              		@ args = 0, pretend = 0, frame = 0
 425              		@ frame_needed = 0, uses_anonymous_args = 0
 426 0538 F0412DE9 		push	{r4, r5, r6, r7, r8, lr}
 427 053c 006050E2 		subs	r6, r0, #0
 428 0540 0150A0E1 		mov	r5, r1
 429 0544 2200000A 		beq	.L96
 430 0548 0670A0E1 		mov	r7, r6
 431 054c 0040A0E3 		mov	r4, #0
 432 0550 018041E2 		sub	r8, r1, #1
 433              	.L89:
 434 0554 0230D7E5 		ldrb	r3, [r7, #2]	@ zero_extendqisi2
 435 0558 0100D7E5 		ldrb	r0, [r7, #1]	@ zero_extendqisi2
 436 055c 030490E1 		orrs	r0, r0, r3, lsl #8
 437 0560 0400001A 		bne	.L102
 438              	.L93:
 439 0564 0430A0E1 		mov	r3, r4
 440              	.L87:
 441 0568 0020A0E3 		mov	r2, #0
 442 056c 0400A0E1 		mov	r0, r4
 443 0570 0320C5E7 		strb	r2, [r5, r3]
 444 0574 F081BDE8 		pop	{r4, r5, r6, r7, r8, pc}
 445              	.L102:
 446 0578 FEFFFFEB 		bl	wctob
 447 057c 014084E2 		add	r4, r4, #1
 448 0580 7440EFE6 		uxtb	r4, r4
 449 0584 050054E3 		cmp	r4, #5
 450 0588 0100E8E5 		strb	r0, [r8, #1]!
 451 058c 027087E2 		add	r7, r7, #2
 452 0590 EFFFFF1A 		bne	.L89
 453 0594 0070A0E3 		mov	r7, #0
 454              	.L92:
 455 0598 043087E2 		add	r3, r7, #4
 456 059c 833086E0 		add	r3, r6, r3, lsl #1
ARM GAS  C:\Users\ldebo\AppData\Local\Temp\ccBZnoYF.s 			page 9


 457 05a0 0600D3E5 		ldrb	r0, [r3, #6]	@ zero_extendqisi2
 458 05a4 0730D3E5 		ldrb	r3, [r3, #7]	@ zero_extendqisi2
 459 05a8 030490E1 		orrs	r0, r0, r3, lsl #8
 460 05ac ECFFFF0A 		beq	.L93
 461 05b0 FEFFFFEB 		bl	wctob
 462 05b4 017087E2 		add	r7, r7, #1
 463 05b8 018084E2 		add	r8, r4, #1
 464 05bc 060057E3 		cmp	r7, #6
 465 05c0 7880EFE6 		uxtb	r8, r8
 466 05c4 0400C5E7 		strb	r0, [r5, r4]
 467 05c8 0400000A 		beq	.L103
 468 05cc 0840A0E1 		mov	r4, r8
 469 05d0 F0FFFFEA 		b	.L92
 470              	.L96:
 471 05d4 0630A0E1 		mov	r3, r6
 472 05d8 0640A0E1 		mov	r4, r6
 473 05dc E1FFFFEA 		b	.L87
 474              	.L103:
 475 05e0 1C00D6E5 		ldrb	r0, [r6, #28]	@ zero_extendqisi2
 476 05e4 1D30D6E5 		ldrb	r3, [r6, #29]	@ zero_extendqisi2
 477 05e8 030490E1 		orrs	r0, r0, r3, lsl #8
 478 05ec 0840A001 		moveq	r4, r8
 479 05f0 DBFFFF0A 		beq	.L93
 480 05f4 FEFFFFEB 		bl	wctob
 481 05f8 0800C5E7 		strb	r0, [r5, r8]
 482 05fc 1E00D6E5 		ldrb	r0, [r6, #30]	@ zero_extendqisi2
 483 0600 1F30D6E5 		ldrb	r3, [r6, #31]	@ zero_extendqisi2
 484 0604 027084E2 		add	r7, r4, #2
 485 0608 7770EFE6 		uxtb	r7, r7
 486 060c 030490E1 		orrs	r0, r0, r3, lsl #8
 487 0610 0740A001 		moveq	r4, r7
 488 0614 D2FFFF0A 		beq	.L93
 489 0618 FEFFFFEB 		bl	wctob
 490 061c 034084E2 		add	r4, r4, #3
 491 0620 7440EFE6 		uxtb	r4, r4
 492 0624 0430A0E1 		mov	r3, r4
 493 0628 0700C5E7 		strb	r0, [r5, r7]
 494 062c CDFFFFEA 		b	.L87
 495              		.size	ReadLFNEntry, .-ReadLFNEntry
 496              		.align	2
 497              		.syntax unified
 498              		.arm
 499              		.fpu vfp
 500              		.type	SetFindDataFromFATEntry.part.0, %function
 501              	SetFindDataFromFATEntry.part.0:
 502              		@ args = 0, pretend = 0, frame = 0
 503              		@ frame_needed = 0, uses_anonymous_args = 0
 504 0630 04C080E2 		add	ip, r0, #4
 505 0634 5E2F81E2 		add	r2, r1, #376
 506 0638 5F3F81E2 		add	r3, r1, #380
 507 063c 000053E1 		cmp	r3, r0
 508 0640 02005C81 		cmphi	ip, r2
 509 0644 0B30D0E5 		ldrb	r3, [r0, #11]	@ zero_extendqisi2
 510 0648 01C0A093 		movls	ip, #1
 511 064c 6C3081E5 		str	r3, [r1, #108]
 512 0650 1920D0E5 		ldrb	r2, [r0, #25]	@ zero_extendqisi2
 513 0654 1830D0E5 		ldrb	r3, [r0, #24]	@ zero_extendqisi2
ARM GAS  C:\Users\ldebo\AppData\Local\Temp\ccBZnoYF.s 			page 10


 514 0658 00C0A083 		movhi	ip, #0
 515 065c 023483E1 		orr	r3, r3, r2, lsl #8
 516 0660 C322A0E1 		asr	r2, r3, #5
 517 0664 0F2002E2 		and	r2, r2, #15
 518 0668 030010E3 		tst	r0, #3
 519 066c 012042E2 		sub	r2, r2, #1
 520 0670 102081E5 		str	r2, [r1, #16]
 521 0674 00C0A013 		movne	ip, #0
 522 0678 0020A0E3 		mov	r2, #0
 523 067c 04E02DE5 		str	lr, [sp, #-4]!
 524 0680 A3E4A0E1 		lsr	lr, r3, #9
 525 0684 50E08EE2 		add	lr, lr, #80
 526 0688 1F3003E2 		and	r3, r3, #31
 527 068c 14E081E5 		str	lr, [r1, #20]
 528 0690 0C3081E5 		str	r3, [r1, #12]
 529 0694 17E0D0E5 		ldrb	lr, [r0, #23]	@ zero_extendqisi2
 530 0698 1630D0E5 		ldrb	r3, [r0, #22]	@ zero_extendqisi2
 531 069c 01C00C02 		andeq	ip, ip, #1
 532 06a0 0E3483E1 		orr	r3, r3, lr, lsl #8
 533 06a4 C3E2A0E1 		asr	lr, r3, #5
 534 06a8 02005CE1 		cmp	ip, r2
 535 06ac 83C0A0E1 		lsl	ip, r3, #1
 536 06b0 3FE00EE2 		and	lr, lr, #63
 537 06b4 3EC00CE2 		and	ip, ip, #62
 538 06b8 005081E8 		stm	r1, {ip, lr}
 539 06bc A335A0E1 		lsr	r3, r3, #11
 540 06c0 083081E5 		str	r3, [r1, #8]
 541 06c4 13C0D0E5 		ldrb	ip, [r0, #19]	@ zero_extendqisi2
 542 06c8 1230D0E5 		ldrb	r3, [r0, #18]	@ zero_extendqisi2
 543 06cc 0C3483E1 		orr	r3, r3, ip, lsl #8
 544 06d0 C3C2A0E1 		asr	ip, r3, #5
 545 06d4 A3E4A0E1 		lsr	lr, r3, #9
 546 06d8 0FC00CE2 		and	ip, ip, #15
 547 06dc 50E08EE2 		add	lr, lr, #80
 548 06e0 01C04CE2 		sub	ip, ip, #1
 549 06e4 1F3003E2 		and	r3, r3, #31
 550 06e8 38E081E5 		str	lr, [r1, #56]
 551 06ec 34C081E5 		str	ip, [r1, #52]
 552 06f0 303081E5 		str	r3, [r1, #48]
 553 06f4 11C0D0E5 		ldrb	ip, [r0, #17]	@ zero_extendqisi2
 554 06f8 1030D0E5 		ldrb	r3, [r0, #16]	@ zero_extendqisi2
 555 06fc 0C3483E1 		orr	r3, r3, ip, lsl #8
 556 0700 C3C2A0E1 		asr	ip, r3, #5
 557 0704 A3E4A0E1 		lsr	lr, r3, #9
 558 0708 0FC00CE2 		and	ip, ip, #15
 559 070c 50E08EE2 		add	lr, lr, #80
 560 0710 01C04CE2 		sub	ip, ip, #1
 561 0714 1F3003E2 		and	r3, r3, #31
 562 0718 5CE081E5 		str	lr, [r1, #92]
 563 071c 58C081E5 		str	ip, [r1, #88]
 564 0720 543081E5 		str	r3, [r1, #84]
 565 0724 0FC0D0E5 		ldrb	ip, [r0, #15]	@ zero_extendqisi2
 566 0728 0E30D0E5 		ldrb	r3, [r0, #14]	@ zero_extendqisi2
 567 072c 0C3483E1 		orr	r3, r3, ip, lsl #8
 568 0730 C3E2A0E1 		asr	lr, r3, #5
 569 0734 83C0A0E1 		lsl	ip, r3, #1
 570 0738 3FE00EE2 		and	lr, lr, #63
ARM GAS  C:\Users\ldebo\AppData\Local\Temp\ccBZnoYF.s 			page 11


 571 073c A335A0E1 		lsr	r3, r3, #11
 572 0740 3EC00CE2 		and	ip, ip, #62
 573 0744 503081E5 		str	r3, [r1, #80]
 574 0748 4CE081E5 		str	lr, [r1, #76]
 575 074c 48C081E5 		str	ip, [r1, #72]
 576 0750 1DC0D0E5 		ldrb	ip, [r0, #29]	@ zero_extendqisi2
 577 0754 1C30D0E5 		ldrb	r3, [r0, #28]	@ zero_extendqisi2
 578 0758 1EE0D0E5 		ldrb	lr, [r0, #30]	@ zero_extendqisi2
 579 075c 0C3483E1 		orr	r3, r3, ip, lsl #8
 580 0760 1FC0D0E5 		ldrb	ip, [r0, #31]	@ zero_extendqisi2
 581 0764 0E3883E1 		orr	r3, r3, lr, lsl #16
 582 0768 0C3C83E1 		orr	r3, r3, ip, lsl #24
 583 076c 743081E5 		str	r3, [r1, #116]
 584 0770 702081E5 		str	r2, [r1, #112]
 585 0774 0A00000A 		beq	.L105
 586 0778 003090E5 		ldr	r3, [r0]
 587 077c 783181E5 		str	r3, [r1, #376]
 588 0780 043090E5 		ldr	r3, [r0, #4]
 589 0784 7C3181E5 		str	r3, [r1, #380]
 590              	.L108:
 591 0788 0830D0E5 		ldrb	r3, [r0, #8]	@ zero_extendqisi2
 592 078c 8031C1E5 		strb	r3, [r1, #384]
 593 0790 0930D0E5 		ldrb	r3, [r0, #9]	@ zero_extendqisi2
 594 0794 8131C1E5 		strb	r3, [r1, #385]
 595 0798 0A30D0E5 		ldrb	r3, [r0, #10]	@ zero_extendqisi2
 596 079c 8231C1E5 		strb	r3, [r1, #386]
 597 07a0 04F09DE4 		ldr	pc, [sp], #4
 598              	.L105:
 599 07a4 0030D0E5 		ldrb	r3, [r0]	@ zero_extendqisi2
 600 07a8 7831C1E5 		strb	r3, [r1, #376]
 601 07ac 0130D0E5 		ldrb	r3, [r0, #1]	@ zero_extendqisi2
 602 07b0 7931C1E5 		strb	r3, [r1, #377]
 603 07b4 0230D0E5 		ldrb	r3, [r0, #2]	@ zero_extendqisi2
 604 07b8 7A31C1E5 		strb	r3, [r1, #378]
 605 07bc 0330D0E5 		ldrb	r3, [r0, #3]	@ zero_extendqisi2
 606 07c0 7B31C1E5 		strb	r3, [r1, #379]
 607 07c4 0430D0E5 		ldrb	r3, [r0, #4]	@ zero_extendqisi2
 608 07c8 7C31C1E5 		strb	r3, [r1, #380]
 609 07cc 0530D0E5 		ldrb	r3, [r0, #5]	@ zero_extendqisi2
 610 07d0 7D31C1E5 		strb	r3, [r1, #381]
 611 07d4 0630D0E5 		ldrb	r3, [r0, #6]	@ zero_extendqisi2
 612 07d8 7E31C1E5 		strb	r3, [r1, #382]
 613 07dc 0730D0E5 		ldrb	r3, [r0, #7]	@ zero_extendqisi2
 614 07e0 7F31C1E5 		strb	r3, [r1, #383]
 615 07e4 E7FFFFEA 		b	.L108
 616              		.size	SetFindDataFromFATEntry.part.0, .-SetFindDataFromFATEntry.part.0
 617              		.align	2
 618              		.syntax unified
 619              		.arm
 620              		.fpu vfp
 621              		.type	sdSendCommandP, %function
 622              	sdSendCommandP:
 623              		@ args = 0, pretend = 0, frame = 24
 624              		@ frame_needed = 0, uses_anonymous_args = 0
 625 07e8 F04F2DE9 		push	{r4, r5, r6, r7, r8, r9, r10, fp, lr}
 626 07ec 8F9F8FE2 		adr	r9, .L143
 627 07f0 D080C9E1 		ldrd	r8, [r9]
ARM GAS  C:\Users\ldebo\AppData\Local\Temp\ccBZnoYF.s 			page 12


 628 07f4 0040A0E3 		mov	r4, #0
 629 07f8 0050A0E3 		mov	r5, #0
 630 07fc 04A0A0E1 		mov	r10, r4
 631 0800 05B0A0E1 		mov	fp, r5
 632 0804 1CD04DE2 		sub	sp, sp, #28
 633 0808 03008DE8 		stm	sp, {r0, r1}
 634 080c 24629FE5 		ldr	r6, .L143+8
 635 0810 24729FE5 		ldr	r7, .L143+12
 636              	.L110:
 637 0814 000096E5 		ldr	r0, [r6]
 638 0818 030680E2 		add	r0, r0, #3145728
 639 081c 24C090E5 		ldr	ip, [r0, #36]
 640 0820 241080E2 		add	r1, r0, #36
 641 0824 01001CE3 		tst	ip, #1
 642 0828 1400000A 		beq	.L113
 643 082c 30C090E5 		ldr	ip, [r0, #48]
 644 0830 07001CE1 		tst	ip, r7
 645 0834 1100001A 		bne	.L113
 646 0838 09005BE1 		cmp	fp, r9
 647 083c 08005A01 		cmpeq	r10, r8
 648 0840 1800008A 		bhi	.L115
 649 0844 053094E1 		orrs	r3, r4, r5
 650 0848 0300001A 		bne	.L111
 651 084c FEFFFFEB 		bl	timer_getTickCount
 652 0850 0040A0E1 		mov	r4, r0
 653 0854 0150A0E1 		mov	r5, r1
 654 0858 EDFFFFEA 		b	.L110
 655              	.L111:
 656 085c FEFFFFEB 		bl	timer_getTickCount
 657 0860 0020A0E1 		mov	r2, r0
 658 0864 0130A0E1 		mov	r3, r1
 659 0868 0400A0E1 		mov	r0, r4
 660 086c 0510A0E1 		mov	r1, r5
 661 0870 FEFFFFEB 		bl	tick_difference
 662 0874 00A0A0E1 		mov	r10, r0
 663 0878 01B0A0E1 		mov	fp, r1
 664 087c E4FFFFEA 		b	.L110
 665              	.L113:
 666 0880 6A5F8FE2 		adr	r5, .L143
 667 0884 D040C5E1 		ldrd	r4, [r5]
 668 0888 05005BE1 		cmp	fp, r5
 669 088c 04005A01 		cmpeq	r10, r4
 670 0890 0400008A 		bhi	.L115
 671 0894 302090E5 		ldr	r2, [r0, #48]
 672 0898 9C319FE5 		ldr	r3, .L143+12
 673 089c 023003E0 		and	r3, r3, r2
 674 08a0 000053E3 		cmp	r3, #0
 675 08a4 0C00000A 		beq	.L116
 676              	.L115:
 677 08a8 90319FE5 		ldr	r3, .L143+16
 678 08ac 004093E5 		ldr	r4, [r3]
 679 08b0 000054E3 		cmp	r4, #0
 680 08b4 0300A003 		moveq	r0, #3
 681 08b8 0500000A 		beq	.L109
 682 08bc 001091E5 		ldr	r1, [r1]
 683 08c0 302090E5 		ldr	r2, [r0, #48]
 684 08c4 103090E5 		ldr	r3, [r0, #16]
ARM GAS  C:\Users\ldebo\AppData\Local\Temp\ccBZnoYF.s 			page 13


 685 08c8 74019FE5 		ldr	r0, .L143+20
 686 08cc 34FF2FE1 		blx	r4
 687 08d0 0300A0E3 		mov	r0, #3
 688              	.L109:
 689 08d4 1CD08DE2 		add	sp, sp, #28
 690              		@ sp needed
 691 08d8 F08FBDE8 		pop	{r4, r5, r6, r7, r8, r9, r10, fp, pc}
 692              	.L116:
 693 08dc 00209DE5 		ldr	r2, [sp]
 694 08e0 58419FE5 		ldr	r4, .L143+16
 695 08e4 04109DE5 		ldr	r1, [sp, #4]
 696 08e8 502084E5 		str	r2, [r4, #80]
 697 08ec 303090E5 		ldr	r3, [r0, #48]
 698 08f0 303080E5 		str	r3, [r0, #48]
 699 08f4 003096E5 		ldr	r3, [r6]
 700 08f8 B601D2E1 		ldrh	r0, [r2, #22]
 701 08fc 033683E2 		add	r3, r3, #3145728
 702 0900 081083E5 		str	r1, [r3, #8]
 703 0904 003096E5 		ldr	r3, [r6]
 704 0908 102092E5 		ldr	r2, [r2, #16]
 705 090c 033683E2 		add	r3, r3, #3145728
 706 0910 000050E3 		cmp	r0, #0
 707 0914 0C2083E5 		str	r2, [r3, #12]
 708 0918 3800001A 		bne	.L140
 709              	.L130:
 710 091c 0100A0E3 		mov	r0, #1
 711 0920 F6FDFFEB 		bl	sdWaitForInterrupt
 712 0924 000050E3 		cmp	r0, #0
 713 0928 E9FFFF1A 		bne	.L109
 714 092c 003096E5 		ldr	r3, [r6]
 715 0930 00209DE5 		ldr	r2, [sp]
 716 0934 033683E2 		add	r3, r3, #3145728
 717 0938 101093E5 		ldr	r1, [r3, #16]
 718 093c 1220D2E5 		ldrb	r2, [r2, #18]	@ zero_extendqisi2
 719 0940 032002E2 		and	r2, r2, #3
 720 0944 020052E3 		cmp	r2, #2
 721 0948 1100000A 		beq	.L119
 722 094c 2E00008A 		bhi	.L137
 723 0950 010052E3 		cmp	r2, #1
 724 0954 DEFFFF1A 		bne	.L109
 725 0958 00209DE5 		ldr	r2, [sp]
 726 095c 4C0084E5 		str	r0, [r4, #76]
 727 0960 102092E5 		ldr	r2, [r2, #16]
 728 0964 222CA0E1 		lsr	r2, r2, #24
 729 0968 3F2002E2 		and	r2, r2, #63
 730 096c 090052E3 		cmp	r2, #9
 731 0970 3700000A 		beq	.L141
 732 0974 141084E5 		str	r1, [r4, #20]
 733 0978 142093E5 		ldr	r2, [r3, #20]
 734 097c 102084E5 		str	r2, [r4, #16]
 735 0980 182093E5 		ldr	r2, [r3, #24]
 736 0984 0C2084E5 		str	r2, [r4, #12]
 737 0988 1C3093E5 		ldr	r3, [r3, #28]
 738 098c 083084E5 		str	r3, [r4, #8]
 739 0990 CFFFFFEA 		b	.L109
 740              	.L119:
 741 0994 00309DE5 		ldr	r3, [sp]
ARM GAS  C:\Users\ldebo\AppData\Local\Temp\ccBZnoYF.s 			page 14


 742 0998 103093E5 		ldr	r3, [r3, #16]
 743 099c 233CA0E1 		lsr	r3, r3, #24
 744 09a0 3F3003E2 		and	r3, r3, #63
 745 09a4 080053E3 		cmp	r3, #8
 746 09a8 1B00000A 		beq	.L123
 747 09ac 290053E3 		cmp	r3, #41
 748 09b0 C500000A 		beq	.L124
 749 09b4 030053E3 		cmp	r3, #3
 750 09b8 1300001A 		bne	.L137
 751 09bc 0124A0E1 		lsl	r2, r1, #8
 752 09c0 0133A0E1 		lsl	r3, r1, #6
 753 09c4 01C502E2 		and	ip, r2, #4194304
 754 09c8 8109A0E1 		lsl	r0, r1, #19
 755 09cc 023703E2 		and	r3, r3, #524288
 756 09d0 A009A0E1 		lsr	r0, r0, #19
 757 09d4 0C3083E1 		orr	r3, r3, ip
 758 09d8 003083E1 		orr	r3, r3, r0
 759 09dc 022502E2 		and	r2, r2, #8388608
 760 09e0 2118A0E1 		lsr	r1, r1, #16
 761 09e4 5C009FE5 		ldr	r0, .L143+24
 762 09e8 023083E1 		orr	r3, r3, r2
 763 09ec 0118A0E1 		lsl	r1, r1, #16
 764 09f0 4C3084E5 		str	r3, [r4, #76]
 765 09f4 441084E5 		str	r1, [r4, #68]
 766 09f8 030000E0 		and	r0, r0, r3
 767 09fc B4FFFFEA 		b	.L109
 768              	.L140:
 769 0a00 0010A0E3 		mov	r1, #0
 770 0a04 FEFFFFEB 		bl	timer_wait
 771 0a08 C3FFFFEA 		b	.L130
 772              	.L137:
 773 0a0c 38009FE5 		ldr	r0, .L143+28
 774 0a10 4C1084E5 		str	r1, [r4, #76]
 775 0a14 010000E0 		and	r0, r0, r1
 776 0a18 ADFFFFEA 		b	.L109
 777              	.L123:
 778 0a1c 04309DE5 		ldr	r3, [sp, #4]
 779 0a20 4C0084E5 		str	r0, [r4, #76]
 780 0a24 010053E0 		subs	r0, r3, r1
 781 0a28 0100A013 		movne	r0, #1
 782 0a2c A8FFFFEA 		b	.L109
 783              	.L144:
 784              		.align	3
 785              	.L143:
 786 0a30 3F420F00 		.word	999999
 787 0a34 00000000 		.word	0
 788 0a38 00000000 		.word	RPi_IO_Base_Addr
 789 0a3c 00807E01 		.word	25067520
 790 0a40 00000000 		.word	.LANCHOR0
 791 0a44 0C010000 		.word	.LC5
 792 0a48 0400C800 		.word	13107204
 793 0a4c 04C0F9FF 		.word	-409596
 794 0a50 FC0F0000 		.word	4092
 795              	.L141:
 796 0a54 107093E5 		ldr	r7, [r3, #16]
 797 0a58 14E093E5 		ldr	lr, [r3, #20]
 798 0a5c 181093E5 		ldr	r1, [r3, #24]
ARM GAS  C:\Users\ldebo\AppData\Local\Temp\ccBZnoYF.s 			page 15


 799 0a60 1E20D4E5 		ldrb	r2, [r4, #30]	@ zero_extendqisi2
 800 0a64 0C108DE5 		str	r1, [sp, #12]
 801 0a68 0D50DDE5 		ldrb	r5, [sp, #13]	@ zero_extendqisi2
 802 0a6c 0E80DDE5 		ldrb	r8, [sp, #14]	@ zero_extendqisi2
 803 0a70 BCC1D4E1 		ldrh	ip, [r4, #28]
 804 0a74 1C1093E5 		ldr	r1, [r3, #28]
 805 0a78 2562A0E1 		lsr	r6, r5, #4
 806 0a7c 0C30DDE5 		ldrb	r3, [sp, #12]	@ zero_extendqisi2
 807 0a80 086286E1 		orr	r6, r6, r8, lsl #4
 808 0a84 2CC6A0E1 		lsr	ip, ip, #12
 809 0a88 06CA8CE1 		orr	ip, ip, r6, lsl #20
 810 0a8c 0120C2E3 		bic	r2, r2, #1
 811 0a90 2168A0E1 		lsr	r6, r1, #16
 812 0a94 7680EFE6 		uxtb	r8, r6
 813 0a98 A32382E1 		orr	r2, r2, r3, lsr #7
 814 0a9c A362A0E1 		lsr	r6, r3, #5
 815 0aa0 026006E2 		and	r6, r6, #2
 816 0aa4 F92002E2 		and	r2, r2, #249
 817 0aa8 062082E1 		orr	r2, r2, r6
 818 0aac A361A0E1 		lsr	r6, r3, #3
 819 0ab0 6CCAA0E1 		ror	ip, ip, #20
 820 0ab4 046006E2 		and	r6, r6, #4
 821 0ab8 10E08DE5 		str	lr, [sp, #16]
 822 0abc 062082E1 		orr	r2, r2, r6
 823 0ac0 2CE4A0E1 		lsr	lr, ip, #8
 824 0ac4 3F6008E2 		and	r6, r8, #63
 825 0ac8 BCC1C4E1 		strh	ip, [r4, #28]	@ movhi
 826 0acc 0F5005E2 		and	r5, r5, #15
 827 0ad0 0661A0E1 		lsl	r6, r6, #2
 828 0ad4 0FE00EE2 		and	lr, lr, #15
 829 0ad8 A3C0A0E1 		lsr	ip, r3, #1
 830 0adc 286386E1 		orr	r6, r6, r8, lsr #6
 831 0ae0 08C00CE2 		and	ip, ip, #8
 832 0ae4 0820C2E3 		bic	r2, r2, #8
 833 0ae8 05E28EE1 		orr	lr, lr, r5, lsl #4
 834 0aec 14708DE5 		str	r7, [sp, #20]
 835 0af0 02208CE1 		orr	r2, ip, r2
 836 0af4 1DE0C4E5 		strb	lr, [r4, #29]
 837 0af8 03C006E2 		and	ip, r6, #3
 838 0afc 01005CE3 		cmp	ip, #1
 839 0b00 0FC0DDE5 		ldrb	ip, [sp, #15]	@ zero_extendqisi2
 840 0b04 1A10C4E5 		strb	r1, [r4, #26]
 841 0b08 2114A0E1 		lsr	r1, r1, #8
 842 0b0c 1E20C4E5 		strb	r2, [r4, #30]
 843 0b10 1910C4E5 		strb	r1, [r4, #25]
 844 0b14 1860C4E5 		strb	r6, [r4, #24]
 845 0b18 1BC0C4E5 		strb	ip, [r4, #27]
 846 0b1c 6D00000A 		beq	.L142
 847 0b20 1120DDE5 		ldrb	r2, [sp, #17]	@ zero_extendqisi2
 848 0b24 1310DDE5 		ldrb	r1, [sp, #19]	@ zero_extendqisi2
 849 0b28 0334A0E1 		lsl	r3, r3, #8
 850 0b2c 033C03E2 		and	r3, r3, #768
 851 0b30 E8C01FE5 		ldr	ip, .L143+32
 852 0b34 12E0DDE5 		ldrb	lr, [sp, #18]	@ zero_extendqisi2
 853 0b38 1000DDE5 		ldrb	r0, [sp, #16]	@ zero_extendqisi2
 854 0b3c 031081E0 		add	r1, r1, r3
 855 0b40 8230A0E1 		lsl	r3, r2, #1
ARM GAS  C:\Users\ldebo\AppData\Local\Temp\ccBZnoYF.s 			page 16


 856 0b44 01C10CE0 		and	ip, ip, r1, lsl #2
 857 0b48 063003E2 		and	r3, r3, #6
 858 0b4c 2EC38CE0 		add	ip, ip, lr, lsr #6
 859 0b50 A01383E1 		orr	r1, r3, r0, lsr #7
 860 0b54 023081E2 		add	r3, r1, #2
 861 0b58 01608CE2 		add	r6, ip, #1
 862 0b5c 1663A0E1 		lsl	r6, r6, r3
 863 0b60 2030D4E5 		ldrb	r3, [r4, #32]	@ zero_extendqisi2
 864 0b64 1665A0E1 		lsl	r6, r6, r5
 865 0b68 0730C3E3 		bic	r3, r3, #7
 866 0b6c 0E5DA0E1 		lsl	r5, lr, #26
 867 0b70 A53E83E1 		orr	r3, r3, r5, lsr #29
 868 0b74 07E00EE2 		and	lr, lr, #7
 869 0b78 3830C3E3 		bic	r3, r3, #56
 870 0b7c 8E3183E1 		orr	r3, r3, lr, lsl #3
 871 0b80 2030C4E5 		strb	r3, [r4, #32]
 872 0b84 B0E2D4E1 		ldrh	lr, [r4, #32]
 873 0b88 A232A0E1 		lsr	r3, r2, #5
 874 0b8c 07EDCEE3 		bic	lr, lr, #448
 875 0b90 03E38EE1 		orr	lr, lr, r3, lsl #6
 876 0b94 A220A0E1 		lsr	r2, r2, #1
 877 0b98 2E34A0E1 		lsr	r3, lr, #8
 878 0b9c 0E2002E2 		and	r2, r2, #14
 879 0ba0 813003E2 		and	r3, r3, #129
 880 0ba4 023083E1 		orr	r3, r3, r2
 881 0ba8 BE21D4E1 		ldrh	r2, [r4, #30]
 882 0bac 0CCAA0E1 		lsl	ip, ip, #20
 883 0bb0 2CCAA0E1 		lsr	ip, ip, #20
 884 0bb4 0F2002E2 		and	r2, r2, #15
 885 0bb8 013283E1 		orr	r3, r3, r1, lsl #4
 886 0bbc 0CC282E1 		orr	ip, r2, ip, lsl #4
 887 0bc0 B0E2C4E1 		strh	lr, [r4, #32]	@ movhi
 888 0bc4 C67FA0E1 		asr	r7, r6, #31
 889 0bc8 BEC1C4E1 		strh	ip, [r4, #30]	@ movhi
 890 0bcc 2130C4E5 		strb	r3, [r4, #33]
 891              	.L128:
 892 0bd0 1630DDE5 		ldrb	r3, [sp, #22]	@ zero_extendqisi2
 893 0bd4 2920D4E5 		ldrb	r2, [r4, #41]	@ zero_extendqisi2
 894 0bd8 2AC0D4E5 		ldrb	ip, [r4, #42]	@ zero_extendqisi2
 895 0bdc 1C10C2E3 		bic	r1, r2, #28
 896 0be0 A321A0E1 		lsr	r2, r3, #3
 897 0be4 17E0DDE5 		ldrb	lr, [sp, #23]	@ zero_extendqisi2
 898 0be8 7CC0CCE3 		bic	ip, ip, #124
 899 0bec 0C2002E2 		and	r2, r2, #12
 900 0bf0 0C2082E1 		orr	r2, r2, ip
 901 0bf4 2A20C4E5 		strb	r2, [r4, #42]
 902 0bf8 7FC00EE2 		and	ip, lr, #127
 903 0bfc 802003E2 		and	r2, r3, #128
 904 0c00 0C2082E1 		orr	r2, r2, ip
 905 0c04 2820C4E5 		strb	r2, [r4, #40]
 906 0c08 1C2003E2 		and	r2, r3, #28
 907 0c0c 012082E1 		orr	r2, r2, r1
 908 0c10 2920C4E5 		strb	r2, [r4, #41]
 909 0c14 15C0DDE5 		ldrb	ip, [sp, #21]	@ zero_extendqisi2
 910 0c18 281094E5 		ldr	r1, [r4, #40]
 911 0c1c 0331A0E1 		lsl	r3, r3, #2
 912 0c20 0C3003E2 		and	r3, r3, #12
ARM GAS  C:\Users\ldebo\AppData\Local\Temp\ccBZnoYF.s 			page 17


 913 0c24 2C3383E1 		orr	r3, r3, ip, lsr #6
 914 0c28 1E1AC1E3 		bic	r1, r1, #122880
 915 0c2c 1420DDE5 		ldrb	r2, [sp, #20]	@ zero_extendqisi2
 916 0c30 831681E1 		orr	r1, r1, r3, lsl #13
 917 0c34 213CA0E1 		lsr	r3, r1, #24
 918 0c38 825CA0E1 		lsl	r5, r2, #25
 919 0c3c 0130C3E3 		bic	r3, r3, #1
 920 0c40 A53F83E1 		orr	r3, r3, r5, lsr #31
 921 0c44 2252A0E1 		lsr	r5, r2, #4
 922 0c48 CEE0A0E1 		asr	lr, lr, #1
 923 0c4c 025005E2 		and	r5, r5, #2
 924 0c50 F93003E2 		and	r3, r3, #249
 925 0c54 053083E1 		orr	r3, r3, r5
 926 0c58 40500EE2 		and	r5, lr, #64
 927 0c5c 22E1A0E1 		lsr	lr, r2, #2
 928 0c60 2CC2A0E1 		lsr	ip, ip, #4
 929 0c64 04E00EE2 		and	lr, lr, #4
 930 0c68 0E3083E1 		orr	r3, r3, lr
 931 0c6c 02E00CE2 		and	lr, ip, #2
 932 0c70 3FC000E2 		and	ip, r0, #63
 933 0c74 0CC085E1 		orr	ip, r5, ip
 934 0c78 2158A0E1 		lsr	r5, r1, #16
 935 0c7c 7D5005E2 		and	r5, r5, #125
 936 0c80 0E5085E1 		orr	r5, r5, lr
 937 0c84 82E0A0E1 		lsl	lr, r2, #1
 938 0c88 873003E2 		and	r3, r3, #135
 939 0c8c 18E00EE2 		and	lr, lr, #24
 940 0c90 0EE083E1 		orr	lr, r3, lr
 941 0c94 F863C4E1 		strd	r6, [r4, #56]
 942 0c98 803002E2 		and	r3, r2, #128
 943 0c9c 8CC0A0E1 		lsl	ip, ip, #1
 944 0ca0 800CA0E1 		lsl	r0, r0, #25
 945 0ca4 036002E2 		and	r6, r2, #3
 946 0ca8 A00F8CE1 		orr	r0, ip, r0, lsr #31
 947 0cac 86228EE1 		orr	r2, lr, r6, lsl #5
 948 0cb0 053083E1 		orr	r3, r3, r5
 949 0cb4 281084E5 		str	r1, [r4, #40]
 950 0cb8 2400C4E5 		strb	r0, [r4, #36]
 951 0cbc 2B20C4E5 		strb	r2, [r4, #43]
 952 0cc0 2A30C4E5 		strb	r3, [r4, #42]
 953 0cc4 0000A0E3 		mov	r0, #0
 954 0cc8 01FFFFEA 		b	.L109
 955              	.L124:
 956 0ccc 4C0084E5 		str	r0, [r4, #76]
 957 0cd0 481084E5 		str	r1, [r4, #72]
 958 0cd4 FEFEFFEA 		b	.L109
 959              	.L142:
 960 0cd8 1310DDE5 		ldrb	r1, [sp, #19]	@ zero_extendqisi2
 961 0cdc 1200DDE5 		ldrb	r0, [sp, #18]	@ zero_extendqisi2
 962 0ce0 1130DDE5 		ldrb	r3, [sp, #17]	@ zero_extendqisi2
 963 0ce4 202094E5 		ldr	r2, [r4, #32]
 964 0ce8 0118A0E1 		lsl	r1, r1, #16
 965 0cec 003483E0 		add	r3, r3, r0, lsl #8
 966 0cf0 3F1801E2 		and	r1, r1, #4128768
 967 0cf4 013083E0 		add	r3, r3, r1
 968 0cf8 222BA0E1 		lsr	r2, r2, #22
 969 0cfc 032582E1 		orr	r2, r2, r3, lsl #10
ARM GAS  C:\Users\ldebo\AppData\Local\Temp\ccBZnoYF.s 			page 18


 970 0d00 6225A0E1 		ror	r2, r2, #10
 971 0d04 202084E5 		str	r2, [r4, #32]
 972 0d08 A376A0E1 		lsr	r7, r3, #13
 973 0d0c 8369A0E1 		lsl	r6, r3, #19
 974 0d10 1000DDE5 		ldrb	r0, [sp, #16]	@ zero_extendqisi2
 975 0d14 ADFFFFEA 		b	.L128
 976              		.size	sdSendCommandP, .-sdSendCommandP
 977              		.align	2
 978              		.syntax unified
 979              		.arm
 980              		.fpu vfp
 981              		.type	sdAppSendOpCond, %function
 982              	sdAppSendOpCond:
 983              		@ args = 0, pretend = 0, frame = 8
 984              		@ frame_needed = 0, uses_anonymous_args = 0
 985 0d18 F04F2DE9 		push	{r4, r5, r6, r7, r8, r9, r10, fp, lr}
 986 0d1c 94419FE5 		ldr	r4, .L186
 987 0d20 0CD04DE2 		sub	sp, sp, #12
 988 0d24 441094E5 		ldr	r1, [r4, #68]
 989 0d28 0060A0E1 		mov	r6, r0
 990 0d2c 000051E3 		cmp	r1, #0
 991 0d30 5900000A 		beq	.L182
 992 0d34 80019FE5 		ldr	r0, .L186+4
 993 0d38 AAFEFFEB 		bl	sdSendCommandP
 994 0d3c 7030EFE6 		uxtb	r3, r0
 995 0d40 000053E3 		cmp	r3, #0
 996 0d44 3200001A 		bne	.L148
 997 0d48 4C3094E5 		ldr	r3, [r4, #76]
 998 0d4c 200013E3 		tst	r3, #32
 999 0d50 4B00000A 		beq	.L164
 1000              	.L147:
 1001 0d54 0610A0E1 		mov	r1, r6
 1002 0d58 60019FE5 		ldr	r0, .L186+8
 1003 0d5c A1FEFFEB 		bl	sdSendCommandP
 1004 0d60 7030EFE6 		uxtb	r3, r0
 1005 0d64 000053E3 		cmp	r3, #0
 1006 0d68 2900001A 		bne	.L148
 1007 0d6c 443094E5 		ldr	r3, [r4, #68]
 1008 0d70 000053E3 		cmp	r3, #0
 1009 0d74 4B00001A 		bne	.L150
 1010              	.L152:
 1011 0d78 0750A0E3 		mov	r5, #7
 1012 0d7c 0090A0E3 		mov	r9, #0
 1013 0d80 38719FE5 		ldr	r7, .L186+8
 1014 0d84 38819FE5 		ldr	r8, .L186+12
 1015 0d88 90A047E2 		sub	r10, r7, #144
 1016 0d8c A8B047E2 		sub	fp, r7, #168
 1017              	.L151:
 1018 0d90 DB34D4E1 		ldrsb	r3, [r4, #75]
 1019 0d94 000053E3 		cmp	r3, #0
 1020 0d98 2F0000BA 		blt	.L159
 1021              	.L185:
 1022 0d9c 015055E2 		subs	r5, r5, #1
 1023 0da0 3900000A 		beq	.L183
 1024 0da4 0910A0E1 		mov	r1, r9
 1025 0da8 0800A0E1 		mov	r0, r8
 1026 0dac FEFFFFEB 		bl	timer_wait
ARM GAS  C:\Users\ldebo\AppData\Local\Temp\ccBZnoYF.s 			page 19


 1027 0db0 441094E5 		ldr	r1, [r4, #68]
 1028 0db4 000051E3 		cmp	r1, #0
 1029 0db8 2E00000A 		beq	.L184
 1030 0dbc 0A00A0E1 		mov	r0, r10
 1031 0dc0 88FEFFEB 		bl	sdSendCommandP
 1032 0dc4 7030EFE6 		uxtb	r3, r0
 1033 0dc8 000053E3 		cmp	r3, #0
 1034 0dcc 1D00001A 		bne	.L155
 1035 0dd0 4C3094E5 		ldr	r3, [r4, #76]
 1036 0dd4 200013E3 		tst	r3, #32
 1037 0dd8 2900000A 		beq	.L164
 1038              	.L154:
 1039 0ddc 0610A0E1 		mov	r1, r6
 1040 0de0 0700A0E1 		mov	r0, r7
 1041 0de4 7FFEFFEB 		bl	sdSendCommandP
 1042 0de8 7030EFE6 		uxtb	r3, r0
 1043 0dec 000053E3 		cmp	r3, #0
 1044 0df0 1400001A 		bne	.L155
 1045 0df4 443094E5 		ldr	r3, [r4, #68]
 1046 0df8 000053E3 		cmp	r3, #0
 1047 0dfc E3FFFF0A 		beq	.L151
 1048 0e00 4C3094E5 		ldr	r3, [r4, #76]
 1049 0e04 200013E3 		tst	r3, #32
 1050 0e08 E0FFFF1A 		bne	.L151
 1051              	.L165:
 1052 0e0c 0930A0E3 		mov	r3, #9
 1053 0e10 010000EA 		b	.L162
 1054              	.L148:
 1055 0e14 020053E3 		cmp	r3, #2
 1056 0e18 D6FFFF0A 		beq	.L152
 1057              	.L162:
 1058 0e1c 002094E5 		ldr	r2, [r4]
 1059 0e20 000052E3 		cmp	r2, #0
 1060 0e24 0400000A 		beq	.L168
 1061 0e28 0310A0E1 		mov	r1, r3
 1062 0e2c 04308DE5 		str	r3, [sp, #4]
 1063 0e30 90009FE5 		ldr	r0, .L186+16
 1064 0e34 32FF2FE1 		blx	r2
 1065 0e38 04309DE5 		ldr	r3, [sp, #4]
 1066              	.L168:
 1067 0e3c 0300A0E1 		mov	r0, r3
 1068 0e40 0CD08DE2 		add	sp, sp, #12
 1069              		@ sp needed
 1070 0e44 F08FBDE8 		pop	{r4, r5, r6, r7, r8, r9, r10, fp, pc}
 1071              	.L155:
 1072 0e48 020053E3 		cmp	r3, #2
 1073 0e4c F2FFFF1A 		bne	.L162
 1074 0e50 DB34D4E1 		ldrsb	r3, [r4, #75]
 1075 0e54 000053E3 		cmp	r3, #0
 1076 0e58 CFFFFFAA 		bge	.L185
 1077              	.L159:
 1078 0e5c 4A30D4E5 		ldrb	r3, [r4, #74]	@ zero_extendqisi2
 1079 0e60 300013E3 		tst	r3, #48
 1080 0e64 0830A003 		moveq	r3, #8
 1081 0e68 0030A013 		movne	r3, #0
 1082 0e6c 0300A0E1 		mov	r0, r3
 1083 0e70 0CD08DE2 		add	sp, sp, #12
ARM GAS  C:\Users\ldebo\AppData\Local\Temp\ccBZnoYF.s 			page 20


 1084              		@ sp needed
 1085 0e74 F08FBDE8 		pop	{r4, r5, r6, r7, r8, r9, r10, fp, pc}
 1086              	.L184:
 1087 0e78 0B00A0E1 		mov	r0, fp
 1088 0e7c 59FEFFEB 		bl	sdSendCommandP
 1089 0e80 D5FFFFEA 		b	.L154
 1090              	.L164:
 1091 0e84 0130A0E3 		mov	r3, #1
 1092 0e88 E3FFFFEA 		b	.L162
 1093              	.L183:
 1094 0e8c 0230A0E3 		mov	r3, #2
 1095 0e90 0300A0E1 		mov	r0, r3
 1096 0e94 0CD08DE2 		add	sp, sp, #12
 1097              		@ sp needed
 1098 0e98 F08FBDE8 		pop	{r4, r5, r6, r7, r8, r9, r10, fp, pc}
 1099              	.L182:
 1100 0e9c 28009FE5 		ldr	r0, .L186+20
 1101 0ea0 50FEFFEB 		bl	sdSendCommandP
 1102 0ea4 AAFFFFEA 		b	.L147
 1103              	.L150:
 1104 0ea8 4C3094E5 		ldr	r3, [r4, #76]
 1105 0eac 200013E3 		tst	r3, #32
 1106 0eb0 D5FFFF0A 		beq	.L165
 1107 0eb4 AFFFFFEA 		b	.L152
 1108              	.L187:
 1109              		.align	2
 1110              	.L186:
 1111 0eb8 00000000 		.word	.LANCHOR0
 1112 0ebc D0020000 		.word	.LANCHOR1+720
 1113 0ec0 60030000 		.word	.LANCHOR1+864
 1114 0ec4 801A0600 		.word	400000
 1115 0ec8 3C010000 		.word	.LC6
 1116 0ecc B8020000 		.word	.LANCHOR1+696
 1117              		.size	sdAppSendOpCond, .-sdAppSendOpCond
 1118              		.align	2
 1119              		.syntax unified
 1120              		.arm
 1121              		.fpu vfp
 1122              		.type	sdSendCommand, %function
 1123              	sdSendCommand:
 1124              		@ args = 0, pretend = 0, frame = 0
 1125              		@ frame_needed = 0, uses_anonymous_args = 0
 1126 0ed0 1F0050E3 		cmp	r0, #31
 1127 0ed4 70402DE9 		push	{r4, r5, r6, lr}
 1128 0ed8 0040A0E1 		mov	r4, r0
 1129 0edc 140000CA 		bgt	.L201
 1130              	.L190:
 1131 0ee0 90009FE5 		ldr	r0, .L203
 1132 0ee4 843084E0 		add	r3, r4, r4, lsl #1
 1133 0ee8 830180E0 		add	r0, r0, r3, lsl #3
 1134 0eec 1410D0E5 		ldrb	r1, [r0, #20]	@ zero_extendqisi2
 1135 0ef0 011011E2 		ands	r1, r1, #1
 1136 0ef4 80309F15 		ldrne	r3, .L203+4
 1137 0ef8 44109315 		ldrne	r1, [r3, #68]
 1138 0efc 39FEFFEB 		bl	sdSendCommandP
 1139 0f00 7000EFE6 		uxtb	r0, r0
 1140 0f04 000050E3 		cmp	r0, #0
ARM GAS  C:\Users\ldebo\AppData\Local\Temp\ccBZnoYF.s 			page 21


 1141 0f08 7080BD18 		popne	{r4, r5, r6, pc}
 1142 0f0c 1F0054E3 		cmp	r4, #31
 1143 0f10 7080BDD8 		pople	{r4, r5, r6, pc}
 1144 0f14 60309FE5 		ldr	r3, .L203+4
 1145 0f18 442093E5 		ldr	r2, [r3, #68]
 1146 0f1c 000052E3 		cmp	r2, #0
 1147 0f20 7080BD08 		popeq	{r4, r5, r6, pc}
 1148 0f24 4C3093E5 		ldr	r3, [r3, #76]
 1149 0f28 200013E3 		tst	r3, #32
 1150 0f2c 0900A003 		moveq	r0, #9
 1151 0f30 7080BDE8 		pop	{r4, r5, r6, pc}
 1152              	.L201:
 1153 0f34 40509FE5 		ldr	r5, .L203+4
 1154 0f38 441095E5 		ldr	r1, [r5, #68]
 1155 0f3c 000051E3 		cmp	r1, #0
 1156 0f40 0900000A 		beq	.L202
 1157 0f44 34009FE5 		ldr	r0, .L203+8
 1158 0f48 26FEFFEB 		bl	sdSendCommandP
 1159 0f4c 7000EFE6 		uxtb	r0, r0
 1160 0f50 000050E3 		cmp	r0, #0
 1161 0f54 7080BD18 		popne	{r4, r5, r6, pc}
 1162 0f58 4C3095E5 		ldr	r3, [r5, #76]
 1163 0f5c 200013E3 		tst	r3, #32
 1164 0f60 DEFFFF1A 		bne	.L190
 1165 0f64 0100A0E3 		mov	r0, #1
 1166 0f68 7080BDE8 		pop	{r4, r5, r6, pc}
 1167              	.L202:
 1168 0f6c 10009FE5 		ldr	r0, .L203+12
 1169 0f70 1CFEFFEB 		bl	sdSendCommandP
 1170 0f74 D9FFFFEA 		b	.L190
 1171              	.L204:
 1172              		.align	2
 1173              	.L203:
 1174 0f78 00000000 		.word	.LANCHOR1
 1175 0f7c 00000000 		.word	.LANCHOR0
 1176 0f80 D0020000 		.word	.LANCHOR1+720
 1177 0f84 B8020000 		.word	.LANCHOR1+696
 1178              		.size	sdSendCommand, .-sdSendCommand
 1179              		.align	2
 1180              		.syntax unified
 1181              		.arm
 1182              		.fpu vfp
 1183              		.type	sdResetCard, %function
 1184              	sdResetCard:
 1185              		@ args = 0, pretend = 0, frame = 0
 1186              		@ frame_needed = 0, uses_anonymous_args = 0
 1187 0f88 0020A0E3 		mov	r2, #0
 1188 0f8c F0472DE9 		push	{r4, r5, r6, r7, r8, r9, r10, lr}
 1189 0f90 177E8FE2 		adr	r7, .L216
 1190 0f94 D060C7E1 		ldrd	r6, [r7]
 1191 0f98 0040A0E3 		mov	r4, #0
 1192 0f9c 0050A0E3 		mov	r5, #0
 1193 0fa0 68A19FE5 		ldr	r10, .L216+8
 1194 0fa4 0A00A0E3 		mov	r0, #10
 1195 0fa8 00309AE5 		ldr	r3, [r10]
 1196 0fac 0010A0E3 		mov	r1, #0
 1197 0fb0 033683E2 		add	r3, r3, #3145728
ARM GAS  C:\Users\ldebo\AppData\Local\Temp\ccBZnoYF.s 			page 22


 1198 0fb4 282083E5 		str	r2, [r3, #40]
 1199 0fb8 00309AE5 		ldr	r3, [r10]
 1200 0fbc 0480A0E1 		mov	r8, r4
 1201 0fc0 033683E2 		add	r3, r3, #3145728
 1202 0fc4 2C2083E5 		str	r2, [r3, #44]
 1203 0fc8 00309AE5 		ldr	r3, [r10]
 1204 0fcc 0590A0E1 		mov	r9, r5
 1205 0fd0 033683E2 		add	r3, r3, #3145728
 1206 0fd4 2C2093E5 		ldr	r2, [r3, #44]
 1207 0fd8 012482E3 		orr	r2, r2, #16777216
 1208 0fdc 2C2083E5 		str	r2, [r3, #44]
 1209 0fe0 FEFFFFEB 		bl	timer_wait
 1210              	.L206:
 1211 0fe4 00309AE5 		ldr	r3, [r10]
 1212 0fe8 033683E2 		add	r3, r3, #3145728
 1213 0fec 2C2093E5 		ldr	r2, [r3, #44]
 1214 0ff0 2C3083E2 		add	r3, r3, #44
 1215 0ff4 010412E3 		tst	r2, #16777216
 1216 0ff8 1100000A 		beq	.L209
 1217 0ffc 070059E1 		cmp	r9, r7
 1218 1000 06005801 		cmpeq	r8, r6
 1219 1004 1300008A 		bhi	.L211
 1220 1008 053094E1 		orrs	r3, r4, r5
 1221 100c 0300001A 		bne	.L207
 1222 1010 FEFFFFEB 		bl	timer_getTickCount
 1223 1014 0040A0E1 		mov	r4, r0
 1224 1018 0150A0E1 		mov	r5, r1
 1225 101c F0FFFFEA 		b	.L206
 1226              	.L207:
 1227 1020 FEFFFFEB 		bl	timer_getTickCount
 1228 1024 0020A0E1 		mov	r2, r0
 1229 1028 0130A0E1 		mov	r3, r1
 1230 102c 0400A0E1 		mov	r0, r4
 1231 1030 0510A0E1 		mov	r1, r5
 1232 1034 FEFFFFEB 		bl	tick_difference
 1233 1038 0080A0E1 		mov	r8, r0
 1234 103c 0190A0E1 		mov	r9, r1
 1235 1040 E7FFFFEA 		b	.L206
 1236              	.L209:
 1237 1044 BC108FE2 		adr	r1, .L216
 1238 1048 D000C1E1 		ldrd	r0, [r1]
 1239 104c 010059E1 		cmp	r9, r1
 1240 1050 00005801 		cmpeq	r8, r0
 1241 1054 0900009A 		bls	.L212
 1242              	.L211:
 1243 1058 B4309FE5 		ldr	r3, .L216+12
 1244 105c 003093E5 		ldr	r3, [r3]
 1245 1060 000053E3 		cmp	r3, #0
 1246 1064 0630A003 		moveq	r3, #6
 1247 1068 0200000A 		beq	.L213
 1248 106c A4009FE5 		ldr	r0, .L216+16
 1249 1070 33FF2FE1 		blx	r3
 1250 1074 0630A0E3 		mov	r3, #6
 1251              	.L213:
 1252 1078 0300A0E1 		mov	r0, r3
 1253 107c F087BDE8 		pop	{r4, r5, r6, r7, r8, r9, r10, pc}
 1254              	.L212:
ARM GAS  C:\Users\ldebo\AppData\Local\Temp\ccBZnoYF.s 			page 23


 1255 1080 002093E5 		ldr	r2, [r3]
 1256 1084 0A00A0E3 		mov	r0, #10
 1257 1088 0128C2E3 		bic	r2, r2, #65536
 1258 108c 0E2882E3 		orr	r2, r2, #917504
 1259 1090 002083E5 		str	r2, [r3]
 1260 1094 002093E5 		ldr	r2, [r3]
 1261 1098 0010A0E3 		mov	r1, #0
 1262 109c 012082E3 		orr	r2, r2, #1
 1263 10a0 002083E5 		str	r2, [r3]
 1264 10a4 FEFFFFEB 		bl	timer_wait
 1265 10a8 6C009FE5 		ldr	r0, .L216+20
 1266 10ac 70FCFFEB 		bl	sdSetClock
 1267 10b0 003050E2 		subs	r3, r0, #0
 1268 10b4 EFFFFF1A 		bne	.L213
 1269 10b8 00C0E0E3 		mvn	ip, #0
 1270 10bc 00109AE5 		ldr	r1, [r10]
 1271 10c0 4C209FE5 		ldr	r2, .L216+12
 1272 10c4 031681E2 		add	r1, r1, #3145728
 1273 10c8 38C081E5 		str	ip, [r1, #56]
 1274 10cc 00009AE5 		ldr	r0, [r10]
 1275 10d0 0310A0E1 		mov	r1, r3
 1276 10d4 030680E2 		add	r0, r0, #3145728
 1277 10d8 34C080E5 		str	ip, [r0, #52]
 1278 10dc 3C009FE5 		ldr	r0, .L216+24
 1279 10e0 443082E5 		str	r3, [r2, #68]
 1280 10e4 483082E5 		str	r3, [r2, #72]
 1281 10e8 503082E5 		str	r3, [r2, #80]
 1282 10ec 4C3082E5 		str	r3, [r2, #76]
 1283 10f0 4030C2E5 		strb	r3, [r2, #64]
 1284 10f4 BBFDFFEB 		bl	sdSendCommandP
 1285 10f8 7030EFE6 		uxtb	r3, r0
 1286 10fc 0300A0E1 		mov	r0, r3
 1287 1100 F087BDE8 		pop	{r4, r5, r6, r7, r8, r9, r10, pc}
 1288              	.L217:
 1289 1104 00F020E3 		.align	3
 1290              	.L216:
 1291 1108 9F860100 		.word	99999
 1292 110c 00000000 		.word	0
 1293 1110 00000000 		.word	RPi_IO_Base_Addr
 1294 1114 00000000 		.word	.LANCHOR0
 1295 1118 68010000 		.word	.LC7
 1296 111c 801A0600 		.word	400000
 1297 1120 00000000 		.word	.LANCHOR1
 1298              		.size	sdResetCard, .-sdResetCard
 1299              		.global	__aeabi_uidivmod
 1300              		.align	2
 1301              		.syntax unified
 1302              		.arm
 1303              		.fpu vfp
 1304              		.type	getSetNextCluster.constprop.6, %function
 1305              	getSetNextCluster.constprop.6:
 1306              		@ args = 0, pretend = 0, frame = 512
 1307              		@ frame_needed = 0, uses_anonymous_args = 0
 1308 1124 F0412DE9 		push	{r4, r5, r6, r7, r8, lr}
 1309 1128 0C619FE5 		ldr	r6, .L238
 1310 112c 02DC4DE2 		sub	sp, sp, #512
 1311 1130 4030D6E5 		ldrb	r3, [r6, #64]	@ zero_extendqisi2
ARM GAS  C:\Users\ldebo\AppData\Local\Temp\ccBZnoYF.s 			page 24


 1312 1134 000053E3 		cmp	r3, #0
 1313 1138 0200001A 		bne	.L237
 1314              	.L219:
 1315 113c 0000E0E3 		mvn	r0, #0
 1316              	.L218:
 1317 1140 02DC8DE2 		add	sp, sp, #512
 1318              		@ sp needed
 1319 1144 F081BDE8 		pop	{r4, r5, r6, r7, r8, pc}
 1320              	.L237:
 1321 1148 0040A0E1 		mov	r4, r0
 1322 114c 687096E5 		ldr	r7, [r6, #104]
 1323 1150 6C8096E5 		ldr	r8, [r6, #108]
 1324 1154 5C5096E5 		ldr	r5, [r6, #92]
 1325 1158 A8FBFFEB 		bl	sdWaitForData
 1326 115c 000050E3 		cmp	r0, #0
 1327 1160 F5FFFF1A 		bne	.L219
 1328 1164 0441A0E1 		lsl	r4, r4, #2
 1329 1168 0510A0E1 		mov	r1, r5
 1330 116c 0400A0E1 		mov	r0, r4
 1331 1170 FEFFFFEB 		bl	__aeabi_uidiv
 1332 1174 081087E0 		add	r1, r7, r8
 1333 1178 C0709FE5 		ldr	r7, .L238+4
 1334 117c 4030D6E5 		ldrb	r3, [r6, #64]	@ zero_extendqisi2
 1335 1180 002097E5 		ldr	r2, [r7]
 1336 1184 030053E3 		cmp	r3, #3
 1337 1188 032682E2 		add	r2, r2, #3145728
 1338 118c 043092E5 		ldr	r3, [r2, #4]
 1339 1190 001081E0 		add	r1, r1, r0
 1340 1194 FF34C3E3 		bic	r3, r3, #-16777216
 1341 1198 FE38C3E3 		bic	r3, r3, #16646144
 1342 119c 013883E3 		orr	r3, r3, #65536
 1343 11a0 043082E5 		str	r3, [r2, #4]
 1344 11a4 043092E5 		ldr	r3, [r2, #4]
 1345 11a8 8114A001 		lsleq	r1, r1, #9
 1346 11ac 7F3FC3E3 		bic	r3, r3, #508
 1347 11b0 0330C3E3 		bic	r3, r3, #3
 1348 11b4 023C83E3 		orr	r3, r3, #512
 1349 11b8 84009FE5 		ldr	r0, .L238+8
 1350 11bc 043082E5 		str	r3, [r2, #4]
 1351 11c0 88FDFFEB 		bl	sdSendCommandP
 1352 11c4 FF0010E3 		tst	r0, #255
 1353 11c8 DBFFFF1A 		bne	.L219
 1354 11cc 2000A0E3 		mov	r0, #32
 1355 11d0 CAFBFFEB 		bl	sdWaitForInterrupt
 1356 11d4 000050E3 		cmp	r0, #0
 1357 11d8 1000001A 		bne	.L225
 1358 11dc 001097E5 		ldr	r1, [r7]
 1359 11e0 04304DE2 		sub	r3, sp, #4
 1360 11e4 031681E2 		add	r1, r1, #3145728
 1361 11e8 201081E2 		add	r1, r1, #32
 1362 11ec 7F0F8DE2 		add	r0, sp, #508
 1363              	.L223:
 1364 11f0 002091E5 		ldr	r2, [r1]
 1365 11f4 0420A3E5 		str	r2, [r3, #4]!
 1366 11f8 030050E1 		cmp	r0, r3
 1367 11fc FBFFFF1A 		bne	.L223
 1368 1200 0510A0E1 		mov	r1, r5
ARM GAS  C:\Users\ldebo\AppData\Local\Temp\ccBZnoYF.s 			page 25


 1369 1204 0400A0E1 		mov	r0, r4
 1370 1208 FEFFFFEB 		bl	__aeabi_uidivmod
 1371 120c 023C8DE2 		add	r3, sp, #512
 1372 1210 011083E0 		add	r1, r3, r1
 1373 1214 000211E5 		ldr	r0, [r1, #-512]
 1374 1218 02DC8DE2 		add	sp, sp, #512
 1375              		@ sp needed
 1376 121c F081BDE8 		pop	{r4, r5, r6, r7, r8, pc}
 1377              	.L225:
 1378 1220 003096E5 		ldr	r3, [r6]
 1379 1224 000053E3 		cmp	r3, #0
 1380 1228 C3FFFF0A 		beq	.L219
 1381 122c 14009FE5 		ldr	r0, .L238+12
 1382 1230 33FF2FE1 		blx	r3
 1383 1234 0000E0E3 		mvn	r0, #0
 1384 1238 C0FFFFEA 		b	.L218
 1385              	.L239:
 1386              		.align	2
 1387              	.L238:
 1388 123c 00000000 		.word	.LANCHOR0
 1389 1240 00000000 		.word	RPi_IO_Base_Addr
 1390 1244 50010000 		.word	.LANCHOR1+336
 1391 1248 88010000 		.word	.LC8
 1392              		.size	getSetNextCluster.constprop.6, .-getSetNextCluster.constprop.6
 1393              		.section	.text.unlikely,"ax",%progbits
 1394              		.align	2
 1395              		.syntax unified
 1396              		.arm
 1397              		.fpu vfp
 1398              		.type	sdTransferBlocks.constprop.7, %function
 1399              	sdTransferBlocks.constprop.7:
 1400              		@ args = 0, pretend = 0, frame = 0
 1401              		@ frame_needed = 0, uses_anonymous_args = 0
 1402 0000 F0472DE9 		push	{r4, r5, r6, r7, r8, r9, r10, lr}
 1403 0004 B0519FE5 		ldr	r5, .L274
 1404 0008 4030D5E5 		ldrb	r3, [r5, #64]	@ zero_extendqisi2
 1405 000c 000053E3 		cmp	r3, #0
 1406 0010 0580A003 		moveq	r8, #5
 1407 0014 6600000A 		beq	.L261
 1408 0018 0080A0E1 		mov	r8, r0
 1409 001c 0140A0E1 		mov	r4, r1
 1410 0020 0260A0E1 		mov	r6, r2
 1411 0024 FEFFFFEB 		bl	sdWaitForData
 1412 0028 000050E3 		cmp	r0, #0
 1413 002c 0280A013 		movne	r8, #2
 1414 0030 5F00001A 		bne	.L261
 1415 0034 000056E3 		cmp	r6, #0
 1416 0038 13C0A013 		movne	ip, #19
 1417 003c 0EC0A003 		moveq	ip, #14
 1418 0040 1800A0E3 		mov	r0, #24
 1419 0044 74719FE5 		ldr	r7, .L274+4
 1420 0048 4030D5E5 		ldrb	r3, [r5, #64]	@ zero_extendqisi2
 1421 004c 002097E5 		ldr	r2, [r7]
 1422 0050 1090A013 		movne	r9, #16
 1423 0054 032682E2 		add	r2, r2, #3145728
 1424 0058 2090A003 		moveq	r9, #32
 1425 005c 030053E3 		cmp	r3, #3
ARM GAS  C:\Users\ldebo\AppData\Local\Temp\ccBZnoYF.s 			page 26


 1426 0060 043092E5 		ldr	r3, [r2, #4]
 1427 0064 8884A001 		lsleq	r8, r8, #9
 1428 0068 FF34C3E3 		bic	r3, r3, #-16777216
 1429 006c FE38C3E3 		bic	r3, r3, #16646144
 1430 0070 013883E3 		orr	r3, r3, #65536
 1431 0074 043082E5 		str	r3, [r2, #4]
 1432 0078 043092E5 		ldr	r3, [r2, #4]
 1433 007c 0810A0E1 		mov	r1, r8
 1434 0080 7F3FC3E3 		bic	r3, r3, #508
 1435 0084 0330C3E3 		bic	r3, r3, #3
 1436 0088 023C83E3 		orr	r3, r3, #512
 1437 008c 043082E5 		str	r3, [r2, #4]
 1438 0090 2C319FE5 		ldr	r3, .L274+8
 1439 0094 903C20E0 		mla	r0, r0, ip, r3
 1440 0098 FEFFFFEB 		bl	sdSendCommandP
 1441 009c 7080EFE6 		uxtb	r8, r0
 1442 00a0 000058E3 		cmp	r8, #0
 1443 00a4 4200001A 		bne	.L261
 1444 00a8 0900A0E1 		mov	r0, r9
 1445 00ac FEFFFFEB 		bl	sdWaitForInterrupt
 1446 00b0 008050E2 		subs	r8, r0, #0
 1447 00b4 0500000A 		beq	.L271
 1448 00b8 003095E5 		ldr	r3, [r5]
 1449 00bc 000053E3 		cmp	r3, #0
 1450 00c0 3B00000A 		beq	.L261
 1451 00c4 FC009FE5 		ldr	r0, .L274+12
 1452 00c8 33FF2FE1 		blx	r3
 1453 00cc 380000EA 		b	.L261
 1454              	.L271:
 1455 00d0 030014E3 		tst	r4, #3
 1456 00d4 0410A0E1 		mov	r1, r4
 1457 00d8 022C84E2 		add	r2, r4, #512
 1458 00dc 1D00000A 		beq	.L253
 1459              	.L248:
 1460 00e0 000056E3 		cmp	r6, #0
 1461 00e4 0B00000A 		beq	.L246
 1462 00e8 0230D1E5 		ldrb	r3, [r1, #2]	@ zero_extendqisi2
 1463 00ec 0100D1E5 		ldrb	r0, [r1, #1]	@ zero_extendqisi2
 1464 00f0 00E0D1E5 		ldrb	lr, [r1]	@ zero_extendqisi2
 1465 00f4 0338A0E1 		lsl	r3, r3, #16
 1466 00f8 003483E1 		orr	r3, r3, r0, lsl #8
 1467 00fc 03C0D1E5 		ldrb	ip, [r1, #3]	@ zero_extendqisi2
 1468 0100 000097E5 		ldr	r0, [r7]
 1469 0104 0E3083E1 		orr	r3, r3, lr
 1470 0108 0C3C83E1 		orr	r3, r3, ip, lsl #24
 1471 010c 030680E2 		add	r0, r0, #3145728
 1472 0110 203080E5 		str	r3, [r0, #32]
 1473 0114 090000EA 		b	.L247
 1474              	.L246:
 1475 0118 003097E5 		ldr	r3, [r7]
 1476 011c 033683E2 		add	r3, r3, #3145728
 1477 0120 203093E5 		ldr	r3, [r3, #32]
 1478 0124 23E4A0E1 		lsr	lr, r3, #8
 1479 0128 23C8A0E1 		lsr	ip, r3, #16
 1480 012c 230CA0E1 		lsr	r0, r3, #24
 1481 0130 0030C1E5 		strb	r3, [r1]
 1482 0134 01E0C1E5 		strb	lr, [r1, #1]
ARM GAS  C:\Users\ldebo\AppData\Local\Temp\ccBZnoYF.s 			page 27


 1483 0138 02C0C1E5 		strb	ip, [r1, #2]
 1484 013c 0300C1E5 		strb	r0, [r1, #3]
 1485              	.L247:
 1486 0140 011081E2 		add	r1, r1, #1
 1487 0144 010052E1 		cmp	r2, r1
 1488 0148 E4FFFF1A 		bne	.L248
 1489              	.L254:
 1490 014c 000056E3 		cmp	r6, #0
 1491 0150 1700000A 		beq	.L261
 1492 0154 0B0000EA 		b	.L273
 1493              	.L253:
 1494 0158 003097E5 		ldr	r3, [r7]
 1495 015c 000056E3 		cmp	r6, #0
 1496 0160 03368302 		addeq	r3, r3, #3145728
 1497 0164 20309305 		ldreq	r3, [r3, #32]
 1498 0168 00009115 		ldrne	r0, [r1]
 1499 016c 03368312 		addne	r3, r3, #3145728
 1500 0170 00308105 		streq	r3, [r1]
 1501 0174 041081E2 		add	r1, r1, #4
 1502 0178 20008315 		strne	r0, [r3, #32]
 1503 017c 020051E1 		cmp	r1, r2
 1504 0180 F4FFFF1A 		bne	.L253
 1505 0184 F0FFFFEA 		b	.L254
 1506              	.L273:
 1507 0188 0200A0E3 		mov	r0, #2
 1508 018c FEFFFFEB 		bl	sdWaitForInterrupt
 1509 0190 003050E2 		subs	r3, r0, #0
 1510 0194 0600000A 		beq	.L261
 1511 0198 002095E5 		ldr	r2, [r5]
 1512 019c 000052E3 		cmp	r2, #0
 1513 01a0 0380A001 		moveq	r8, r3
 1514 01a4 0200000A 		beq	.L261
 1515 01a8 1C009FE5 		ldr	r0, .L274+16
 1516 01ac 0380A0E1 		mov	r8, r3
 1517 01b0 32FF2FE1 		blx	r2
 1518              	.L261:
 1519 01b4 0800A0E1 		mov	r0, r8
 1520 01b8 F087BDE8 		pop	{r4, r5, r6, r7, r8, r9, r10, pc}
 1521              	.L275:
 1522              		.align	2
 1523              	.L274:
 1524 01bc 00000000 		.word	.LANCHOR0
 1525 01c0 00000000 		.word	RPi_IO_Base_Addr
 1526 01c4 00000000 		.word	.LANCHOR1
 1527 01c8 88010000 		.word	.LC8
 1528 01cc B4010000 		.word	.LC9
 1529              		.size	sdTransferBlocks.constprop.7, .-sdTransferBlocks.constprop.7
 1530              		.align	2
 1531              		.syntax unified
 1532              		.arm
 1533              		.fpu vfp
 1534              		.type	LoadDrivePartition, %function
 1535              	LoadDrivePartition:
 1536              		@ args = 0, pretend = 0, frame = 512
 1537              		@ frame_needed = 0, uses_anonymous_args = 0
 1538 01d0 0020A0E3 		mov	r2, #0
 1539 01d4 70402DE9 		push	{r4, r5, r6, lr}
ARM GAS  C:\Users\ldebo\AppData\Local\Temp\ccBZnoYF.s 			page 28


 1540 01d8 82DF4DE2 		sub	sp, sp, #520
 1541 01dc 0050A0E1 		mov	r5, r0
 1542 01e0 08108DE2 		add	r1, sp, #8
 1543 01e4 0200A0E1 		mov	r0, r2
 1544 01e8 84FFFFEB 		bl	sdTransferBlocks.constprop.7
 1545 01ec 002050E2 		subs	r2, r0, #0
 1546 01f0 0100000A 		beq	.L277
 1547              	.L282:
 1548 01f4 0000A0E3 		mov	r0, #0
 1549 01f8 680000EA 		b	.L278
 1550              	.L277:
 1551 01fc 0830DDE5 		ldrb	r3, [sp, #8]	@ zero_extendqisi2
 1552 0200 FD3003E2 		and	r3, r3, #253
 1553 0204 E90053E3 		cmp	r3, #233
 1554 0208 0E00001A 		bne	.L279
 1555              	.L283:
 1556 020c 14C0DDE5 		ldrb	ip, [sp, #20]	@ zero_extendqisi2
 1557 0210 1330DDE5 		ldrb	r3, [sp, #19]	@ zero_extendqisi2
 1558 0214 BE11DDE1 		ldrh	r1, [sp, #30]
 1559 0218 88419FE5 		ldr	r4, .L291
 1560 021c 1500DDE5 		ldrb	r0, [sp, #21]	@ zero_extendqisi2
 1561 0220 B621DDE1 		ldrh	r2, [sp, #22]
 1562 0224 0C3483E1 		orr	r3, r3, ip, lsl #8
 1563 0228 000051E3 		cmp	r1, #0
 1564 022c 5C3084E5 		str	r3, [r4, #92]
 1565 0230 580084E5 		str	r0, [r4, #88]
 1566 0234 6C2084E5 		str	r2, [r4, #108]
 1567 0238 18C0DDE5 		ldrb	ip, [sp, #24]	@ zero_extendqisi2
 1568 023c 28309DE5 		ldr	r3, [sp, #40]
 1569 0240 1500000A 		beq	.L280
 1570 0244 2D0000EA 		b	.L281
 1571              	.L279:
 1572 0248 813F8DE2 		add	r3, sp, #516
 1573 024c B210D3E1 		ldrh	r1, [r3, #2]
 1574 0250 54319FE5 		ldr	r3, .L291+4
 1575 0254 030051E1 		cmp	r1, r3
 1576 0258 E5FFFF1A 		bne	.L282
 1577 025c 733F8DE2 		add	r3, sp, #460
 1578 0260 023083E2 		add	r3, r3, #2
 1579 0264 1D1E8DE2 		add	r1, sp, #464
 1580 0268 B010D1E1 		ldrh	r1, [r1]
 1581 026c B030D3E1 		ldrh	r3, [r3]
 1582 0270 30C19FE5 		ldr	ip, .L291
 1583 0274 013883E1 		orr	r3, r3, r1, lsl #16
 1584 0278 0300A0E1 		mov	r0, r3
 1585 027c 08108DE2 		add	r1, sp, #8
 1586 0280 68308CE5 		str	r3, [ip, #104]
 1587 0284 5DFFFFEB 		bl	sdTransferBlocks.constprop.7
 1588 0288 0830DDE5 		ldrb	r3, [sp, #8]	@ zero_extendqisi2
 1589 028c FD3003E2 		and	r3, r3, #253
 1590 0290 E90053E3 		cmp	r3, #233
 1591 0294 DCFFFF0A 		beq	.L283
 1592 0298 D5FFFFEA 		b	.L282
 1593              	.L280:
 1594 029c 18009DE5 		ldr	r0, [sp, #24]
 1595 02a0 2004A0E1 		lsr	r0, r0, #8
 1596 02a4 7000FFE6 		uxth	r0, r0
ARM GAS  C:\Users\ldebo\AppData\Local\Temp\ccBZnoYF.s 			page 29


 1597 02a8 000050E3 		cmp	r0, #0
 1598 02ac 1300001A 		bne	.L281
 1599 02b0 2C109DE5 		ldr	r1, [sp, #44]
 1600 02b4 023043E0 		sub	r3, r3, r2
 1601 02b8 910C01E0 		mul	r1, r1, ip
 1602 02bc 24C09DE5 		ldr	ip, [sp, #36]
 1603 02c0 34009DE5 		ldr	r0, [sp, #52]
 1604 02c4 0C2082E0 		add	r2, r2, ip
 1605 02c8 013043E0 		sub	r3, r3, r1
 1606 02cc 012082E0 		add	r2, r2, r1
 1607 02d0 000055E3 		cmp	r5, #0
 1608 02d4 643084E5 		str	r3, [r4, #100]
 1609 02d8 602084E5 		str	r2, [r4, #96]
 1610 02dc 540084E5 		str	r0, [r4, #84]
 1611 02e0 2D00000A 		beq	.L286
 1612 02e4 4B30DDE5 		ldrb	r3, [sp, #75]	@ zero_extendqisi2
 1613 02e8 4C209DE5 		ldr	r2, [sp, #76]
 1614 02ec 4F108DE2 		add	r1, sp, #79
 1615 02f0 022483E1 		orr	r2, r3, r2, lsl #8
 1616 02f4 B4009FE5 		ldr	r0, .L291+8
 1617 02f8 35FF2FE1 		blx	r5
 1618 02fc 170000EA 		b	.L284
 1619              	.L281:
 1620 0300 2E00DDE5 		ldrb	r0, [sp, #46]	@ zero_extendqisi2
 1621 0304 000055E3 		cmp	r5, #0
 1622 0308 290040E2 		sub	r0, r0, #41
 1623 030c 100F6FE1 		clz	r0, r0
 1624 0310 A002A0E1 		lsr	r0, r0, #5
 1625 0314 0000A003 		moveq	r0, #0
 1626 0318 910C01E0 		mul	r1, r1, ip
 1627 031c 02C0A0E3 		mov	ip, #2
 1628 0320 682094E5 		ldr	r2, [r4, #104]
 1629 0324 213043E2 		sub	r3, r3, #33
 1630 0328 012082E2 		add	r2, r2, #1
 1631 032c 013043E0 		sub	r3, r3, r1
 1632 0330 012082E0 		add	r2, r2, r1
 1633 0334 000050E3 		cmp	r0, #0
 1634 0338 643084E5 		str	r3, [r4, #100]
 1635 033c 602084E5 		str	r2, [r4, #96]
 1636 0340 54C084E5 		str	ip, [r4, #84]
 1637 0344 0500000A 		beq	.L284
 1638 0348 2F30DDE5 		ldrb	r3, [sp, #47]	@ zero_extendqisi2
 1639 034c 30209DE5 		ldr	r2, [sp, #48]
 1640 0350 33108DE2 		add	r1, sp, #51
 1641 0354 022483E1 		orr	r2, r3, r2, lsl #8
 1642 0358 54009FE5 		ldr	r0, .L291+12
 1643 035c 35FF2FE1 		blx	r5
 1644              	.L284:
 1645 0360 646094E5 		ldr	r6, [r4, #100]
 1646 0364 581094E5 		ldr	r1, [r4, #88]
 1647 0368 0600A0E1 		mov	r0, r6
 1648 036c FEFFFFEB 		bl	__aeabi_uidiv
 1649 0370 000055E3 		cmp	r5, #0
 1650 0374 0030A0E1 		mov	r3, r0
 1651 0378 0700000A 		beq	.L286
 1652 037c 541094E5 		ldr	r1, [r4, #84]
 1653 0380 0620A0E1 		mov	r2, r6
ARM GAS  C:\Users\ldebo\AppData\Local\Temp\ccBZnoYF.s 			page 30


 1654 0384 00108DE5 		str	r1, [sp]
 1655 0388 28009FE5 		ldr	r0, .L291+16
 1656 038c 601094E5 		ldr	r1, [r4, #96]
 1657 0390 35FF2FE1 		blx	r5
 1658 0394 0100A0E3 		mov	r0, #1
 1659 0398 000000EA 		b	.L278
 1660              	.L286:
 1661 039c 0100A0E3 		mov	r0, #1
 1662              	.L278:
 1663 03a0 82DF8DE2 		add	sp, sp, #520
 1664              		@ sp needed
 1665 03a4 7080BDE8 		pop	{r4, r5, r6, pc}
 1666              	.L292:
 1667              		.align	2
 1668              	.L291:
 1669 03a8 00000000 		.word	.LANCHOR0
 1670 03ac 55AA0000 		.word	43605
 1671 03b0 DC010000 		.word	.LC10
 1672 03b4 00020000 		.word	.LC11
 1673 03b8 2C020000 		.word	.LC12
 1674              		.size	LoadDrivePartition, .-LoadDrivePartition
 1675              		.text
 1676              		.align	2
 1677              		.global	sdTransferBlocks
 1678              		.syntax unified
 1679              		.arm
 1680              		.fpu vfp
 1681              		.type	sdTransferBlocks, %function
 1682              	sdTransferBlocks:
 1683              		@ args = 0, pretend = 0, frame = 16
 1684              		@ frame_needed = 0, uses_anonymous_args = 0
 1685 124c F04F2DE9 		push	{r4, r5, r6, r7, r8, r9, r10, fp, lr}
 1686 1250 E4929FE5 		ldr	r9, .L354
 1687 1254 0050A0E1 		mov	r5, r0
 1688 1258 4000D9E5 		ldrb	r0, [r9, #64]	@ zero_extendqisi2
 1689 125c 14D04DE2 		sub	sp, sp, #20
 1690 1260 000050E3 		cmp	r0, #0
 1691 1264 0580A003 		moveq	r8, #5
 1692 1268 0200001A 		bne	.L349
 1693              	.L325:
 1694 126c 0800A0E1 		mov	r0, r8
 1695 1270 14D08DE2 		add	sp, sp, #20
 1696              		@ sp needed
 1697 1274 F08FBDE8 		pop	{r4, r5, r6, r7, r8, r9, r10, fp, pc}
 1698              	.L349:
 1699 1278 01A0A0E1 		mov	r10, r1
 1700 127c 0270A0E1 		mov	r7, r2
 1701 1280 03B0A0E1 		mov	fp, r3
 1702 1284 5DFBFFEB 		bl	sdWaitForData
 1703 1288 000050E3 		cmp	r0, #0
 1704 128c 0280A013 		movne	r8, #2
 1705 1290 F5FFFF1A 		bne	.L325
 1706 1294 00005BE3 		cmp	fp, #0
 1707 1298 5B00000A 		beq	.L350
 1708 129c 1030A0E3 		mov	r3, #16
 1709 12a0 01005AE3 		cmp	r10, #1
 1710 12a4 04308DE5 		str	r3, [sp, #4]
ARM GAS  C:\Users\ldebo\AppData\Local\Temp\ccBZnoYF.s 			page 31


 1711 12a8 1E6EA013 		movne	r6, #480
 1712 12ac 8800000A 		beq	.L351
 1713              	.L310:
 1714 12b0 01005AE3 		cmp	r10, #1
 1715 12b4 0300009A 		bls	.L297
 1716 12b8 2F30D9E5 		ldrb	r3, [r9, #47]	@ zero_extendqisi2
 1717 12bc 033003E2 		and	r3, r3, #3
 1718 12c0 020053E3 		cmp	r3, #2
 1719 12c4 8400000A 		beq	.L352
 1720              	.L297:
 1721 12c8 4030D9E5 		ldrb	r3, [r9, #64]	@ zero_extendqisi2
 1722 12cc 030053E3 		cmp	r3, #3
 1723 12d0 7400001A 		bne	.L342
 1724 12d4 64429FE5 		ldr	r4, .L354+4
 1725 12d8 8554A0E1 		lsl	r5, r5, #9
 1726              	.L345:
 1727 12dc 002094E5 		ldr	r2, [r4]
 1728 12e0 0510A0E1 		mov	r1, r5
 1729 12e4 032682E2 		add	r2, r2, #3145728
 1730 12e8 043092E5 		ldr	r3, [r2, #4]
 1731 12ec 7330FFE6 		uxth	r3, r3
 1732 12f0 0A3883E1 		orr	r3, r3, r10, lsl #16
 1733 12f4 043082E5 		str	r3, [r2, #4]
 1734 12f8 043092E5 		ldr	r3, [r2, #4]
 1735 12fc 7F3FC3E3 		bic	r3, r3, #508
 1736 1300 0330C3E3 		bic	r3, r3, #3
 1737 1304 023C83E3 		orr	r3, r3, #512
 1738 1308 043082E5 		str	r3, [r2, #4]
 1739 130c 30329FE5 		ldr	r3, .L354+8
 1740 1310 060083E0 		add	r0, r3, r6
 1741 1314 33FDFFEB 		bl	sdSendCommandP
 1742 1318 7080EFE6 		uxtb	r8, r0
 1743 131c 000058E3 		cmp	r8, #0
 1744 1320 D1FFFF1A 		bne	.L325
 1745 1324 00005AE3 		cmp	r10, #0
 1746 1328 7200000A 		beq	.L298
 1747 132c 0830A0E1 		mov	r3, r8
 1748 1330 042047E2 		sub	r2, r7, #4
 1749 1334 0C808DE5 		str	r8, [sp, #12]
 1750 1338 08A08DE5 		str	r10, [sp, #8]
 1751 133c 0280A0E1 		mov	r8, r2
 1752 1340 03A0A0E1 		mov	r10, r3
 1753 1344 026C87E2 		add	r6, r7, #512
 1754 1348 7F5F87E2 		add	r5, r7, #508
 1755              	.L304:
 1756 134c 04009DE5 		ldr	r0, [sp, #4]
 1757 1350 6AFBFFEB 		bl	sdWaitForInterrupt
 1758 1354 000050E3 		cmp	r0, #0
 1759 1358 5400001A 		bne	.L353
 1760 135c 030017E3 		tst	r7, #3
 1761 1360 3000000A 		beq	.L300
 1762 1364 00005BE3 		cmp	fp, #0
 1763 1368 3F00001A 		bne	.L318
 1764 136c 0700A0E1 		mov	r0, r7
 1765              	.L302:
 1766 1370 003094E5 		ldr	r3, [r4]
 1767 1374 033683E2 		add	r3, r3, #3145728
ARM GAS  C:\Users\ldebo\AppData\Local\Temp\ccBZnoYF.s 			page 32


 1768 1378 203093E5 		ldr	r3, [r3, #32]
 1769 137c 2324A0E1 		lsr	r2, r3, #8
 1770 1380 0030C0E5 		strb	r3, [r0]
 1771 1384 0120E0E5 		strb	r2, [r0, #1]!
 1772 1388 060050E1 		cmp	r0, r6
 1773 138c 2328A0E1 		lsr	r2, r3, #16
 1774 1390 233CA0E1 		lsr	r3, r3, #24
 1775 1394 0120C0E5 		strb	r2, [r0, #1]
 1776 1398 0230C0E5 		strb	r3, [r0, #2]
 1777 139c F3FFFF1A 		bne	.L302
 1778              	.L303:
 1779 13a0 08309DE5 		ldr	r3, [sp, #8]
 1780 13a4 01A08AE2 		add	r10, r10, #1
 1781 13a8 0A0053E1 		cmp	r3, r10
 1782 13ac 027C87E2 		add	r7, r7, #512
 1783 13b0 026C86E2 		add	r6, r6, #512
 1784 13b4 028C88E2 		add	r8, r8, #512
 1785 13b8 025C85E2 		add	r5, r5, #512
 1786 13bc E2FFFF1A 		bne	.L304
 1787 13c0 00005BE3 		cmp	fp, #0
 1788 13c4 0A30A0E1 		mov	r3, r10
 1789 13c8 0C809DE5 		ldr	r8, [sp, #12]
 1790 13cc 4C00001A 		bne	.L314
 1791              	.L308:
 1792 13d0 010053E3 		cmp	r3, #1
 1793 13d4 A4FFFF9A 		bls	.L325
 1794 13d8 2F30D9E5 		ldrb	r3, [r9, #47]	@ zero_extendqisi2
 1795 13dc 033003E2 		and	r3, r3, #3
 1796 13e0 020053E3 		cmp	r3, #2
 1797 13e4 A0FFFF0A 		beq	.L325
 1798 13e8 54319FE5 		ldr	r3, .L354+8
 1799 13ec 54019FE5 		ldr	r0, .L354+12
 1800 13f0 0431D3E5 		ldrb	r3, [r3, #260]	@ zero_extendqisi2
 1801 13f4 013013E2 		ands	r3, r3, #1
 1802 13f8 44109915 		ldrne	r1, [r9, #68]
 1803 13fc 0310A001 		moveq	r1, r3
 1804 1400 F8FCFFEB 		bl	sdSendCommandP
 1805 1404 7080EFE6 		uxtb	r8, r0
 1806 1408 97FFFFEA 		b	.L325
 1807              	.L350:
 1808 140c 2030A0E3 		mov	r3, #32
 1809 1410 01005AE3 		cmp	r10, #1
 1810 1414 04308DE5 		str	r3, [sp, #4]
 1811 1418 5A6FA013 		movne	r6, #360
 1812 141c A3FFFF1A 		bne	.L310
 1813 1420 156EA0E3 		mov	r6, #336
 1814 1424 A7FFFFEA 		b	.L297
 1815              	.L300:
 1816 1428 00005BE3 		cmp	fp, #0
 1817 142c 0800A0E1 		mov	r0, r8
 1818 1430 0600001A 		bne	.L306
 1819              	.L307:
 1820 1434 003094E5 		ldr	r3, [r4]
 1821 1438 033683E2 		add	r3, r3, #3145728
 1822 143c 203093E5 		ldr	r3, [r3, #32]
 1823 1440 0430A0E5 		str	r3, [r0, #4]!
 1824 1444 000055E1 		cmp	r5, r0
ARM GAS  C:\Users\ldebo\AppData\Local\Temp\ccBZnoYF.s 			page 33


 1825 1448 F9FFFF1A 		bne	.L307
 1826 144c D3FFFFEA 		b	.L303
 1827              	.L306:
 1828 1450 003094E5 		ldr	r3, [r4]
 1829 1454 0420B0E5 		ldr	r2, [r0, #4]!
 1830 1458 033683E2 		add	r3, r3, #3145728
 1831 145c 000055E1 		cmp	r5, r0
 1832 1460 202083E5 		str	r2, [r3, #32]
 1833 1464 F9FFFF1A 		bne	.L306
 1834 1468 CCFFFFEA 		b	.L303
 1835              	.L318:
 1836 146c 07E0A0E1 		mov	lr, r7
 1837              	.L301:
 1838 1470 0010DEE5 		ldrb	r1, [lr]	@ zero_extendqisi2
 1839 1474 0100FEE5 		ldrb	r0, [lr, #1]!	@ zero_extendqisi2
 1840 1478 002094E5 		ldr	r2, [r4]
 1841 147c 0130DEE5 		ldrb	r3, [lr, #1]	@ zero_extendqisi2
 1842 1480 032682E2 		add	r2, r2, #3145728
 1843 1484 0338A0E1 		lsl	r3, r3, #16
 1844 1488 003483E1 		orr	r3, r3, r0, lsl #8
 1845 148c 0200DEE5 		ldrb	r0, [lr, #2]	@ zero_extendqisi2
 1846 1490 013083E1 		orr	r3, r3, r1
 1847 1494 003C83E1 		orr	r3, r3, r0, lsl #24
 1848 1498 06005EE1 		cmp	lr, r6
 1849 149c 203082E5 		str	r3, [r2, #32]
 1850 14a0 F2FFFF1A 		bne	.L301
 1851 14a4 BDFFFFEA 		b	.L303
 1852              	.L342:
 1853 14a8 90409FE5 		ldr	r4, .L354+4
 1854 14ac 8AFFFFEA 		b	.L345
 1855              	.L353:
 1856 14b0 003099E5 		ldr	r3, [r9]
 1857 14b4 0010A0E1 		mov	r1, r0
 1858 14b8 000053E3 		cmp	r3, #0
 1859 14bc 0080A001 		moveq	r8, r0
 1860 14c0 69FFFF0A 		beq	.L325
 1861 14c4 80009FE5 		ldr	r0, .L354+16
 1862 14c8 0180A0E1 		mov	r8, r1
 1863 14cc 33FF2FE1 		blx	r3
 1864 14d0 65FFFFEA 		b	.L325
 1865              	.L351:
 1866 14d4 726FA0E3 		mov	r6, #456
 1867 14d8 7AFFFFEA 		b	.L297
 1868              	.L352:
 1869 14dc 0A10A0E1 		mov	r1, r10
 1870 14e0 68009FE5 		ldr	r0, .L354+20
 1871 14e4 BFFCFFEB 		bl	sdSendCommandP
 1872 14e8 7080EFE6 		uxtb	r8, r0
 1873 14ec 000058E3 		cmp	r8, #0
 1874 14f0 74FFFF0A 		beq	.L297
 1875 14f4 5CFFFFEA 		b	.L325
 1876              	.L298:
 1877 14f8 00005BE3 		cmp	fp, #0
 1878 14fc 5AFFFF0A 		beq	.L325
 1879 1500 0830A0E1 		mov	r3, r8
 1880              	.L314:
 1881 1504 0200A0E3 		mov	r0, #2
ARM GAS  C:\Users\ldebo\AppData\Local\Temp\ccBZnoYF.s 			page 34


 1882 1508 04308DE5 		str	r3, [sp, #4]
 1883 150c FBFAFFEB 		bl	sdWaitForInterrupt
 1884 1510 002050E2 		subs	r2, r0, #0
 1885 1514 04309DE5 		ldr	r3, [sp, #4]
 1886 1518 ACFFFF0A 		beq	.L308
 1887 151c 003099E5 		ldr	r3, [r9]
 1888 1520 000053E3 		cmp	r3, #0
 1889 1524 0280A001 		moveq	r8, r2
 1890 1528 4FFFFF0A 		beq	.L325
 1891 152c 20009FE5 		ldr	r0, .L354+24
 1892 1530 0280A0E1 		mov	r8, r2
 1893 1534 33FF2FE1 		blx	r3
 1894 1538 4BFFFFEA 		b	.L325
 1895              	.L355:
 1896              		.align	2
 1897              	.L354:
 1898 153c 00000000 		.word	.LANCHOR0
 1899 1540 00000000 		.word	RPi_IO_Base_Addr
 1900 1544 00000000 		.word	.LANCHOR1
 1901 1548 F0000000 		.word	.LANCHOR1+240
 1902 154c 88010000 		.word	.LC8
 1903 1550 B0010000 		.word	.LANCHOR1+432
 1904 1554 B4010000 		.word	.LC9
 1905              		.size	sdTransferBlocks, .-sdTransferBlocks
 1906              		.align	2
 1907              		.global	sdClearBlocks
 1908              		.syntax unified
 1909              		.arm
 1910              		.fpu vfp
 1911              		.type	sdClearBlocks, %function
 1912              	sdClearBlocks:
 1913              		@ args = 0, pretend = 0, frame = 8
 1914              		@ frame_needed = 0, uses_anonymous_args = 0
 1915 1558 F0432DE9 		push	{r4, r5, r6, r7, r8, r9, lr}
 1916 155c 20519FE5 		ldr	r5, .L378
 1917 1560 0CD04DE2 		sub	sp, sp, #12
 1918 1564 4030D5E5 		ldrb	r3, [r5, #64]	@ zero_extendqisi2
 1919 1568 000053E3 		cmp	r3, #0
 1920 156c 0540A003 		moveq	r4, #5
 1921 1570 0200001A 		bne	.L376
 1922              	.L369:
 1923 1574 0400A0E1 		mov	r0, r4
 1924 1578 0CD08DE2 		add	sp, sp, #12
 1925              		@ sp needed
 1926 157c F083BDE8 		pop	{r4, r5, r6, r7, r8, r9, pc}
 1927              	.L376:
 1928 1580 04108DE5 		str	r1, [sp, #4]
 1929 1584 0040A0E1 		mov	r4, r0
 1930 1588 9CFAFFEB 		bl	sdWaitForData
 1931 158c 000050E3 		cmp	r0, #0
 1932 1590 04109DE5 		ldr	r1, [sp, #4]
 1933 1594 0300000A 		beq	.L377
 1934              	.L375:
 1935 1598 0240A0E3 		mov	r4, #2
 1936 159c 0400A0E1 		mov	r0, r4
 1937 15a0 0CD08DE2 		add	sp, sp, #12
 1938              		@ sp needed
ARM GAS  C:\Users\ldebo\AppData\Local\Temp\ccBZnoYF.s 			page 35


 1939 15a4 F083BDE8 		pop	{r4, r5, r6, r7, r8, r9, pc}
 1940              	.L377:
 1941 15a8 4030D5E5 		ldrb	r3, [r5, #64]	@ zero_extendqisi2
 1942 15ac D4709FE5 		ldr	r7, .L378+4
 1943 15b0 030053E3 		cmp	r3, #3
 1944 15b4 01108400 		addeq	r1, r4, r1
 1945 15b8 8444A001 		lsleq	r4, r4, #9
 1946 15bc 01608410 		addne	r6, r4, r1
 1947 15c0 8164A001 		lsleq	r6, r1, #9
 1948 15c4 960F87E2 		add	r0, r7, #600
 1949 15c8 0410A0E1 		mov	r1, r4
 1950 15cc 85FCFFEB 		bl	sdSendCommandP
 1951 15d0 7040EFE6 		uxtb	r4, r0
 1952 15d4 000054E3 		cmp	r4, #0
 1953 15d8 E5FFFF1A 		bne	.L369
 1954 15dc 0610A0E1 		mov	r1, r6
 1955 15e0 270E87E2 		add	r0, r7, #624
 1956 15e4 7FFCFFEB 		bl	sdSendCommandP
 1957 15e8 7040EFE6 		uxtb	r4, r0
 1958 15ec 000054E3 		cmp	r4, #0
 1959 15f0 DFFFFF1A 		bne	.L369
 1960 15f4 9C32D7E5 		ldrb	r3, [r7, #668]	@ zero_extendqisi2
 1961 15f8 8C009FE5 		ldr	r0, .L378+8
 1962 15fc 011013E2 		ands	r1, r3, #1
 1963 1600 44109515 		ldrne	r1, [r5, #68]
 1964 1604 77FCFFEB 		bl	sdSendCommandP
 1965 1608 7040EFE6 		uxtb	r4, r0
 1966 160c 000054E3 		cmp	r4, #0
 1967 1610 D7FFFF1A 		bne	.L369
 1968 1614 74909FE5 		ldr	r9, .L378+12
 1969 1618 003099E5 		ldr	r3, [r9]
 1970 161c 033683E2 		add	r3, r3, #3145728
 1971 1620 243093E5 		ldr	r3, [r3, #36]
 1972 1624 020013E3 		tst	r3, #2
 1973 1628 D1FFFF0A 		beq	.L369
 1974 162c 0A60A0E3 		mov	r6, #10
 1975 1630 0070A0E3 		mov	r7, #0
 1976 1634 58809FE5 		ldr	r8, .L378+16
 1977              	.L362:
 1978 1638 0710A0E1 		mov	r1, r7
 1979 163c 0600A0E1 		mov	r0, r6
 1980 1640 FEFFFFEB 		bl	timer_wait
 1981 1644 003099E5 		ldr	r3, [r9]
 1982 1648 033683E2 		add	r3, r3, #3145728
 1983 164c 242093E5 		ldr	r2, [r3, #36]
 1984 1650 241083E2 		add	r1, r3, #36
 1985 1654 020012E3 		tst	r2, #2
 1986 1658 C5FFFF0A 		beq	.L369
 1987 165c 018058E2 		subs	r8, r8, #1
 1988 1660 F4FFFF1A 		bne	.L362
 1989 1664 004095E5 		ldr	r4, [r5]
 1990 1668 000054E3 		cmp	r4, #0
 1991 166c C9FFFF0A 		beq	.L375
 1992 1670 001091E5 		ldr	r1, [r1]
 1993 1674 1C009FE5 		ldr	r0, .L378+20
 1994 1678 302093E5 		ldr	r2, [r3, #48]
 1995 167c 34FF2FE1 		blx	r4
ARM GAS  C:\Users\ldebo\AppData\Local\Temp\ccBZnoYF.s 			page 36


 1996 1680 C4FFFFEA 		b	.L375
 1997              	.L379:
 1998              		.align	2
 1999              	.L378:
 2000 1684 00000000 		.word	.LANCHOR0
 2001 1688 00000000 		.word	.LANCHOR1
 2002 168c 88020000 		.word	.LANCHOR1+648
 2003 1690 00000000 		.word	RPi_IO_Base_Addr
 2004 1694 3F420F00 		.word	999999
 2005 1698 78020000 		.word	.LC13
 2006              		.size	sdClearBlocks, .-sdClearBlocks
 2007              		.align	2
 2008              		.global	getSetNextCluster
 2009              		.syntax unified
 2010              		.arm
 2011              		.fpu vfp
 2012              		.type	getSetNextCluster, %function
 2013              	getSetNextCluster:
 2014              		@ args = 0, pretend = 0, frame = 520
 2015              		@ frame_needed = 0, uses_anonymous_args = 0
 2016 169c F04F2DE9 		push	{r4, r5, r6, r7, r8, r9, r10, fp, lr}
 2017 16a0 ECB19FE5 		ldr	fp, .L423
 2018 16a4 83DF4DE2 		sub	sp, sp, #524
 2019 16a8 4030DBE5 		ldrb	r3, [fp, #64]	@ zero_extendqisi2
 2020 16ac 000053E3 		cmp	r3, #0
 2021 16b0 0200001A 		bne	.L421
 2022              	.L416:
 2023 16b4 0000E0E3 		mvn	r0, #0
 2024              	.L380:
 2025 16b8 83DF8DE2 		add	sp, sp, #524
 2026              		@ sp needed
 2027 16bc F08FBDE8 		pop	{r4, r5, r6, r7, r8, r9, r10, fp, pc}
 2028              	.L421:
 2029 16c0 0280A0E1 		mov	r8, r2
 2030 16c4 0170A0E1 		mov	r7, r1
 2031 16c8 0060A0E1 		mov	r6, r0
 2032 16cc 68409BE5 		ldr	r4, [fp, #104]
 2033 16d0 6CA09BE5 		ldr	r10, [fp, #108]
 2034 16d4 5C909BE5 		ldr	r9, [fp, #92]
 2035 16d8 48FAFFEB 		bl	sdWaitForData
 2036 16dc 000050E3 		cmp	r0, #0
 2037 16e0 F3FFFF1A 		bne	.L416
 2038 16e4 0661A0E1 		lsl	r6, r6, #2
 2039 16e8 0910A0E1 		mov	r1, r9
 2040 16ec 0600A0E1 		mov	r0, r6
 2041 16f0 FEFFFFEB 		bl	__aeabi_uidiv
 2042 16f4 0A4084E0 		add	r4, r4, r10
 2043 16f8 98A19FE5 		ldr	r10, .L423+4
 2044 16fc 4030DBE5 		ldrb	r3, [fp, #64]	@ zero_extendqisi2
 2045 1700 00C09AE5 		ldr	ip, [r10]
 2046 1704 030053E3 		cmp	r3, #3
 2047 1708 03C68CE2 		add	ip, ip, #3145728
 2048 170c 003084E0 		add	r3, r4, r0
 2049 1710 04308DE5 		str	r3, [sp, #4]
 2050 1714 8314A001 		lsleq	r1, r3, #9
 2051 1718 0310A011 		movne	r1, r3
 2052 171c 04309CE5 		ldr	r3, [ip, #4]
ARM GAS  C:\Users\ldebo\AppData\Local\Temp\ccBZnoYF.s 			page 37


 2053 1720 74019FE5 		ldr	r0, .L423+8
 2054 1724 FF34C3E3 		bic	r3, r3, #-16777216
 2055 1728 FE38C3E3 		bic	r3, r3, #16646144
 2056 172c 013883E3 		orr	r3, r3, #65536
 2057 1730 04308CE5 		str	r3, [ip, #4]
 2058 1734 04309CE5 		ldr	r3, [ip, #4]
 2059 1738 7F3FC3E3 		bic	r3, r3, #508
 2060 173c 0330C3E3 		bic	r3, r3, #3
 2061 1740 023C83E3 		orr	r3, r3, #512
 2062 1744 04308CE5 		str	r3, [ip, #4]
 2063 1748 26FCFFEB 		bl	sdSendCommandP
 2064 174c FF0010E3 		tst	r0, #255
 2065 1750 D7FFFF1A 		bne	.L416
 2066 1754 2000A0E3 		mov	r0, #32
 2067 1758 68FAFFEB 		bl	sdWaitForInterrupt
 2068 175c 000050E3 		cmp	r0, #0
 2069 1760 4400001A 		bne	.L393
 2070 1764 04508DE2 		add	r5, sp, #4
 2071 1768 0540A0E1 		mov	r4, r5
 2072 176c 00109AE5 		ldr	r1, [r10]
 2073 1770 810F8DE2 		add	r0, sp, #516
 2074 1774 031681E2 		add	r1, r1, #3145728
 2075 1778 201081E2 		add	r1, r1, #32
 2076              	.L386:
 2077 177c 003091E5 		ldr	r3, [r1]
 2078 1780 0430A4E5 		str	r3, [r4, #4]!
 2079 1784 000054E1 		cmp	r4, r0
 2080 1788 FBFFFF1A 		bne	.L386
 2081 178c 0910A0E1 		mov	r1, r9
 2082 1790 0600A0E1 		mov	r0, r6
 2083 1794 FEFFFFEB 		bl	__aeabi_uidivmod
 2084 1798 000057E3 		cmp	r7, #0
 2085 179c 0300001A 		bne	.L422
 2086 17a0 08308DE2 		add	r3, sp, #8
 2087 17a4 010093E7 		ldr	r0, [r3, r1]
 2088 17a8 83DF8DE2 		add	sp, sp, #524
 2089              		@ sp needed
 2090 17ac F08FBDE8 		pop	{r4, r5, r6, r7, r8, r9, r10, fp, pc}
 2091              	.L422:
 2092 17b0 4030DBE5 		ldrb	r3, [fp, #64]	@ zero_extendqisi2
 2093 17b4 08208DE2 		add	r2, sp, #8
 2094 17b8 000053E3 		cmp	r3, #0
 2095 17bc 018082E7 		str	r8, [r2, r1]
 2096 17c0 BBFFFF0A 		beq	.L416
 2097 17c4 0DFAFFEB 		bl	sdWaitForData
 2098 17c8 000050E3 		cmp	r0, #0
 2099 17cc B8FFFF1A 		bne	.L416
 2100 17d0 4030DBE5 		ldrb	r3, [fp, #64]	@ zero_extendqisi2
 2101 17d4 00C09AE5 		ldr	ip, [r10]
 2102 17d8 030053E3 		cmp	r3, #3
 2103 17dc 04309D05 		ldreq	r3, [sp, #4]
 2104 17e0 03C68CE2 		add	ip, ip, #3145728
 2105 17e4 8334A001 		lsleq	r3, r3, #9
 2106 17e8 04308D05 		streq	r3, [sp, #4]
 2107 17ec 04309CE5 		ldr	r3, [ip, #4]
 2108 17f0 04109DE5 		ldr	r1, [sp, #4]
 2109 17f4 FF34C3E3 		bic	r3, r3, #-16777216
ARM GAS  C:\Users\ldebo\AppData\Local\Temp\ccBZnoYF.s 			page 38


 2110 17f8 FE38C3E3 		bic	r3, r3, #16646144
 2111 17fc 013883E3 		orr	r3, r3, #65536
 2112 1800 04308CE5 		str	r3, [ip, #4]
 2113 1804 04309CE5 		ldr	r3, [ip, #4]
 2114 1808 90009FE5 		ldr	r0, .L423+12
 2115 180c 7F3FC3E3 		bic	r3, r3, #508
 2116 1810 0330C3E3 		bic	r3, r3, #3
 2117 1814 023C83E3 		orr	r3, r3, #512
 2118 1818 04308CE5 		str	r3, [ip, #4]
 2119 181c F1FBFFEB 		bl	sdSendCommandP
 2120 1820 FF0010E3 		tst	r0, #255
 2121 1824 A2FFFF1A 		bne	.L416
 2122 1828 1000A0E3 		mov	r0, #16
 2123 182c 33FAFFEB 		bl	sdWaitForInterrupt
 2124 1830 000050E3 		cmp	r0, #0
 2125 1834 0F00001A 		bne	.L393
 2126              	.L390:
 2127 1838 00309AE5 		ldr	r3, [r10]
 2128 183c 0410B5E5 		ldr	r1, [r5, #4]!
 2129 1840 033683E2 		add	r3, r3, #3145728
 2130 1844 040055E1 		cmp	r5, r4
 2131 1848 201083E5 		str	r1, [r3, #32]
 2132 184c F9FFFF1A 		bne	.L390
 2133 1850 0200A0E3 		mov	r0, #2
 2134 1854 29FAFFEB 		bl	sdWaitForInterrupt
 2135 1858 000050E3 		cmp	r0, #0
 2136 185c 95FFFF0A 		beq	.L380
 2137 1860 00309BE5 		ldr	r3, [fp]
 2138 1864 000053E3 		cmp	r3, #0
 2139 1868 91FFFF0A 		beq	.L416
 2140 186c 30009FE5 		ldr	r0, .L423+16
 2141 1870 33FF2FE1 		blx	r3
 2142 1874 8EFFFFEA 		b	.L416
 2143              	.L393:
 2144 1878 00309BE5 		ldr	r3, [fp]
 2145 187c 000053E3 		cmp	r3, #0
 2146 1880 8BFFFF0A 		beq	.L416
 2147 1884 1C009FE5 		ldr	r0, .L423+20
 2148 1888 33FF2FE1 		blx	r3
 2149 188c 0000E0E3 		mvn	r0, #0
 2150 1890 88FFFFEA 		b	.L380
 2151              	.L424:
 2152              		.align	2
 2153              	.L423:
 2154 1894 00000000 		.word	.LANCHOR0
 2155 1898 00000000 		.word	RPi_IO_Base_Addr
 2156 189c 50010000 		.word	.LANCHOR1+336
 2157 18a0 C8010000 		.word	.LANCHOR1+456
 2158 18a4 B4010000 		.word	.LC9
 2159 18a8 88010000 		.word	.LC8
 2160              		.size	getSetNextCluster, .-getSetNextCluster
 2161              		.align	2
 2162              		.global	WildcardMatch
 2163              		.syntax unified
 2164              		.arm
 2165              		.fpu vfp
 2166              		.type	WildcardMatch, %function
ARM GAS  C:\Users\ldebo\AppData\Local\Temp\ccBZnoYF.s 			page 39


 2167              	WildcardMatch:
 2168              		@ args = 0, pretend = 0, frame = 0
 2169              		@ frame_needed = 0, uses_anonymous_args = 0
 2170 18ac F0472DE9 		push	{r4, r5, r6, r7, r8, r9, r10, lr}
 2171 18b0 0050A0E3 		mov	r5, #0
 2172 18b4 0080A0E1 		mov	r8, r0
 2173 18b8 0170A0E1 		mov	r7, r1
 2174 18bc 0560A0E1 		mov	r6, r5
 2175 18c0 1E0000EA 		b	.L426
 2176              	.L429:
 2177 18c4 5B0053E3 		cmp	r3, #91
 2178 18c8 3500000A 		beq	.L433
 2179 18cc 5C0053E3 		cmp	r3, #92
 2180 18d0 2D00001A 		bne	.L427
 2181 18d4 0190D8E5 		ldrb	r9, [r8, #1]	@ zero_extendqisi2
 2182 18d8 024088E2 		add	r4, r8, #2
 2183 18dc 000059E3 		cmp	r9, #0
 2184 18e0 3700000A 		beq	.L436
 2185              	.L434:
 2186 18e4 0080D7E5 		ldrb	r8, [r7]	@ zero_extendqisi2
 2187 18e8 FEFFFFEB 		bl	__locale_ctype_ptr
 2188 18ec 080080E0 		add	r0, r0, r8
 2189 18f0 0130D0E5 		ldrb	r3, [r0, #1]	@ zero_extendqisi2
 2190 18f4 033003E2 		and	r3, r3, #3
 2191 18f8 020053E3 		cmp	r3, #2
 2192 18fc 20804802 		subeq	r8, r8, #32
 2193 1900 FEFFFFEB 		bl	__locale_ctype_ptr
 2194 1904 090080E0 		add	r0, r0, r9
 2195 1908 0130D0E5 		ldrb	r3, [r0, #1]	@ zero_extendqisi2
 2196 190c 033003E2 		and	r3, r3, #3
 2197 1910 020053E3 		cmp	r3, #2
 2198 1914 20904902 		subeq	r9, r9, #32
 2199 1918 090058E1 		cmp	r8, r9
 2200 191c 0030D7E5 		ldrb	r3, [r7]	@ zero_extendqisi2
 2201 1920 3A00000A 		beq	.L470
 2202 1924 000053E3 		cmp	r3, #0
 2203 1928 2500000A 		beq	.L436
 2204 192c 015085E2 		add	r5, r5, #1
 2205 1930 0570A0E1 		mov	r7, r5
 2206 1934 0680A0E1 		mov	r8, r6
 2207              	.L430:
 2208 1938 000058E3 		cmp	r8, #0
 2209 193c 2000000A 		beq	.L436
 2210              	.L426:
 2211 1940 0040D7E5 		ldrb	r4, [r7]	@ zero_extendqisi2
 2212 1944 FEFFFFEB 		bl	__locale_ctype_ptr
 2213 1948 040080E0 		add	r0, r0, r4
 2214 194c 0130D0E5 		ldrb	r3, [r0, #1]	@ zero_extendqisi2
 2215 1950 033003E2 		and	r3, r3, #3
 2216 1954 020053E3 		cmp	r3, #2
 2217 1958 20404402 		subeq	r4, r4, #32
 2218 195c 000054E3 		cmp	r4, #0
 2219 1960 1900000A 		beq	.L471
 2220              	.L446:
 2221 1964 0030D8E5 		ldrb	r3, [r8]	@ zero_extendqisi2
 2222 1968 014088E2 		add	r4, r8, #1
 2223 196c 3F0053E3 		cmp	r3, #63
ARM GAS  C:\Users\ldebo\AppData\Local\Temp\ccBZnoYF.s 			page 40


 2224 1970 2000000A 		beq	.L450
 2225 1974 D2FFFF8A 		bhi	.L429
 2226 1978 2A0053E3 		cmp	r3, #42
 2227 197c 0460A001 		moveq	r6, r4
 2228 1980 0750A001 		moveq	r5, r7
 2229 1984 0680A001 		moveq	r8, r6
 2230 1988 EAFFFF0A 		beq	.L430
 2231              	.L427:
 2232 198c 0390A0E1 		mov	r9, r3
 2233 1990 D3FFFFEA 		b	.L434
 2234              	.L435:
 2235 1994 0130D4E5 		ldrb	r3, [r4, #1]	@ zero_extendqisi2
 2236 1998 024084E2 		add	r4, r4, #2
 2237 199c 000053E3 		cmp	r3, #0
 2238 19a0 0700000A 		beq	.L436
 2239              	.L433:
 2240 19a4 0030D4E5 		ldrb	r3, [r4]	@ zero_extendqisi2
 2241 19a8 5D0053E3 		cmp	r3, #93
 2242 19ac 1C00000A 		beq	.L472
 2243 19b0 5C0053E3 		cmp	r3, #92
 2244 19b4 F6FFFF0A 		beq	.L435
 2245 19b8 000053E3 		cmp	r3, #0
 2246 19bc 014084E2 		add	r4, r4, #1
 2247 19c0 F7FFFF1A 		bne	.L433
 2248              	.L436:
 2249 19c4 0000A0E3 		mov	r0, #0
 2250 19c8 F087BDE8 		pop	{r4, r5, r6, r7, r8, r9, r10, pc}
 2251              	.L471:
 2252 19cc 0040D8E5 		ldrb	r4, [r8]	@ zero_extendqisi2
 2253 19d0 FEFFFFEB 		bl	__locale_ctype_ptr
 2254 19d4 040080E0 		add	r0, r0, r4
 2255 19d8 0130D0E5 		ldrb	r3, [r0, #1]	@ zero_extendqisi2
 2256 19dc 033003E2 		and	r3, r3, #3
 2257 19e0 020053E3 		cmp	r3, #2
 2258 19e4 20404402 		subeq	r4, r4, #32
 2259 19e8 000054E3 		cmp	r4, #0
 2260 19ec DCFFFF1A 		bne	.L446
 2261 19f0 0100A0E3 		mov	r0, #1
 2262 19f4 F087BDE8 		pop	{r4, r5, r6, r7, r8, r9, r10, pc}
 2263              	.L450:
 2264 19f8 0480A0E1 		mov	r8, r4
 2265              	.L428:
 2266 19fc 0030D7E5 		ldrb	r3, [r7]	@ zero_extendqisi2
 2267 1a00 017087E2 		add	r7, r7, #1
 2268 1a04 000053E3 		cmp	r3, #0
 2269 1a08 CAFFFF1A 		bne	.L430
 2270 1a0c ECFFFFEA 		b	.L436
 2271              	.L470:
 2272 1a10 000053E3 		cmp	r3, #0
 2273 1a14 01708712 		addne	r7, r7, #1
 2274 1a18 0480A011 		movne	r8, r4
 2275 1a1c 0480A001 		moveq	r8, r4
 2276 1a20 C4FFFFEA 		b	.L430
 2277              	.L472:
 2278 1a24 015085E2 		add	r5, r5, #1
 2279 1a28 0570A0E1 		mov	r7, r5
 2280 1a2c 0680A0E1 		mov	r8, r6
ARM GAS  C:\Users\ldebo\AppData\Local\Temp\ccBZnoYF.s 			page 41


 2281 1a30 F1FFFFEA 		b	.L428
 2282              		.size	WildcardMatch, .-WildcardMatch
 2283              		.align	2
 2284              		.syntax unified
 2285              		.arm
 2286              		.fpu vfp
 2287              		.type	LocateFATEntry, %function
 2288              	LocateFATEntry:
 2289              		@ args = 4, pretend = 0, frame = 24
 2290              		@ frame_needed = 0, uses_anonymous_args = 0
 2291 1a34 F04F2DE9 		push	{r4, r5, r6, r7, r8, r9, r10, fp, lr}
 2292 1a38 0380A0E1 		mov	r8, r3
 2293 1a3c 0050A0E3 		mov	r5, #0
 2294 1a40 01B0A0E1 		mov	fp, r1
 2295 1a44 0260A0E1 		mov	r6, r2
 2296 1a48 1CD04DE2 		sub	sp, sp, #28
 2297 1a4c D0A69FE5 		ldr	r10, .L606
 2298 1a50 D0969FE5 		ldr	r9, .L606+4
 2299 1a54 04008DE5 		str	r0, [sp, #4]
 2300              	.L474:
 2301 1a58 04109BE5 		ldr	r1, [fp, #4]
 2302 1a5c 011041E2 		sub	r1, r1, #1
 2303 1a60 CF0271E3 		cmn	r1, #-268435444
 2304 1a64 9F01008A 		bhi	.L505
 2305              	.L598:
 2306 1a68 BC369FE5 		ldr	r3, .L606+8
 2307 1a6c 0C409BE5 		ldr	r4, [fp, #12]
 2308 1a70 580093E5 		ldr	r0, [r3, #88]
 2309              	.L506:
 2310 1a74 000054E1 		cmp	r4, r0
 2311 1a78 6601002A 		bcs	.L497
 2312 1a7c 10109BE5 		ldr	r1, [fp, #16]
 2313 1a80 0A0051E1 		cmp	r1, r10
 2314 1a84 6100008A 		bhi	.L498
 2315 1a88 144081E2 		add	r4, r1, #20
 2316 1a8c 0400DBE7 		ldrb	r0, [fp, r4]	@ zero_extendqisi2
 2317 1a90 04408BE0 		add	r4, fp, r4
 2318 1a94 000050E3 		cmp	r0, #0
 2319 1a98 E700000A 		beq	.L499
 2320 1a9c 0670A0E1 		mov	r7, r6
 2321 1aa0 4F0000EA 		b	.L475
 2322              	.L604:
 2323 1aa4 0B30D4E5 		ldrb	r3, [r4, #11]	@ zero_extendqisi2
 2324 1aa8 080053E3 		cmp	r3, #8
 2325 1aac 4E00000A 		beq	.L510
 2326 1ab0 0F0053E3 		cmp	r3, #15
 2327 1ab4 8600000A 		beq	.L602
 2328 1ab8 000055E3 		cmp	r5, #0
 2329 1abc 7100001A 		bne	.L481
 2330 1ac0 200050E3 		cmp	r0, #32
 2331 1ac4 F500000A 		beq	.L511
 2332 1ac8 0000C8E5 		strb	r0, [r8]
 2333 1acc 0130D4E5 		ldrb	r3, [r4, #1]	@ zero_extendqisi2
 2334 1ad0 DF0013E3 		tst	r3, #223
 2335 1ad4 F600000A 		beq	.L512
 2336 1ad8 0130C8E5 		strb	r3, [r8, #1]
 2337 1adc 0230D4E5 		ldrb	r3, [r4, #2]	@ zero_extendqisi2
ARM GAS  C:\Users\ldebo\AppData\Local\Temp\ccBZnoYF.s 			page 42


 2338 1ae0 DF0013E3 		tst	r3, #223
 2339 1ae4 F800000A 		beq	.L513
 2340 1ae8 0230C8E5 		strb	r3, [r8, #2]
 2341 1aec 0330D4E5 		ldrb	r3, [r4, #3]	@ zero_extendqisi2
 2342 1af0 DF0013E3 		tst	r3, #223
 2343 1af4 FA00000A 		beq	.L514
 2344 1af8 0330C8E5 		strb	r3, [r8, #3]
 2345 1afc 0430D4E5 		ldrb	r3, [r4, #4]	@ zero_extendqisi2
 2346 1b00 DF0013E3 		tst	r3, #223
 2347 1b04 FC00000A 		beq	.L515
 2348 1b08 0430C8E5 		strb	r3, [r8, #4]
 2349 1b0c 0530D4E5 		ldrb	r3, [r4, #5]	@ zero_extendqisi2
 2350 1b10 DF0013E3 		tst	r3, #223
 2351 1b14 FE00000A 		beq	.L516
 2352 1b18 0530C8E5 		strb	r3, [r8, #5]
 2353 1b1c 0630D4E5 		ldrb	r3, [r4, #6]	@ zero_extendqisi2
 2354 1b20 DF0013E3 		tst	r3, #223
 2355 1b24 0001000A 		beq	.L517
 2356 1b28 0630C8E5 		strb	r3, [r8, #6]
 2357 1b2c 0730D4E5 		ldrb	r3, [r4, #7]	@ zero_extendqisi2
 2358 1b30 DF0013E3 		tst	r3, #223
 2359 1b34 0201000A 		beq	.L518
 2360 1b38 0730C8E5 		strb	r3, [r8, #7]
 2361 1b3c 0CC0A0E3 		mov	ip, #12
 2362 1b40 0A10A0E3 		mov	r1, #10
 2363 1b44 0930A0E3 		mov	r3, #9
 2364 1b48 0B00A0E3 		mov	r0, #11
 2365 1b4c 0850A0E3 		mov	r5, #8
 2366              	.L482:
 2367 1b50 000057E3 		cmp	r7, #0
 2368 1b54 4900001A 		bne	.L520
 2369 1b58 2EE0A0E3 		mov	lr, #46
 2370 1b5c 05E0C8E7 		strb	lr, [r8, r5]
 2371 1b60 0BE0D4E5 		ldrb	lr, [r4, #11]	@ zero_extendqisi2
 2372 1b64 10005EE3 		cmp	lr, #16
 2373 1b68 B000000A 		beq	.L521
 2374 1b6c 08E0D4E5 		ldrb	lr, [r4, #8]	@ zero_extendqisi2
 2375 1b70 DF001EE3 		tst	lr, #223
 2376 1b74 F800000A 		beq	.L522
 2377 1b78 03E0C8E7 		strb	lr, [r8, r3]
 2378 1b7c 0930D4E5 		ldrb	r3, [r4, #9]	@ zero_extendqisi2
 2379 1b80 DF0013E3 		tst	r3, #223
 2380 1b84 F700000A 		beq	.L523
 2381 1b88 0130C8E7 		strb	r3, [r8, r1]
 2382 1b8c 0A30D4E5 		ldrb	r3, [r4, #10]	@ zero_extendqisi2
 2383 1b90 DF0013E3 		tst	r3, #223
 2384 1b94 F600000A 		beq	.L524
 2385 1b98 0C50A0E1 		mov	r5, ip
 2386 1b9c 0760A0E1 		mov	r6, r7
 2387 1ba0 0030C8E7 		strb	r3, [r8, r0]
 2388              	.L486:
 2389 1ba4 0030A0E3 		mov	r3, #0
 2390 1ba8 0530C8E7 		strb	r3, [r8, r5]
 2391 1bac 0B30D4E5 		ldrb	r3, [r4, #11]	@ zero_extendqisi2
 2392 1bb0 080053E3 		cmp	r3, #8
 2393 1bb4 2A00001A 		bne	.L487
 2394 1bb8 0050A0E3 		mov	r5, #0
ARM GAS  C:\Users\ldebo\AppData\Local\Temp\ccBZnoYF.s 			page 43


 2395 1bbc 10409BE5 		ldr	r4, [fp, #16]
 2396              	.L478:
 2397 1bc0 201084E2 		add	r1, r4, #32
 2398 1bc4 0A0051E1 		cmp	r1, r10
 2399 1bc8 10108BE5 		str	r1, [fp, #16]
 2400 1bcc 0B00008A 		bhi	.L603
 2401              	.L490:
 2402 1bd0 344084E2 		add	r4, r4, #52
 2403 1bd4 0400DBE7 		ldrb	r0, [fp, r4]	@ zero_extendqisi2
 2404 1bd8 04408BE0 		add	r4, fp, r4
 2405 1bdc 000050E3 		cmp	r0, #0
 2406 1be0 9500000A 		beq	.L499
 2407              	.L475:
 2408 1be4 E50050E3 		cmp	r0, #229
 2409 1be8 ADFFFF1A 		bne	.L604
 2410              	.L510:
 2411 1bec 0140A0E1 		mov	r4, r1
 2412 1bf0 201084E2 		add	r1, r4, #32
 2413 1bf4 0A0051E1 		cmp	r1, r10
 2414 1bf8 10108BE5 		str	r1, [fp, #16]
 2415 1bfc F3FFFF9A 		bls	.L490
 2416              	.L603:
 2417 1c00 0760A0E1 		mov	r6, r7
 2418 1c04 20359FE5 		ldr	r3, .L606+8
 2419 1c08 0C409BE5 		ldr	r4, [fp, #12]
 2420 1c0c 580093E5 		ldr	r0, [r3, #88]
 2421              	.L498:
 2422 1c10 014084E2 		add	r4, r4, #1
 2423 1c14 000054E1 		cmp	r4, r0
 2424 1c18 0C408BE5 		str	r4, [fp, #12]
 2425 1c1c 94FFFF2A 		bcs	.L506
 2426 1c20 0000A0E3 		mov	r0, #0
 2427 1c24 00359FE5 		ldr	r3, .L606+8
 2428 1c28 4010D3E5 		ldrb	r1, [r3, #64]	@ zero_extendqisi2
 2429 1c2c 10008BE5 		str	r0, [fp, #16]
 2430 1c30 000051E1 		cmp	r1, r0
 2431 1c34 D100001A 		bne	.L605
 2432              	.L495:
 2433 1c38 40309DE5 		ldr	r3, [sp, #64]
 2434 1c3c 000053E3 		cmp	r3, #0
 2435 1c40 0320A011 		movne	r2, r3
 2436 1c44 0330A013 		movne	r3, #3
 2437 1c48 0040A013 		movne	r4, #0
 2438 1c4c 00308215 		strne	r3, [r2]
 2439 1c50 8000001A 		bne	.L473
 2440              	.L507:
 2441 1c54 0040A0E3 		mov	r4, #0
 2442 1c58 0400A0E1 		mov	r0, r4
 2443 1c5c 1CD08DE2 		add	sp, sp, #28
 2444              		@ sp needed
 2445 1c60 F08FBDE8 		pop	{r4, r5, r6, r7, r8, r9, r10, fp, pc}
 2446              	.L487:
 2447 1c64 0810A0E1 		mov	r1, r8
 2448 1c68 04009DE5 		ldr	r0, [sp, #4]
 2449 1c6c FEFFFFEB 		bl	WildcardMatch
 2450 1c70 005050E2 		subs	r5, r0, #0
 2451 1c74 7A00001A 		bne	.L488
ARM GAS  C:\Users\ldebo\AppData\Local\Temp\ccBZnoYF.s 			page 44


 2452              	.L597:
 2453 1c78 10409BE5 		ldr	r4, [fp, #16]
 2454 1c7c CFFFFFEA 		b	.L478
 2455              	.L520:
 2456 1c80 0060A0E3 		mov	r6, #0
 2457 1c84 C6FFFFEA 		b	.L486
 2458              	.L481:
 2459 1c88 0830A0E1 		mov	r3, r8
 2460 1c8c 0000A0E3 		mov	r0, #0
 2461 1c90 FFC065E2 		rsb	ip, r5, #255
 2462 1c94 0CC088E0 		add	ip, r8, ip
 2463 1c98 05E088E0 		add	lr, r8, r5
 2464              	.L483:
 2465 1c9c 0120DCE4 		ldrb	r2, [ip], #1	@ zero_extendqisi2
 2466 1ca0 2E0052E3 		cmp	r2, #46
 2467 1ca4 0120C3E4 		strb	r2, [r3], #1
 2468 1ca8 0100A003 		moveq	r0, #1
 2469 1cac 03005EE1 		cmp	lr, r3
 2470 1cb0 F9FFFF1A 		bne	.L483
 2471 1cb4 070080E1 		orr	r0, r0, r7
 2472 1cb8 FF0010E3 		tst	r0, #255
 2473 1cbc EFFFFF1A 		bne	.L520
 2474 1cc0 2E30A0E3 		mov	r3, #46
 2475 1cc4 0560A0E1 		mov	r6, r5
 2476 1cc8 0030CEE5 		strb	r3, [lr]
 2477 1ccc 015085E2 		add	r5, r5, #1
 2478 1cd0 B3FFFFEA 		b	.L486
 2479              	.L602:
 2480 1cd4 0030A0E3 		mov	r3, #0
 2481 1cd8 0400A0E1 		mov	r0, r4
 2482 1cdc 08108DE2 		add	r1, sp, #8
 2483 1ce0 08308DE5 		str	r3, [sp, #8]
 2484 1ce4 0C308DE5 		str	r3, [sp, #12]
 2485 1ce8 10308DE5 		str	r3, [sp, #16]
 2486 1cec B431CDE1 		strh	r3, [sp, #20]	@ movhi
 2487 1cf0 10FAFFEB 		bl	ReadLFNEntry
 2488 1cf4 000050E3 		cmp	r0, #0
 2489 1cf8 DEFFFF0A 		beq	.L597
 2490 1cfc 005085E0 		add	r5, r5, r0
 2491 1d00 0810DDE5 		ldrb	r1, [sp, #8]	@ zero_extendqisi2
 2492 1d04 FF3065E2 		rsb	r3, r5, #255
 2493 1d08 010050E3 		cmp	r0, #1
 2494 1d0c 0310C8E7 		strb	r1, [r8, r3]
 2495 1d10 D8FFFF0A 		beq	.L597
 2496 1d14 0910DDE5 		ldrb	r1, [sp, #9]	@ zero_extendqisi2
 2497 1d18 013C65E2 		rsb	r3, r5, #256
 2498 1d1c 020050E3 		cmp	r0, #2
 2499 1d20 0310C8E7 		strb	r1, [r8, r3]
 2500 1d24 D3FFFF0A 		beq	.L597
 2501 1d28 0A10DDE5 		ldrb	r1, [sp, #10]	@ zero_extendqisi2
 2502 1d2c 013C65E2 		rsb	r3, r5, #256
 2503 1d30 013083E2 		add	r3, r3, #1
 2504 1d34 030050E3 		cmp	r0, #3
 2505 1d38 0310C8E7 		strb	r1, [r8, r3]
 2506 1d3c CDFFFF0A 		beq	.L597
 2507 1d40 0B10DDE5 		ldrb	r1, [sp, #11]	@ zero_extendqisi2
 2508 1d44 013C65E2 		rsb	r3, r5, #256
ARM GAS  C:\Users\ldebo\AppData\Local\Temp\ccBZnoYF.s 			page 45


 2509 1d48 023083E2 		add	r3, r3, #2
 2510 1d4c 040050E3 		cmp	r0, #4
 2511 1d50 0310C8E7 		strb	r1, [r8, r3]
 2512 1d54 C7FFFF0A 		beq	.L597
 2513 1d58 0C10DDE5 		ldrb	r1, [sp, #12]	@ zero_extendqisi2
 2514 1d5c 013C65E2 		rsb	r3, r5, #256
 2515 1d60 033083E2 		add	r3, r3, #3
 2516 1d64 050050E3 		cmp	r0, #5
 2517 1d68 0310C8E7 		strb	r1, [r8, r3]
 2518 1d6c C1FFFF0A 		beq	.L597
 2519 1d70 0D10DDE5 		ldrb	r1, [sp, #13]	@ zero_extendqisi2
 2520 1d74 413F65E2 		rsb	r3, r5, #260
 2521 1d78 060050E3 		cmp	r0, #6
 2522 1d7c 0310C8E7 		strb	r1, [r8, r3]
 2523 1d80 BCFFFF0A 		beq	.L597
 2524 1d84 0E10DDE5 		ldrb	r1, [sp, #14]	@ zero_extendqisi2
 2525 1d88 413F65E2 		rsb	r3, r5, #260
 2526 1d8c 013083E2 		add	r3, r3, #1
 2527 1d90 070050E3 		cmp	r0, #7
 2528 1d94 0310C8E7 		strb	r1, [r8, r3]
 2529 1d98 B6FFFF0A 		beq	.L597
 2530 1d9c 0F10DDE5 		ldrb	r1, [sp, #15]	@ zero_extendqisi2
 2531 1da0 413F65E2 		rsb	r3, r5, #260
 2532 1da4 023083E2 		add	r3, r3, #2
 2533 1da8 080050E3 		cmp	r0, #8
 2534 1dac 0310C8E7 		strb	r1, [r8, r3]
 2535 1db0 B0FFFF0A 		beq	.L597
 2536 1db4 1010DDE5 		ldrb	r1, [sp, #16]	@ zero_extendqisi2
 2537 1db8 413F65E2 		rsb	r3, r5, #260
 2538 1dbc 033083E2 		add	r3, r3, #3
 2539 1dc0 090050E3 		cmp	r0, #9
 2540 1dc4 0310C8E7 		strb	r1, [r8, r3]
 2541 1dc8 AAFFFF0A 		beq	.L597
 2542 1dcc 1110DDE5 		ldrb	r1, [sp, #17]	@ zero_extendqisi2
 2543 1dd0 423F65E2 		rsb	r3, r5, #264
 2544 1dd4 0A0050E3 		cmp	r0, #10
 2545 1dd8 0310C8E7 		strb	r1, [r8, r3]
 2546 1ddc A5FFFF0A 		beq	.L597
 2547 1de0 1210DDE5 		ldrb	r1, [sp, #18]	@ zero_extendqisi2
 2548 1de4 013083E2 		add	r3, r3, #1
 2549 1de8 0B0050E3 		cmp	r0, #11
 2550 1dec 0310C8E7 		strb	r1, [r8, r3]
 2551 1df0 A0FFFF0A 		beq	.L597
 2552 1df4 423F65E2 		rsb	r3, r5, #264
 2553 1df8 1310DDE5 		ldrb	r1, [sp, #19]	@ zero_extendqisi2
 2554 1dfc 023083E2 		add	r3, r3, #2
 2555 1e00 0C0050E3 		cmp	r0, #12
 2556 1e04 0310C8E7 		strb	r1, [r8, r3]
 2557 1e08 9AFFFF0A 		beq	.L597
 2558 1e0c 423F65E2 		rsb	r3, r5, #264
 2559 1e10 1410DDE5 		ldrb	r1, [sp, #20]	@ zero_extendqisi2
 2560 1e14 033083E2 		add	r3, r3, #3
 2561 1e18 0D0050E3 		cmp	r0, #13
 2562 1e1c 0310C8E7 		strb	r1, [r8, r3]
 2563 1e20 1510DD15 		ldrbne	r1, [sp, #21]	@ zero_extendqisi2
 2564 1e24 433F6512 		rsbne	r3, r5, #268
 2565 1e28 0310C817 		strbne	r1, [r8, r3]
ARM GAS  C:\Users\ldebo\AppData\Local\Temp\ccBZnoYF.s 			page 46


 2566 1e2c 91FFFFEA 		b	.L597
 2567              	.L521:
 2568 1e30 0560A0E1 		mov	r6, r5
 2569 1e34 0350A0E1 		mov	r5, r3
 2570 1e38 59FFFFEA 		b	.L486
 2571              	.L499:
 2572 1e3c 40309DE5 		ldr	r3, [sp, #64]
 2573 1e40 000053E3 		cmp	r3, #0
 2574 1e44 82FFFF0A 		beq	.L507
 2575 1e48 0320A0E1 		mov	r2, r3
 2576 1e4c 0130A0E3 		mov	r3, #1
 2577 1e50 0040A0E3 		mov	r4, #0
 2578 1e54 003082E5 		str	r3, [r2]
 2579              	.L473:
 2580 1e58 0400A0E1 		mov	r0, r4
 2581 1e5c 1CD08DE2 		add	sp, sp, #28
 2582              		@ sp needed
 2583 1e60 F08FBDE8 		pop	{r4, r5, r6, r7, r8, r9, r10, fp, pc}
 2584              	.L488:
 2585 1e64 0670A0E1 		mov	r7, r6
 2586 1e68 000057E3 		cmp	r7, #0
 2587 1e6c 0020A013 		movne	r2, #0
 2588 1e70 0720C817 		strbne	r2, [r8, r7]
 2589 1e74 10309BE5 		ldr	r3, [fp, #16]
 2590 1e78 40209DE5 		ldr	r2, [sp, #64]
 2591 1e7c 203083E2 		add	r3, r3, #32
 2592 1e80 000052E3 		cmp	r2, #0
 2593 1e84 10308BE5 		str	r3, [fp, #16]
 2594 1e88 F2FFFF0A 		beq	.L473
 2595 1e8c 0030A0E3 		mov	r3, #0
 2596 1e90 0400A0E1 		mov	r0, r4
 2597 1e94 003082E5 		str	r3, [r2]
 2598 1e98 1CD08DE2 		add	sp, sp, #28
 2599              		@ sp needed
 2600 1e9c F08FBDE8 		pop	{r4, r5, r6, r7, r8, r9, r10, fp, pc}
 2601              	.L511:
 2602 1ea0 04C0A0E3 		mov	ip, #4
 2603 1ea4 0210A0E3 		mov	r1, #2
 2604 1ea8 0130A0E3 		mov	r3, #1
 2605 1eac 0300A0E3 		mov	r0, #3
 2606 1eb0 26FFFFEA 		b	.L482
 2607              	.L512:
 2608 1eb4 05C0A0E3 		mov	ip, #5
 2609 1eb8 0310A0E3 		mov	r1, #3
 2610 1ebc 0230A0E3 		mov	r3, #2
 2611 1ec0 0400A0E3 		mov	r0, #4
 2612 1ec4 0150A0E3 		mov	r5, #1
 2613 1ec8 20FFFFEA 		b	.L482
 2614              	.L513:
 2615 1ecc 06C0A0E3 		mov	ip, #6
 2616 1ed0 0410A0E3 		mov	r1, #4
 2617 1ed4 0330A0E3 		mov	r3, #3
 2618 1ed8 0500A0E3 		mov	r0, #5
 2619 1edc 0250A0E3 		mov	r5, #2
 2620 1ee0 1AFFFFEA 		b	.L482
 2621              	.L514:
 2622 1ee4 07C0A0E3 		mov	ip, #7
ARM GAS  C:\Users\ldebo\AppData\Local\Temp\ccBZnoYF.s 			page 47


 2623 1ee8 0510A0E3 		mov	r1, #5
 2624 1eec 0430A0E3 		mov	r3, #4
 2625 1ef0 0600A0E3 		mov	r0, #6
 2626 1ef4 0350A0E3 		mov	r5, #3
 2627 1ef8 14FFFFEA 		b	.L482
 2628              	.L515:
 2629 1efc 08C0A0E3 		mov	ip, #8
 2630 1f00 0610A0E3 		mov	r1, #6
 2631 1f04 0530A0E3 		mov	r3, #5
 2632 1f08 0700A0E3 		mov	r0, #7
 2633 1f0c 0450A0E3 		mov	r5, #4
 2634 1f10 0EFFFFEA 		b	.L482
 2635              	.L516:
 2636 1f14 09C0A0E3 		mov	ip, #9
 2637 1f18 0710A0E3 		mov	r1, #7
 2638 1f1c 0630A0E3 		mov	r3, #6
 2639 1f20 0800A0E3 		mov	r0, #8
 2640 1f24 0550A0E3 		mov	r5, #5
 2641 1f28 08FFFFEA 		b	.L482
 2642              	.L517:
 2643 1f2c 0AC0A0E3 		mov	ip, #10
 2644 1f30 0810A0E3 		mov	r1, #8
 2645 1f34 0730A0E3 		mov	r3, #7
 2646 1f38 0900A0E3 		mov	r0, #9
 2647 1f3c 0650A0E3 		mov	r5, #6
 2648 1f40 02FFFFEA 		b	.L482
 2649              	.L518:
 2650 1f44 0BC0A0E3 		mov	ip, #11
 2651 1f48 0910A0E3 		mov	r1, #9
 2652 1f4c 0830A0E3 		mov	r3, #8
 2653 1f50 0A00A0E3 		mov	r0, #10
 2654 1f54 0750A0E3 		mov	r5, #7
 2655 1f58 FCFEFFEA 		b	.L482
 2656              	.L522:
 2657 1f5c 0350A0E1 		mov	r5, r3
 2658 1f60 0760A0E1 		mov	r6, r7
 2659 1f64 0EFFFFEA 		b	.L486
 2660              	.L523:
 2661 1f68 0150A0E1 		mov	r5, r1
 2662 1f6c 0760A0E1 		mov	r6, r7
 2663 1f70 0BFFFFEA 		b	.L486
 2664              	.L524:
 2665 1f74 0050A0E1 		mov	r5, r0
 2666 1f78 0760A0E1 		mov	r6, r7
 2667 1f7c 08FFFFEA 		b	.L486
 2668              	.L605:
 2669 1f80 08709BE5 		ldr	r7, [fp, #8]
 2670 1f84 1DF8FFEB 		bl	sdWaitForData
 2671 1f88 000050E3 		cmp	r0, #0
 2672 1f8c 29FFFF1A 		bne	.L495
 2673 1f90 00E099E5 		ldr	lr, [r9]
 2674 1f94 90319FE5 		ldr	r3, .L606+8
 2675 1f98 03E68EE2 		add	lr, lr, #3145728
 2676 1f9c 04C09EE5 		ldr	ip, [lr, #4]
 2677 1fa0 4000D3E5 		ldrb	r0, [r3, #64]	@ zero_extendqisi2
 2678 1fa4 FFC4CCE3 		bic	ip, ip, #-16777216
 2679 1fa8 FEC8CCE3 		bic	ip, ip, #16646144
ARM GAS  C:\Users\ldebo\AppData\Local\Temp\ccBZnoYF.s 			page 48


 2680 1fac 01C88CE3 		orr	ip, ip, #65536
 2681 1fb0 04C08EE5 		str	ip, [lr, #4]
 2682 1fb4 04C09EE5 		ldr	ip, [lr, #4]
 2683 1fb8 030050E3 		cmp	r0, #3
 2684 1fbc 7FCFCCE3 		bic	ip, ip, #508
 2685 1fc0 03C0CCE3 		bic	ip, ip, #3
 2686 1fc4 071084E0 		add	r1, r4, r7
 2687 1fc8 02CC8CE3 		orr	ip, ip, #512
 2688 1fcc 8114A001 		lsleq	r1, r1, #9
 2689 1fd0 58019FE5 		ldr	r0, .L606+12
 2690 1fd4 04C08EE5 		str	ip, [lr, #4]
 2691 1fd8 02FAFFEB 		bl	sdSendCommandP
 2692 1fdc FF0010E3 		tst	r0, #255
 2693 1fe0 14FFFF1A 		bne	.L495
 2694 1fe4 2000A0E3 		mov	r0, #32
 2695 1fe8 44F8FFEB 		bl	sdWaitForInterrupt
 2696 1fec 000050E3 		cmp	r0, #0
 2697 1ff0 4400001A 		bne	.L601
 2698 1ff4 10008BE2 		add	r0, fp, #16
 2699 1ff8 21CE8BE2 		add	ip, fp, #528
 2700              	.L496:
 2701 1ffc 003099E5 		ldr	r3, [r9]
 2702 2000 033683E2 		add	r3, r3, #3145728
 2703 2004 203093E5 		ldr	r3, [r3, #32]
 2704 2008 0430A0E5 		str	r3, [r0, #4]!
 2705 200c 0C0050E1 		cmp	r0, ip
 2706 2010 F9FFFF1A 		bne	.L496
 2707 2014 93FEFFEA 		b	.L598
 2708              	.L497:
 2709 2018 04009BE5 		ldr	r0, [fp, #4]
 2710 201c 40FCFFEB 		bl	getSetNextCluster.constprop.6
 2711 2020 0010A0E3 		mov	r1, #0
 2712 2024 00319FE5 		ldr	r3, .L606+8
 2713 2028 024040E2 		sub	r4, r0, #2
 2714 202c 60C093E5 		ldr	ip, [r3, #96]
 2715 2030 58E093E5 		ldr	lr, [r3, #88]
 2716 2034 9EC424E0 		mla	r4, lr, r4, ip
 2717 2038 40C0D3E5 		ldrb	ip, [r3, #64]	@ zero_extendqisi2
 2718 203c 04008BE5 		str	r0, [fp, #4]
 2719 2040 01005CE1 		cmp	ip, r1
 2720 2044 08408BE5 		str	r4, [fp, #8]
 2721 2048 0C108BE5 		str	r1, [fp, #12]
 2722 204c 10108BE5 		str	r1, [fp, #16]
 2723 2050 F8FEFF0A 		beq	.L495
 2724 2054 E9F7FFEB 		bl	sdWaitForData
 2725 2058 000050E3 		cmp	r0, #0
 2726 205c F5FEFF1A 		bne	.L495
 2727 2060 00E099E5 		ldr	lr, [r9]
 2728 2064 C0309FE5 		ldr	r3, .L606+8
 2729 2068 03E68EE2 		add	lr, lr, #3145728
 2730 206c 04C09EE5 		ldr	ip, [lr, #4]
 2731 2070 4010D3E5 		ldrb	r1, [r3, #64]	@ zero_extendqisi2
 2732 2074 FFC4CCE3 		bic	ip, ip, #-16777216
 2733 2078 FEC8CCE3 		bic	ip, ip, #16646144
 2734 207c 01C88CE3 		orr	ip, ip, #65536
 2735 2080 04C08EE5 		str	ip, [lr, #4]
 2736 2084 04C09EE5 		ldr	ip, [lr, #4]
ARM GAS  C:\Users\ldebo\AppData\Local\Temp\ccBZnoYF.s 			page 49


 2737 2088 030051E3 		cmp	r1, #3
 2738 208c 7FCFCCE3 		bic	ip, ip, #508
 2739 2090 03C0CCE3 		bic	ip, ip, #3
 2740 2094 8444A001 		lsleq	r4, r4, #9
 2741 2098 02CC8CE3 		orr	ip, ip, #512
 2742 209c 0410A0E1 		mov	r1, r4
 2743 20a0 88009FE5 		ldr	r0, .L606+12
 2744 20a4 04C08EE5 		str	ip, [lr, #4]
 2745 20a8 CEF9FFEB 		bl	sdSendCommandP
 2746 20ac FF0010E3 		tst	r0, #255
 2747 20b0 E0FEFF1A 		bne	.L495
 2748 20b4 2000A0E3 		mov	r0, #32
 2749 20b8 10F8FFEB 		bl	sdWaitForInterrupt
 2750 20bc 000050E3 		cmp	r0, #0
 2751 20c0 1000001A 		bne	.L601
 2752 20c4 10008BE2 		add	r0, fp, #16
 2753 20c8 21CE8BE2 		add	ip, fp, #528
 2754              	.L504:
 2755 20cc 003099E5 		ldr	r3, [r9]
 2756 20d0 033683E2 		add	r3, r3, #3145728
 2757 20d4 203093E5 		ldr	r3, [r3, #32]
 2758 20d8 0430A0E5 		str	r3, [r0, #4]!
 2759 20dc 00005CE1 		cmp	ip, r0
 2760 20e0 F9FFFF1A 		bne	.L504
 2761 20e4 5BFEFFEA 		b	.L474
 2762              	.L505:
 2763 20e8 40309DE5 		ldr	r3, [sp, #64]
 2764 20ec 000053E3 		cmp	r3, #0
 2765 20f0 D7FEFF0A 		beq	.L507
 2766 20f4 0320A0E1 		mov	r2, r3
 2767 20f8 0230A0E3 		mov	r3, #2
 2768 20fc 0040A0E3 		mov	r4, #0
 2769 2100 003082E5 		str	r3, [r2]
 2770 2104 53FFFFEA 		b	.L473
 2771              	.L601:
 2772 2108 1C309FE5 		ldr	r3, .L606+8
 2773 210c 003093E5 		ldr	r3, [r3]
 2774 2110 000053E3 		cmp	r3, #0
 2775 2114 C7FEFF0A 		beq	.L495
 2776 2118 14009FE5 		ldr	r0, .L606+16
 2777 211c 33FF2FE1 		blx	r3
 2778 2120 C4FEFFEA 		b	.L495
 2779              	.L607:
 2780              		.align	2
 2781              	.L606:
 2782 2124 FF010000 		.word	511
 2783 2128 00000000 		.word	RPi_IO_Base_Addr
 2784 212c 00000000 		.word	.LANCHOR0
 2785 2130 50010000 		.word	.LANCHOR1+336
 2786 2134 88010000 		.word	.LC8
 2787              		.size	LocateFATEntry, .-LocateFATEntry
 2788              		.align	2
 2789              		.syntax unified
 2790              		.arm
 2791              		.fpu vfp
 2792              		.type	LocateFATEntry.constprop.5, %function
 2793              	LocateFATEntry.constprop.5:
ARM GAS  C:\Users\ldebo\AppData\Local\Temp\ccBZnoYF.s 			page 50


 2794              		@ args = 0, pretend = 0, frame = 24
 2795              		@ frame_needed = 0, uses_anonymous_args = 0
 2796 2138 F04F2DE9 		push	{r4, r5, r6, r7, r8, r9, r10, fp, lr}
 2797 213c 0060A0E3 		mov	r6, #0
 2798 2140 0150A0E1 		mov	r5, r1
 2799 2144 0270A0E1 		mov	r7, r2
 2800 2148 1CD04DE2 		sub	sp, sp, #28
 2801 214c 09008DE8 		stm	sp, {r0, r3}
 2802 2150 1C969FE5 		ldr	r9, .L738
 2803 2154 1C869FE5 		ldr	r8, .L738+4
 2804              	.L609:
 2805 2158 043095E5 		ldr	r3, [r5, #4]
 2806 215c 013043E2 		sub	r3, r3, #1
 2807 2160 CF0273E3 		cmn	r3, #-268435444
 2808 2164 7401008A 		bhi	.L643
 2809              	.L729:
 2810 2168 0C369FE5 		ldr	r3, .L738+8
 2811 216c 0C4095E5 		ldr	r4, [r5, #12]
 2812 2170 582093E5 		ldr	r2, [r3, #88]
 2813              	.L644:
 2814 2174 040052E1 		cmp	r2, r4
 2815 2178 3A01009A 		bls	.L635
 2816 217c 103095E5 		ldr	r3, [r5, #16]
 2817 2180 090053E1 		cmp	r3, r9
 2818 2184 4600008A 		bhi	.L636
 2819 2188 144083E2 		add	r4, r3, #20
 2820 218c 0420D5E7 		ldrb	r2, [r5, r4]	@ zero_extendqisi2
 2821 2190 044085E0 		add	r4, r5, r4
 2822 2194 000052E3 		cmp	r2, #0
 2823 2198 3700001A 		bne	.L610
 2824 219c E80000EA 		b	.L637
 2825              	.L736:
 2826 21a0 0B10D4E5 		ldrb	r1, [r4, #11]	@ zero_extendqisi2
 2827 21a4 080051E3 		cmp	r1, #8
 2828 21a8 3500000A 		beq	.L648
 2829 21ac 0F0051E3 		cmp	r1, #15
 2830 21b0 8500000A 		beq	.L734
 2831 21b4 000056E3 		cmp	r6, #0
 2832 21b8 5500001A 		bne	.L616
 2833 21bc 200052E3 		cmp	r2, #32
 2834 21c0 1D00000A 		beq	.L617
 2835 21c4 0020C7E5 		strb	r2, [r7]
 2836 21c8 0130D4E5 		ldrb	r3, [r4, #1]	@ zero_extendqisi2
 2837 21cc DF0013E3 		tst	r3, #223
 2838 21d0 F000000A 		beq	.L650
 2839 21d4 0130C7E5 		strb	r3, [r7, #1]
 2840 21d8 0230D4E5 		ldrb	r3, [r4, #2]	@ zero_extendqisi2
 2841 21dc DF0013E3 		tst	r3, #223
 2842 21e0 EE00000A 		beq	.L651
 2843 21e4 0230C7E5 		strb	r3, [r7, #2]
 2844 21e8 0330D4E5 		ldrb	r3, [r4, #3]	@ zero_extendqisi2
 2845 21ec DF0013E3 		tst	r3, #223
 2846 21f0 EC00000A 		beq	.L652
 2847 21f4 0330C7E5 		strb	r3, [r7, #3]
 2848 21f8 0430D4E5 		ldrb	r3, [r4, #4]	@ zero_extendqisi2
 2849 21fc DF0013E3 		tst	r3, #223
 2850 2200 EA00000A 		beq	.L653
ARM GAS  C:\Users\ldebo\AppData\Local\Temp\ccBZnoYF.s 			page 51


 2851 2204 0430C7E5 		strb	r3, [r7, #4]
 2852 2208 0530D4E5 		ldrb	r3, [r4, #5]	@ zero_extendqisi2
 2853 220c DF0013E3 		tst	r3, #223
 2854 2210 E800000A 		beq	.L654
 2855 2214 0530C7E5 		strb	r3, [r7, #5]
 2856 2218 0630D4E5 		ldrb	r3, [r4, #6]	@ zero_extendqisi2
 2857 221c DF0013E3 		tst	r3, #223
 2858 2220 E600000A 		beq	.L655
 2859 2224 0630C7E5 		strb	r3, [r7, #6]
 2860 2228 0730D4E5 		ldrb	r3, [r4, #7]	@ zero_extendqisi2
 2861 222c DF0013E3 		tst	r3, #223
 2862 2230 E400000A 		beq	.L656
 2863 2234 0860A0E3 		mov	r6, #8
 2864 2238 0730C7E5 		strb	r3, [r7, #7]
 2865              	.L617:
 2866 223c 0030A0E3 		mov	r3, #0
 2867 2240 0630C7E7 		strb	r3, [r7, r6]
 2868 2244 0B30D4E5 		ldrb	r3, [r4, #11]	@ zero_extendqisi2
 2869 2248 080053E3 		cmp	r3, #8
 2870 224c 2900001A 		bne	.L626
 2871 2250 0060A0E3 		mov	r6, #0
 2872 2254 104095E5 		ldr	r4, [r5, #16]
 2873              	.L613:
 2874 2258 203084E2 		add	r3, r4, #32
 2875 225c 090053E1 		cmp	r3, r9
 2876 2260 103085E5 		str	r3, [r5, #16]
 2877 2264 0B00008A 		bhi	.L735
 2878              	.L628:
 2879 2268 344084E2 		add	r4, r4, #52
 2880 226c 0420D5E7 		ldrb	r2, [r5, r4]	@ zero_extendqisi2
 2881 2270 044085E0 		add	r4, r5, r4
 2882 2274 000052E3 		cmp	r2, #0
 2883 2278 B100000A 		beq	.L637
 2884              	.L610:
 2885 227c E50052E3 		cmp	r2, #229
 2886 2280 C6FFFF1A 		bne	.L736
 2887              	.L648:
 2888 2284 0340A0E1 		mov	r4, r3
 2889 2288 203084E2 		add	r3, r4, #32
 2890 228c 090053E1 		cmp	r3, r9
 2891 2290 103085E5 		str	r3, [r5, #16]
 2892 2294 F3FFFF9A 		bls	.L628
 2893              	.L735:
 2894 2298 DC349FE5 		ldr	r3, .L738+8
 2895 229c 0C4095E5 		ldr	r4, [r5, #12]
 2896 22a0 582093E5 		ldr	r2, [r3, #88]
 2897              	.L636:
 2898 22a4 014084E2 		add	r4, r4, #1
 2899 22a8 020054E1 		cmp	r4, r2
 2900 22ac 0C4085E5 		str	r4, [r5, #12]
 2901 22b0 AFFFFF2A 		bcs	.L644
 2902 22b4 0020A0E3 		mov	r2, #0
 2903 22b8 BC349FE5 		ldr	r3, .L738+8
 2904 22bc 4030D3E5 		ldrb	r3, [r3, #64]	@ zero_extendqisi2
 2905 22c0 102085E5 		str	r2, [r5, #16]
 2906 22c4 020053E1 		cmp	r3, r2
 2907 22c8 C000001A 		bne	.L737
ARM GAS  C:\Users\ldebo\AppData\Local\Temp\ccBZnoYF.s 			page 52


 2908              	.L633:
 2909 22cc 04309DE5 		ldr	r3, [sp, #4]
 2910 22d0 000053E3 		cmp	r3, #0
 2911 22d4 0320A011 		movne	r2, r3
 2912 22d8 0330A013 		movne	r3, #3
 2913 22dc 0040A013 		movne	r4, #0
 2914 22e0 00308215 		strne	r3, [r2]
 2915 22e4 9D00001A 		bne	.L608
 2916              	.L645:
 2917 22e8 0040A0E3 		mov	r4, #0
 2918 22ec 0400A0E1 		mov	r0, r4
 2919 22f0 1CD08DE2 		add	sp, sp, #28
 2920              		@ sp needed
 2921 22f4 F08FBDE8 		pop	{r4, r5, r6, r7, r8, r9, r10, fp, pc}
 2922              	.L626:
 2923 22f8 0710A0E1 		mov	r1, r7
 2924 22fc 00009DE5 		ldr	r0, [sp]
 2925 2300 FEFFFFEB 		bl	WildcardMatch
 2926 2304 006050E2 		subs	r6, r0, #0
 2927 2308 9700001A 		bne	.L627
 2928              	.L728:
 2929 230c 104095E5 		ldr	r4, [r5, #16]
 2930 2310 D0FFFFEA 		b	.L613
 2931              	.L616:
 2932 2314 012C66E2 		rsb	r2, r6, #256
 2933 2318 032082E2 		add	r2, r2, #3
 2934 231c 000052E3 		cmp	r2, #0
 2935 2320 0020A0C3 		movgt	r2, #0
 2936 2324 0120A0D3 		movle	r2, #1
 2937 2328 FFA066E2 		rsb	r10, r6, #255
 2938 232c 0A3087E0 		add	r3, r7, r10
 2939 2330 041087E2 		add	r1, r7, #4
 2940 2334 030051E1 		cmp	r1, r3
 2941 2338 01208293 		orrls	r2, r2, #1
 2942 233c 031087E1 		orr	r1, r7, r3
 2943 2340 090056E3 		cmp	r6, #9
 2944 2344 0020A093 		movls	r2, #0
 2945 2348 01200282 		andhi	r2, r2, #1
 2946 234c 030011E3 		tst	r1, #3
 2947 2350 0020A013 		movne	r2, #0
 2948 2354 01200202 		andeq	r2, r2, #1
 2949 2358 000052E3 		cmp	r2, #0
 2950 235c 7100000A 		beq	.L618
 2951 2360 07E0A0E1 		mov	lr, r7
 2952 2364 0000A0E3 		mov	r0, #0
 2953 2368 042046E2 		sub	r2, r6, #4
 2954 236c 2221A0E1 		lsr	r2, r2, #2
 2955 2370 012082E2 		add	r2, r2, #1
 2956 2374 0211A0E1 		lsl	r1, r2, #2
 2957 2378 04C043E2 		sub	ip, r3, #4
 2958              	.L619:
 2959 237c 010080E2 		add	r0, r0, #1
 2960 2380 04B0BCE5 		ldr	fp, [ip, #4]!
 2961 2384 020050E1 		cmp	r0, r2
 2962 2388 04B08EE4 		str	fp, [lr], #4
 2963 238c FAFFFF3A 		bcc	.L619
 2964 2390 010056E1 		cmp	r6, r1
ARM GAS  C:\Users\ldebo\AppData\Local\Temp\ccBZnoYF.s 			page 53


 2965 2394 A8FFFF0A 		beq	.L617
 2966 2398 02C1D3E7 		ldrb	ip, [r3, r2, lsl #2]	@ zero_extendqisi2
 2967 239c 010081E2 		add	r0, r1, #1
 2968 23a0 060050E1 		cmp	r0, r6
 2969 23a4 02C1C7E7 		strb	ip, [r7, r2, lsl #2]
 2970 23a8 A3FFFF2A 		bcs	.L617
 2971 23ac 002087E0 		add	r2, r7, r0
 2972 23b0 021081E2 		add	r1, r1, #2
 2973 23b4 0A20D2E7 		ldrb	r2, [r2, r10]	@ zero_extendqisi2
 2974 23b8 060051E1 		cmp	r1, r6
 2975 23bc 0020C7E7 		strb	r2, [r7, r0]
 2976 23c0 0130D337 		ldrbcc	r3, [r3, r1]	@ zero_extendqisi2
 2977 23c4 0130C737 		strbcc	r3, [r7, r1]
 2978 23c8 9BFFFFEA 		b	.L617
 2979              	.L734:
 2980 23cc 0030A0E3 		mov	r3, #0
 2981 23d0 0400A0E1 		mov	r0, r4
 2982 23d4 08108DE2 		add	r1, sp, #8
 2983 23d8 08308DE5 		str	r3, [sp, #8]
 2984 23dc 0C308DE5 		str	r3, [sp, #12]
 2985 23e0 10308DE5 		str	r3, [sp, #16]
 2986 23e4 B431CDE1 		strh	r3, [sp, #20]	@ movhi
 2987 23e8 52F8FFEB 		bl	ReadLFNEntry
 2988 23ec 000050E3 		cmp	r0, #0
 2989 23f0 C5FFFF0A 		beq	.L728
 2990 23f4 006086E0 		add	r6, r6, r0
 2991 23f8 0820DDE5 		ldrb	r2, [sp, #8]	@ zero_extendqisi2
 2992 23fc FF3066E2 		rsb	r3, r6, #255
 2993 2400 010050E3 		cmp	r0, #1
 2994 2404 0320C7E7 		strb	r2, [r7, r3]
 2995 2408 BFFFFF0A 		beq	.L728
 2996 240c 0920DDE5 		ldrb	r2, [sp, #9]	@ zero_extendqisi2
 2997 2410 013C66E2 		rsb	r3, r6, #256
 2998 2414 020050E3 		cmp	r0, #2
 2999 2418 0320C7E7 		strb	r2, [r7, r3]
 3000 241c BAFFFF0A 		beq	.L728
 3001 2420 0A20DDE5 		ldrb	r2, [sp, #10]	@ zero_extendqisi2
 3002 2424 013C66E2 		rsb	r3, r6, #256
 3003 2428 013083E2 		add	r3, r3, #1
 3004 242c 030050E3 		cmp	r0, #3
 3005 2430 0320C7E7 		strb	r2, [r7, r3]
 3006 2434 B4FFFF0A 		beq	.L728
 3007 2438 0B20DDE5 		ldrb	r2, [sp, #11]	@ zero_extendqisi2
 3008 243c 013C66E2 		rsb	r3, r6, #256
 3009 2440 023083E2 		add	r3, r3, #2
 3010 2444 040050E3 		cmp	r0, #4
 3011 2448 0320C7E7 		strb	r2, [r7, r3]
 3012 244c AEFFFF0A 		beq	.L728
 3013 2450 0C20DDE5 		ldrb	r2, [sp, #12]	@ zero_extendqisi2
 3014 2454 013C66E2 		rsb	r3, r6, #256
 3015 2458 033083E2 		add	r3, r3, #3
 3016 245c 050050E3 		cmp	r0, #5
 3017 2460 0320C7E7 		strb	r2, [r7, r3]
 3018 2464 A8FFFF0A 		beq	.L728
 3019 2468 0D20DDE5 		ldrb	r2, [sp, #13]	@ zero_extendqisi2
 3020 246c 413F66E2 		rsb	r3, r6, #260
 3021 2470 060050E3 		cmp	r0, #6
ARM GAS  C:\Users\ldebo\AppData\Local\Temp\ccBZnoYF.s 			page 54


 3022 2474 0320C7E7 		strb	r2, [r7, r3]
 3023 2478 A3FFFF0A 		beq	.L728
 3024 247c 0E20DDE5 		ldrb	r2, [sp, #14]	@ zero_extendqisi2
 3025 2480 413F66E2 		rsb	r3, r6, #260
 3026 2484 013083E2 		add	r3, r3, #1
 3027 2488 070050E3 		cmp	r0, #7
 3028 248c 0320C7E7 		strb	r2, [r7, r3]
 3029 2490 9DFFFF0A 		beq	.L728
 3030 2494 0F20DDE5 		ldrb	r2, [sp, #15]	@ zero_extendqisi2
 3031 2498 413F66E2 		rsb	r3, r6, #260
 3032 249c 023083E2 		add	r3, r3, #2
 3033 24a0 080050E3 		cmp	r0, #8
 3034 24a4 0320C7E7 		strb	r2, [r7, r3]
 3035 24a8 97FFFF0A 		beq	.L728
 3036 24ac 1020DDE5 		ldrb	r2, [sp, #16]	@ zero_extendqisi2
 3037 24b0 413F66E2 		rsb	r3, r6, #260
 3038 24b4 033083E2 		add	r3, r3, #3
 3039 24b8 090050E3 		cmp	r0, #9
 3040 24bc 0320C7E7 		strb	r2, [r7, r3]
 3041 24c0 91FFFF0A 		beq	.L728
 3042 24c4 1120DDE5 		ldrb	r2, [sp, #17]	@ zero_extendqisi2
 3043 24c8 423F66E2 		rsb	r3, r6, #264
 3044 24cc 0A0050E3 		cmp	r0, #10
 3045 24d0 0320C7E7 		strb	r2, [r7, r3]
 3046 24d4 8CFFFF0A 		beq	.L728
 3047 24d8 1220DDE5 		ldrb	r2, [sp, #18]	@ zero_extendqisi2
 3048 24dc 013083E2 		add	r3, r3, #1
 3049 24e0 0B0050E3 		cmp	r0, #11
 3050 24e4 0320C7E7 		strb	r2, [r7, r3]
 3051 24e8 87FFFF0A 		beq	.L728
 3052 24ec 423F66E2 		rsb	r3, r6, #264
 3053 24f0 1320DDE5 		ldrb	r2, [sp, #19]	@ zero_extendqisi2
 3054 24f4 023083E2 		add	r3, r3, #2
 3055 24f8 0C0050E3 		cmp	r0, #12
 3056 24fc 0320C7E7 		strb	r2, [r7, r3]
 3057 2500 81FFFF0A 		beq	.L728
 3058 2504 423F66E2 		rsb	r3, r6, #264
 3059 2508 1420DDE5 		ldrb	r2, [sp, #20]	@ zero_extendqisi2
 3060 250c 033083E2 		add	r3, r3, #3
 3061 2510 0D0050E3 		cmp	r0, #13
 3062 2514 0320C7E7 		strb	r2, [r7, r3]
 3063 2518 1520DD15 		ldrbne	r2, [sp, #21]	@ zero_extendqisi2
 3064 251c 433F6612 		rsbne	r3, r6, #268
 3065 2520 0320C717 		strbne	r2, [r7, r3]
 3066 2524 78FFFFEA 		b	.L728
 3067              	.L618:
 3068 2528 0720A0E1 		mov	r2, r7
 3069 252c 060087E0 		add	r0, r7, r6
 3070              	.L623:
 3071 2530 0110D3E4 		ldrb	r1, [r3], #1	@ zero_extendqisi2
 3072 2534 0110C2E4 		strb	r1, [r2], #1
 3073 2538 020050E1 		cmp	r0, r2
 3074 253c FBFFFF1A 		bne	.L623
 3075 2540 3DFFFFEA 		b	.L617
 3076              	.L637:
 3077 2544 04309DE5 		ldr	r3, [sp, #4]
 3078 2548 000053E3 		cmp	r3, #0
ARM GAS  C:\Users\ldebo\AppData\Local\Temp\ccBZnoYF.s 			page 55


 3079 254c 65FFFF0A 		beq	.L645
 3080 2550 0320A0E1 		mov	r2, r3
 3081 2554 0130A0E3 		mov	r3, #1
 3082 2558 0040A0E3 		mov	r4, #0
 3083 255c 003082E5 		str	r3, [r2]
 3084              	.L608:
 3085 2560 0400A0E1 		mov	r0, r4
 3086 2564 1CD08DE2 		add	sp, sp, #28
 3087              		@ sp needed
 3088 2568 F08FBDE8 		pop	{r4, r5, r6, r7, r8, r9, r10, fp, pc}
 3089              	.L627:
 3090 256c 103095E5 		ldr	r3, [r5, #16]
 3091 2570 04209DE5 		ldr	r2, [sp, #4]
 3092 2574 203083E2 		add	r3, r3, #32
 3093 2578 000052E3 		cmp	r2, #0
 3094 257c 103085E5 		str	r3, [r5, #16]
 3095 2580 F6FFFF0A 		beq	.L608
 3096 2584 0030A0E3 		mov	r3, #0
 3097 2588 0400A0E1 		mov	r0, r4
 3098 258c 003082E5 		str	r3, [r2]
 3099 2590 1CD08DE2 		add	sp, sp, #28
 3100              		@ sp needed
 3101 2594 F08FBDE8 		pop	{r4, r5, r6, r7, r8, r9, r10, fp, pc}
 3102              	.L650:
 3103 2598 0160A0E3 		mov	r6, #1
 3104 259c 26FFFFEA 		b	.L617
 3105              	.L651:
 3106 25a0 0260A0E3 		mov	r6, #2
 3107 25a4 24FFFFEA 		b	.L617
 3108              	.L652:
 3109 25a8 0360A0E3 		mov	r6, #3
 3110 25ac 22FFFFEA 		b	.L617
 3111              	.L653:
 3112 25b0 0460A0E3 		mov	r6, #4
 3113 25b4 20FFFFEA 		b	.L617
 3114              	.L654:
 3115 25b8 0560A0E3 		mov	r6, #5
 3116 25bc 1EFFFFEA 		b	.L617
 3117              	.L655:
 3118 25c0 0660A0E3 		mov	r6, #6
 3119 25c4 1CFFFFEA 		b	.L617
 3120              	.L656:
 3121 25c8 0760A0E3 		mov	r6, #7
 3122 25cc 1AFFFFEA 		b	.L617
 3123              	.L737:
 3124 25d0 08A095E5 		ldr	r10, [r5, #8]
 3125 25d4 89F6FFEB 		bl	sdWaitForData
 3126 25d8 000050E3 		cmp	r0, #0
 3127 25dc 3AFFFF1A 		bne	.L633
 3128 25e0 94319FE5 		ldr	r3, .L738+8
 3129 25e4 002098E5 		ldr	r2, [r8]
 3130 25e8 4030D3E5 		ldrb	r3, [r3, #64]	@ zero_extendqisi2
 3131 25ec 032682E2 		add	r2, r2, #3145728
 3132 25f0 030053E3 		cmp	r3, #3
 3133 25f4 043092E5 		ldr	r3, [r2, #4]
 3134 25f8 0A1084E0 		add	r1, r4, r10
 3135 25fc FF34C3E3 		bic	r3, r3, #-16777216
ARM GAS  C:\Users\ldebo\AppData\Local\Temp\ccBZnoYF.s 			page 56


 3136 2600 FE38C3E3 		bic	r3, r3, #16646144
 3137 2604 013883E3 		orr	r3, r3, #65536
 3138 2608 043082E5 		str	r3, [r2, #4]
 3139 260c 043092E5 		ldr	r3, [r2, #4]
 3140 2610 8114A001 		lsleq	r1, r1, #9
 3141 2614 7F3FC3E3 		bic	r3, r3, #508
 3142 2618 0330C3E3 		bic	r3, r3, #3
 3143 261c 023C83E3 		orr	r3, r3, #512
 3144 2620 58019FE5 		ldr	r0, .L738+12
 3145 2624 043082E5 		str	r3, [r2, #4]
 3146 2628 6EF8FFEB 		bl	sdSendCommandP
 3147 262c FF0010E3 		tst	r0, #255
 3148 2630 25FFFF1A 		bne	.L633
 3149 2634 2000A0E3 		mov	r0, #32
 3150 2638 B0F6FFEB 		bl	sdWaitForInterrupt
 3151 263c 000050E3 		cmp	r0, #0
 3152 2640 4400001A 		bne	.L732
 3153 2644 102085E2 		add	r2, r5, #16
 3154 2648 211E85E2 		add	r1, r5, #528
 3155              	.L634:
 3156 264c 003098E5 		ldr	r3, [r8]
 3157 2650 033683E2 		add	r3, r3, #3145728
 3158 2654 203093E5 		ldr	r3, [r3, #32]
 3159 2658 0430A2E5 		str	r3, [r2, #4]!
 3160 265c 020051E1 		cmp	r1, r2
 3161 2660 F9FFFF1A 		bne	.L634
 3162 2664 BFFEFFEA 		b	.L729
 3163              	.L635:
 3164 2668 040095E5 		ldr	r0, [r5, #4]
 3165 266c ACFAFFEB 		bl	getSetNextCluster.constprop.6
 3166 2670 0030A0E3 		mov	r3, #0
 3167 2674 00219FE5 		ldr	r2, .L738+8
 3168 2678 024040E2 		sub	r4, r0, #2
 3169 267c 581092E5 		ldr	r1, [r2, #88]
 3170 2680 602092E5 		ldr	r2, [r2, #96]
 3171 2684 912424E0 		mla	r4, r1, r4, r2
 3172 2688 EC209FE5 		ldr	r2, .L738+8
 3173 268c 4020D2E5 		ldrb	r2, [r2, #64]	@ zero_extendqisi2
 3174 2690 040085E5 		str	r0, [r5, #4]
 3175 2694 030052E1 		cmp	r2, r3
 3176 2698 084085E5 		str	r4, [r5, #8]
 3177 269c 0C3085E5 		str	r3, [r5, #12]
 3178 26a0 103085E5 		str	r3, [r5, #16]
 3179 26a4 08FFFF0A 		beq	.L633
 3180 26a8 54F6FFEB 		bl	sdWaitForData
 3181 26ac 000050E3 		cmp	r0, #0
 3182 26b0 05FFFF1A 		bne	.L633
 3183 26b4 C0309FE5 		ldr	r3, .L738+8
 3184 26b8 002098E5 		ldr	r2, [r8]
 3185 26bc 4030D3E5 		ldrb	r3, [r3, #64]	@ zero_extendqisi2
 3186 26c0 032682E2 		add	r2, r2, #3145728
 3187 26c4 030053E3 		cmp	r3, #3
 3188 26c8 043092E5 		ldr	r3, [r2, #4]
 3189 26cc 8444A001 		lsleq	r4, r4, #9
 3190 26d0 FF34C3E3 		bic	r3, r3, #-16777216
 3191 26d4 FE38C3E3 		bic	r3, r3, #16646144
 3192 26d8 013883E3 		orr	r3, r3, #65536
ARM GAS  C:\Users\ldebo\AppData\Local\Temp\ccBZnoYF.s 			page 57


 3193 26dc 043082E5 		str	r3, [r2, #4]
 3194 26e0 043092E5 		ldr	r3, [r2, #4]
 3195 26e4 0410A0E1 		mov	r1, r4
 3196 26e8 7F3FC3E3 		bic	r3, r3, #508
 3197 26ec 0330C3E3 		bic	r3, r3, #3
 3198 26f0 023C83E3 		orr	r3, r3, #512
 3199 26f4 84009FE5 		ldr	r0, .L738+12
 3200 26f8 043082E5 		str	r3, [r2, #4]
 3201 26fc 39F8FFEB 		bl	sdSendCommandP
 3202 2700 FF0010E3 		tst	r0, #255
 3203 2704 F0FEFF1A 		bne	.L633
 3204 2708 2000A0E3 		mov	r0, #32
 3205 270c 7BF6FFEB 		bl	sdWaitForInterrupt
 3206 2710 000050E3 		cmp	r0, #0
 3207 2714 0F00001A 		bne	.L732
 3208 2718 102085E2 		add	r2, r5, #16
 3209 271c 211E85E2 		add	r1, r5, #528
 3210              	.L642:
 3211 2720 003098E5 		ldr	r3, [r8]
 3212 2724 033683E2 		add	r3, r3, #3145728
 3213 2728 203093E5 		ldr	r3, [r3, #32]
 3214 272c 0430A2E5 		str	r3, [r2, #4]!
 3215 2730 020051E1 		cmp	r1, r2
 3216 2734 F9FFFF1A 		bne	.L642
 3217 2738 86FEFFEA 		b	.L609
 3218              	.L643:
 3219 273c 04209DE5 		ldr	r2, [sp, #4]
 3220 2740 000052E3 		cmp	r2, #0
 3221 2744 E7FEFF0A 		beq	.L645
 3222 2748 0230A0E3 		mov	r3, #2
 3223 274c 0040A0E3 		mov	r4, #0
 3224 2750 003082E5 		str	r3, [r2]
 3225 2754 81FFFFEA 		b	.L608
 3226              	.L732:
 3227 2758 1C309FE5 		ldr	r3, .L738+8
 3228 275c 003093E5 		ldr	r3, [r3]
 3229 2760 000053E3 		cmp	r3, #0
 3230 2764 D8FEFF0A 		beq	.L633
 3231 2768 14009FE5 		ldr	r0, .L738+16
 3232 276c 33FF2FE1 		blx	r3
 3233 2770 D5FEFFEA 		b	.L633
 3234              	.L739:
 3235              		.align	2
 3236              	.L738:
 3237 2774 FF010000 		.word	511
 3238 2778 00000000 		.word	RPi_IO_Base_Addr
 3239 277c 00000000 		.word	.LANCHOR0
 3240 2780 50010000 		.word	.LANCHOR1+336
 3241 2784 88010000 		.word	.LC8
 3242              		.size	LocateFATEntry.constprop.5, .-LocateFATEntry.constprop.5
 3243              		.align	2
 3244              		.global	sdFindFirstFile
 3245              		.syntax unified
 3246              		.arm
 3247              		.fpu vfp
 3248              		.type	sdFindFirstFile, %function
 3249              	sdFindFirstFile:
ARM GAS  C:\Users\ldebo\AppData\Local\Temp\ccBZnoYF.s 			page 58


 3250              		@ args = 0, pretend = 0, frame = 24
 3251              		@ frame_needed = 0, uses_anonymous_args = 0
 3252 2788 0030A0E3 		mov	r3, #0
 3253 278c 000051E3 		cmp	r1, #0
 3254 2790 00005013 		cmpne	r0, #0
 3255 2794 F04F2DE9 		push	{r4, r5, r6, r7, r8, r9, r10, fp, lr}
 3256 2798 24D04DE2 		sub	sp, sp, #36
 3257 279c 10108DE5 		str	r1, [sp, #16]
 3258 27a0 1C308DE5 		str	r3, [sp, #28]
 3259 27a4 2A00000A 		beq	.L752
 3260 27a8 64639FE5 		ldr	r6, .L791
 3261 27ac 0030D0E5 		ldrb	r3, [r0]	@ zero_extendqisi2
 3262 27b0 888096E5 		ldr	r8, [r6, #136]
 3263 27b4 5C0053E3 		cmp	r3, #92
 3264 27b8 0050A0E1 		mov	r5, r0
 3265 27bc 01508002 		addeq	r5, r0, #1
 3266 27c0 000058E3 		cmp	r8, #0
 3267 27c4 C600000A 		beq	.L761
 3268 27c8 9C3396E5 		ldr	r3, [r6, #924]
 3269 27cc 000053E3 		cmp	r3, #0
 3270 27d0 C600000A 		beq	.L762
 3271 27d4 B03696E5 		ldr	r3, [r6, #1712]
 3272 27d8 000053E3 		cmp	r3, #0
 3273 27dc 0330A013 		movne	r3, #3
 3274 27e0 0230A003 		moveq	r3, #2
 3275 27e4 0C308DE5 		str	r3, [sp, #12]
 3276              	.L745:
 3277 27e8 C58FA0E3 		mov	r8, #788
 3278 27ec 980308E0 		mul	r8, r8, r3
 3279 27f0 144088E2 		add	r4, r8, #20
 3280              	.L744:
 3281 27f4 C53FA0E3 		mov	r3, #788
 3282 27f8 0020A0E3 		mov	r2, #0
 3283 27fc 541096E5 		ldr	r1, [r6, #84]
 3284 2800 600096E5 		ldr	r0, [r6, #96]
 3285 2804 58C096E5 		ldr	ip, [r6, #88]
 3286 2808 027041E2 		sub	r7, r1, #2
 3287 280c 9C0727E0 		mla	r7, ip, r7, r0
 3288 2810 0C009DE5 		ldr	r0, [sp, #12]
 3289 2814 936023E0 		mla	r3, r3, r0, r6
 3290 2818 4000D6E5 		ldrb	r0, [r6, #64]	@ zero_extendqisi2
 3291 281c 841083E5 		str	r1, [r3, #132]
 3292 2820 020050E1 		cmp	r0, r2
 3293 2824 887083E5 		str	r7, [r3, #136]
 3294 2828 8C2083E5 		str	r2, [r3, #140]
 3295 282c 902083E5 		str	r2, [r3, #144]
 3296 2830 0A00001A 		bne	.L788
 3297              	.L749:
 3298 2834 0020A0E3 		mov	r2, #0
 3299 2838 C53FA0E3 		mov	r3, #788
 3300 283c 0200A0E1 		mov	r0, r2
 3301 2840 0C109DE5 		ldr	r1, [sp, #12]
 3302 2844 936126E0 		mla	r6, r3, r1, r6
 3303 2848 882086E5 		str	r2, [r6, #136]
 3304              	.L740:
 3305 284c 24D08DE2 		add	sp, sp, #36
 3306              		@ sp needed
ARM GAS  C:\Users\ldebo\AppData\Local\Temp\ccBZnoYF.s 			page 59


 3307 2850 F08FBDE8 		pop	{r4, r5, r6, r7, r8, r9, r10, fp, pc}
 3308              	.L752:
 3309 2854 0000A0E3 		mov	r0, #0
 3310 2858 24D08DE2 		add	sp, sp, #36
 3311              		@ sp needed
 3312 285c F08FBDE8 		pop	{r4, r5, r6, r7, r8, r9, r10, fp, pc}
 3313              	.L788:
 3314 2860 E6F5FFEB 		bl	sdWaitForData
 3315 2864 000050E3 		cmp	r0, #0
 3316 2868 F1FFFF1A 		bne	.L749
 3317 286c 4030D6E5 		ldrb	r3, [r6, #64]	@ zero_extendqisi2
 3318 2870 A0029FE5 		ldr	r0, .L791+4
 3319 2874 030053E3 		cmp	r3, #3
 3320 2878 9C329FE5 		ldr	r3, .L791+8
 3321 287c 8774A001 		lsleq	r7, r7, #9
 3322 2880 002093E5 		ldr	r2, [r3]
 3323 2884 0710A0E1 		mov	r1, r7
 3324 2888 032682E2 		add	r2, r2, #3145728
 3325 288c 043092E5 		ldr	r3, [r2, #4]
 3326 2890 FF34C3E3 		bic	r3, r3, #-16777216
 3327 2894 FE38C3E3 		bic	r3, r3, #16646144
 3328 2898 013883E3 		orr	r3, r3, #65536
 3329 289c 043082E5 		str	r3, [r2, #4]
 3330 28a0 043092E5 		ldr	r3, [r2, #4]
 3331 28a4 7F3FC3E3 		bic	r3, r3, #508
 3332 28a8 0330C3E3 		bic	r3, r3, #3
 3333 28ac 023C83E3 		orr	r3, r3, #512
 3334 28b0 043082E5 		str	r3, [r2, #4]
 3335 28b4 CBF7FFEB 		bl	sdSendCommandP
 3336 28b8 FF0010E3 		tst	r0, #255
 3337 28bc DCFFFF1A 		bne	.L749
 3338 28c0 2000A0E3 		mov	r0, #32
 3339 28c4 0DF6FFEB 		bl	sdWaitForInterrupt
 3340 28c8 000050E3 		cmp	r0, #0
 3341 28cc 8A00001A 		bne	.L789
 3342 28d0 44329FE5 		ldr	r3, .L791+8
 3343 28d4 001093E5 		ldr	r1, [r3]
 3344 28d8 40329FE5 		ldr	r3, .L791+12
 3345 28dc 031681E2 		add	r1, r1, #3145728
 3346 28e0 042083E0 		add	r2, r3, r4
 3347 28e4 043042E2 		sub	r3, r2, #4
 3348 28e8 0340A0E1 		mov	r4, r3
 3349 28ec 14308DE5 		str	r3, [sp, #20]
 3350 28f0 7F2F82E2 		add	r2, r2, #508
 3351 28f4 201081E2 		add	r1, r1, #32
 3352              	.L750:
 3353 28f8 003091E5 		ldr	r3, [r1]
 3354 28fc 0430A4E5 		str	r3, [r4, #4]!
 3355 2900 040052E1 		cmp	r2, r4
 3356 2904 FBFFFF1A 		bne	.L750
 3357 2908 C57FA0E3 		mov	r7, #788
 3358 290c 0C309DE5 		ldr	r3, [sp, #12]
 3359 2910 1CB08DE2 		add	fp, sp, #28
 3360 2914 976327E0 		mla	r7, r7, r3, r6
 3361 2918 00329FE5 		ldr	r3, .L791+12
 3362 291c 083083E0 		add	r3, r3, r8
 3363 2920 08308DE5 		str	r3, [sp, #8]
ARM GAS  C:\Users\ldebo\AppData\Local\Temp\ccBZnoYF.s 			page 60


 3364 2924 10309DE5 		ldr	r3, [sp, #16]
 3365 2928 78A083E2 		add	r10, r3, #120
 3366              	.L758:
 3367 292c 5C10A0E3 		mov	r1, #92
 3368 2930 0500A0E1 		mov	r0, r5
 3369 2934 FEFFFFEB 		bl	strchr
 3370 2938 009050E2 		subs	r9, r0, #0
 3371 293c 4200000A 		beq	.L751
 3372 2940 0080A0E3 		mov	r8, #0
 3373 2944 0500A0E1 		mov	r0, r5
 3374 2948 0080C9E5 		strb	r8, [r9]
 3375 294c 0B30A0E1 		mov	r3, fp
 3376 2950 0A20A0E1 		mov	r2, r10
 3377 2954 08109DE5 		ldr	r1, [sp, #8]
 3378 2958 F6FDFFEB 		bl	LocateFATEntry.constprop.5
 3379 295c 000050E3 		cmp	r0, #0
 3380 2960 BBFFFF0A 		beq	.L752
 3381 2964 1B10D0E5 		ldrb	r1, [r0, #27]	@ zero_extendqisi2
 3382 2968 1420D0E5 		ldrb	r2, [r0, #20]	@ zero_extendqisi2
 3383 296c 15C0D0E5 		ldrb	ip, [r0, #21]	@ zero_extendqisi2
 3384 2970 1A30D0E5 		ldrb	r3, [r0, #26]	@ zero_extendqisi2
 3385 2974 0C2482E1 		orr	r2, r2, ip, lsl #8
 3386 2978 013483E1 		orr	r3, r3, r1, lsl #8
 3387 297c 023883E1 		orr	r3, r3, r2, lsl #16
 3388 2980 580096E5 		ldr	r0, [r6, #88]
 3389 2984 602096E5 		ldr	r2, [r6, #96]
 3390 2988 021043E2 		sub	r1, r3, #2
 3391 298c 902125E0 		mla	r5, r0, r1, r2
 3392 2990 4020D6E5 		ldrb	r2, [r6, #64]	@ zero_extendqisi2
 3393 2994 843087E5 		str	r3, [r7, #132]
 3394 2998 080052E1 		cmp	r2, r8
 3395 299c 8C8087E5 		str	r8, [r7, #140]
 3396 29a0 908087E5 		str	r8, [r7, #144]
 3397 29a4 885087E5 		str	r5, [r7, #136]
 3398 29a8 A9FFFF0A 		beq	.L752
 3399 29ac 93F5FFEB 		bl	sdWaitForData
 3400 29b0 080050E1 		cmp	r0, r8
 3401 29b4 A6FFFF1A 		bne	.L752
 3402 29b8 4030D6E5 		ldrb	r3, [r6, #64]	@ zero_extendqisi2
 3403 29bc 54019FE5 		ldr	r0, .L791+4
 3404 29c0 030053E3 		cmp	r3, #3
 3405 29c4 50319FE5 		ldr	r3, .L791+8
 3406 29c8 8554A001 		lsleq	r5, r5, #9
 3407 29cc 003093E5 		ldr	r3, [r3]
 3408 29d0 0510A0E1 		mov	r1, r5
 3409 29d4 033683E2 		add	r3, r3, #3145728
 3410 29d8 042093E5 		ldr	r2, [r3, #4]
 3411 29dc FF24C2E3 		bic	r2, r2, #-16777216
 3412 29e0 FE28C2E3 		bic	r2, r2, #16646144
 3413 29e4 012882E3 		orr	r2, r2, #65536
 3414 29e8 042083E5 		str	r2, [r3, #4]
 3415 29ec 042093E5 		ldr	r2, [r3, #4]
 3416 29f0 7F2FC2E3 		bic	r2, r2, #508
 3417 29f4 0320C2E3 		bic	r2, r2, #3
 3418 29f8 022C82E3 		orr	r2, r2, #512
 3419 29fc 042083E5 		str	r2, [r3, #4]
 3420 2a00 78F7FFEB 		bl	sdSendCommandP
ARM GAS  C:\Users\ldebo\AppData\Local\Temp\ccBZnoYF.s 			page 61


 3421 2a04 7080EFE6 		uxtb	r8, r0
 3422 2a08 000058E3 		cmp	r8, #0
 3423 2a0c 90FFFF1A 		bne	.L752
 3424 2a10 2000A0E3 		mov	r0, #32
 3425 2a14 B9F5FFEB 		bl	sdWaitForInterrupt
 3426 2a18 000050E3 		cmp	r0, #0
 3427 2a1c 2900001A 		bne	.L790
 3428 2a20 F4209FE5 		ldr	r2, .L791+8
 3429 2a24 14309DE5 		ldr	r3, [sp, #20]
 3430 2a28 001092E5 		ldr	r1, [r2]
 3431 2a2c 031681E2 		add	r1, r1, #3145728
 3432 2a30 201081E2 		add	r1, r1, #32
 3433              	.L755:
 3434 2a34 002091E5 		ldr	r2, [r1]
 3435 2a38 0420A3E5 		str	r2, [r3, #4]!
 3436 2a3c 030054E1 		cmp	r4, r3
 3437 2a40 FBFFFF1A 		bne	.L755
 3438 2a44 015089E2 		add	r5, r9, #1
 3439 2a48 B7FFFFEA 		b	.L758
 3440              	.L751:
 3441 2a4c 0A30A0E1 		mov	r3, r10
 3442 2a50 00B08DE5 		str	fp, [sp]
 3443 2a54 0920A0E1 		mov	r2, r9
 3444 2a58 08109DE5 		ldr	r1, [sp, #8]
 3445 2a5c 0500A0E1 		mov	r0, r5
 3446 2a60 F3FBFFEB 		bl	LocateFATEntry
 3447 2a64 1C309DE5 		ldr	r3, [sp, #28]
 3448 2a68 000050E3 		cmp	r0, #0
 3449 2a6c 133F6FE1 		clz	r3, r3
 3450 2a70 A332A0E1 		lsr	r3, r3, #5
 3451 2a74 0030A003 		moveq	r3, #0
 3452 2a78 000053E3 		cmp	r3, #0
 3453 2a7c 6CFFFF0A 		beq	.L749
 3454 2a80 0020D5E5 		ldrb	r2, [r5]	@ zero_extendqisi2
 3455 2a84 000052E3 		cmp	r2, #0
 3456 2a88 0900000A 		beq	.L760
 3457 2a8c C53FA0E3 		mov	r3, #788
 3458 2a90 0C109DE5 		ldr	r1, [sp, #12]
 3459 2a94 84C09FE5 		ldr	ip, .L791+12
 3460 2a98 93C123E0 		mla	r3, r3, r1, ip
 3461 2a9c 213E83E2 		add	r3, r3, #528
 3462 2aa0 033083E2 		add	r3, r3, #3
 3463              	.L757:
 3464 2aa4 0120E3E5 		strb	r2, [r3, #1]!
 3465 2aa8 0120F5E5 		ldrb	r2, [r5, #1]!	@ zero_extendqisi2
 3466 2aac 000052E3 		cmp	r2, #0
 3467 2ab0 FBFFFF1A 		bne	.L757
 3468              	.L760:
 3469 2ab4 10109DE5 		ldr	r1, [sp, #16]
 3470 2ab8 DCF6FFEB 		bl	SetFindDataFromFATEntry.part.0
 3471 2abc 0C309DE5 		ldr	r3, [sp, #12]
 3472 2ac0 010083E2 		add	r0, r3, #1
 3473 2ac4 60FFFFEA 		b	.L740
 3474              	.L790:
 3475 2ac8 003096E5 		ldr	r3, [r6]
 3476 2acc 000053E3 		cmp	r3, #0
 3477 2ad0 5FFFFF0A 		beq	.L752
ARM GAS  C:\Users\ldebo\AppData\Local\Temp\ccBZnoYF.s 			page 62


 3478 2ad4 48009FE5 		ldr	r0, .L791+16
 3479 2ad8 33FF2FE1 		blx	r3
 3480 2adc 0800A0E1 		mov	r0, r8
 3481 2ae0 59FFFFEA 		b	.L740
 3482              	.L761:
 3483 2ae4 1440A0E3 		mov	r4, #20
 3484 2ae8 0C808DE5 		str	r8, [sp, #12]
 3485 2aec 40FFFFEA 		b	.L744
 3486              	.L762:
 3487 2af0 0130A0E3 		mov	r3, #1
 3488 2af4 0C308DE5 		str	r3, [sp, #12]
 3489 2af8 3AFFFFEA 		b	.L745
 3490              	.L789:
 3491 2afc 003096E5 		ldr	r3, [r6]
 3492 2b00 000053E3 		cmp	r3, #0
 3493 2b04 4AFFFF0A 		beq	.L749
 3494 2b08 14009FE5 		ldr	r0, .L791+16
 3495 2b0c 33FF2FE1 		blx	r3
 3496 2b10 47FFFFEA 		b	.L749
 3497              	.L792:
 3498              		.align	2
 3499              	.L791:
 3500 2b14 00000000 		.word	.LANCHOR0
 3501 2b18 50010000 		.word	.LANCHOR1+336
 3502 2b1c 00000000 		.word	RPi_IO_Base_Addr
 3503 2b20 80000000 		.word	.LANCHOR0+128
 3504 2b24 88010000 		.word	.LC8
 3505              		.size	sdFindFirstFile, .-sdFindFirstFile
 3506              		.align	2
 3507              		.global	sdFindNextFile
 3508              		.syntax unified
 3509              		.arm
 3510              		.fpu vfp
 3511              		.type	sdFindNextFile, %function
 3512              	sdFindNextFile:
 3513              		@ args = 0, pretend = 0, frame = 8
 3514              		@ frame_needed = 0, uses_anonymous_args = 0
 3515 2b28 0020A0E3 		mov	r2, #0
 3516 2b2c 70402DE9 		push	{r4, r5, r6, lr}
 3517 2b30 01C040E2 		sub	ip, r0, #1
 3518 2b34 10D04DE2 		sub	sp, sp, #16
 3519 2b38 03005CE3 		cmp	ip, #3
 3520 2b3c 0C208DE5 		str	r2, [sp, #12]
 3521 2b40 0200A081 		movhi	r0, r2
 3522 2b44 0700008A 		bhi	.L793
 3523 2b48 C53FA0E3 		mov	r3, #788
 3524 2b4c 930C03E0 		mul	r3, r3, ip
 3525 2b50 88C09FE5 		ldr	ip, .L801
 3526 2b54 03608CE0 		add	r6, ip, r3
 3527 2b58 88E096E5 		ldr	lr, [r6, #136]
 3528 2b5c 02005EE1 		cmp	lr, r2
 3529 2b60 0E00A001 		moveq	r0, lr
 3530 2b64 0100001A 		bne	.L800
 3531              	.L793:
 3532 2b68 10D08DE2 		add	sp, sp, #16
 3533              		@ sp needed
 3534 2b6c 7080BDE8 		pop	{r4, r5, r6, pc}
ARM GAS  C:\Users\ldebo\AppData\Local\Temp\ccBZnoYF.s 			page 63


 3535              	.L800:
 3536 2b70 0150A0E1 		mov	r5, r1
 3537 2b74 80C08CE2 		add	ip, ip, #128
 3538 2b78 0CE08DE2 		add	lr, sp, #12
 3539 2b7c 0040A0E1 		mov	r4, r0
 3540 2b80 850F83E2 		add	r0, r3, #532
 3541 2b84 03108CE0 		add	r1, ip, r3
 3542 2b88 00008CE0 		add	r0, ip, r0
 3543 2b8c 00E08DE5 		str	lr, [sp]
 3544 2b90 783085E2 		add	r3, r5, #120
 3545 2b94 A6FBFFEB 		bl	LocateFATEntry
 3546 2b98 0C209DE5 		ldr	r2, [sp, #12]
 3547 2b9c 000050E3 		cmp	r0, #0
 3548 2ba0 122F6FE1 		clz	r2, r2
 3549 2ba4 A222A0E1 		lsr	r2, r2, #5
 3550 2ba8 0020A003 		moveq	r2, #0
 3551 2bac 000052E3 		cmp	r2, #0
 3552 2bb0 0600000A 		beq	.L795
 3553 2bb4 000055E3 		cmp	r5, #0
 3554 2bb8 0400A001 		moveq	r0, r4
 3555 2bbc E9FFFF0A 		beq	.L793
 3556 2bc0 0510A0E1 		mov	r1, r5
 3557 2bc4 99F6FFEB 		bl	SetFindDataFromFATEntry.part.0
 3558 2bc8 0400A0E1 		mov	r0, r4
 3559 2bcc E5FFFFEA 		b	.L793
 3560              	.L795:
 3561 2bd0 0200A0E1 		mov	r0, r2
 3562 2bd4 882086E5 		str	r2, [r6, #136]
 3563 2bd8 10D08DE2 		add	sp, sp, #16
 3564              		@ sp needed
 3565 2bdc 7080BDE8 		pop	{r4, r5, r6, pc}
 3566              	.L802:
 3567              		.align	2
 3568              	.L801:
 3569 2be0 00000000 		.word	.LANCHOR0
 3570              		.size	sdFindNextFile, .-sdFindNextFile
 3571              		.align	2
 3572              		.global	sdFindClose
 3573              		.syntax unified
 3574              		.arm
 3575              		.fpu vfp
 3576              		.type	sdFindClose, %function
 3577              	sdFindClose:
 3578              		@ args = 0, pretend = 0, frame = 0
 3579              		@ frame_needed = 0, uses_anonymous_args = 0
 3580              		@ link register save eliminated.
 3581 2be4 010040E2 		sub	r0, r0, #1
 3582 2be8 030050E3 		cmp	r0, #3
 3583 2bec 0800008A 		bhi	.L805
 3584 2bf0 C52FA0E3 		mov	r2, #788
 3585 2bf4 20309FE5 		ldr	r3, .L807
 3586 2bf8 923023E0 		mla	r3, r2, r0, r3
 3587 2bfc 880093E5 		ldr	r0, [r3, #136]
 3588 2c00 000050E3 		cmp	r0, #0
 3589 2c04 0020A013 		movne	r2, #0
 3590 2c08 0100A013 		movne	r0, #1
 3591 2c0c 88208315 		strne	r2, [r3, #136]
ARM GAS  C:\Users\ldebo\AppData\Local\Temp\ccBZnoYF.s 			page 64


 3592 2c10 1EFF2FE1 		bx	lr
 3593              	.L805:
 3594 2c14 0000A0E3 		mov	r0, #0
 3595 2c18 1EFF2FE1 		bx	lr
 3596              	.L808:
 3597              		.align	2
 3598              	.L807:
 3599 2c1c 00000000 		.word	.LANCHOR0
 3600              		.size	sdFindClose, .-sdFindClose
 3601              		.align	2
 3602              		.global	sdCreateFile
 3603              		.syntax unified
 3604              		.arm
 3605              		.fpu vfp
 3606              		.type	sdCreateFile, %function
 3607              	sdCreateFile:
 3608              		@ args = 12, pretend = 0, frame = 272
 3609              		@ frame_needed = 0, uses_anonymous_args = 0
 3610 2c20 0030A0E3 		mov	r3, #0
 3611 2c24 F04F2DE9 		push	{r4, r5, r6, r7, r8, r9, r10, fp, lr}
 3612 2c28 00B050E2 		subs	fp, r0, #0
 3613 2c2c 47DF4DE2 		sub	sp, sp, #284
 3614 2c30 14308DE5 		str	r3, [sp, #20]
 3615 2c34 2E00000A 		beq	.L810
 3616 2c38 78549FE5 		ldr	r5, .L873
 3617 2c3c 0030DBE5 		ldrb	r3, [fp]	@ zero_extendqisi2
 3618 2c40 D86C95E5 		ldr	r6, [r5, #3288]
 3619 2c44 5C0053E3 		cmp	r3, #92
 3620 2c48 01B08B02 		addeq	fp, fp, #1
 3621 2c4c 000056E3 		cmp	r6, #0
 3622 2c50 0901000A 		beq	.L829
 3623 2c54 EC3F95E5 		ldr	r3, [r5, #4076]
 3624 2c58 000053E3 		cmp	r3, #0
 3625 2c5c 0301000A 		beq	.L830
 3626 2c60 013A85E2 		add	r3, r5, #4096
 3627 2c64 001393E5 		ldr	r1, [r3, #768]
 3628 2c68 000051E3 		cmp	r1, #0
 3629 2c6c FC00000A 		beq	.L831
 3630 2c70 141693E5 		ldr	r1, [r3, #1556]
 3631 2c74 000051E3 		cmp	r1, #0
 3632 2c78 F600000A 		beq	.L832
 3633 2c7c 281993E5 		ldr	r1, [r3, #2344]
 3634 2c80 000051E3 		cmp	r1, #0
 3635 2c84 F000000A 		beq	.L833
 3636 2c88 3C1C93E5 		ldr	r1, [r3, #3132]
 3637 2c8c 000051E3 		cmp	r1, #0
 3638 2c90 EA00000A 		beq	.L834
 3639 2c94 503F93E5 		ldr	r3, [r3, #3920]
 3640 2c98 000053E3 		cmp	r3, #0
 3641 2c9c 0730A013 		movne	r3, #7
 3642 2ca0 0630A003 		moveq	r3, #6
 3643 2ca4 0C308DE5 		str	r3, [sp, #12]
 3644              	.L813:
 3645 2ca8 C56FA0E3 		mov	r6, #788
 3646 2cac 0320A0E1 		mov	r2, r3
 3647 2cb0 960306E0 		mul	r6, r6, r3
 3648 2cb4 144086E2 		add	r4, r6, #20
ARM GAS  C:\Users\ldebo\AppData\Local\Temp\ccBZnoYF.s 			page 65


 3649              	.L812:
 3650 2cb8 C53FA0E3 		mov	r3, #788
 3651 2cbc 0010A0E3 		mov	r1, #0
 3652 2cc0 540095E5 		ldr	r0, [r5, #84]
 3653 2cc4 60C095E5 		ldr	ip, [r5, #96]
 3654 2cc8 58E095E5 		ldr	lr, [r5, #88]
 3655 2ccc 027040E2 		sub	r7, r0, #2
 3656 2cd0 935223E0 		mla	r3, r3, r2, r5
 3657 2cd4 9EC727E0 		mla	r7, lr, r7, ip
 3658 2cd8 40C0D5E5 		ldrb	ip, [r5, #64]	@ zero_extendqisi2
 3659 2cdc D40C83E5 		str	r0, [r3, #3284]
 3660 2ce0 01005CE1 		cmp	ip, r1
 3661 2ce4 D87C83E5 		str	r7, [r3, #3288]
 3662 2ce8 DC1C83E5 		str	r1, [r3, #3292]
 3663 2cec E01C83E5 		str	r1, [r3, #3296]
 3664 2cf0 0200001A 		bne	.L869
 3665              	.L810:
 3666 2cf4 0000A0E3 		mov	r0, #0
 3667              	.L809:
 3668 2cf8 47DF8DE2 		add	sp, sp, #284
 3669              		@ sp needed
 3670 2cfc F08FBDE8 		pop	{r4, r5, r6, r7, r8, r9, r10, fp, pc}
 3671              	.L869:
 3672 2d00 BEF4FFEB 		bl	sdWaitForData
 3673 2d04 000050E3 		cmp	r0, #0
 3674 2d08 F9FFFF1A 		bne	.L810
 3675 2d0c 4030D5E5 		ldrb	r3, [r5, #64]	@ zero_extendqisi2
 3676 2d10 A4039FE5 		ldr	r0, .L873+4
 3677 2d14 030053E3 		cmp	r3, #3
 3678 2d18 A0339FE5 		ldr	r3, .L873+8
 3679 2d1c 8774A001 		lsleq	r7, r7, #9
 3680 2d20 00C093E5 		ldr	ip, [r3]
 3681 2d24 0710A0E1 		mov	r1, r7
 3682 2d28 03C68CE2 		add	ip, ip, #3145728
 3683 2d2c 04309CE5 		ldr	r3, [ip, #4]
 3684 2d30 FF34C3E3 		bic	r3, r3, #-16777216
 3685 2d34 FE38C3E3 		bic	r3, r3, #16646144
 3686 2d38 013883E3 		orr	r3, r3, #65536
 3687 2d3c 04308CE5 		str	r3, [ip, #4]
 3688 2d40 04309CE5 		ldr	r3, [ip, #4]
 3689 2d44 7F3FC3E3 		bic	r3, r3, #508
 3690 2d48 0330C3E3 		bic	r3, r3, #3
 3691 2d4c 023C83E3 		orr	r3, r3, #512
 3692 2d50 04308CE5 		str	r3, [ip, #4]
 3693 2d54 A3F6FFEB 		bl	sdSendCommandP
 3694 2d58 7070EFE6 		uxtb	r7, r0
 3695 2d5c 000057E3 		cmp	r7, #0
 3696 2d60 E3FFFF1A 		bne	.L810
 3697 2d64 2000A0E3 		mov	r0, #32
 3698 2d68 E4F4FFEB 		bl	sdWaitForInterrupt
 3699 2d6c 000050E3 		cmp	r0, #0
 3700 2d70 C500001A 		bne	.L870
 3701 2d74 48939FE5 		ldr	r9, .L873+12
 3702 2d78 40339FE5 		ldr	r3, .L873+8
 3703 2d7c 041089E0 		add	r1, r9, r4
 3704 2d80 04A041E2 		sub	r10, r1, #4
 3705 2d84 0A40A0E1 		mov	r4, r10
ARM GAS  C:\Users\ldebo\AppData\Local\Temp\ccBZnoYF.s 			page 66


 3706 2d88 000093E5 		ldr	r0, [r3]
 3707 2d8c 7F1F81E2 		add	r1, r1, #508
 3708 2d90 030680E2 		add	r0, r0, #3145728
 3709 2d94 200080E2 		add	r0, r0, #32
 3710              	.L817:
 3711 2d98 003090E5 		ldr	r3, [r0]
 3712 2d9c 0430A4E5 		str	r3, [r4, #4]!
 3713 2da0 040051E1 		cmp	r1, r4
 3714 2da4 FBFFFF1A 		bne	.L817
 3715 2da8 C53FA0E3 		mov	r3, #788
 3716 2dac 0C209DE5 		ldr	r2, [sp, #12]
 3717 2db0 069089E0 		add	r9, r9, r6
 3718 2db4 935223E0 		mla	r3, r3, r2, r5
 3719 2db8 08A08DE5 		str	r10, [sp, #8]
 3720 2dbc 0360A0E1 		mov	r6, r3
 3721 2dc0 0BA0A0E1 		mov	r10, fp
 3722 2dc4 CD8E83E2 		add	r8, r3, #3280
 3723              	.L827:
 3724 2dc8 5C10A0E3 		mov	r1, #92
 3725 2dcc 0A00A0E1 		mov	r0, r10
 3726 2dd0 FEFFFFEB 		bl	strchr
 3727 2dd4 007050E2 		subs	r7, r0, #0
 3728 2dd8 4200000A 		beq	.L818
 3729 2ddc 00B0A0E3 		mov	fp, #0
 3730 2de0 0A00A0E1 		mov	r0, r10
 3731 2de4 00B0C7E5 		strb	fp, [r7]
 3732 2de8 14308DE2 		add	r3, sp, #20
 3733 2dec 18208DE2 		add	r2, sp, #24
 3734 2df0 0910A0E1 		mov	r1, r9
 3735 2df4 CFFCFFEB 		bl	LocateFATEntry.constprop.5
 3736 2df8 000050E3 		cmp	r0, #0
 3737 2dfc BCFFFF0A 		beq	.L810
 3738 2e00 1B10D0E5 		ldrb	r1, [r0, #27]	@ zero_extendqisi2
 3739 2e04 1420D0E5 		ldrb	r2, [r0, #20]	@ zero_extendqisi2
 3740 2e08 15C0D0E5 		ldrb	ip, [r0, #21]	@ zero_extendqisi2
 3741 2e0c 1A30D0E5 		ldrb	r3, [r0, #26]	@ zero_extendqisi2
 3742 2e10 0C2482E1 		orr	r2, r2, ip, lsl #8
 3743 2e14 013483E1 		orr	r3, r3, r1, lsl #8
 3744 2e18 023883E1 		orr	r3, r3, r2, lsl #16
 3745 2e1c 580095E5 		ldr	r0, [r5, #88]
 3746 2e20 602095E5 		ldr	r2, [r5, #96]
 3747 2e24 021043E2 		sub	r1, r3, #2
 3748 2e28 90212AE0 		mla	r10, r0, r1, r2
 3749 2e2c 4020D5E5 		ldrb	r2, [r5, #64]	@ zero_extendqisi2
 3750 2e30 043088E5 		str	r3, [r8, #4]
 3751 2e34 0B0052E1 		cmp	r2, fp
 3752 2e38 0CB088E5 		str	fp, [r8, #12]
 3753 2e3c E0BC86E5 		str	fp, [r6, #3296]
 3754 2e40 08A088E5 		str	r10, [r8, #8]
 3755 2e44 AAFFFF0A 		beq	.L810
 3756 2e48 6CF4FFEB 		bl	sdWaitForData
 3757 2e4c 0B0050E1 		cmp	r0, fp
 3758 2e50 A7FFFF1A 		bne	.L810
 3759 2e54 4030D5E5 		ldrb	r3, [r5, #64]	@ zero_extendqisi2
 3760 2e58 5C029FE5 		ldr	r0, .L873+4
 3761 2e5c 030053E3 		cmp	r3, #3
 3762 2e60 58329FE5 		ldr	r3, .L873+8
ARM GAS  C:\Users\ldebo\AppData\Local\Temp\ccBZnoYF.s 			page 67


 3763 2e64 8AA4A001 		lsleq	r10, r10, #9
 3764 2e68 002093E5 		ldr	r2, [r3]
 3765 2e6c 0A10A0E1 		mov	r1, r10
 3766 2e70 032682E2 		add	r2, r2, #3145728
 3767 2e74 043092E5 		ldr	r3, [r2, #4]
 3768 2e78 FF34C3E3 		bic	r3, r3, #-16777216
 3769 2e7c FE38C3E3 		bic	r3, r3, #16646144
 3770 2e80 013883E3 		orr	r3, r3, #65536
 3771 2e84 043082E5 		str	r3, [r2, #4]
 3772 2e88 043092E5 		ldr	r3, [r2, #4]
 3773 2e8c 7F3FC3E3 		bic	r3, r3, #508
 3774 2e90 0330C3E3 		bic	r3, r3, #3
 3775 2e94 023C83E3 		orr	r3, r3, #512
 3776 2e98 043082E5 		str	r3, [r2, #4]
 3777 2e9c 51F6FFEB 		bl	sdSendCommandP
 3778 2ea0 70B0EFE6 		uxtb	fp, r0
 3779 2ea4 00005BE3 		cmp	fp, #0
 3780 2ea8 91FFFF1A 		bne	.L810
 3781 2eac 2000A0E3 		mov	r0, #32
 3782 2eb0 92F4FFEB 		bl	sdWaitForInterrupt
 3783 2eb4 000050E3 		cmp	r0, #0
 3784 2eb8 5800001A 		bne	.L871
 3785 2ebc FC219FE5 		ldr	r2, .L873+8
 3786 2ec0 08309DE5 		ldr	r3, [sp, #8]
 3787 2ec4 001092E5 		ldr	r1, [r2]
 3788 2ec8 031681E2 		add	r1, r1, #3145728
 3789 2ecc 201081E2 		add	r1, r1, #32
 3790              	.L821:
 3791 2ed0 002091E5 		ldr	r2, [r1]
 3792 2ed4 0420A3E5 		str	r2, [r3, #4]!
 3793 2ed8 040053E1 		cmp	r3, r4
 3794 2edc FBFFFF1A 		bne	.L821
 3795 2ee0 01A087E2 		add	r10, r7, #1
 3796 2ee4 B7FFFFEA 		b	.L827
 3797              	.L818:
 3798 2ee8 0AB0A0E1 		mov	fp, r10
 3799 2eec 14308DE2 		add	r3, sp, #20
 3800 2ef0 00308DE5 		str	r3, [sp]
 3801 2ef4 0910A0E1 		mov	r1, r9
 3802 2ef8 18308DE2 		add	r3, sp, #24
 3803 2efc 0B00A0E1 		mov	r0, fp
 3804 2f00 0720A0E1 		mov	r2, r7
 3805 2f04 08A09DE5 		ldr	r10, [sp, #8]
 3806 2f08 C9FAFFEB 		bl	LocateFATEntry
 3807 2f0c 14309DE5 		ldr	r3, [sp, #20]
 3808 2f10 000050E3 		cmp	r0, #0
 3809 2f14 133F6FE1 		clz	r3, r3
 3810 2f18 A332A0E1 		lsr	r3, r3, #5
 3811 2f1c 0030A003 		moveq	r3, #0
 3812 2f20 000053E3 		cmp	r3, #0
 3813 2f24 72FFFF0A 		beq	.L810
 3814 2f28 C53FA0E3 		mov	r3, #788
 3815 2f2c 1410D0E5 		ldrb	r1, [r0, #20]	@ zero_extendqisi2
 3816 2f30 15C0D0E5 		ldrb	ip, [r0, #21]	@ zero_extendqisi2
 3817 2f34 1A20D0E5 		ldrb	r2, [r0, #26]	@ zero_extendqisi2
 3818 2f38 1B00D0E5 		ldrb	r0, [r0, #27]	@ zero_extendqisi2
 3819 2f3c 0C1481E1 		orr	r1, r1, ip, lsl #8
ARM GAS  C:\Users\ldebo\AppData\Local\Temp\ccBZnoYF.s 			page 68


 3820 2f40 002482E1 		orr	r2, r2, r0, lsl #8
 3821 2f44 012882E1 		orr	r2, r2, r1, lsl #16
 3822 2f48 580095E5 		ldr	r0, [r5, #88]
 3823 2f4c 601095E5 		ldr	r1, [r5, #96]
 3824 2f50 026042E2 		sub	r6, r2, #2
 3825 2f54 901626E0 		mla	r6, r0, r6, r1
 3826 2f58 0C109DE5 		ldr	r1, [sp, #12]
 3827 2f5c 935123E0 		mla	r3, r3, r1, r5
 3828 2f60 4010D5E5 		ldrb	r1, [r5, #64]	@ zero_extendqisi2
 3829 2f64 D86C83E5 		str	r6, [r3, #3288]
 3830 2f68 000051E3 		cmp	r1, #0
 3831 2f6c D02C83E5 		str	r2, [r3, #3280]
 3832 2f70 D42C83E5 		str	r2, [r3, #3284]
 3833 2f74 DC7C83E5 		str	r7, [r3, #3292]
 3834 2f78 E07C83E5 		str	r7, [r3, #3296]
 3835 2f7c 5CFFFF0A 		beq	.L810
 3836 2f80 1EF4FFEB 		bl	sdWaitForData
 3837 2f84 000050E3 		cmp	r0, #0
 3838 2f88 59FFFF1A 		bne	.L810
 3839 2f8c 4030D5E5 		ldrb	r3, [r5, #64]	@ zero_extendqisi2
 3840 2f90 24019FE5 		ldr	r0, .L873+4
 3841 2f94 030053E3 		cmp	r3, #3
 3842 2f98 20319FE5 		ldr	r3, .L873+8
 3843 2f9c 8664A001 		lsleq	r6, r6, #9
 3844 2fa0 002093E5 		ldr	r2, [r3]
 3845 2fa4 0610A0E1 		mov	r1, r6
 3846 2fa8 032682E2 		add	r2, r2, #3145728
 3847 2fac 043092E5 		ldr	r3, [r2, #4]
 3848 2fb0 FF34C3E3 		bic	r3, r3, #-16777216
 3849 2fb4 FE38C3E3 		bic	r3, r3, #16646144
 3850 2fb8 013883E3 		orr	r3, r3, #65536
 3851 2fbc 043082E5 		str	r3, [r2, #4]
 3852 2fc0 043092E5 		ldr	r3, [r2, #4]
 3853 2fc4 7F3FC3E3 		bic	r3, r3, #508
 3854 2fc8 0330C3E3 		bic	r3, r3, #3
 3855 2fcc 023C83E3 		orr	r3, r3, #512
 3856 2fd0 043082E5 		str	r3, [r2, #4]
 3857 2fd4 03F6FFEB 		bl	sdSendCommandP
 3858 2fd8 7060EFE6 		uxtb	r6, r0
 3859 2fdc 000056E3 		cmp	r6, #0
 3860 2fe0 43FFFF1A 		bne	.L810
 3861 2fe4 2000A0E3 		mov	r0, #32
 3862 2fe8 44F4FFEB 		bl	sdWaitForInterrupt
 3863 2fec 000050E3 		cmp	r0, #0
 3864 2ff0 2C00001A 		bne	.L872
 3865 2ff4 C4309FE5 		ldr	r3, .L873+8
 3866 2ff8 002093E5 		ldr	r2, [r3]
 3867 2ffc 032682E2 		add	r2, r2, #3145728
 3868 3000 202082E2 		add	r2, r2, #32
 3869              	.L825:
 3870 3004 003092E5 		ldr	r3, [r2]
 3871 3008 0430AAE5 		str	r3, [r10, #4]!
 3872 300c 04005AE1 		cmp	r10, r4
 3873 3010 FBFFFF1A 		bne	.L825
 3874 3014 0C309DE5 		ldr	r3, [sp, #12]
 3875 3018 010083E2 		add	r0, r3, #1
 3876 301c 35FFFFEA 		b	.L809
ARM GAS  C:\Users\ldebo\AppData\Local\Temp\ccBZnoYF.s 			page 69


 3877              	.L871:
 3878 3020 003095E5 		ldr	r3, [r5]
 3879 3024 0B60A0E1 		mov	r6, fp
 3880 3028 000053E3 		cmp	r3, #0
 3881 302c 30FFFF0A 		beq	.L810
 3882              	.L866:
 3883 3030 90009FE5 		ldr	r0, .L873+16
 3884 3034 33FF2FE1 		blx	r3
 3885 3038 0600A0E1 		mov	r0, r6
 3886 303c 2DFFFFEA 		b	.L809
 3887              	.L834:
 3888 3040 0530A0E3 		mov	r3, #5
 3889 3044 0C308DE5 		str	r3, [sp, #12]
 3890 3048 16FFFFEA 		b	.L813
 3891              	.L833:
 3892 304c 0430A0E3 		mov	r3, #4
 3893 3050 0C308DE5 		str	r3, [sp, #12]
 3894 3054 13FFFFEA 		b	.L813
 3895              	.L832:
 3896 3058 0330A0E3 		mov	r3, #3
 3897 305c 0C308DE5 		str	r3, [sp, #12]
 3898 3060 10FFFFEA 		b	.L813
 3899              	.L831:
 3900 3064 0230A0E3 		mov	r3, #2
 3901 3068 0C308DE5 		str	r3, [sp, #12]
 3902 306c 0DFFFFEA 		b	.L813
 3903              	.L830:
 3904 3070 0130A0E3 		mov	r3, #1
 3905 3074 0C308DE5 		str	r3, [sp, #12]
 3906 3078 0AFFFFEA 		b	.L813
 3907              	.L829:
 3908 307c 1440A0E3 		mov	r4, #20
 3909 3080 0C608DE5 		str	r6, [sp, #12]
 3910 3084 0620A0E1 		mov	r2, r6
 3911 3088 0AFFFFEA 		b	.L812
 3912              	.L870:
 3913 308c 003095E5 		ldr	r3, [r5]
 3914 3090 000053E3 		cmp	r3, #0
 3915 3094 16FFFF0A 		beq	.L810
 3916 3098 28009FE5 		ldr	r0, .L873+16
 3917 309c 33FF2FE1 		blx	r3
 3918 30a0 0700A0E1 		mov	r0, r7
 3919 30a4 13FFFFEA 		b	.L809
 3920              	.L872:
 3921 30a8 003095E5 		ldr	r3, [r5]
 3922 30ac 000053E3 		cmp	r3, #0
 3923 30b0 DEFFFF1A 		bne	.L866
 3924 30b4 0EFFFFEA 		b	.L810
 3925              	.L874:
 3926              		.align	2
 3927              	.L873:
 3928 30b8 00000000 		.word	.LANCHOR0
 3929 30bc 50010000 		.word	.LANCHOR1+336
 3930 30c0 00000000 		.word	RPi_IO_Base_Addr
 3931 30c4 D00C0000 		.word	.LANCHOR0+3280
 3932 30c8 88010000 		.word	.LC8
 3933              		.size	sdCreateFile, .-sdCreateFile
ARM GAS  C:\Users\ldebo\AppData\Local\Temp\ccBZnoYF.s 			page 70


 3934              		.align	2
 3935              		.global	sdReadFile
 3936              		.syntax unified
 3937              		.arm
 3938              		.fpu vfp
 3939              		.type	sdReadFile, %function
 3940              	sdReadFile:
 3941              		@ args = 4, pretend = 0, frame = 16
 3942              		@ frame_needed = 0, uses_anonymous_args = 0
 3943 30cc 01C040E2 		sub	ip, r0, #1
 3944 30d0 07005CE3 		cmp	ip, #7
 3945 30d4 4100008A 		bhi	.L929
 3946 30d8 C50FA0E3 		mov	r0, #788
 3947 30dc 900C00E0 		mul	r0, r0, ip
 3948 30e0 F04F2DE9 		push	{r4, r5, r6, r7, r8, r9, r10, fp, lr}
 3949 30e4 B4A29FE5 		ldr	r10, .L933
 3950 30e8 14D04DE2 		sub	sp, sp, #20
 3951 30ec 00508AE0 		add	r5, r10, r0
 3952 30f0 D8CC95E5 		ldr	ip, [r5, #3288]
 3953 30f4 00005CE3 		cmp	ip, #0
 3954 30f8 3500000A 		beq	.L879
 3955 30fc 0260A0E1 		mov	r6, r2
 3956 3100 01B0A0E1 		mov	fp, r1
 3957 3104 0040A0E3 		mov	r4, #0
 3958 3108 0C308DE5 		str	r3, [sp, #12]
 3959 310c 140080E2 		add	r0, r0, #20
 3960 3110 CD3E8AE2 		add	r3, r10, #3280
 3961 3114 003083E0 		add	r3, r3, r0
 3962 3118 84729FE5 		ldr	r7, .L933+4
 3963 311c 04308DE5 		str	r3, [sp, #4]
 3964 3120 CD9E85E2 		add	r9, r5, #3280
 3965              	.L893:
 3966 3124 043099E5 		ldr	r3, [r9, #4]
 3967 3128 013043E2 		sub	r3, r3, #1
 3968 312c CF0273E3 		cmn	r3, #-268435444
 3969 3130 2700008A 		bhi	.L879
 3970              	.L888:
 3971 3134 0C2099E5 		ldr	r2, [r9, #12]
 3972 3138 58109AE5 		ldr	r1, [r10, #88]
 3973 313c 010052E1 		cmp	r2, r1
 3974 3140 F7FFFF2A 		bcs	.L893
 3975 3144 060054E1 		cmp	r4, r6
 3976 3148 1700002A 		bcs	.L894
 3977 314c E03C95E5 		ldr	r3, [r5, #3296]
 3978 3150 070053E1 		cmp	r3, r7
 3979 3154 04208B90 		addls	r2, fp, r4
 3980 3158 0300009A 		bls	.L881
 3981 315c 130000EA 		b	.L897
 3982              	.L931:
 3983 3160 E03C95E5 		ldr	r3, [r5, #3296]
 3984 3164 070053E1 		cmp	r3, r7
 3985 3168 8100008A 		bhi	.L930
 3986              	.L881:
 3987 316c 031085E0 		add	r1, r5, r3
 3988 3170 014084E2 		add	r4, r4, #1
 3989 3174 E41CD1E5 		ldrb	r1, [r1, #3300]	@ zero_extendqisi2
 3990 3178 013083E2 		add	r3, r3, #1
ARM GAS  C:\Users\ldebo\AppData\Local\Temp\ccBZnoYF.s 			page 71


 3991 317c 040056E1 		cmp	r6, r4
 3992 3180 E03C85E5 		str	r3, [r5, #3296]
 3993 3184 0110C2E4 		strb	r1, [r2], #1
 3994 3188 F4FFFF1A 		bne	.L931
 3995              	.L880:
 3996 318c 0C309DE5 		ldr	r3, [sp, #12]
 3997 3190 000053E3 		cmp	r3, #0
 3998 3194 0100A003 		moveq	r0, #1
 3999 3198 0E00000A 		beq	.L916
 4000 319c 0100A0E3 		mov	r0, #1
 4001 31a0 006083E5 		str	r6, [r3]
 4002 31a4 14D08DE2 		add	sp, sp, #20
 4003              		@ sp needed
 4004 31a8 F08FBDE8 		pop	{r4, r5, r6, r7, r8, r9, r10, fp, pc}
 4005              	.L894:
 4006 31ac F6FFFF0A 		beq	.L880
 4007              	.L897:
 4008 31b0 018082E2 		add	r8, r2, #1
 4009 31b4 010058E1 		cmp	r8, r1
 4010 31b8 0C8089E5 		str	r8, [r9, #12]
 4011 31bc 3500002A 		bcs	.L884
 4012 31c0 0010A0E3 		mov	r1, #0
 4013 31c4 4030DAE5 		ldrb	r3, [r10, #64]	@ zero_extendqisi2
 4014 31c8 E01C85E5 		str	r1, [r5, #3296]
 4015 31cc 010053E1 		cmp	r3, r1
 4016 31d0 0400001A 		bne	.L932
 4017              	.L879:
 4018 31d4 0000A0E3 		mov	r0, #0
 4019              	.L916:
 4020 31d8 14D08DE2 		add	sp, sp, #20
 4021              		@ sp needed
 4022 31dc F08FBDE8 		pop	{r4, r5, r6, r7, r8, r9, r10, fp, pc}
 4023              	.L929:
 4024 31e0 0000A0E3 		mov	r0, #0
 4025 31e4 1EFF2FE1 		bx	lr
 4026              	.L932:
 4027 31e8 083099E5 		ldr	r3, [r9, #8]
 4028 31ec 08308DE5 		str	r3, [sp, #8]
 4029 31f0 82F3FFEB 		bl	sdWaitForData
 4030 31f4 000050E3 		cmp	r0, #0
 4031 31f8 F5FFFF1A 		bne	.L879
 4032 31fc 4030DAE5 		ldrb	r3, [r10, #64]	@ zero_extendqisi2
 4033 3200 08209DE5 		ldr	r2, [sp, #8]
 4034 3204 030053E3 		cmp	r3, #3
 4035 3208 98319FE5 		ldr	r3, .L933+8
 4036 320c 021088E0 		add	r1, r8, r2
 4037 3210 002093E5 		ldr	r2, [r3]
 4038 3214 8114A001 		lsleq	r1, r1, #9
 4039 3218 032682E2 		add	r2, r2, #3145728
 4040 321c 043092E5 		ldr	r3, [r2, #4]
 4041 3220 84019FE5 		ldr	r0, .L933+12
 4042 3224 FF34C3E3 		bic	r3, r3, #-16777216
 4043 3228 FE38C3E3 		bic	r3, r3, #16646144
 4044 322c 013883E3 		orr	r3, r3, #65536
 4045 3230 043082E5 		str	r3, [r2, #4]
 4046 3234 043092E5 		ldr	r3, [r2, #4]
 4047 3238 7F3FC3E3 		bic	r3, r3, #508
ARM GAS  C:\Users\ldebo\AppData\Local\Temp\ccBZnoYF.s 			page 72


 4048 323c 0330C3E3 		bic	r3, r3, #3
 4049 3240 023C83E3 		orr	r3, r3, #512
 4050 3244 043082E5 		str	r3, [r2, #4]
 4051 3248 66F5FFEB 		bl	sdSendCommandP
 4052 324c 7080EFE6 		uxtb	r8, r0
 4053 3250 000058E3 		cmp	r8, #0
 4054 3254 DEFFFF1A 		bne	.L879
 4055 3258 2000A0E3 		mov	r0, #32
 4056 325c A7F3FFEB 		bl	sdWaitForInterrupt
 4057 3260 000050E3 		cmp	r0, #0
 4058 3264 4500001A 		bne	.L926
 4059 3268 38319FE5 		ldr	r3, .L933+8
 4060 326c 04209DE5 		ldr	r2, [sp, #4]
 4061 3270 001093E5 		ldr	r1, [r3]
 4062 3274 7F0F82E2 		add	r0, r2, #508
 4063 3278 031681E2 		add	r1, r1, #3145728
 4064 327c 043042E2 		sub	r3, r2, #4
 4065 3280 201081E2 		add	r1, r1, #32
 4066              	.L887:
 4067 3284 002091E5 		ldr	r2, [r1]
 4068 3288 0420A3E5 		str	r2, [r3, #4]!
 4069 328c 030050E1 		cmp	r0, r3
 4070 3290 FBFFFF1A 		bne	.L887
 4071 3294 A6FFFFEA 		b	.L888
 4072              	.L884:
 4073 3298 040099E5 		ldr	r0, [r9, #4]
 4074 329c A0F7FFEB 		bl	getSetNextCluster.constprop.6
 4075 32a0 0030A0E3 		mov	r3, #0
 4076 32a4 58209AE5 		ldr	r2, [r10, #88]
 4077 32a8 60109AE5 		ldr	r1, [r10, #96]
 4078 32ac 028040E2 		sub	r8, r0, #2
 4079 32b0 921828E0 		mla	r8, r2, r8, r1
 4080 32b4 4020DAE5 		ldrb	r2, [r10, #64]	@ zero_extendqisi2
 4081 32b8 040089E5 		str	r0, [r9, #4]
 4082 32bc 030052E1 		cmp	r2, r3
 4083 32c0 088089E5 		str	r8, [r9, #8]
 4084 32c4 0C3089E5 		str	r3, [r9, #12]
 4085 32c8 E03C85E5 		str	r3, [r5, #3296]
 4086 32cc C0FFFF0A 		beq	.L879
 4087 32d0 4AF3FFEB 		bl	sdWaitForData
 4088 32d4 000050E3 		cmp	r0, #0
 4089 32d8 BDFFFF1A 		bne	.L879
 4090 32dc 4030DAE5 		ldrb	r3, [r10, #64]	@ zero_extendqisi2
 4091 32e0 C4009FE5 		ldr	r0, .L933+12
 4092 32e4 030053E3 		cmp	r3, #3
 4093 32e8 B8309FE5 		ldr	r3, .L933+8
 4094 32ec 8884A001 		lsleq	r8, r8, #9
 4095 32f0 002093E5 		ldr	r2, [r3]
 4096 32f4 0810A0E1 		mov	r1, r8
 4097 32f8 032682E2 		add	r2, r2, #3145728
 4098 32fc 043092E5 		ldr	r3, [r2, #4]
 4099 3300 FF34C3E3 		bic	r3, r3, #-16777216
 4100 3304 FE38C3E3 		bic	r3, r3, #16646144
 4101 3308 013883E3 		orr	r3, r3, #65536
 4102 330c 043082E5 		str	r3, [r2, #4]
 4103 3310 043092E5 		ldr	r3, [r2, #4]
 4104 3314 7F3FC3E3 		bic	r3, r3, #508
ARM GAS  C:\Users\ldebo\AppData\Local\Temp\ccBZnoYF.s 			page 73


 4105 3318 0330C3E3 		bic	r3, r3, #3
 4106 331c 023C83E3 		orr	r3, r3, #512
 4107 3320 043082E5 		str	r3, [r2, #4]
 4108 3324 2FF5FFEB 		bl	sdSendCommandP
 4109 3328 7080EFE6 		uxtb	r8, r0
 4110 332c 000058E3 		cmp	r8, #0
 4111 3330 A7FFFF1A 		bne	.L879
 4112 3334 2000A0E3 		mov	r0, #32
 4113 3338 70F3FFEB 		bl	sdWaitForInterrupt
 4114 333c 000050E3 		cmp	r0, #0
 4115 3340 0E00001A 		bne	.L926
 4116 3344 5C309FE5 		ldr	r3, .L933+8
 4117 3348 04209DE5 		ldr	r2, [sp, #4]
 4118 334c 001093E5 		ldr	r1, [r3]
 4119 3350 7F0F82E2 		add	r0, r2, #508
 4120 3354 031681E2 		add	r1, r1, #3145728
 4121 3358 043042E2 		sub	r3, r2, #4
 4122 335c 201081E2 		add	r1, r1, #32
 4123              	.L891:
 4124 3360 002091E5 		ldr	r2, [r1]
 4125 3364 0420A3E5 		str	r2, [r3, #4]!
 4126 3368 030050E1 		cmp	r0, r3
 4127 336c FBFFFF1A 		bne	.L891
 4128 3370 6FFFFFEA 		b	.L888
 4129              	.L930:
 4130 3374 0C2099E5 		ldr	r2, [r9, #12]
 4131 3378 58109AE5 		ldr	r1, [r10, #88]
 4132 337c 8BFFFFEA 		b	.L897
 4133              	.L926:
 4134 3380 00309AE5 		ldr	r3, [r10]
 4135 3384 000053E3 		cmp	r3, #0
 4136 3388 91FFFF0A 		beq	.L879
 4137 338c 1C009FE5 		ldr	r0, .L933+16
 4138 3390 33FF2FE1 		blx	r3
 4139 3394 0800A0E1 		mov	r0, r8
 4140 3398 14D08DE2 		add	sp, sp, #20
 4141              		@ sp needed
 4142 339c F08FBDE8 		pop	{r4, r5, r6, r7, r8, r9, r10, fp, pc}
 4143              	.L934:
 4144              		.align	2
 4145              	.L933:
 4146 33a0 00000000 		.word	.LANCHOR0
 4147 33a4 FF010000 		.word	511
 4148 33a8 00000000 		.word	RPi_IO_Base_Addr
 4149 33ac 50010000 		.word	.LANCHOR1+336
 4150 33b0 88010000 		.word	.LC8
 4151              		.size	sdReadFile, .-sdReadFile
 4152              		.align	2
 4153              		.global	sdCloseHandle
 4154              		.syntax unified
 4155              		.arm
 4156              		.fpu vfp
 4157              		.type	sdCloseHandle, %function
 4158              	sdCloseHandle:
 4159              		@ args = 0, pretend = 0, frame = 0
 4160              		@ frame_needed = 0, uses_anonymous_args = 0
 4161              		@ link register save eliminated.
ARM GAS  C:\Users\ldebo\AppData\Local\Temp\ccBZnoYF.s 			page 74


 4162 33b4 010040E2 		sub	r0, r0, #1
 4163 33b8 070050E3 		cmp	r0, #7
 4164 33bc 0800008A 		bhi	.L937
 4165 33c0 C52FA0E3 		mov	r2, #788
 4166 33c4 20309FE5 		ldr	r3, .L939
 4167 33c8 923023E0 		mla	r3, r2, r0, r3
 4168 33cc D80C93E5 		ldr	r0, [r3, #3288]
 4169 33d0 000050E3 		cmp	r0, #0
 4170 33d4 0020A013 		movne	r2, #0
 4171 33d8 0100A013 		movne	r0, #1
 4172 33dc D82C8315 		strne	r2, [r3, #3288]
 4173 33e0 1EFF2FE1 		bx	lr
 4174              	.L937:
 4175 33e4 0000A0E3 		mov	r0, #0
 4176 33e8 1EFF2FE1 		bx	lr
 4177              	.L940:
 4178              		.align	2
 4179              	.L939:
 4180 33ec 00000000 		.word	.LANCHOR0
 4181              		.size	sdCloseHandle, .-sdCloseHandle
 4182              		.align	2
 4183              		.global	sdSetFilePointer
 4184              		.syntax unified
 4185              		.arm
 4186              		.fpu vfp
 4187              		.type	sdSetFilePointer, %function
 4188              	sdSetFilePointer:
 4189              		@ args = 0, pretend = 0, frame = 16
 4190              		@ frame_needed = 0, uses_anonymous_args = 0
 4191 33f0 F04F2DE9 		push	{r4, r5, r6, r7, r8, r9, r10, fp, lr}
 4192 33f4 01A040E2 		sub	r10, r0, #1
 4193 33f8 07005AE3 		cmp	r10, #7
 4194 33fc 14D04DE2 		sub	sp, sp, #20
 4195 3400 02B0A0E1 		mov	fp, r2
 4196 3404 0A00008A 		bhi	.L959
 4197 3408 C5CFA0E3 		mov	ip, #788
 4198 340c 34739FE5 		ldr	r7, .L994
 4199 3410 9C7A2CE0 		mla	ip, ip, r10, r7
 4200 3414 D80C9CE5 		ldr	r0, [ip, #3288]
 4201 3418 000050E3 		cmp	r0, #0
 4202 341c 0600001A 		bne	.L992
 4203              	.L942:
 4204 3420 00005BE3 		cmp	fp, #0
 4205 3424 0030A013 		movne	r3, #0
 4206 3428 00308B15 		strne	r3, [fp]
 4207 342c 14D08DE2 		add	sp, sp, #20
 4208              		@ sp needed
 4209 3430 F08FBDE8 		pop	{r4, r5, r6, r7, r8, r9, r10, fp, pc}
 4210              	.L959:
 4211 3434 0000A0E3 		mov	r0, #0
 4212 3438 F8FFFFEA 		b	.L942
 4213              	.L992:
 4214 343c 0180A0E1 		mov	r8, r1
 4215 3440 0010A0E3 		mov	r1, #0
 4216 3444 D00C9CE5 		ldr	r0, [ip, #3280]
 4217 3448 60E097E5 		ldr	lr, [r7, #96]
 4218 344c 585097E5 		ldr	r5, [r7, #88]
ARM GAS  C:\Users\ldebo\AppData\Local\Temp\ccBZnoYF.s 			page 75


 4219 3450 024040E2 		sub	r4, r0, #2
 4220 3454 95E424E0 		mla	r4, r5, r4, lr
 4221 3458 40E0D7E5 		ldrb	lr, [r7, #64]	@ zero_extendqisi2
 4222 345c D40C8CE5 		str	r0, [ip, #3284]
 4223 3460 01005EE1 		cmp	lr, r1
 4224 3464 D84C8CE5 		str	r4, [ip, #3288]
 4225 3468 DC1C8CE5 		str	r1, [ip, #3292]
 4226 346c E01C8CE5 		str	r1, [ip, #3296]
 4227 3470 0200001A 		bne	.L993
 4228              	.L987:
 4229 3474 0000E0E3 		mvn	r0, #0
 4230 3478 14D08DE2 		add	sp, sp, #20
 4231              		@ sp needed
 4232 347c F08FBDE8 		pop	{r4, r5, r6, r7, r8, r9, r10, fp, pc}
 4233              	.L993:
 4234 3480 DEF2FFEB 		bl	sdWaitForData
 4235 3484 000050E3 		cmp	r0, #0
 4236 3488 F9FFFF1A 		bne	.L987
 4237 348c B8329FE5 		ldr	r3, .L994+4
 4238 3490 4010D7E5 		ldrb	r1, [r7, #64]	@ zero_extendqisi2
 4239 3494 00E093E5 		ldr	lr, [r3]
 4240 3498 030051E3 		cmp	r1, #3
 4241 349c 03E68EE2 		add	lr, lr, #3145728
 4242 34a0 04C09EE5 		ldr	ip, [lr, #4]
 4243 34a4 8444A001 		lsleq	r4, r4, #9
 4244 34a8 FFC4CCE3 		bic	ip, ip, #-16777216
 4245 34ac FEC8CCE3 		bic	ip, ip, #16646144
 4246 34b0 01C88CE3 		orr	ip, ip, #65536
 4247 34b4 04C08EE5 		str	ip, [lr, #4]
 4248 34b8 04C09EE5 		ldr	ip, [lr, #4]
 4249 34bc 0410A0E1 		mov	r1, r4
 4250 34c0 7FCFCCE3 		bic	ip, ip, #508
 4251 34c4 03C0CCE3 		bic	ip, ip, #3
 4252 34c8 02CC8CE3 		orr	ip, ip, #512
 4253 34cc 7C029FE5 		ldr	r0, .L994+8
 4254 34d0 04C08EE5 		str	ip, [lr, #4]
 4255 34d4 C3F4FFEB 		bl	sdSendCommandP
 4256 34d8 FF0010E3 		tst	r0, #255
 4257 34dc E4FFFF1A 		bne	.L987
 4258 34e0 2000A0E3 		mov	r0, #32
 4259 34e4 05F3FFEB 		bl	sdWaitForInterrupt
 4260 34e8 000050E3 		cmp	r0, #0
 4261 34ec 8D00001A 		bne	.L990
 4262 34f0 C50FA0E3 		mov	r0, #788
 4263 34f4 58129FE5 		ldr	r1, .L994+12
 4264 34f8 4C329FE5 		ldr	r3, .L994+4
 4265 34fc 901A20E0 		mla	r0, r0, r10, r1
 4266 3500 00C093E5 		ldr	ip, [r3]
 4267 3504 103080E2 		add	r3, r0, #16
 4268 3508 0320A0E1 		mov	r2, r3
 4269 350c 0340A0E1 		mov	r4, r3
 4270 3510 03C68CE2 		add	ip, ip, #3145728
 4271 3514 210E80E2 		add	r0, r0, #528
 4272 3518 20C08CE2 		add	ip, ip, #32
 4273              	.L948:
 4274 351c 00309CE5 		ldr	r3, [ip]
 4275 3520 0430A4E5 		str	r3, [r4, #4]!
ARM GAS  C:\Users\ldebo\AppData\Local\Temp\ccBZnoYF.s 			page 76


 4276 3524 040050E1 		cmp	r0, r4
 4277 3528 FBFFFF1A 		bne	.L948
 4278 352c 020C58E3 		cmp	r8, #512
 4279 3530 8200009A 		bls	.L960
 4280 3534 C53FA0E3 		mov	r3, #788
 4281 3538 937A23E0 		mla	r3, r3, r10, r7
 4282 353c CD9E83E2 		add	r9, r3, #3280
 4283 3540 08A08DE5 		str	r10, [sp, #8]
 4284 3544 0CB08DE5 		str	fp, [sp, #12]
 4285 3548 0050A0E3 		mov	r5, #0
 4286 354c 09B0A0E1 		mov	fp, r9
 4287 3550 08A0A0E1 		mov	r10, r8
 4288 3554 0360A0E1 		mov	r6, r3
 4289 3558 0290A0E1 		mov	r9, r2
 4290              	.L954:
 4291 355c 0C109BE5 		ldr	r1, [fp, #12]
 4292 3560 580097E5 		ldr	r0, [r7, #88]
 4293 3564 018081E2 		add	r8, r1, #1
 4294 3568 000058E1 		cmp	r8, r0
 4295 356c 0C808BE5 		str	r8, [fp, #12]
 4296 3570 3800002A 		bcs	.L950
 4297 3574 00C0A0E3 		mov	ip, #0
 4298 3578 4000D7E5 		ldrb	r0, [r7, #64]	@ zero_extendqisi2
 4299 357c E0CC86E5 		str	ip, [r6, #3296]
 4300 3580 0C0050E1 		cmp	r0, ip
 4301 3584 BAFFFF0A 		beq	.L987
 4302 3588 08309BE5 		ldr	r3, [fp, #8]
 4303 358c 04308DE5 		str	r3, [sp, #4]
 4304 3590 9AF2FFEB 		bl	sdWaitForData
 4305 3594 000050E3 		cmp	r0, #0
 4306 3598 B5FFFF1A 		bne	.L987
 4307 359c 04309DE5 		ldr	r3, [sp, #4]
 4308 35a0 4000D7E5 		ldrb	r0, [r7, #64]	@ zero_extendqisi2
 4309 35a4 031088E0 		add	r1, r8, r3
 4310 35a8 9C319FE5 		ldr	r3, .L994+4
 4311 35ac 030050E3 		cmp	r0, #3
 4312 35b0 00C093E5 		ldr	ip, [r3]
 4313 35b4 8114A001 		lsleq	r1, r1, #9
 4314 35b8 03C68CE2 		add	ip, ip, #3145728
 4315 35bc 04E09CE5 		ldr	lr, [ip, #4]
 4316 35c0 88019FE5 		ldr	r0, .L994+8
 4317 35c4 FFE4CEE3 		bic	lr, lr, #-16777216
 4318 35c8 FEE8CEE3 		bic	lr, lr, #16646144
 4319 35cc 01E88EE3 		orr	lr, lr, #65536
 4320 35d0 04E08CE5 		str	lr, [ip, #4]
 4321 35d4 04E09CE5 		ldr	lr, [ip, #4]
 4322 35d8 7FEFCEE3 		bic	lr, lr, #508
 4323 35dc 03E0CEE3 		bic	lr, lr, #3
 4324 35e0 02EC8EE3 		orr	lr, lr, #512
 4325 35e4 04E08CE5 		str	lr, [ip, #4]
 4326 35e8 7EF4FFEB 		bl	sdSendCommandP
 4327 35ec FF0010E3 		tst	r0, #255
 4328 35f0 9FFFFF1A 		bne	.L987
 4329 35f4 2000A0E3 		mov	r0, #32
 4330 35f8 C0F2FFEB 		bl	sdWaitForInterrupt
 4331 35fc 000050E3 		cmp	r0, #0
 4332 3600 4800001A 		bne	.L990
ARM GAS  C:\Users\ldebo\AppData\Local\Temp\ccBZnoYF.s 			page 77


 4333 3604 0910A0E1 		mov	r1, r9
 4334 3608 3C319FE5 		ldr	r3, .L994+4
 4335 360c 00C093E5 		ldr	ip, [r3]
 4336 3610 03C68CE2 		add	ip, ip, #3145728
 4337 3614 20C08CE2 		add	ip, ip, #32
 4338              	.L953:
 4339 3618 00309CE5 		ldr	r3, [ip]
 4340 361c 0430A1E5 		str	r3, [r1, #4]!
 4341 3620 010054E1 		cmp	r4, r1
 4342 3624 FBFFFF1A 		bne	.L953
 4343              	.L958:
 4344 3628 02AC4AE2 		sub	r10, r10, #512
 4345 362c 020C5AE3 		cmp	r10, #512
 4346 3630 025C85E2 		add	r5, r5, #512
 4347 3634 C8FFFF8A 		bhi	.L954
 4348 3638 0A80A0E1 		mov	r8, r10
 4349 363c 0CB09DE5 		ldr	fp, [sp, #12]
 4350 3640 08A09DE5 		ldr	r10, [sp, #8]
 4351              	.L949:
 4352 3644 C51FA0E3 		mov	r1, #788
 4353 3648 917A23E0 		mla	r3, r1, r10, r7
 4354 364c 080085E0 		add	r0, r5, r8
 4355 3650 E08C83E5 		str	r8, [r3, #3296]
 4356 3654 71FFFFEA 		b	.L942
 4357              	.L950:
 4358 3658 04009BE5 		ldr	r0, [fp, #4]
 4359 365c B0F6FFEB 		bl	getSetNextCluster.constprop.6
 4360 3660 0010A0E3 		mov	r1, #0
 4361 3664 60C097E5 		ldr	ip, [r7, #96]
 4362 3668 58E097E5 		ldr	lr, [r7, #88]
 4363 366c 028040E2 		sub	r8, r0, #2
 4364 3670 9EC828E0 		mla	r8, lr, r8, ip
 4365 3674 40C0D7E5 		ldrb	ip, [r7, #64]	@ zero_extendqisi2
 4366 3678 04008BE5 		str	r0, [fp, #4]
 4367 367c 01005CE1 		cmp	ip, r1
 4368 3680 08808BE5 		str	r8, [fp, #8]
 4369 3684 0C108BE5 		str	r1, [fp, #12]
 4370 3688 E01C86E5 		str	r1, [r6, #3296]
 4371 368c 78FFFF0A 		beq	.L987
 4372 3690 5AF2FFEB 		bl	sdWaitForData
 4373 3694 000050E3 		cmp	r0, #0
 4374 3698 75FFFF1A 		bne	.L987
 4375 369c A8309FE5 		ldr	r3, .L994+4
 4376 36a0 4010D7E5 		ldrb	r1, [r7, #64]	@ zero_extendqisi2
 4377 36a4 00C093E5 		ldr	ip, [r3]
 4378 36a8 030051E3 		cmp	r1, #3
 4379 36ac 03C68CE2 		add	ip, ip, #3145728
 4380 36b0 04E09CE5 		ldr	lr, [ip, #4]
 4381 36b4 8884A001 		lsleq	r8, r8, #9
 4382 36b8 FFE4CEE3 		bic	lr, lr, #-16777216
 4383 36bc FEE8CEE3 		bic	lr, lr, #16646144
 4384 36c0 01E88EE3 		orr	lr, lr, #65536
 4385 36c4 04E08CE5 		str	lr, [ip, #4]
 4386 36c8 04E09CE5 		ldr	lr, [ip, #4]
 4387 36cc 0810A0E1 		mov	r1, r8
 4388 36d0 7FEFCEE3 		bic	lr, lr, #508
 4389 36d4 03E0CEE3 		bic	lr, lr, #3
ARM GAS  C:\Users\ldebo\AppData\Local\Temp\ccBZnoYF.s 			page 78


 4390 36d8 02EC8EE3 		orr	lr, lr, #512
 4391 36dc 6C009FE5 		ldr	r0, .L994+8
 4392 36e0 04E08CE5 		str	lr, [ip, #4]
 4393 36e4 3FF4FFEB 		bl	sdSendCommandP
 4394 36e8 FF0010E3 		tst	r0, #255
 4395 36ec 60FFFF1A 		bne	.L987
 4396 36f0 2000A0E3 		mov	r0, #32
 4397 36f4 81F2FFEB 		bl	sdWaitForInterrupt
 4398 36f8 000050E3 		cmp	r0, #0
 4399 36fc 0900001A 		bne	.L990
 4400 3700 0910A0E1 		mov	r1, r9
 4401 3704 40309FE5 		ldr	r3, .L994+4
 4402 3708 00C093E5 		ldr	ip, [r3]
 4403 370c 03C68CE2 		add	ip, ip, #3145728
 4404 3710 20C08CE2 		add	ip, ip, #32
 4405              	.L957:
 4406 3714 00309CE5 		ldr	r3, [ip]
 4407 3718 0430A1E5 		str	r3, [r1, #4]!
 4408 371c 040051E1 		cmp	r1, r4
 4409 3720 FBFFFF1A 		bne	.L957
 4410 3724 BFFFFFEA 		b	.L958
 4411              	.L990:
 4412 3728 003097E5 		ldr	r3, [r7]
 4413 372c 000053E3 		cmp	r3, #0
 4414 3730 4FFFFF0A 		beq	.L987
 4415 3734 1C009FE5 		ldr	r0, .L994+16
 4416 3738 33FF2FE1 		blx	r3
 4417 373c 4CFFFFEA 		b	.L987
 4418              	.L960:
 4419 3740 0050A0E3 		mov	r5, #0
 4420 3744 BEFFFFEA 		b	.L949
 4421              	.L995:
 4422              		.align	2
 4423              	.L994:
 4424 3748 00000000 		.word	.LANCHOR0
 4425 374c 00000000 		.word	RPi_IO_Base_Addr
 4426 3750 50010000 		.word	.LANCHOR1+336
 4427 3754 D00C0000 		.word	.LANCHOR0+3280
 4428 3758 88010000 		.word	.LC8
 4429              		.size	sdSetFilePointer, .-sdSetFilePointer
 4430              		.align	2
 4431              		.global	sdInitCard
 4432              		.syntax unified
 4433              		.arm
 4434              		.fpu vfp
 4435              		.type	sdInitCard, %function
 4436              	sdInitCard:
 4437              		@ args = 0, pretend = 0, frame = 0
 4438              		@ frame_needed = 0, uses_anonymous_args = 0
 4439 375c F04F2DE9 		push	{r4, r5, r6, r7, r8, r9, r10, fp, lr}
 4440 3760 EC539FE5 		ldr	r5, .L1070
 4441 3764 3CD04DE2 		sub	sp, sp, #60
 4442 3768 0060A0E1 		mov	r6, r0
 4443 376c 0270A0E1 		mov	r7, r2
 4444 3770 001085E5 		str	r1, [r5]
 4445 3774 03F6FFEB 		bl	sdResetCard
 4446 3778 004050E2 		subs	r4, r0, #0
ARM GAS  C:\Users\ldebo\AppData\Local\Temp\ccBZnoYF.s 			page 79


 4447 377c 0200000A 		beq	.L1064
 4448              	.L1034:
 4449 3780 0400A0E1 		mov	r0, r4
 4450 3784 3CD08DE2 		add	sp, sp, #60
 4451              		@ sp needed
 4452 3788 F08FBDE8 		pop	{r4, r5, r6, r7, r8, r9, r10, fp, pc}
 4453              	.L1064:
 4454 378c C4139FE5 		ldr	r1, .L1070+4
 4455 3790 C4039FE5 		ldr	r0, .L1070+8
 4456 3794 13F4FFEB 		bl	sdSendCommandP
 4457 3798 7040EFE6 		uxtb	r4, r0
 4458 379c 000054E3 		cmp	r4, #0
 4459 37a0 3B00000A 		beq	.L1065
 4460 37a4 030054E3 		cmp	r4, #3
 4461 37a8 F4FFFF0A 		beq	.L1034
 4462 37ac AC339FE5 		ldr	r3, .L1070+12
 4463 37b0 003093E5 		ldr	r3, [r3]
 4464 37b4 033683E2 		add	r3, r3, #3145728
 4465 37b8 243093E5 		ldr	r3, [r3, #36]
 4466 37bc 010013E3 		tst	r3, #1
 4467 37c0 2F00001A 		bne	.L1001
 4468              	.L1003:
 4469 37c4 98039FE5 		ldr	r0, .L1070+16
 4470 37c8 52F5FFEB 		bl	sdAppSendOpCond
 4471 37cc 004050E2 		subs	r4, r0, #0
 4472 37d0 0230A003 		moveq	r3, #2
 4473 37d4 4030C505 		strbeq	r3, [r5, #64]
 4474 37d8 E8FFFF1A 		bne	.L1034
 4475              	.L1000:
 4476 37dc 84839FE5 		ldr	r8, .L1070+20
 4477 37e0 84039FE5 		ldr	r0, .L1070+24
 4478 37e4 2C10D8E5 		ldrb	r1, [r8, #44]	@ zero_extendqisi2
 4479 37e8 011011E2 		ands	r1, r1, #1
 4480 37ec 44109515 		ldrne	r1, [r5, #68]
 4481 37f0 FCF3FFEB 		bl	sdSendCommandP
 4482 37f4 7040EFE6 		uxtb	r4, r0
 4483 37f8 000054E3 		cmp	r4, #0
 4484 37fc DFFFFF1A 		bne	.L1034
 4485 3800 4410D8E5 		ldrb	r1, [r8, #68]	@ zero_extendqisi2
 4486 3804 64039FE5 		ldr	r0, .L1070+28
 4487 3808 011011E2 		ands	r1, r1, #1
 4488 380c 44109515 		ldrne	r1, [r5, #68]
 4489 3810 F4F3FFEB 		bl	sdSendCommandP
 4490 3814 7040EFE6 		uxtb	r4, r0
 4491 3818 000054E3 		cmp	r4, #0
 4492 381c D7FFFF1A 		bne	.L1034
 4493 3820 BC30D8E5 		ldrb	r3, [r8, #188]	@ zero_extendqisi2
 4494 3824 48039FE5 		ldr	r0, .L1070+32
 4495 3828 011013E2 		ands	r1, r3, #1
 4496 382c 44109515 		ldrne	r1, [r5, #68]
 4497 3830 ECF3FFEB 		bl	sdSendCommandP
 4498 3834 7040EFE6 		uxtb	r4, r0
 4499 3838 000054E3 		cmp	r4, #0
 4500 383c CFFFFF1A 		bne	.L1034
 4501 3840 30039FE5 		ldr	r0, .L1070+36
 4502 3844 8AF2FFEB 		bl	sdSetClock
 4503 3848 004050E2 		subs	r4, r0, #0
ARM GAS  C:\Users\ldebo\AppData\Local\Temp\ccBZnoYF.s 			page 80


 4504 384c CBFFFF1A 		bne	.L1034
 4505 3850 8C30D8E5 		ldrb	r3, [r8, #140]	@ zero_extendqisi2
 4506 3854 20039FE5 		ldr	r0, .L1070+40
 4507 3858 011013E2 		ands	r1, r3, #1
 4508 385c 44109515 		ldrne	r1, [r5, #68]
 4509 3860 E0F3FFEB 		bl	sdSendCommandP
 4510 3864 7040EFE6 		uxtb	r4, r0
 4511 3868 000054E3 		cmp	r4, #0
 4512 386c C3FFFF1A 		bne	.L1034
 4513 3870 E2F1FFEB 		bl	sdWaitForData
 4514 3874 000050E3 		cmp	r0, #0
 4515 3878 0F00000A 		beq	.L1066
 4516              	.L1060:
 4517 387c 0240A0E3 		mov	r4, #2
 4518 3880 BEFFFFEA 		b	.L1034
 4519              	.L1001:
 4520 3884 BFF5FFEB 		bl	sdResetCard
 4521 3888 004050E2 		subs	r4, r0, #0
 4522 388c CCFFFF0A 		beq	.L1003
 4523 3890 BAFFFFEA 		b	.L1034
 4524              	.L1065:
 4525 3894 E4029FE5 		ldr	r0, .L1070+44
 4526 3898 1EF5FFEB 		bl	sdAppSendOpCond
 4527 389c 004050E2 		subs	r4, r0, #0
 4528 38a0 B6FFFF1A 		bne	.L1034
 4529 38a4 4B30D5E5 		ldrb	r3, [r5, #75]	@ zero_extendqisi2
 4530 38a8 400013E3 		tst	r3, #64
 4531 38ac 0430A013 		movne	r3, #4
 4532 38b0 0330A003 		moveq	r3, #3
 4533 38b4 4030C5E5 		strb	r3, [r5, #64]
 4534 38b8 C7FFFFEA 		b	.L1000
 4535              	.L1066:
 4536 38bc 9CA29FE5 		ldr	r10, .L1070+12
 4537 38c0 2600A0E3 		mov	r0, #38
 4538 38c4 00209AE5 		ldr	r2, [r10]
 4539 38c8 032682E2 		add	r2, r2, #3145728
 4540 38cc 043092E5 		ldr	r3, [r2, #4]
 4541 38d0 FF34C3E3 		bic	r3, r3, #-16777216
 4542 38d4 FE38C3E3 		bic	r3, r3, #16646144
 4543 38d8 013883E3 		orr	r3, r3, #65536
 4544 38dc 043082E5 		str	r3, [r2, #4]
 4545 38e0 043092E5 		ldr	r3, [r2, #4]
 4546 38e4 FD3FC3E3 		bic	r3, r3, #1012
 4547 38e8 0330C3E3 		bic	r3, r3, #3
 4548 38ec 083083E3 		orr	r3, r3, #8
 4549 38f0 043082E5 		str	r3, [r2, #4]
 4550 38f4 75F5FFEB 		bl	sdSendCommand
 4551 38f8 004050E2 		subs	r4, r0, #0
 4552 38fc 9FFFFF1A 		bne	.L1034
 4553 3900 2000A0E3 		mov	r0, #32
 4554 3904 FDF1FFEB 		bl	sdWaitForInterrupt
 4555 3908 004050E2 		subs	r4, r0, #0
 4556 390c 6700001A 		bne	.L1009
 4557 3910 0180A0E3 		mov	r8, #1
 4558 3914 0090A0E3 		mov	r9, #0
 4559 3918 64B29FE5 		ldr	fp, .L1070+48
 4560              	.L1010:
ARM GAS  C:\Users\ldebo\AppData\Local\Temp\ccBZnoYF.s 			page 81


 4561 391c 00309AE5 		ldr	r3, [r10]
 4562 3920 033683E2 		add	r3, r3, #3145728
 4563 3924 242093E5 		ldr	r2, [r3, #36]
 4564 3928 020C12E3 		tst	r2, #512
 4565 392c 4B00000A 		beq	.L1011
 4566 3930 203093E5 		ldr	r3, [r3, #32]
 4567 3934 000054E3 		cmp	r4, #0
 4568 3938 014084E2 		add	r4, r4, #1
 4569 393c 2C308505 		streq	r3, [r5, #44]
 4570 3940 30308515 		strne	r3, [r5, #48]
 4571 3944 010054E3 		cmp	r4, #1
 4572 3948 F3FFFFDA 		ble	.L1010
 4573 394c 020054E3 		cmp	r4, #2
 4574 3950 4700001A 		bne	.L1016
 4575 3954 2D30D5E5 		ldrb	r3, [r5, #45]	@ zero_extendqisi2
 4576 3958 0F3003E2 		and	r3, r3, #15
 4577 395c 040053E3 		cmp	r3, #4
 4578 3960 5800000A 		beq	.L1067
 4579              	.L1025:
 4580 3964 021CA0E3 		mov	r1, #512
 4581 3968 18029FE5 		ldr	r0, .L1070+52
 4582 396c 9DF3FFEB 		bl	sdSendCommandP
 4583 3970 7040EFE6 		uxtb	r4, r0
 4584 3974 000054E3 		cmp	r4, #0
 4585 3978 80FFFF1A 		bne	.L1034
 4586 397c 103095E5 		ldr	r3, [r5, #16]
 4587 3980 141095E5 		ldr	r1, [r5, #20]
 4588 3984 000056E3 		cmp	r6, #0
 4589 3988 2118A0E1 		lsr	r1, r1, #16
 4590 398c 031881E1 		orr	r1, r1, r3, lsl #16
 4591 3990 2A00000A 		beq	.L1023
 4592 3994 0A30D5E5 		ldrb	r3, [r5, #10]	@ zero_extendqisi2
 4593 3998 0900D5E5 		ldrb	r0, [r5, #9]	@ zero_extendqisi2
 4594 399c 0820D5E5 		ldrb	r2, [r5, #8]	@ zero_extendqisi2
 4595 39a0 0FE0D5E5 		ldrb	lr, [r5, #15]	@ zero_extendqisi2
 4596 39a4 0EC0D5E5 		ldrb	ip, [r5, #14]	@ zero_extendqisi2
 4597 39a8 0D90D5E5 		ldrb	r9, [r5, #13]	@ zero_extendqisi2
 4598 39ac 00008DE5 		str	r0, [sp]
 4599 39b0 0C80D5E5 		ldrb	r8, [r5, #12]	@ zero_extendqisi2
 4600 39b4 04208DE5 		str	r2, [sp, #4]
 4601 39b8 1320D5E5 		ldrb	r2, [r5, #19]	@ zero_extendqisi2
 4602 39bc 100095E5 		ldr	r0, [r5, #16]
 4603 39c0 2C108DE5 		str	r1, [sp, #44]
 4604 39c4 101095E5 		ldr	r1, [r5, #16]
 4605 39c8 08E08DE5 		str	lr, [sp, #8]
 4606 39cc 14E095E5 		ldr	lr, [r5, #20]
 4607 39d0 200AA0E1 		lsr	r0, r0, #20
 4608 39d4 0CC08DE5 		str	ip, [sp, #12]
 4609 39d8 14C095E5 		ldr	ip, [r5, #20]
 4610 39dc 0F0000E2 		and	r0, r0, #15
 4611 39e0 10908DE5 		str	r9, [sp, #16]
 4612 39e4 14808DE5 		str	r8, [sp, #20]
 4613 39e8 388095E5 		ldr	r8, [r5, #56]
 4614 39ec 2118A0E1 		lsr	r1, r1, #16
 4615 39f0 18208DE5 		str	r2, [sp, #24]
 4616 39f4 1C008DE5 		str	r0, [sp, #28]
 4617 39f8 3C0095E5 		ldr	r0, [r5, #60]
ARM GAS  C:\Users\ldebo\AppData\Local\Temp\ccBZnoYF.s 			page 82


 4618 39fc 0F1001E2 		and	r1, r1, #15
 4619 3a00 20108DE5 		str	r1, [sp, #32]
 4620 3a04 2CC2A0E1 		lsr	ip, ip, #4
 4621 3a08 282AA0E1 		lsr	r2, r8, #20
 4622 3a0c 7CC0EFE6 		uxtb	ip, ip
 4623 3a10 002682E1 		orr	r2, r2, r0, lsl #12
 4624 3a14 70119FE5 		ldr	r1, .L1070+56
 4625 3a18 4000D5E5 		ldrb	r0, [r5, #64]	@ zero_extendqisi2
 4626 3a1c B654D5E1 		ldrh	r5, [r5, #70]
 4627 3a20 0FE00EE2 		and	lr, lr, #15
 4628 3a24 7DCE8CE2 		add	ip, ip, #2000
 4629 3a28 001191E7 		ldr	r1, [r1, r0, lsl #2]
 4630 3a2c 24E08DE5 		str	lr, [sp, #36]
 4631 3a30 58019FE5 		ldr	r0, .L1070+60
 4632 3a34 28C08DE5 		str	ip, [sp, #40]
 4633 3a38 30508DE5 		str	r5, [sp, #48]
 4634 3a3c 36FF2FE1 		blx	r6
 4635              	.L1023:
 4636 3a40 000057E3 		cmp	r7, #0
 4637 3a44 4DFFFF0A 		beq	.L1034
 4638 3a48 0600A0E1 		mov	r0, r6
 4639 3a4c FEFFFFEB 		bl	LoadDrivePartition
 4640 3a50 000050E3 		cmp	r0, #0
 4641 3a54 0C40A003 		moveq	r4, #12
 4642 3a58 0040A013 		movne	r4, #0
 4643 3a5c 47FFFFEA 		b	.L1034
 4644              	.L1011:
 4645 3a60 0800A0E1 		mov	r0, r8
 4646 3a64 0910A0E1 		mov	r1, r9
 4647 3a68 FEFFFFEB 		bl	timer_wait
 4648 3a6c 01B05BE2 		subs	fp, fp, #1
 4649 3a70 A9FFFF1A 		bne	.L1010
 4650              	.L1016:
 4651 3a74 006095E5 		ldr	r6, [r5]
 4652 3a78 000056E3 		cmp	r6, #0
 4653 3a7c 7EFFFF0A 		beq	.L1060
 4654 3a80 00309AE5 		ldr	r3, [r10]
 4655 3a84 08019FE5 		ldr	r0, .L1070+64
 4656 3a88 033683E2 		add	r3, r3, #3145728
 4657 3a8c 241093E5 		ldr	r1, [r3, #36]
 4658 3a90 302093E5 		ldr	r2, [r3, #48]
 4659 3a94 103093E5 		ldr	r3, [r3, #16]
 4660 3a98 36FF2FE1 		blx	r6
 4661 3a9c 003095E5 		ldr	r3, [r5]
 4662 3aa0 0410A0E1 		mov	r1, r4
 4663 3aa4 EC009FE5 		ldr	r0, .L1070+68
 4664 3aa8 33FF2FE1 		blx	r3
 4665 3aac 72FFFFEA 		b	.L1060
 4666              	.L1009:
 4667 3ab0 003095E5 		ldr	r3, [r5]
 4668 3ab4 000053E3 		cmp	r3, #0
 4669 3ab8 30FFFF0A 		beq	.L1034
 4670 3abc D8009FE5 		ldr	r0, .L1070+72
 4671 3ac0 33FF2FE1 		blx	r3
 4672 3ac4 2DFFFFEA 		b	.L1034
 4673              	.L1067:
 4674 3ac8 448095E5 		ldr	r8, [r5, #68]
ARM GAS  C:\Users\ldebo\AppData\Local\Temp\ccBZnoYF.s 			page 83


 4675 3acc 001058E2 		subs	r1, r8, #0
 4676 3ad0 1A00000A 		beq	.L1068
 4677 3ad4 C4009FE5 		ldr	r0, .L1070+76
 4678 3ad8 42F3FFEB 		bl	sdSendCommandP
 4679 3adc 7040EFE6 		uxtb	r4, r0
 4680 3ae0 000054E3 		cmp	r4, #0
 4681 3ae4 25FFFF1A 		bne	.L1034
 4682 3ae8 4C3095E5 		ldr	r3, [r5, #76]
 4683 3aec 200013E3 		tst	r3, #32
 4684 3af0 1500000A 		beq	.L1069
 4685              	.L1021:
 4686 3af4 021088E3 		orr	r1, r8, #2
 4687 3af8 A4009FE5 		ldr	r0, .L1070+80
 4688 3afc 39F3FFEB 		bl	sdSendCommandP
 4689 3b00 7040EFE6 		uxtb	r4, r0
 4690 3b04 000054E3 		cmp	r4, #0
 4691 3b08 1CFFFF1A 		bne	.L1034
 4692 3b0c 443095E5 		ldr	r3, [r5, #68]
 4693 3b10 000053E3 		cmp	r3, #0
 4694 3b14 0300000A 		beq	.L1022
 4695 3b18 4C3095E5 		ldr	r3, [r5, #76]
 4696 3b1c 200013E3 		tst	r3, #32
 4697 3b20 0940A003 		moveq	r4, #9
 4698 3b24 15FFFF0A 		beq	.L1034
 4699              	.L1022:
 4700 3b28 00309AE5 		ldr	r3, [r10]
 4701 3b2c 033683E2 		add	r3, r3, #3145728
 4702 3b30 282093E5 		ldr	r2, [r3, #40]
 4703 3b34 022082E3 		orr	r2, r2, #2
 4704 3b38 282083E5 		str	r2, [r3, #40]
 4705 3b3c 88FFFFEA 		b	.L1025
 4706              	.L1068:
 4707 3b40 60009FE5 		ldr	r0, .L1070+84
 4708 3b44 27F3FFEB 		bl	sdSendCommandP
 4709 3b48 E9FFFFEA 		b	.L1021
 4710              	.L1069:
 4711 3b4c 0140A0E3 		mov	r4, #1
 4712 3b50 0AFFFFEA 		b	.L1034
 4713              	.L1071:
 4714              		.align	2
 4715              	.L1070:
 4716 3b54 00000000 		.word	.LANCHOR0
 4717 3b58 AA010000 		.word	426
 4718 3b5c 90000000 		.word	.LANCHOR1+144
 4719 3b60 00000000 		.word	RPi_IO_Base_Addr
 4720 3b64 0080FF00 		.word	16744448
 4721 3b68 00000000 		.word	.LANCHOR1
 4722 3b6c 18000000 		.word	.LANCHOR1+24
 4723 3b70 30000000 		.word	.LANCHOR1+48
 4724 3b74 A8000000 		.word	.LANCHOR1+168
 4725 3b78 40787D01 		.word	25000000
 4726 3b7c 78000000 		.word	.LANCHOR1+120
 4727 3b80 0080FF50 		.word	1358921728
 4728 3b84 A0860100 		.word	100000
 4729 3b88 38010000 		.word	.LANCHOR1+312
 4730 3b8c 00000000 		.word	.LANCHOR2
 4731 3b90 F0020000 		.word	.LC16
ARM GAS  C:\Users\ldebo\AppData\Local\Temp\ccBZnoYF.s 			page 84


 4732 3b94 A4020000 		.word	.LC14
 4733 3b98 C8020000 		.word	.LC15
 4734 3b9c 88010000 		.word	.LC8
 4735 3ba0 D0020000 		.word	.LANCHOR1+720
 4736 3ba4 00030000 		.word	.LANCHOR1+768
 4737 3ba8 B8020000 		.word	.LANCHOR1+696
 4738              		.size	sdInitCard, .-sdInitCard
 4739              		.align	2
 4740              		.global	sdCardCSD
 4741              		.syntax unified
 4742              		.arm
 4743              		.fpu vfp
 4744              		.type	sdCardCSD, %function
 4745              	sdCardCSD:
 4746              		@ args = 0, pretend = 0, frame = 0
 4747              		@ frame_needed = 0, uses_anonymous_args = 0
 4748              		@ link register save eliminated.
 4749 3bac 10309FE5 		ldr	r3, .L1075
 4750 3bb0 4000D3E5 		ldrb	r0, [r3, #64]	@ zero_extendqisi2
 4751 3bb4 000050E3 		cmp	r0, #0
 4752 3bb8 18008312 		addne	r0, r3, #24
 4753 3bbc 0000A003 		moveq	r0, #0
 4754 3bc0 1EFF2FE1 		bx	lr
 4755              	.L1076:
 4756              		.align	2
 4757              	.L1075:
 4758 3bc4 00000000 		.word	.LANCHOR0
 4759              		.size	sdCardCSD, .-sdCardCSD
 4760              		.align	2
 4761              		.global	sdGetFirstDataSector
 4762              		.syntax unified
 4763              		.arm
 4764              		.fpu vfp
 4765              		.type	sdGetFirstDataSector, %function
 4766              	sdGetFirstDataSector:
 4767              		@ args = 0, pretend = 0, frame = 0
 4768              		@ frame_needed = 0, uses_anonymous_args = 0
 4769              		@ link register save eliminated.
 4770 3bc8 04309FE5 		ldr	r3, .L1078
 4771 3bcc 600093E5 		ldr	r0, [r3, #96]
 4772 3bd0 1EFF2FE1 		bx	lr
 4773              	.L1079:
 4774              		.align	2
 4775              	.L1078:
 4776 3bd4 00000000 		.word	.LANCHOR0
 4777              		.size	sdGetFirstDataSector, .-sdGetFirstDataSector
 4778              		.global	LOG_ERROR
 4779              		.section	.rodata
 4780              		.align	2
 4781              		.set	.LANCHOR2,. + 0
 4782              		.type	SD_TYPE_NAME, %object
 4783              		.size	SD_TYPE_NAME, 20
 4784              	SD_TYPE_NAME:
 4785 0000 40030000 		.word	.LC17
 4786 0004 48030000 		.word	.LC18
 4787 0008 4C030000 		.word	.LC19
 4788 000c 54030000 		.word	.LC20
ARM GAS  C:\Users\ldebo\AppData\Local\Temp\ccBZnoYF.s 			page 85


 4789 0010 60030000 		.word	.LC21
 4790              		.data
 4791              		.align	2
 4792              		.set	.LANCHOR1,. + 0
 4793              		.type	sdCommandTable, %object
 4794              		.size	sdCommandTable, 936
 4795              	sdCommandTable:
 4796 0000 474F5F49 		.ascii	"GO_IDLE_STATE\000"
 4796      444C455F 
 4796      53544154 
 4796      4500
 4797 000e 0000     		.space	2
 4798 0010 0000     		.space	2
 4799 0012 00       		.byte	0
 4800 0013 00       		.byte	0
 4801 0014 00       		.byte	0
 4802 0015 00       		.space	1
 4803 0016 0000     		.short	0
 4804 0018 414C4C5F 		.ascii	"ALL_SEND_CID\000"
 4804      53454E44 
 4804      5F434944 
 4804      00
 4805 0025 000000   		.space	3
 4806 0028 0000     		.space	2
 4807 002a 01       		.byte	1
 4808 002b 02       		.byte	2
 4809 002c 00       		.byte	0
 4810 002d 00       		.space	1
 4811 002e 0000     		.short	0
 4812 0030 53454E44 		.ascii	"SEND_REL_ADDR\000"
 4812      5F52454C 
 4812      5F414444 
 4812      5200
 4813 003e 0000     		.space	2
 4814 0040 0000     		.space	2
 4815 0042 02       		.byte	2
 4816 0043 03       		.byte	3
 4817 0044 00       		.byte	0
 4818 0045 00       		.space	1
 4819 0046 0000     		.short	0
 4820 0048 5345545F 		.ascii	"SET_DSR\000"
 4820      44535200 
 4821 0050 00000000 		.space	8
 4821      00000000 
 4822 0058 0000     		.space	2
 4823 005a 00       		.byte	0
 4824 005b 04       		.byte	4
 4825 005c 00       		.byte	0
 4826 005d 00       		.space	1
 4827 005e 0000     		.short	0
 4828 0060 53574954 		.ascii	"SWITCH_FUNC\000"
 4828      43485F46 
 4828      554E4300 
 4829 006c 00000000 		.space	4
 4830 0070 0000     		.space	2
 4831 0072 02       		.byte	2
 4832 0073 06       		.byte	6
ARM GAS  C:\Users\ldebo\AppData\Local\Temp\ccBZnoYF.s 			page 86


 4833 0074 00       		.byte	0
 4834 0075 00       		.space	1
 4835 0076 0000     		.short	0
 4836 0078 43415244 		.ascii	"CARD_SELECT\000"
 4836      5F53454C 
 4836      45435400 
 4837 0084 00000000 		.space	4
 4838 0088 0000     		.space	2
 4839 008a 03       		.byte	3
 4840 008b 07       		.byte	7
 4841 008c 01       		.byte	1
 4842 008d 00       		.space	1
 4843 008e 0000     		.short	0
 4844 0090 53454E44 		.ascii	"SEND_IF_COND\000"
 4844      5F49465F 
 4844      434F4E44 
 4844      00
 4845 009d 000000   		.space	3
 4846 00a0 0000     		.space	2
 4847 00a2 02       		.byte	2
 4848 00a3 08       		.byte	8
 4849 00a4 00       		.byte	0
 4850 00a5 00       		.space	1
 4851 00a6 6400     		.short	100
 4852 00a8 53454E44 		.ascii	"SEND_CSD\000"
 4852      5F435344 
 4852      00
 4853 00b1 00000000 		.space	7
 4853      000000
 4854 00b8 0000     		.space	2
 4855 00ba 01       		.byte	1
 4856 00bb 09       		.byte	9
 4857 00bc 01       		.byte	1
 4858 00bd 00       		.space	1
 4859 00be 0000     		.short	0
 4860 00c0 53454E44 		.ascii	"SEND_CID\000"
 4860      5F434944 
 4860      00
 4861 00c9 00000000 		.space	7
 4861      000000
 4862 00d0 0000     		.space	2
 4863 00d2 01       		.byte	1
 4864 00d3 0A       		.byte	10
 4865 00d4 01       		.byte	1
 4866 00d5 00       		.space	1
 4867 00d6 0000     		.short	0
 4868 00d8 564F4C54 		.ascii	"VOLT_SWITCH\000"
 4868      5F535749 
 4868      54434800 
 4869 00e4 00000000 		.space	4
 4870 00e8 0000     		.space	2
 4871 00ea 02       		.byte	2
 4872 00eb 0B       		.byte	11
 4873 00ec 00       		.byte	0
 4874 00ed 00       		.space	1
 4875 00ee 0000     		.short	0
 4876 00f0 53544F50 		.ascii	"STOP_TRANS\000"
ARM GAS  C:\Users\ldebo\AppData\Local\Temp\ccBZnoYF.s 			page 87


 4876      5F545241 
 4876      4E5300
 4877 00fb 00000000 		.space	5
 4877      00
 4878 0100 0000     		.space	2
 4879 0102 03       		.byte	3
 4880 0103 0C       		.byte	12
 4881 0104 00       		.byte	0
 4882 0105 00       		.space	1
 4883 0106 0000     		.short	0
 4884 0108 53454E44 		.ascii	"SEND_STATUS\000"
 4884      5F535441 
 4884      54555300 
 4885 0114 00000000 		.space	4
 4886 0118 0000     		.space	2
 4887 011a 02       		.byte	2
 4888 011b 0D       		.byte	13
 4889 011c 01       		.byte	1
 4890 011d 00       		.space	1
 4891 011e 0000     		.short	0
 4892 0120 474F5F49 		.ascii	"GO_INACTIVE\000"
 4892      4E414354 
 4892      49564500 
 4893 012c 00000000 		.space	4
 4894 0130 0000     		.space	2
 4895 0132 00       		.byte	0
 4896 0133 0F       		.byte	15
 4897 0134 01       		.byte	1
 4898 0135 00       		.space	1
 4899 0136 0000     		.short	0
 4900 0138 5345545F 		.ascii	"SET_BLOCKLEN\000"
 4900      424C4F43 
 4900      4B4C454E 
 4900      00
 4901 0145 000000   		.space	3
 4902 0148 0000     		.space	2
 4903 014a 02       		.byte	2
 4904 014b 10       		.byte	16
 4905 014c 00       		.byte	0
 4906 014d 00       		.space	1
 4907 014e 0000     		.short	0
 4908 0150 52454144 		.ascii	"READ_SINGLE\000"
 4908      5F53494E 
 4908      474C4500 
 4909 015c 00000000 		.space	4
 4910 0160 10       		.byte	16
 4911 0161 00       		.space	1
 4912 0162 22       		.byte	34
 4913 0163 11       		.byte	17
 4914 0164 00       		.byte	0
 4915 0165 00       		.space	1
 4916 0166 0000     		.short	0
 4917 0168 52454144 		.ascii	"READ_MULTI\000"
 4917      5F4D554C 
 4917      544900
 4918 0173 00000000 		.space	5
 4918      00
ARM GAS  C:\Users\ldebo\AppData\Local\Temp\ccBZnoYF.s 			page 88


 4919 0178 32       		.byte	50
 4920 0179 00       		.space	1
 4921 017a 22       		.byte	34
 4922 017b 12       		.byte	18
 4923 017c 00       		.byte	0
 4924 017d 00       		.space	1
 4925 017e 0000     		.short	0
 4926 0180 53454E44 		.ascii	"SEND_TUNING\000"
 4926      5F54554E 
 4926      494E4700 
 4927 018c 00000000 		.space	4
 4928 0190 0000     		.space	2
 4929 0192 02       		.byte	2
 4930 0193 13       		.byte	19
 4931 0194 00       		.byte	0
 4932 0195 00       		.space	1
 4933 0196 0000     		.short	0
 4934 0198 53504545 		.ascii	"SPEED_CLASS\000"
 4934      445F434C 
 4934      41535300 
 4935 01a4 00000000 		.space	4
 4936 01a8 0000     		.space	2
 4937 01aa 03       		.byte	3
 4938 01ab 14       		.byte	20
 4939 01ac 00       		.byte	0
 4940 01ad 00       		.space	1
 4941 01ae 0000     		.short	0
 4942 01b0 5345545F 		.ascii	"SET_BLOCKCNT\000"
 4942      424C4F43 
 4942      4B434E54 
 4942      00
 4943 01bd 000000   		.space	3
 4944 01c0 0000     		.space	2
 4945 01c2 02       		.byte	2
 4946 01c3 17       		.byte	23
 4947 01c4 00       		.byte	0
 4948 01c5 00       		.space	1
 4949 01c6 0000     		.short	0
 4950 01c8 57524954 		.ascii	"WRITE_SINGLE\000"
 4950      455F5349 
 4950      4E474C45 
 4950      00
 4951 01d5 000000   		.space	3
 4952 01d8 0000     		.space	2
 4953 01da 22       		.byte	34
 4954 01db 18       		.byte	24
 4955 01dc 00       		.byte	0
 4956 01dd 00       		.space	1
 4957 01de 0000     		.short	0
 4958 01e0 57524954 		.ascii	"WRITE_MULTI\000"
 4958      455F4D55 
 4958      4C544900 
 4959 01ec 00000000 		.space	4
 4960 01f0 22       		.byte	34
 4961 01f1 00       		.space	1
 4962 01f2 22       		.byte	34
 4963 01f3 19       		.byte	25
ARM GAS  C:\Users\ldebo\AppData\Local\Temp\ccBZnoYF.s 			page 89


 4964 01f4 00       		.byte	0
 4965 01f5 00       		.space	1
 4966 01f6 0000     		.short	0
 4967 01f8 50524F47 		.ascii	"PROGRAM_CSD\000"
 4967      52414D5F 
 4967      43534400 
 4968 0204 00000000 		.space	4
 4969 0208 0000     		.space	2
 4970 020a 02       		.byte	2
 4971 020b 1B       		.byte	27
 4972 020c 00       		.byte	0
 4973 020d 00       		.space	1
 4974 020e 0000     		.short	0
 4975 0210 5345545F 		.ascii	"SET_WRITE_PR\000"
 4975      57524954 
 4975      455F5052 
 4975      00
 4976 021d 000000   		.space	3
 4977 0220 0000     		.space	2
 4978 0222 03       		.byte	3
 4979 0223 1C       		.byte	28
 4980 0224 00       		.byte	0
 4981 0225 00       		.space	1
 4982 0226 0000     		.short	0
 4983 0228 434C525F 		.ascii	"CLR_WRITE_PR\000"
 4983      57524954 
 4983      455F5052 
 4983      00
 4984 0235 000000   		.space	3
 4985 0238 0000     		.space	2
 4986 023a 03       		.byte	3
 4987 023b 1D       		.byte	29
 4988 023c 00       		.byte	0
 4989 023d 00       		.space	1
 4990 023e 0000     		.short	0
 4991 0240 534E445F 		.ascii	"SND_WRITE_PR\000"
 4991      57524954 
 4991      455F5052 
 4991      00
 4992 024d 000000   		.space	3
 4993 0250 0000     		.space	2
 4994 0252 02       		.byte	2
 4995 0253 1E       		.byte	30
 4996 0254 00       		.byte	0
 4997 0255 00       		.space	1
 4998 0256 0000     		.short	0
 4999 0258 45524153 		.ascii	"ERASE_WR_ST\000"
 4999      455F5752 
 4999      5F535400 
 5000 0264 00000000 		.space	4
 5001 0268 0000     		.space	2
 5002 026a 02       		.byte	2
 5003 026b 20       		.byte	32
 5004 026c 00       		.byte	0
 5005 026d 00       		.space	1
 5006 026e 0000     		.short	0
 5007 0270 45524153 		.ascii	"ERASE_WR_END\000"
ARM GAS  C:\Users\ldebo\AppData\Local\Temp\ccBZnoYF.s 			page 90


 5007      455F5752 
 5007      5F454E44 
 5007      00
 5008 027d 000000   		.space	3
 5009 0280 0000     		.space	2
 5010 0282 02       		.byte	2
 5011 0283 21       		.byte	33
 5012 0284 00       		.byte	0
 5013 0285 00       		.space	1
 5014 0286 0000     		.short	0
 5015 0288 45524153 		.ascii	"ERASE\000"
 5015      4500
 5016 028e 00000000 		.space	10
 5016      00000000 
 5016      0000
 5017 0298 0000     		.space	2
 5018 029a 03       		.byte	3
 5019 029b 26       		.byte	38
 5020 029c 00       		.byte	0
 5021 029d 00       		.space	1
 5022 029e 0000     		.short	0
 5023 02a0 4C4F434B 		.ascii	"LOCK_UNLOCK\000"
 5023      5F554E4C 
 5023      4F434B00 
 5024 02ac 00000000 		.space	4
 5025 02b0 0000     		.space	2
 5026 02b2 02       		.byte	2
 5027 02b3 2A       		.byte	42
 5028 02b4 00       		.byte	0
 5029 02b5 00       		.space	1
 5030 02b6 0000     		.short	0
 5031 02b8 4150505F 		.ascii	"APP_CMD\000"
 5031      434D4400 
 5032 02c0 00000000 		.space	8
 5032      00000000 
 5033 02c8 0000     		.space	2
 5034 02ca 00       		.byte	0
 5035 02cb 37       		.byte	55
 5036 02cc 00       		.byte	0
 5037 02cd 00       		.space	1
 5038 02ce 6400     		.short	100
 5039 02d0 4150505F 		.ascii	"APP_CMD\000"
 5039      434D4400 
 5040 02d8 00000000 		.space	8
 5040      00000000 
 5041 02e0 0000     		.space	2
 5042 02e2 02       		.byte	2
 5043 02e3 37       		.byte	55
 5044 02e4 01       		.byte	1
 5045 02e5 00       		.space	1
 5046 02e6 0000     		.short	0
 5047 02e8 47454E5F 		.ascii	"GEN_CMD\000"
 5047      434D4400 
 5048 02f0 00000000 		.space	8
 5048      00000000 
 5049 02f8 0000     		.space	2
 5050 02fa 02       		.byte	2
ARM GAS  C:\Users\ldebo\AppData\Local\Temp\ccBZnoYF.s 			page 91


 5051 02fb 38       		.byte	56
 5052 02fc 00       		.byte	0
 5053 02fd 00       		.space	1
 5054 02fe 0000     		.short	0
 5055 0300 5345545F 		.ascii	"SET_BUS_WIDTH\000"
 5055      4255535F 
 5055      57494454 
 5055      4800
 5056 030e 0000     		.space	2
 5057 0310 0000     		.space	2
 5058 0312 02       		.byte	2
 5059 0313 06       		.byte	6
 5060 0314 00       		.byte	0
 5061 0315 00       		.space	1
 5062 0316 0000     		.short	0
 5063 0318 53445F53 		.ascii	"SD_STATUS\000"
 5063      54415455 
 5063      5300
 5064 0322 00000000 		.space	6
 5064      0000
 5065 0328 0000     		.space	2
 5066 032a 02       		.byte	2
 5067 032b 0D       		.byte	13
 5068 032c 01       		.byte	1
 5069 032d 00       		.space	1
 5070 032e 0000     		.short	0
 5071 0330 53454E44 		.ascii	"SEND_NUM_WRBL\000"
 5071      5F4E554D 
 5071      5F575242 
 5071      4C00
 5072 033e 0000     		.space	2
 5073 0340 0000     		.space	2
 5074 0342 02       		.byte	2
 5075 0343 16       		.byte	22
 5076 0344 00       		.byte	0
 5077 0345 00       		.space	1
 5078 0346 0000     		.short	0
 5079 0348 53454E44 		.ascii	"SEND_NUM_ERS\000"
 5079      5F4E554D 
 5079      5F455253 
 5079      00
 5080 0355 000000   		.space	3
 5081 0358 0000     		.space	2
 5082 035a 02       		.byte	2
 5083 035b 17       		.byte	23
 5084 035c 00       		.byte	0
 5085 035d 00       		.space	1
 5086 035e 0000     		.short	0
 5087 0360 53445F53 		.ascii	"SD_SENDOPCOND\000"
 5087      454E444F 
 5087      50434F4E 
 5087      4400
 5088 036e 0000     		.space	2
 5089 0370 0000     		.space	2
 5090 0372 02       		.byte	2
 5091 0373 29       		.byte	41
 5092 0374 00       		.byte	0
ARM GAS  C:\Users\ldebo\AppData\Local\Temp\ccBZnoYF.s 			page 92


 5093 0375 00       		.space	1
 5094 0376 E803     		.short	1000
 5095 0378 5345545F 		.ascii	"SET_CLR_DET\000"
 5095      434C525F 
 5095      44455400 
 5096 0384 00000000 		.space	4
 5097 0388 0000     		.space	2
 5098 038a 02       		.byte	2
 5099 038b 2A       		.byte	42
 5100 038c 00       		.byte	0
 5101 038d 00       		.space	1
 5102 038e 0000     		.short	0
 5103 0390 53454E44 		.ascii	"SEND_SCR\000"
 5103      5F534352 
 5103      00
 5104 0399 00000000 		.space	7
 5104      000000
 5105 03a0 10       		.byte	16
 5106 03a1 00       		.space	1
 5107 03a2 22       		.byte	34
 5108 03a3 33       		.byte	51
 5109 03a4 00       		.byte	0
 5110 03a5 00       		.space	1
 5111 03a6 0000     		.short	0
 5112              		.bss
 5113              		.align	3
 5114              		.set	.LANCHOR0,. + 0
 5115              		.type	LOG_ERROR, %object
 5116              		.size	LOG_ERROR, 4
 5117              	LOG_ERROR:
 5118 0000 00000000 		.space	4
 5119 0004 00000000 		.space	4
 5120              		.type	sdCard, %object
 5121              		.size	sdCard, 120
 5122              	sdCard:
 5123 0008 00000000 		.space	120
 5123      00000000 
 5123      00000000 
 5123      00000000 
 5123      00000000 
 5124              		.type	intSearchRecord, %object
 5125              		.size	intSearchRecord, 3152
 5126              	intSearchRecord:
 5127 0080 00000000 		.space	3152
 5127      00000000 
 5127      00000000 
 5127      00000000 
 5127      00000000 
 5128              		.type	intFileIORecord, %object
 5129              		.size	intFileIORecord, 6304
 5130              	intFileIORecord:
 5131 0cd0 00000000 		.space	6304
 5131      00000000 
 5131      00000000 
 5131      00000000 
 5131      00000000 
 5132              		.section	.rodata.str1.4,"aMS",%progbits,1
ARM GAS  C:\Users\ldebo\AppData\Local\Temp\ccBZnoYF.s 			page 93


 5133              		.align	2
 5134              	.LC0:
 5135 0000 454D4D43 		.ascii	"EMMC: Wait for data aborted: %08x %08x %08x\012\000"
 5135      3A205761 
 5135      69742066 
 5135      6F722064 
 5135      61746120 
 5136 002d 000000   		.space	3
 5137              	.LC1:
 5138 0030 454D4D43 		.ascii	"EMMC: Wait for interrupt %08x timeout: %08x %08x %0"
 5138      3A205761 
 5138      69742066 
 5138      6F722069 
 5138      6E746572 
 5139 0063 38780A00 		.ascii	"8x\012\000"
 5140 0067 00       		.space	1
 5141              	.LC2:
 5142 0068 454D4D43 		.ascii	"EMMC: Error waiting for interrupt: %08x %08x %08x\012"
 5142      3A204572 
 5142      726F7220 
 5142      77616974 
 5142      696E6720 
 5143 009a 00       		.ascii	"\000"
 5144 009b 00       		.space	1
 5145              	.LC3:
 5146 009c 454D4D43 		.ascii	"EMMC: Set clock: timeout waiting for inhibit flags."
 5146      3A205365 
 5146      7420636C 
 5146      6F636B3A 
 5146      2074696D 
 5147 00cf 20537461 		.ascii	" Status %08x.\012\000"
 5147      74757320 
 5147      25303878 
 5147      2E0A00
 5148 00de 0000     		.space	2
 5149              	.LC4:
 5150 00e0 454D4D43 		.ascii	"EMMC: ERROR: failed to get stable clock.\012\000"
 5150      3A204552 
 5150      524F523A 
 5150      20666169 
 5150      6C656420 
 5151 010a 0000     		.space	2
 5152              	.LC5:
 5153 010c 454D4D43 		.ascii	"EMMC: Wait for command aborted: %08x %08x %08x\012\000"
 5153      3A205761 
 5153      69742066 
 5153      6F722063 
 5153      6F6D6D61 
 5154              	.LC6:
 5155 013c 454D4D43 		.ascii	"EMMC: ACMD41 returned non-timeout error %d\012\000"
 5155      3A204143 
 5155      4D443431 
 5155      20726574 
 5155      75726E65 
 5156              	.LC7:
 5157 0168 454D4D43 		.ascii	"EMMC: ERROR: failed to reset.\012\000"
 5157      3A204552 
ARM GAS  C:\Users\ldebo\AppData\Local\Temp\ccBZnoYF.s 			page 94


 5157      524F523A 
 5157      20666169 
 5157      6C656420 
 5158 0187 00       		.space	1
 5159              	.LC8:
 5160 0188 454D4D43 		.ascii	"EMMC: Timeout waiting for ready to read\012\000"
 5160      3A205469 
 5160      6D656F75 
 5160      74207761 
 5160      6974696E 
 5161 01b1 000000   		.space	3
 5162              	.LC9:
 5163 01b4 454D4D43 		.ascii	"EMMC: Timeout waiting for data done\012\000"
 5163      3A205469 
 5163      6D656F75 
 5163      74207761 
 5163      6974696E 
 5164 01d9 000000   		.space	3
 5165              	.LC10:
 5166 01dc 46415433 		.ascii	"FAT32 Volume Label: %s, ID: %08x\012\000"
 5166      3220566F 
 5166      6C756D65 
 5166      204C6162 
 5166      656C3A20 
 5167 01fe 0000     		.space	2
 5168              	.LC11:
 5169 0200 46415431 		.ascii	"FAT12/16 Volume Label: %s, Volume ID %08x\012\000"
 5169      322F3136 
 5169      20566F6C 
 5169      756D6520 
 5169      4C616265 
 5170 022b 00       		.space	1
 5171              	.LC12:
 5172 022c 46697273 		.ascii	"First Sector: %lu, Data Sectors: %lu, TotalClusters"
 5172      74205365 
 5172      63746F72 
 5172      3A20256C 
 5172      752C2044 
 5173 025f 3A20256C 		.ascii	": %lu, RootCluster: %lu\012\000"
 5173      752C2052 
 5173      6F6F7443 
 5173      6C757374 
 5173      65723A20 
 5174              	.LC13:
 5175 0278 454D4D43 		.ascii	"EMMC: Timeout waiting for erase: %08x %08x\012\000"
 5175      3A205469 
 5175      6D656F75 
 5175      74207761 
 5175      6974696E 
 5176              	.LC14:
 5177 02a4 454D4D43 		.ascii	"EMMC: SEND_SCR ERR: %08x %08x %08x\012\000"
 5177      3A205345 
 5177      4E445F53 
 5177      43522045 
 5177      52523A20 
 5178              	.LC15:
 5179 02c8 454D4D43 		.ascii	"EMMC: Reading SCR, only read %d words\012\000"
ARM GAS  C:\Users\ldebo\AppData\Local\Temp\ccBZnoYF.s 			page 95


 5179      3A205265 
 5179      6164696E 
 5179      67205343 
 5179      522C206F 
 5180 02ef 00       		.space	1
 5181              	.LC16:
 5182 02f0 454D4D43 		.ascii	"EMMC: SD Card %s %dMb mfr %d '%c%c:%c%c%c%c%c' r%d."
 5182      3A205344 
 5182      20436172 
 5182      64202573 
 5182      2025644D 
 5183 0323 25642025 		.ascii	"%d %d/%d, #%08x RCA %04x\012\000"
 5183      642F2564 
 5183      2C202325 
 5183      30387820 
 5183      52434120 
 5184 033d 000000   		.space	3
 5185              	.LC17:
 5186 0340 556E6B6E 		.ascii	"Unknown\000"
 5186      6F776E00 
 5187              	.LC18:
 5188 0348 4D4D4300 		.ascii	"MMC\000"
 5189              	.LC19:
 5190 034c 54797065 		.ascii	"Type 1\000"
 5190      203100
 5191 0353 00       		.space	1
 5192              	.LC20:
 5193 0354 54797065 		.ascii	"Type 2 SC\000"
 5193      20322053 
 5193      4300
 5194 035e 0000     		.space	2
 5195              	.LC21:
 5196 0360 54797065 		.ascii	"Type 2 HC\000"
 5196      20322048 
 5196      4300
 5197              		.ident	"GCC: (GNU Tools for ARM Embedded Processors 6-2017-q2-update) 6.3.1 20170620 (release) [AR
ARM GAS  C:\Users\ldebo\AppData\Local\Temp\ccBZnoYF.s 			page 96


DEFINED SYMBOLS
                            *ABS*:00000000 SDCard.c
C:\Users\ldebo\AppData\Local\Temp\ccBZnoYF.s:14     .text:00000000 $a
C:\Users\ldebo\AppData\Local\Temp\ccBZnoYF.s:19     .text:00000000 sdWaitForData
C:\Users\ldebo\AppData\Local\Temp\ccBZnoYF.s:89     .text:000000e8 $d
C:\Users\ldebo\AppData\Local\Temp\ccBZnoYF.s:96     .text:00000100 $a
C:\Users\ldebo\AppData\Local\Temp\ccBZnoYF.s:101    .text:00000100 sdWaitForInterrupt
C:\Users\ldebo\AppData\Local\Temp\ccBZnoYF.s:204    .text:00000258 $d
C:\Users\ldebo\AppData\Local\Temp\ccBZnoYF.s:213    .text:00000274 $a
C:\Users\ldebo\AppData\Local\Temp\ccBZnoYF.s:218    .text:00000274 sdSetClock
C:\Users\ldebo\AppData\Local\Temp\ccBZnoYF.s:407    .text:00000510 $d
C:\Users\ldebo\AppData\Local\Temp\ccBZnoYF.s:418    .text:00000538 $a
C:\Users\ldebo\AppData\Local\Temp\ccBZnoYF.s:423    .text:00000538 ReadLFNEntry
C:\Users\ldebo\AppData\Local\Temp\ccBZnoYF.s:501    .text:00000630 SetFindDataFromFATEntry.part.0
C:\Users\ldebo\AppData\Local\Temp\ccBZnoYF.s:622    .text:000007e8 sdSendCommandP
C:\Users\ldebo\AppData\Local\Temp\ccBZnoYF.s:786    .text:00000a30 $d
C:\Users\ldebo\AppData\Local\Temp\ccBZnoYF.s:796    .text:00000a54 $a
C:\Users\ldebo\AppData\Local\Temp\ccBZnoYF.s:982    .text:00000d18 sdAppSendOpCond
C:\Users\ldebo\AppData\Local\Temp\ccBZnoYF.s:1111   .text:00000eb8 $d
C:\Users\ldebo\AppData\Local\Temp\ccBZnoYF.s:1118   .text:00000ed0 $a
C:\Users\ldebo\AppData\Local\Temp\ccBZnoYF.s:1123   .text:00000ed0 sdSendCommand
C:\Users\ldebo\AppData\Local\Temp\ccBZnoYF.s:1174   .text:00000f78 $d
C:\Users\ldebo\AppData\Local\Temp\ccBZnoYF.s:1179   .text:00000f88 $a
C:\Users\ldebo\AppData\Local\Temp\ccBZnoYF.s:1184   .text:00000f88 sdResetCard
C:\Users\ldebo\AppData\Local\Temp\ccBZnoYF.s:1291   .text:00001108 $d
C:\Users\ldebo\AppData\Local\Temp\ccBZnoYF.s:1300   .text:00001124 $a
C:\Users\ldebo\AppData\Local\Temp\ccBZnoYF.s:1305   .text:00001124 getSetNextCluster.constprop.6
C:\Users\ldebo\AppData\Local\Temp\ccBZnoYF.s:1388   .text:0000123c $d
C:\Users\ldebo\AppData\Local\Temp\ccBZnoYF.s:1394   .text.unlikely:00000000 $a
C:\Users\ldebo\AppData\Local\Temp\ccBZnoYF.s:1399   .text.unlikely:00000000 sdTransferBlocks.constprop.7
C:\Users\ldebo\AppData\Local\Temp\ccBZnoYF.s:1524   .text.unlikely:000001bc $d
C:\Users\ldebo\AppData\Local\Temp\ccBZnoYF.s:1530   .text.unlikely:000001d0 $a
C:\Users\ldebo\AppData\Local\Temp\ccBZnoYF.s:1535   .text.unlikely:000001d0 LoadDrivePartition
C:\Users\ldebo\AppData\Local\Temp\ccBZnoYF.s:1669   .text.unlikely:000003a8 $d
C:\Users\ldebo\AppData\Local\Temp\ccBZnoYF.s:1676   .text:0000124c $a
C:\Users\ldebo\AppData\Local\Temp\ccBZnoYF.s:1682   .text:0000124c sdTransferBlocks
C:\Users\ldebo\AppData\Local\Temp\ccBZnoYF.s:1898   .text:0000153c $d
C:\Users\ldebo\AppData\Local\Temp\ccBZnoYF.s:1906   .text:00001558 $a
C:\Users\ldebo\AppData\Local\Temp\ccBZnoYF.s:1912   .text:00001558 sdClearBlocks
C:\Users\ldebo\AppData\Local\Temp\ccBZnoYF.s:2000   .text:00001684 $d
C:\Users\ldebo\AppData\Local\Temp\ccBZnoYF.s:2007   .text:0000169c $a
C:\Users\ldebo\AppData\Local\Temp\ccBZnoYF.s:2013   .text:0000169c getSetNextCluster
C:\Users\ldebo\AppData\Local\Temp\ccBZnoYF.s:2154   .text:00001894 $d
C:\Users\ldebo\AppData\Local\Temp\ccBZnoYF.s:2161   .text:000018ac $a
C:\Users\ldebo\AppData\Local\Temp\ccBZnoYF.s:2167   .text:000018ac WildcardMatch
C:\Users\ldebo\AppData\Local\Temp\ccBZnoYF.s:2288   .text:00001a34 LocateFATEntry
C:\Users\ldebo\AppData\Local\Temp\ccBZnoYF.s:2782   .text:00002124 $d
C:\Users\ldebo\AppData\Local\Temp\ccBZnoYF.s:2788   .text:00002138 $a
C:\Users\ldebo\AppData\Local\Temp\ccBZnoYF.s:2793   .text:00002138 LocateFATEntry.constprop.5
C:\Users\ldebo\AppData\Local\Temp\ccBZnoYF.s:3237   .text:00002774 $d
C:\Users\ldebo\AppData\Local\Temp\ccBZnoYF.s:3243   .text:00002788 $a
C:\Users\ldebo\AppData\Local\Temp\ccBZnoYF.s:3249   .text:00002788 sdFindFirstFile
C:\Users\ldebo\AppData\Local\Temp\ccBZnoYF.s:3500   .text:00002b14 $d
C:\Users\ldebo\AppData\Local\Temp\ccBZnoYF.s:3506   .text:00002b28 $a
C:\Users\ldebo\AppData\Local\Temp\ccBZnoYF.s:3512   .text:00002b28 sdFindNextFile
C:\Users\ldebo\AppData\Local\Temp\ccBZnoYF.s:3569   .text:00002be0 $d
C:\Users\ldebo\AppData\Local\Temp\ccBZnoYF.s:3571   .text:00002be4 $a
ARM GAS  C:\Users\ldebo\AppData\Local\Temp\ccBZnoYF.s 			page 97


C:\Users\ldebo\AppData\Local\Temp\ccBZnoYF.s:3577   .text:00002be4 sdFindClose
C:\Users\ldebo\AppData\Local\Temp\ccBZnoYF.s:3599   .text:00002c1c $d
C:\Users\ldebo\AppData\Local\Temp\ccBZnoYF.s:3601   .text:00002c20 $a
C:\Users\ldebo\AppData\Local\Temp\ccBZnoYF.s:3607   .text:00002c20 sdCreateFile
C:\Users\ldebo\AppData\Local\Temp\ccBZnoYF.s:3928   .text:000030b8 $d
C:\Users\ldebo\AppData\Local\Temp\ccBZnoYF.s:3934   .text:000030cc $a
C:\Users\ldebo\AppData\Local\Temp\ccBZnoYF.s:3940   .text:000030cc sdReadFile
C:\Users\ldebo\AppData\Local\Temp\ccBZnoYF.s:4146   .text:000033a0 $d
C:\Users\ldebo\AppData\Local\Temp\ccBZnoYF.s:4152   .text:000033b4 $a
C:\Users\ldebo\AppData\Local\Temp\ccBZnoYF.s:4158   .text:000033b4 sdCloseHandle
C:\Users\ldebo\AppData\Local\Temp\ccBZnoYF.s:4180   .text:000033ec $d
C:\Users\ldebo\AppData\Local\Temp\ccBZnoYF.s:4182   .text:000033f0 $a
C:\Users\ldebo\AppData\Local\Temp\ccBZnoYF.s:4188   .text:000033f0 sdSetFilePointer
C:\Users\ldebo\AppData\Local\Temp\ccBZnoYF.s:4424   .text:00003748 $d
C:\Users\ldebo\AppData\Local\Temp\ccBZnoYF.s:4430   .text:0000375c $a
C:\Users\ldebo\AppData\Local\Temp\ccBZnoYF.s:4436   .text:0000375c sdInitCard
C:\Users\ldebo\AppData\Local\Temp\ccBZnoYF.s:4716   .text:00003b54 $d
C:\Users\ldebo\AppData\Local\Temp\ccBZnoYF.s:4739   .text:00003bac $a
C:\Users\ldebo\AppData\Local\Temp\ccBZnoYF.s:4745   .text:00003bac sdCardCSD
C:\Users\ldebo\AppData\Local\Temp\ccBZnoYF.s:4758   .text:00003bc4 $d
C:\Users\ldebo\AppData\Local\Temp\ccBZnoYF.s:4760   .text:00003bc8 $a
C:\Users\ldebo\AppData\Local\Temp\ccBZnoYF.s:4766   .text:00003bc8 sdGetFirstDataSector
C:\Users\ldebo\AppData\Local\Temp\ccBZnoYF.s:4776   .text:00003bd4 $d
C:\Users\ldebo\AppData\Local\Temp\ccBZnoYF.s:5117   .bss:00000000 LOG_ERROR
C:\Users\ldebo\AppData\Local\Temp\ccBZnoYF.s:4780   .rodata:00000000 $d
C:\Users\ldebo\AppData\Local\Temp\ccBZnoYF.s:4784   .rodata:00000000 SD_TYPE_NAME
C:\Users\ldebo\AppData\Local\Temp\ccBZnoYF.s:4791   .data:00000000 $d
C:\Users\ldebo\AppData\Local\Temp\ccBZnoYF.s:4795   .data:00000000 sdCommandTable
C:\Users\ldebo\AppData\Local\Temp\ccBZnoYF.s:5113   .bss:00000000 $d
C:\Users\ldebo\AppData\Local\Temp\ccBZnoYF.s:5122   .bss:00000008 sdCard
C:\Users\ldebo\AppData\Local\Temp\ccBZnoYF.s:5126   .bss:00000080 intSearchRecord
C:\Users\ldebo\AppData\Local\Temp\ccBZnoYF.s:5130   .bss:00000cd0 intFileIORecord
C:\Users\ldebo\AppData\Local\Temp\ccBZnoYF.s:5133   .rodata.str1.4:00000000 $d

UNDEFINED SYMBOLS
timer_getTickCount
tick_difference
RPi_IO_Base_Addr
__aeabi_uidiv
timer_wait
wctob
__aeabi_uidivmod
__locale_ctype_ptr
strchr
